(dp1
S'output'
p2
S"<type 'exceptions.SyntaxError'> invalid syntax (default.py, line 85)"
p3
sS'layer'
p4
S'/home/gaurav/classwork/WEB_PROGRAMMING/web2py/applications/SONGS/controllers/default.py'
p5
sS'code'
p6
S'# -*- coding: utf-8 -*-\n# this file is released under public domain and you can use without limitations\n\n#########################################################################\n## This is a samples controller\n## - index is the default action of any application\n## - user is required for authentication and authorization\n## - download is for downloading files uploaded in the db (does streaming)\n## - call exposes all registered services (none by default)\n#########################################################################\n\n\ndef index():\n    """\n    example action using the internationalization operator T and flash\n    rendered by views/default/index.html or views/generic.html\n\n    if you need a simple wiki simple replace the two lines below with:\n    return auth.wiki()\n    """\n    response.flash = T("Welcome to web2py!")\n    return dict(message=T(\'Hello World\'))\n\n\ndef user():\n    """\n    exposes:\n    http://..../[app]/default/user/login\n    http://..../[app]/default/user/logout\n    http://..../[app]/default/user/register\n    http://..../[app]/default/user/profile\n    http://..../[app]/default/user/retrieve_password\n    http://..../[app]/default/user/change_password\n    use @auth.requires_login()\n        @auth.requires_membership(\'group name\')\n        @auth.requires_permission(\'read\',\'table name\',record_id)\n    to decorate functions that need access control\n    """\n    return dict(form=auth())\n\n\ndef download():\n    """\n    allows downloading of uploaded files\n    http://..../[app]/default/download/[filename]\n    """\n    return response.download(request, db)\n\n\ndef call():\n    """\n    exposes services. for example:\n    http://..../[app]/default/call/jsonrpc\n    decorate with @services.jsonrpc the functions to expose\n    supports xml, json, xmlrpc, jsonrpc, amfrpc, rss, csv\n    """\n    return service()\n\n\n@auth.requires_signature()\ndef data():\n    """\n    http://..../[app]/default/data/tables\n    http://..../[app]/default/data/create/[table]\n    http://..../[app]/default/data/read/[table]/[id]\n    http://..../[app]/default/data/update/[table]/[id]\n    http://..../[app]/default/data/delete/[table]/[id]\n    http://..../[app]/default/data/select/[table]\n    http://..../[app]/default/data/search/[table]\n    but URLs must be signed, i.e. linked with\n      A(\'table\',_href=URL(\'data/tables\',user_signature=True))\n    or with the signed load operator\n      LOAD(\'default\',\'data.load\',args=\'tables\',ajax=True,user_signature=True)\n    """\n    return dict(form=crud())\n\ndef show_songs():\n     return dict(songs=db().select(db.songs.name,db.songs.duration))\n\ndef update_len2():\n     form=SQLFORM(db.songs,request.args[0])                   #  FOR ALL THE WEB2PY AUTOMATICALLY CREATES A DEFAULT WEB PAGE\n     \t\t\t\t\t\t\t      # AND WILL UPDATE IT FOR US\n     if form.accepts(request.vars,session):                   # THE SEND INFORMATION STORED IN REQUEST.VARS OF THAT SESSION\n\t  redirect(URL(\'show_songs\')           # THIS FUNCTION IS CALLED AT 2 TIME AND WHEN IT COMES BACK NO FORM IS RETURNED ASK....\n     elif form.errors:\n\t  response.flash=\'ERROR!!!\'\n     return dict(form=form)\t\t\t\t\t\t\t      #  IT WILL AUTOMATICALLY UPDATE\n\n\n\n\n\n\n\n\n\n\n\n\n\n\n\n\n\ndef update_len():\n     form=SQLFORM.factory(\n\t       db.Field(\'name\',db.songs,requires=IS_IN_DB(db,\'songs.id\',\'songs.name\'),required=True,label=\'Select Song\'),\n\t       db.Field(\'length\',\'double\'))\n     if form.accepts(request.vars,session):                   # THE SEND INFORMATION STORED IN REQUEST.VARS OF THAT SESSION\n\t  update_songs(request)           # THIS FUNCTION IS CALLED AT 2 TIME AND WHEN IT COMES BACK NO FORM IS RETURNED ASK....\n     elif form.errors:\n\t  response.flash=\'ERROR!!!\'\n     return dict(form=form)\n\n\n\ndef update_songs(request):\n     db(db.songs.id==request.post_vars[\'name\']).update(duration=request.post_vars[\'length\'])\n     redirect(URL(\'show_songs\'))\n\n\nresponse._vars=response._caller(update_len2)\n'
p7
sS'snapshot'
p8
(dp9
S'exception'
p10
(dp11
S'__getslice__'
p12
S"<method-wrapper '__getslice__' of exceptions.SyntaxError object>"
p13
sS'text'
p14
S"'     elif form.errors:\\n'"
p15
sS'__str__'
p16
S"<method-wrapper '__str__' of exceptions.SyntaxError object>"
p17
sS'__reduce__'
p18
S'<built-in method __reduce__ of exceptions.SyntaxError object>'
p19
sS'__dict__'
p20
S'{}'
p21
sS'__sizeof__'
p22
S'<built-in method __sizeof__ of exceptions.SyntaxError object>'
p23
sS'__init__'
p24
S"<method-wrapper '__init__' of exceptions.SyntaxError object>"
p25
sS'__setattr__'
p26
S"<method-wrapper '__setattr__' of exceptions.SyntaxError object>"
p27
sS'__reduce_ex__'
p28
S'<built-in method __reduce_ex__ of exceptions.SyntaxError object>'
p29
sS'__new__'
p30
S'<built-in method __new__ of type object>'
p31
sS'__format__'
p32
S'<built-in method __format__ of exceptions.SyntaxError object>'
p33
sS'__class__'
p34
S"<type 'exceptions.SyntaxError'>"
p35
sS'filename'
p36
S"'/home/gaurav/classwork/WEB_PROGRAMMING/web2py/applications/SONGS/controllers/default.py'"
p37
sS'lineno'
p38
S'85'
p39
sS'msg'
p40
S"'invalid syntax'"
p41
sS'__doc__'
p42
S"'Invalid syntax.'"
p43
sS'__getitem__'
p44
S"<method-wrapper '__getitem__' of exceptions.SyntaxError object>"
p45
sS'__setstate__'
p46
S'<built-in method __setstate__ of exceptions.SyntaxError object>'
p47
sS'__getattribute__'
p48
S"<method-wrapper '__getattribute__' of exceptions.SyntaxError object>"
p49
sS'print_file_and_line'
p50
S'None'
p51
sS'args'
p52
S"('invalid syntax', ('/home/gaurav/classwork/WEB_PROGRAMMING/web2py/applications/SONGS/controllers/default.py', 85, 9, '     elif form.errors:\\n'))"
p53
sS'__subclasshook__'
p54
S'<built-in method __subclasshook__ of type object>'
p55
sS'offset'
p56
S'9'
sS'__unicode__'
p57
S'<built-in method __unicode__ of exceptions.SyntaxError object>'
p58
sS'__delattr__'
p59
S"<method-wrapper '__delattr__' of exceptions.SyntaxError object>"
p60
sS'__repr__'
p61
S"<method-wrapper '__repr__' of exceptions.SyntaxError object>"
p62
sS'__hash__'
p63
S"<method-wrapper '__hash__' of exceptions.SyntaxError object>"
p64
ssS'evalue'
p65
S'invalid syntax (default.py, line 85)'
p66
sS'request'
p67
ccopy_reg
_reconstructor
p68
(cgluon.html
BEAUTIFY
p69
c__builtin__
object
p70
NtRp71
(dp72
S'attributes'
p73
(dp74
sS'components'
p75
(lp76
g68
(cgluon.html
TABLE
p77
g70
NtRp78
(dp79
g73
(dp80
S'level'
p81
I5
ssS'parent'
p82
Nsg75
(lp83
g68
(cgluon.html
TR
p84
g70
NtRp85
(dp86
g73
(dp87
sg82
g78
sg75
(lp88
g68
(cgluon.html
TD
p89
g70
NtRp90
(dp91
g73
(dp92
S'_style'
p93
S'font-weight:bold;vertical-align:top'
p94
ssg82
g85
sg75
(lp95
S'ajax'
p96
asbag68
(g89
g70
NtRp97
(dp98
g73
(dp99
S'_valign'
p100
S'top'
p101
ssg82
g85
sg75
(lp102
S':'
asbag68
(g89
g70
NtRp103
(dp104
g73
(dp105
sg82
g85
sg75
(lp106
g68
(g69
g70
NtRp107
(dp108
g73
(dp109
g81
I5
ssg82
g103
sg75
(lp110
S'False'
p111
asbasbasbag68
(g84
g70
NtRp112
(dp113
g73
(dp114
sg82
g78
sg75
(lp115
g68
(g89
g70
NtRp116
(dp117
g73
(dp118
g93
g94
ssg82
g112
sg75
(lp119
S'application'
p120
asbag68
(g89
g70
NtRp121
(dp122
g73
(dp123
g100
g101
ssg82
g112
sg75
(lp124
S':'
asbag68
(g89
g70
NtRp125
(dp126
g73
(dp127
sg82
g112
sg75
(lp128
g68
(g69
g70
NtRp129
(dp130
g73
(dp131
g81
I5
ssg82
g125
sg75
(lp132
S'SONGS'
p133
asbasbasbag68
(g84
g70
NtRp134
(dp135
g73
(dp136
sg82
g78
sg75
(lp137
g68
(g89
g70
NtRp138
(dp139
g73
(dp140
g93
g94
ssg82
g134
sg75
(lp141
g52
asbag68
(g89
g70
NtRp142
(dp143
g73
(dp144
g100
g101
ssg82
g134
sg75
(lp145
S':'
asbag68
(g89
g70
NtRp146
(dp147
g73
(dp148
sg82
g134
sg75
(lp149
g68
(g69
g70
NtRp150
(dp151
g73
(dp152
g81
I5
ssg82
g146
sg75
(lp153
g68
(g77
g70
NtRp154
(dp155
g73
(dp156
g81
I4
ssg82
Nsg75
(lp157
g68
(g84
g70
NtRp158
(dp159
g73
(dp160
sg82
g154
sg75
(lp161
g68
(g89
g70
NtRp162
(dp163
g73
(dp164
sg82
g158
sg75
(lp165
g68
(g69
g70
NtRp166
(dp167
g73
(dp168
g81
I4
ssg82
g162
sg75
(lp169
S'2'
asbasbasbasbasbasbasbag68
(g84
g70
NtRp170
(dp171
g73
(dp172
sg82
g78
sg75
(lp173
g68
(g89
g70
NtRp174
(dp175
g73
(dp176
g93
g94
ssg82
g170
sg75
(lp177
S'body'
p178
asbag68
(g89
g70
NtRp179
(dp180
g73
(dp181
g100
g101
ssg82
g170
sg75
(lp182
S':'
asbag68
(g89
g70
NtRp183
(dp184
g73
(dp185
sg82
g170
sg75
(lp186
g68
(g69
g70
NtRp187
(dp188
g73
(dp189
g81
I5
ssg82
g183
sg75
(lp190
S"<open file '<fdopen>', mode 'w+b' at 0xae383180>"
p191
asbasbasbag68
(g84
g70
NtRp192
(dp193
g73
(dp194
sg82
g78
sg75
(lp195
g68
(g89
g70
NtRp196
(dp197
g73
(dp198
g93
g94
ssg82
g192
sg75
(lp199
S'cid'
p200
asbag68
(g89
g70
NtRp201
(dp202
g73
(dp203
g100
g101
ssg82
g192
sg75
(lp204
S':'
asbag68
(g89
g70
NtRp205
(dp206
g73
(dp207
sg82
g192
sg75
(lp208
g68
(g69
g70
NtRp209
(dp210
g73
(dp211
g81
I5
ssg82
g205
sg75
(lp212
S'None'
p213
asbasbasbag68
(g84
g70
NtRp214
(dp215
g73
(dp216
sg82
g78
sg75
(lp217
g68
(g89
g70
NtRp218
(dp219
g73
(dp220
g93
g94
ssg82
g214
sg75
(lp221
S'client'
p222
asbag68
(g89
g70
NtRp223
(dp224
g73
(dp225
g100
g101
ssg82
g214
sg75
(lp226
S':'
asbag68
(g89
g70
NtRp227
(dp228
g73
(dp229
sg82
g214
sg75
(lp230
g68
(g69
g70
NtRp231
(dp232
g73
(dp233
g81
I5
ssg82
g227
sg75
(lp234
S'127.0.0.1'
p235
asbasbasbag68
(g84
g70
NtRp236
(dp237
g73
(dp238
sg82
g78
sg75
(lp239
g68
(g89
g70
NtRp240
(dp241
g73
(dp242
g93
g94
ssg82
g236
sg75
(lp243
S'controller'
p244
asbag68
(g89
g70
NtRp245
(dp246
g73
(dp247
g100
g101
ssg82
g236
sg75
(lp248
S':'
asbag68
(g89
g70
NtRp249
(dp250
g73
(dp251
sg82
g236
sg75
(lp252
g68
(g69
g70
NtRp253
(dp254
g73
(dp255
g81
I5
ssg82
g249
sg75
(lp256
S'default'
p257
asbasbasbag68
(g84
g70
NtRp258
(dp259
g73
(dp260
sg82
g78
sg75
(lp261
g68
(g89
g70
NtRp262
(dp263
g73
(dp264
g93
g94
ssg82
g258
sg75
(lp265
S'cookies'
p266
asbag68
(g89
g70
NtRp267
(dp268
g73
(dp269
g100
g101
ssg82
g258
sg75
(lp270
S':'
asbag68
(g89
g70
NtRp271
(dp272
g73
(dp273
sg82
g258
sg75
(lp274
g68
(g69
g70
NtRp275
(dp276
g73
(dp277
g81
I5
ssg82
g271
sg75
(lp278
g68
(g77
g70
NtRp279
(dp280
g73
(dp281
g81
I4
ssg82
Nsg75
(lp282
g68
(g84
g70
NtRp283
(dp284
g73
(dp285
sg82
g279
sg75
(lp286
g68
(g89
g70
NtRp287
(dp288
g73
(dp289
g93
g94
ssg82
g283
sg75
(lp290
S'session_id_admin'
p291
asbag68
(g89
g70
NtRp292
(dp293
g73
(dp294
g100
g101
ssg82
g283
sg75
(lp295
S':'
asbag68
(g89
g70
NtRp296
(dp297
g73
(dp298
sg82
g283
sg75
(lp299
g68
(g69
g70
NtRp300
(dp301
g73
(dp302
g81
I4
ssg82
g296
sg75
(lp303
S'127.0.0.1-1744135d-0957-4bad-84d1-bf2f9c456344'
p304
ag68
(g77
g70
NtRp305
(dp306
g73
(dp307
g81
I3
ssg82
Nsg75
(lp308
g68
(g84
g70
NtRp309
(dp310
g73
(dp311
sg82
g305
sg75
(lp312
g68
(g89
g70
NtRp313
(dp314
g73
(dp315
g93
g94
ssg82
g309
sg75
(lp316
S'comment'
p317
asbag68
(g89
g70
NtRp318
(dp319
g73
(dp320
g100
g101
ssg82
g309
sg75
(lp321
S':'
asbag68
(g89
g70
NtRp322
(dp323
g73
(dp324
sg82
g309
sg75
(lp325
g68
(g69
g70
NtRp326
(dp327
g73
(dp328
g81
I3
ssg82
g322
sg75
(lp329
S''
asbasbasbag68
(g84
g70
NtRp330
(dp331
g73
(dp332
sg82
g305
sg75
(lp333
g68
(g89
g70
NtRp334
(dp335
g73
(dp336
g93
g94
ssg82
g330
sg75
(lp337
S'domain'
p338
asbag68
(g89
g70
NtRp339
(dp340
g73
(dp341
g100
g101
ssg82
g330
sg75
(lp342
S':'
asbag68
(g89
g70
NtRp343
(dp344
g73
(dp345
sg82
g330
sg75
(lp346
g68
(g69
g70
NtRp347
(dp348
g73
(dp349
g81
I3
ssg82
g343
sg75
(lp350
S''
asbasbasbag68
(g84
g70
NtRp351
(dp352
g73
(dp353
sg82
g305
sg75
(lp354
g68
(g89
g70
NtRp355
(dp356
g73
(dp357
g93
g94
ssg82
g351
sg75
(lp358
S'expires'
p359
asbag68
(g89
g70
NtRp360
(dp361
g73
(dp362
g100
g101
ssg82
g351
sg75
(lp363
S':'
asbag68
(g89
g70
NtRp364
(dp365
g73
(dp366
sg82
g351
sg75
(lp367
g68
(g69
g70
NtRp368
(dp369
g73
(dp370
g81
I3
ssg82
g364
sg75
(lp371
S''
asbasbasbag68
(g84
g70
NtRp372
(dp373
g73
(dp374
sg82
g305
sg75
(lp375
g68
(g89
g70
NtRp376
(dp377
g73
(dp378
g93
g94
ssg82
g372
sg75
(lp379
S'httponly'
p380
asbag68
(g89
g70
NtRp381
(dp382
g73
(dp383
g100
g101
ssg82
g372
sg75
(lp384
S':'
asbag68
(g89
g70
NtRp385
(dp386
g73
(dp387
sg82
g372
sg75
(lp388
g68
(g69
g70
NtRp389
(dp390
g73
(dp391
g81
I3
ssg82
g385
sg75
(lp392
S''
asbasbasbag68
(g84
g70
NtRp393
(dp394
g73
(dp395
sg82
g305
sg75
(lp396
g68
(g89
g70
NtRp397
(dp398
g73
(dp399
g93
g94
ssg82
g393
sg75
(lp400
S'max-age'
p401
asbag68
(g89
g70
NtRp402
(dp403
g73
(dp404
g100
g101
ssg82
g393
sg75
(lp405
S':'
asbag68
(g89
g70
NtRp406
(dp407
g73
(dp408
sg82
g393
sg75
(lp409
g68
(g69
g70
NtRp410
(dp411
g73
(dp412
g81
I3
ssg82
g406
sg75
(lp413
S''
asbasbasbag68
(g84
g70
NtRp414
(dp415
g73
(dp416
sg82
g305
sg75
(lp417
g68
(g89
g70
NtRp418
(dp419
g73
(dp420
g93
g94
ssg82
g414
sg75
(lp421
S'path'
p422
asbag68
(g89
g70
NtRp423
(dp424
g73
(dp425
g100
g101
ssg82
g414
sg75
(lp426
S':'
asbag68
(g89
g70
NtRp427
(dp428
g73
(dp429
sg82
g414
sg75
(lp430
g68
(g69
g70
NtRp431
(dp432
g73
(dp433
g81
I3
ssg82
g427
sg75
(lp434
S''
asbasbasbag68
(g84
g70
NtRp435
(dp436
g73
(dp437
sg82
g305
sg75
(lp438
g68
(g89
g70
NtRp439
(dp440
g73
(dp441
g93
g94
ssg82
g435
sg75
(lp442
S'secure'
p443
asbag68
(g89
g70
NtRp444
(dp445
g73
(dp446
g100
g101
ssg82
g435
sg75
(lp447
S':'
asbag68
(g89
g70
NtRp448
(dp449
g73
(dp450
sg82
g435
sg75
(lp451
g68
(g69
g70
NtRp452
(dp453
g73
(dp454
g81
I3
ssg82
g448
sg75
(lp455
S''
asbasbasbag68
(g84
g70
NtRp456
(dp457
g73
(dp458
sg82
g305
sg75
(lp459
g68
(g89
g70
NtRp460
(dp461
g73
(dp462
g93
g94
ssg82
g456
sg75
(lp463
S'version'
p464
asbag68
(g89
g70
NtRp465
(dp466
g73
(dp467
g100
g101
ssg82
g456
sg75
(lp468
S':'
asbag68
(g89
g70
NtRp469
(dp470
g73
(dp471
sg82
g456
sg75
(lp472
g68
(g69
g70
NtRp473
(dp474
g73
(dp475
g81
I3
ssg82
g469
sg75
(lp476
S''
asbasbasbasbasbasbasbag68
(g84
g70
NtRp477
(dp478
g73
(dp479
sg82
g279
sg75
(lp480
g68
(g89
g70
NtRp481
(dp482
g73
(dp483
g93
g94
ssg82
g477
sg75
(lp484
S'session_id_gaurav'
p485
asbag68
(g89
g70
NtRp486
(dp487
g73
(dp488
g100
g101
ssg82
g477
sg75
(lp489
S':'
asbag68
(g89
g70
NtRp490
(dp491
g73
(dp492
sg82
g477
sg75
(lp493
g68
(g69
g70
NtRp494
(dp495
g73
(dp496
g81
I4
ssg82
g490
sg75
(lp497
S'127.0.0.1-3ad6d46d-421c-4318-84ca-ddb0617d4d4d'
p498
ag68
(g77
g70
NtRp499
(dp500
g73
(dp501
g81
I3
ssg82
Nsg75
(lp502
g68
(g84
g70
NtRp503
(dp504
g73
(dp505
sg82
g499
sg75
(lp506
g68
(g89
g70
NtRp507
(dp508
g73
(dp509
g93
g94
ssg82
g503
sg75
(lp510
g317
asbag68
(g89
g70
NtRp511
(dp512
g73
(dp513
g100
g101
ssg82
g503
sg75
(lp514
S':'
asbag68
(g89
g70
NtRp515
(dp516
g73
(dp517
sg82
g503
sg75
(lp518
g68
(g69
g70
NtRp519
(dp520
g73
(dp521
g81
I3
ssg82
g515
sg75
(lp522
S''
asbasbasbag68
(g84
g70
NtRp523
(dp524
g73
(dp525
sg82
g499
sg75
(lp526
g68
(g89
g70
NtRp527
(dp528
g73
(dp529
g93
g94
ssg82
g523
sg75
(lp530
g338
asbag68
(g89
g70
NtRp531
(dp532
g73
(dp533
g100
g101
ssg82
g523
sg75
(lp534
S':'
asbag68
(g89
g70
NtRp535
(dp536
g73
(dp537
sg82
g523
sg75
(lp538
g68
(g69
g70
NtRp539
(dp540
g73
(dp541
g81
I3
ssg82
g535
sg75
(lp542
S''
asbasbasbag68
(g84
g70
NtRp543
(dp544
g73
(dp545
sg82
g499
sg75
(lp546
g68
(g89
g70
NtRp547
(dp548
g73
(dp549
g93
g94
ssg82
g543
sg75
(lp550
g359
asbag68
(g89
g70
NtRp551
(dp552
g73
(dp553
g100
g101
ssg82
g543
sg75
(lp554
S':'
asbag68
(g89
g70
NtRp555
(dp556
g73
(dp557
sg82
g543
sg75
(lp558
g68
(g69
g70
NtRp559
(dp560
g73
(dp561
g81
I3
ssg82
g555
sg75
(lp562
S''
asbasbasbag68
(g84
g70
NtRp563
(dp564
g73
(dp565
sg82
g499
sg75
(lp566
g68
(g89
g70
NtRp567
(dp568
g73
(dp569
g93
g94
ssg82
g563
sg75
(lp570
g380
asbag68
(g89
g70
NtRp571
(dp572
g73
(dp573
g100
g101
ssg82
g563
sg75
(lp574
S':'
asbag68
(g89
g70
NtRp575
(dp576
g73
(dp577
sg82
g563
sg75
(lp578
g68
(g69
g70
NtRp579
(dp580
g73
(dp581
g81
I3
ssg82
g575
sg75
(lp582
S''
asbasbasbag68
(g84
g70
NtRp583
(dp584
g73
(dp585
sg82
g499
sg75
(lp586
g68
(g89
g70
NtRp587
(dp588
g73
(dp589
g93
g94
ssg82
g583
sg75
(lp590
g401
asbag68
(g89
g70
NtRp591
(dp592
g73
(dp593
g100
g101
ssg82
g583
sg75
(lp594
S':'
asbag68
(g89
g70
NtRp595
(dp596
g73
(dp597
sg82
g583
sg75
(lp598
g68
(g69
g70
NtRp599
(dp600
g73
(dp601
g81
I3
ssg82
g595
sg75
(lp602
S''
asbasbasbag68
(g84
g70
NtRp603
(dp604
g73
(dp605
sg82
g499
sg75
(lp606
g68
(g89
g70
NtRp607
(dp608
g73
(dp609
g93
g94
ssg82
g603
sg75
(lp610
g422
asbag68
(g89
g70
NtRp611
(dp612
g73
(dp613
g100
g101
ssg82
g603
sg75
(lp614
S':'
asbag68
(g89
g70
NtRp615
(dp616
g73
(dp617
sg82
g603
sg75
(lp618
g68
(g69
g70
NtRp619
(dp620
g73
(dp621
g81
I3
ssg82
g615
sg75
(lp622
S''
asbasbasbag68
(g84
g70
NtRp623
(dp624
g73
(dp625
sg82
g499
sg75
(lp626
g68
(g89
g70
NtRp627
(dp628
g73
(dp629
g93
g94
ssg82
g623
sg75
(lp630
g443
asbag68
(g89
g70
NtRp631
(dp632
g73
(dp633
g100
g101
ssg82
g623
sg75
(lp634
S':'
asbag68
(g89
g70
NtRp635
(dp636
g73
(dp637
sg82
g623
sg75
(lp638
g68
(g69
g70
NtRp639
(dp640
g73
(dp641
g81
I3
ssg82
g635
sg75
(lp642
S''
asbasbasbag68
(g84
g70
NtRp643
(dp644
g73
(dp645
sg82
g499
sg75
(lp646
g68
(g89
g70
NtRp647
(dp648
g73
(dp649
g93
g94
ssg82
g643
sg75
(lp650
g464
asbag68
(g89
g70
NtRp651
(dp652
g73
(dp653
g100
g101
ssg82
g643
sg75
(lp654
S':'
asbag68
(g89
g70
NtRp655
(dp656
g73
(dp657
sg82
g643
sg75
(lp658
g68
(g69
g70
NtRp659
(dp660
g73
(dp661
g81
I3
ssg82
g655
sg75
(lp662
S''
asbasbasbasbasbasbasbag68
(g84
g70
NtRp663
(dp664
g73
(dp665
sg82
g279
sg75
(lp666
g68
(g89
g70
NtRp667
(dp668
g73
(dp669
g93
g94
ssg82
g663
sg75
(lp670
S'session_id_songs'
p671
asbag68
(g89
g70
NtRp672
(dp673
g73
(dp674
g100
g101
ssg82
g663
sg75
(lp675
S':'
asbag68
(g89
g70
NtRp676
(dp677
g73
(dp678
sg82
g663
sg75
(lp679
g68
(g69
g70
NtRp680
(dp681
g73
(dp682
g81
I4
ssg82
g676
sg75
(lp683
S'127.0.0.1-90798589-bfb5-4a98-8844-59e16717a241'
p684
ag68
(g77
g70
NtRp685
(dp686
g73
(dp687
g81
I3
ssg82
Nsg75
(lp688
g68
(g84
g70
NtRp689
(dp690
g73
(dp691
sg82
g685
sg75
(lp692
g68
(g89
g70
NtRp693
(dp694
g73
(dp695
g93
g94
ssg82
g689
sg75
(lp696
g317
asbag68
(g89
g70
NtRp697
(dp698
g73
(dp699
g100
g101
ssg82
g689
sg75
(lp700
S':'
asbag68
(g89
g70
NtRp701
(dp702
g73
(dp703
sg82
g689
sg75
(lp704
g68
(g69
g70
NtRp705
(dp706
g73
(dp707
g81
I3
ssg82
g701
sg75
(lp708
S''
asbasbasbag68
(g84
g70
NtRp709
(dp710
g73
(dp711
sg82
g685
sg75
(lp712
g68
(g89
g70
NtRp713
(dp714
g73
(dp715
g93
g94
ssg82
g709
sg75
(lp716
g338
asbag68
(g89
g70
NtRp717
(dp718
g73
(dp719
g100
g101
ssg82
g709
sg75
(lp720
S':'
asbag68
(g89
g70
NtRp721
(dp722
g73
(dp723
sg82
g709
sg75
(lp724
g68
(g69
g70
NtRp725
(dp726
g73
(dp727
g81
I3
ssg82
g721
sg75
(lp728
S''
asbasbasbag68
(g84
g70
NtRp729
(dp730
g73
(dp731
sg82
g685
sg75
(lp732
g68
(g89
g70
NtRp733
(dp734
g73
(dp735
g93
g94
ssg82
g729
sg75
(lp736
g359
asbag68
(g89
g70
NtRp737
(dp738
g73
(dp739
g100
g101
ssg82
g729
sg75
(lp740
S':'
asbag68
(g89
g70
NtRp741
(dp742
g73
(dp743
sg82
g729
sg75
(lp744
g68
(g69
g70
NtRp745
(dp746
g73
(dp747
g81
I3
ssg82
g741
sg75
(lp748
S''
asbasbasbag68
(g84
g70
NtRp749
(dp750
g73
(dp751
sg82
g685
sg75
(lp752
g68
(g89
g70
NtRp753
(dp754
g73
(dp755
g93
g94
ssg82
g749
sg75
(lp756
g380
asbag68
(g89
g70
NtRp757
(dp758
g73
(dp759
g100
g101
ssg82
g749
sg75
(lp760
S':'
asbag68
(g89
g70
NtRp761
(dp762
g73
(dp763
sg82
g749
sg75
(lp764
g68
(g69
g70
NtRp765
(dp766
g73
(dp767
g81
I3
ssg82
g761
sg75
(lp768
S''
asbasbasbag68
(g84
g70
NtRp769
(dp770
g73
(dp771
sg82
g685
sg75
(lp772
g68
(g89
g70
NtRp773
(dp774
g73
(dp775
g93
g94
ssg82
g769
sg75
(lp776
g401
asbag68
(g89
g70
NtRp777
(dp778
g73
(dp779
g100
g101
ssg82
g769
sg75
(lp780
S':'
asbag68
(g89
g70
NtRp781
(dp782
g73
(dp783
sg82
g769
sg75
(lp784
g68
(g69
g70
NtRp785
(dp786
g73
(dp787
g81
I3
ssg82
g781
sg75
(lp788
S''
asbasbasbag68
(g84
g70
NtRp789
(dp790
g73
(dp791
sg82
g685
sg75
(lp792
g68
(g89
g70
NtRp793
(dp794
g73
(dp795
g93
g94
ssg82
g789
sg75
(lp796
g422
asbag68
(g89
g70
NtRp797
(dp798
g73
(dp799
g100
g101
ssg82
g789
sg75
(lp800
S':'
asbag68
(g89
g70
NtRp801
(dp802
g73
(dp803
sg82
g789
sg75
(lp804
g68
(g69
g70
NtRp805
(dp806
g73
(dp807
g81
I3
ssg82
g801
sg75
(lp808
S''
asbasbasbag68
(g84
g70
NtRp809
(dp810
g73
(dp811
sg82
g685
sg75
(lp812
g68
(g89
g70
NtRp813
(dp814
g73
(dp815
g93
g94
ssg82
g809
sg75
(lp816
g443
asbag68
(g89
g70
NtRp817
(dp818
g73
(dp819
g100
g101
ssg82
g809
sg75
(lp820
S':'
asbag68
(g89
g70
NtRp821
(dp822
g73
(dp823
sg82
g809
sg75
(lp824
g68
(g69
g70
NtRp825
(dp826
g73
(dp827
g81
I3
ssg82
g821
sg75
(lp828
S''
asbasbasbag68
(g84
g70
NtRp829
(dp830
g73
(dp831
sg82
g685
sg75
(lp832
g68
(g89
g70
NtRp833
(dp834
g73
(dp835
g93
g94
ssg82
g829
sg75
(lp836
g464
asbag68
(g89
g70
NtRp837
(dp838
g73
(dp839
g100
g101
ssg82
g829
sg75
(lp840
S':'
asbag68
(g89
g70
NtRp841
(dp842
g73
(dp843
sg82
g829
sg75
(lp844
g68
(g69
g70
NtRp845
(dp846
g73
(dp847
g81
I3
ssg82
g841
sg75
(lp848
S''
asbasbasbasbasbasbasbag68
(g84
g70
NtRp849
(dp850
g73
(dp851
sg82
g279
sg75
(lp852
g68
(g89
g70
NtRp853
(dp854
g73
(dp855
g93
g94
ssg82
g849
sg75
(lp856
S'session_id_welcome'
p857
asbag68
(g89
g70
NtRp858
(dp859
g73
(dp860
g100
g101
ssg82
g849
sg75
(lp861
S':'
asbag68
(g89
g70
NtRp862
(dp863
g73
(dp864
sg82
g849
sg75
(lp865
g68
(g69
g70
NtRp866
(dp867
g73
(dp868
g81
I4
ssg82
g862
sg75
(lp869
S'127.0.0.1-72618583-00db-41b4-b6be-dd2f723b181a'
p870
ag68
(g77
g70
NtRp871
(dp872
g73
(dp873
g81
I3
ssg82
Nsg75
(lp874
g68
(g84
g70
NtRp875
(dp876
g73
(dp877
sg82
g871
sg75
(lp878
g68
(g89
g70
NtRp879
(dp880
g73
(dp881
g93
g94
ssg82
g875
sg75
(lp882
g317
asbag68
(g89
g70
NtRp883
(dp884
g73
(dp885
g100
g101
ssg82
g875
sg75
(lp886
S':'
asbag68
(g89
g70
NtRp887
(dp888
g73
(dp889
sg82
g875
sg75
(lp890
g68
(g69
g70
NtRp891
(dp892
g73
(dp893
g81
I3
ssg82
g887
sg75
(lp894
S''
asbasbasbag68
(g84
g70
NtRp895
(dp896
g73
(dp897
sg82
g871
sg75
(lp898
g68
(g89
g70
NtRp899
(dp900
g73
(dp901
g93
g94
ssg82
g895
sg75
(lp902
g338
asbag68
(g89
g70
NtRp903
(dp904
g73
(dp905
g100
g101
ssg82
g895
sg75
(lp906
S':'
asbag68
(g89
g70
NtRp907
(dp908
g73
(dp909
sg82
g895
sg75
(lp910
g68
(g69
g70
NtRp911
(dp912
g73
(dp913
g81
I3
ssg82
g907
sg75
(lp914
S''
asbasbasbag68
(g84
g70
NtRp915
(dp916
g73
(dp917
sg82
g871
sg75
(lp918
g68
(g89
g70
NtRp919
(dp920
g73
(dp921
g93
g94
ssg82
g915
sg75
(lp922
g359
asbag68
(g89
g70
NtRp923
(dp924
g73
(dp925
g100
g101
ssg82
g915
sg75
(lp926
S':'
asbag68
(g89
g70
NtRp927
(dp928
g73
(dp929
sg82
g915
sg75
(lp930
g68
(g69
g70
NtRp931
(dp932
g73
(dp933
g81
I3
ssg82
g927
sg75
(lp934
S''
asbasbasbag68
(g84
g70
NtRp935
(dp936
g73
(dp937
sg82
g871
sg75
(lp938
g68
(g89
g70
NtRp939
(dp940
g73
(dp941
g93
g94
ssg82
g935
sg75
(lp942
g380
asbag68
(g89
g70
NtRp943
(dp944
g73
(dp945
g100
g101
ssg82
g935
sg75
(lp946
S':'
asbag68
(g89
g70
NtRp947
(dp948
g73
(dp949
sg82
g935
sg75
(lp950
g68
(g69
g70
NtRp951
(dp952
g73
(dp953
g81
I3
ssg82
g947
sg75
(lp954
S''
asbasbasbag68
(g84
g70
NtRp955
(dp956
g73
(dp957
sg82
g871
sg75
(lp958
g68
(g89
g70
NtRp959
(dp960
g73
(dp961
g93
g94
ssg82
g955
sg75
(lp962
g401
asbag68
(g89
g70
NtRp963
(dp964
g73
(dp965
g100
g101
ssg82
g955
sg75
(lp966
S':'
asbag68
(g89
g70
NtRp967
(dp968
g73
(dp969
sg82
g955
sg75
(lp970
g68
(g69
g70
NtRp971
(dp972
g73
(dp973
g81
I3
ssg82
g967
sg75
(lp974
S''
asbasbasbag68
(g84
g70
NtRp975
(dp976
g73
(dp977
sg82
g871
sg75
(lp978
g68
(g89
g70
NtRp979
(dp980
g73
(dp981
g93
g94
ssg82
g975
sg75
(lp982
g422
asbag68
(g89
g70
NtRp983
(dp984
g73
(dp985
g100
g101
ssg82
g975
sg75
(lp986
S':'
asbag68
(g89
g70
NtRp987
(dp988
g73
(dp989
sg82
g975
sg75
(lp990
g68
(g69
g70
NtRp991
(dp992
g73
(dp993
g81
I3
ssg82
g987
sg75
(lp994
S''
asbasbasbag68
(g84
g70
NtRp995
(dp996
g73
(dp997
sg82
g871
sg75
(lp998
g68
(g89
g70
NtRp999
(dp1000
g73
(dp1001
g93
g94
ssg82
g995
sg75
(lp1002
g443
asbag68
(g89
g70
NtRp1003
(dp1004
g73
(dp1005
g100
g101
ssg82
g995
sg75
(lp1006
S':'
asbag68
(g89
g70
NtRp1007
(dp1008
g73
(dp1009
sg82
g995
sg75
(lp1010
g68
(g69
g70
NtRp1011
(dp1012
g73
(dp1013
g81
I3
ssg82
g1007
sg75
(lp1014
S''
asbasbasbag68
(g84
g70
NtRp1015
(dp1016
g73
(dp1017
sg82
g871
sg75
(lp1018
g68
(g89
g70
NtRp1019
(dp1020
g73
(dp1021
g93
g94
ssg82
g1015
sg75
(lp1022
g464
asbag68
(g89
g70
NtRp1023
(dp1024
g73
(dp1025
g100
g101
ssg82
g1015
sg75
(lp1026
S':'
asbag68
(g89
g70
NtRp1027
(dp1028
g73
(dp1029
sg82
g1015
sg75
(lp1030
g68
(g69
g70
NtRp1031
(dp1032
g73
(dp1033
g81
I3
ssg82
g1027
sg75
(lp1034
S''
asbasbasbasbasbasbasbasbasbasbasbag68
(g84
g70
NtRp1035
(dp1036
g73
(dp1037
sg82
g78
sg75
(lp1038
g68
(g89
g70
NtRp1039
(dp1040
g73
(dp1041
g93
g94
ssg82
g1035
sg75
(lp1042
S'env'
p1043
asbag68
(g89
g70
NtRp1044
(dp1045
g73
(dp1046
g100
g101
ssg82
g1035
sg75
(lp1047
S':'
asbag68
(g89
g70
NtRp1048
(dp1049
g73
(dp1050
sg82
g1035
sg75
(lp1051
g68
(g69
g70
NtRp1052
(dp1053
g73
(dp1054
g81
I5
ssg82
g1048
sg75
(lp1055
g68
(g77
g70
NtRp1056
(dp1057
g73
(dp1058
g81
I4
ssg82
Nsg75
(lp1059
g68
(g84
g70
NtRp1060
(dp1061
g73
(dp1062
sg82
g1056
sg75
(lp1063
g68
(g89
g70
NtRp1064
(dp1065
g73
(dp1066
g93
g94
ssg82
g1060
sg75
(lp1067
S'app_folders'
p1068
asbag68
(g89
g70
NtRp1069
(dp1070
g73
(dp1071
g100
g101
ssg82
g1060
sg75
(lp1072
S':'
asbag68
(g89
g70
NtRp1073
(dp1074
g73
(dp1075
sg82
g1060
sg75
(lp1076
g68
(g69
g70
NtRp1077
(dp1078
g73
(dp1079
g81
I4
ssg82
g1073
sg75
(lp1080
S"set(['/home/gaurav/classwork/WEB_PROGRAMMING/web2py/applications/admin/', '/home/gaurav/classwork/WEB_PROGRAMMING/web2py/applications/welcome/', '/home/gaurav/classwork/WEB_PROGRAMMING/web2py/applications/gaurav/', '/home/gaurav/classwork/WEB_PROGRAMMING/web2py/applications/SONGS/'])"
p1081
asbasbasbag68
(g84
g70
NtRp1082
(dp1083
g73
(dp1084
sg82
g1056
sg75
(lp1085
g68
(g89
g70
NtRp1086
(dp1087
g73
(dp1088
g93
g94
ssg82
g1082
sg75
(lp1089
S'applications_parent'
p1090
asbag68
(g89
g70
NtRp1091
(dp1092
g73
(dp1093
g100
g101
ssg82
g1082
sg75
(lp1094
S':'
asbag68
(g89
g70
NtRp1095
(dp1096
g73
(dp1097
sg82
g1082
sg75
(lp1098
g68
(g69
g70
NtRp1099
(dp1100
g73
(dp1101
g81
I4
ssg82
g1095
sg75
(lp1102
S'/home/gaurav/classwork/WEB_PROGRAMMING/web2py'
p1103
asbasbasbag68
(g84
g70
NtRp1104
(dp1105
g73
(dp1106
sg82
g1056
sg75
(lp1107
g68
(g89
g70
NtRp1108
(dp1109
g73
(dp1110
g93
g94
ssg82
g1104
sg75
(lp1111
S'cmd_args'
p1112
asbag68
(g89
g70
NtRp1113
(dp1114
g73
(dp1115
g100
g101
ssg82
g1104
sg75
(lp1116
S':'
asbag68
(g89
g70
NtRp1117
(dp1118
g73
(dp1119
sg82
g1104
sg75
(lp1120
g68
(g69
g70
NtRp1121
(dp1122
g73
(dp1123
g81
I4
ssg82
g1117
sg75
(lp1124
g68
(g77
g70
NtRp1125
(dp1126
g73
(dp1127
g81
I3
ssg82
Nsg75
(lp1128
sbasbasbasbag68
(g84
g70
NtRp1129
(dp1130
g73
(dp1131
sg82
g1056
sg75
(lp1132
g68
(g89
g70
NtRp1133
(dp1134
g73
(dp1135
g93
g94
ssg82
g1129
sg75
(lp1136
S'cmd_options'
p1137
asbag68
(g89
g70
NtRp1138
(dp1139
g73
(dp1140
g100
g101
ssg82
g1129
sg75
(lp1141
S':'
asbag68
(g89
g70
NtRp1142
(dp1143
g73
(dp1144
sg82
g1129
sg75
(lp1145
g68
(g69
g70
NtRp1146
(dp1147
g73
(dp1148
g81
I4
ssg82
g1142
sg75
(lp1149
S"<Values at 0x99c26ec: {'verbose': False, 'ip': '127.0.0.1', 'with_scheduler': False, 'ips': [], 'shutdown_timeout': 5, 'taskbar': False, 'port': 8000, 'maxthreads': None, 'softcron': False, 'server_name': 'gaurav-Compaq-Presario-C700-Notebook-PC', 'bpython': False, 'nogui': False, 'pid_filename': 'httpserver.pid', 'extcron': False, 'runcron': False, 'run_system_tests': False, 'test': None, 'folder': '/home/gaurav/classwork/WEB_PROGRAMMING/web2py', 'config': '', 'import_models': False, 'winservice': '', 'shell': None, 'run': '', 'log_filename': 'httpserver.log', 'debuglevel': 30, 'args': [''], 'socket_timeout': 5, 'ssl_ca_certificate': None, 'scheduler': None, 'profiler_filename': None, 'ssl_private_key': '', 'scheduler_groups': None, 'password': '<ask>', 'request_queue_size': 5, 'ssl_certificate': '', 'cronjob': False, 'numthreads': None, 'quiet': False, 'interfaces': None, 'minthreads': None, 'timeout': 10, 'plain': False, 'nobanner': False}>"
p1150
asbasbasbag68
(g84
g70
NtRp1151
(dp1152
g73
(dp1153
sg82
g1056
sg75
(lp1154
g68
(g89
g70
NtRp1155
(dp1156
g73
(dp1157
g93
g94
ssg82
g1151
sg75
(lp1158
S'content_length'
p1159
asbag68
(g89
g70
NtRp1160
(dp1161
g73
(dp1162
g100
g101
ssg82
g1151
sg75
(lp1163
S':'
asbag68
(g89
g70
NtRp1164
(dp1165
g73
(dp1166
sg82
g1151
sg75
(lp1167
g68
(g69
g70
NtRp1168
(dp1169
g73
(dp1170
g81
I4
ssg82
g1164
sg75
(lp1171
S'665'
p1172
asbasbasbag68
(g84
g70
NtRp1173
(dp1174
g73
(dp1175
sg82
g1056
sg75
(lp1176
g68
(g89
g70
NtRp1177
(dp1178
g73
(dp1179
g93
g94
ssg82
g1173
sg75
(lp1180
S'content_type'
p1181
asbag68
(g89
g70
NtRp1182
(dp1183
g73
(dp1184
g100
g101
ssg82
g1173
sg75
(lp1185
S':'
asbag68
(g89
g70
NtRp1186
(dp1187
g73
(dp1188
sg82
g1173
sg75
(lp1189
g68
(g69
g70
NtRp1190
(dp1191
g73
(dp1192
g81
I4
ssg82
g1186
sg75
(lp1193
S'multipart/form-data; boundary=---------------------------1872226418971057641236299659'
p1194
asbasbasbag68
(g84
g70
NtRp1195
(dp1196
g73
(dp1197
sg82
g1056
sg75
(lp1198
g68
(g89
g70
NtRp1199
(dp1200
g73
(dp1201
g93
g94
ssg82
g1195
sg75
(lp1202
S'db_sessions'
p1203
asbag68
(g89
g70
NtRp1204
(dp1205
g73
(dp1206
g100
g101
ssg82
g1195
sg75
(lp1207
S':'
asbag68
(g89
g70
NtRp1208
(dp1209
g73
(dp1210
sg82
g1195
sg75
(lp1211
g68
(g69
g70
NtRp1212
(dp1213
g73
(dp1214
g81
I4
ssg82
g1208
sg75
(lp1215
S'set([])'
p1216
asbasbasbag68
(g84
g70
NtRp1217
(dp1218
g73
(dp1219
sg82
g1056
sg75
(lp1220
g68
(g89
g70
NtRp1221
(dp1222
g73
(dp1223
g93
g94
ssg82
g1217
sg75
(lp1224
S'debugging'
p1225
asbag68
(g89
g70
NtRp1226
(dp1227
g73
(dp1228
g100
g101
ssg82
g1217
sg75
(lp1229
S':'
asbag68
(g89
g70
NtRp1230
(dp1231
g73
(dp1232
sg82
g1217
sg75
(lp1233
g68
(g69
g70
NtRp1234
(dp1235
g73
(dp1236
g81
I4
ssg82
g1230
sg75
(lp1237
g111
asbasbasbag68
(g84
g70
NtRp1238
(dp1239
g73
(dp1240
sg82
g1056
sg75
(lp1241
g68
(g89
g70
NtRp1242
(dp1243
g73
(dp1244
g93
g94
ssg82
g1238
sg75
(lp1245
S'gluon_parent'
p1246
asbag68
(g89
g70
NtRp1247
(dp1248
g73
(dp1249
g100
g101
ssg82
g1238
sg75
(lp1250
S':'
asbag68
(g89
g70
NtRp1251
(dp1252
g73
(dp1253
sg82
g1238
sg75
(lp1254
g68
(g69
g70
NtRp1255
(dp1256
g73
(dp1257
g81
I4
ssg82
g1251
sg75
(lp1258
S'/home/gaurav/classwork/WEB_PROGRAMMING/web2py'
p1259
asbasbasbag68
(g84
g70
NtRp1260
(dp1261
g73
(dp1262
sg82
g1056
sg75
(lp1263
g68
(g89
g70
NtRp1264
(dp1265
g73
(dp1266
g93
g94
ssg82
g1260
sg75
(lp1267
S'http_accept'
p1268
asbag68
(g89
g70
NtRp1269
(dp1270
g73
(dp1271
g100
g101
ssg82
g1260
sg75
(lp1272
S':'
asbag68
(g89
g70
NtRp1273
(dp1274
g73
(dp1275
sg82
g1260
sg75
(lp1276
g68
(g69
g70
NtRp1277
(dp1278
g73
(dp1279
g81
I4
ssg82
g1273
sg75
(lp1280
S'text/html,application/xhtml+xml,application/xml;q=0.9,*/*;q=0.8'
p1281
asbasbasbag68
(g84
g70
NtRp1282
(dp1283
g73
(dp1284
sg82
g1056
sg75
(lp1285
g68
(g89
g70
NtRp1286
(dp1287
g73
(dp1288
g93
g94
ssg82
g1282
sg75
(lp1289
S'http_accept_encoding'
p1290
asbag68
(g89
g70
NtRp1291
(dp1292
g73
(dp1293
g100
g101
ssg82
g1282
sg75
(lp1294
S':'
asbag68
(g89
g70
NtRp1295
(dp1296
g73
(dp1297
sg82
g1282
sg75
(lp1298
g68
(g69
g70
NtRp1299
(dp1300
g73
(dp1301
g81
I4
ssg82
g1295
sg75
(lp1302
S'gzip, deflate'
p1303
asbasbasbag68
(g84
g70
NtRp1304
(dp1305
g73
(dp1306
sg82
g1056
sg75
(lp1307
g68
(g89
g70
NtRp1308
(dp1309
g73
(dp1310
g93
g94
ssg82
g1304
sg75
(lp1311
S'http_accept_language'
p1312
asbag68
(g89
g70
NtRp1313
(dp1314
g73
(dp1315
g100
g101
ssg82
g1304
sg75
(lp1316
S':'
asbag68
(g89
g70
NtRp1317
(dp1318
g73
(dp1319
sg82
g1304
sg75
(lp1320
g68
(g69
g70
NtRp1321
(dp1322
g73
(dp1323
g81
I4
ssg82
g1317
sg75
(lp1324
S'en-US,en;q=0.5'
p1325
asbasbasbag68
(g84
g70
NtRp1326
(dp1327
g73
(dp1328
sg82
g1056
sg75
(lp1329
g68
(g89
g70
NtRp1330
(dp1331
g73
(dp1332
g93
g94
ssg82
g1326
sg75
(lp1333
S'http_connection'
p1334
asbag68
(g89
g70
NtRp1335
(dp1336
g73
(dp1337
g100
g101
ssg82
g1326
sg75
(lp1338
S':'
asbag68
(g89
g70
NtRp1339
(dp1340
g73
(dp1341
sg82
g1326
sg75
(lp1342
g68
(g69
g70
NtRp1343
(dp1344
g73
(dp1345
g81
I4
ssg82
g1339
sg75
(lp1346
S'keep-alive'
p1347
asbasbasbag68
(g84
g70
NtRp1348
(dp1349
g73
(dp1350
sg82
g1056
sg75
(lp1351
g68
(g89
g70
NtRp1352
(dp1353
g73
(dp1354
g93
g94
ssg82
g1348
sg75
(lp1355
S'http_content_length'
p1356
asbag68
(g89
g70
NtRp1357
(dp1358
g73
(dp1359
g100
g101
ssg82
g1348
sg75
(lp1360
S':'
asbag68
(g89
g70
NtRp1361
(dp1362
g73
(dp1363
sg82
g1348
sg75
(lp1364
g68
(g69
g70
NtRp1365
(dp1366
g73
(dp1367
g81
I4
ssg82
g1361
sg75
(lp1368
g1172
asbasbasbag68
(g84
g70
NtRp1369
(dp1370
g73
(dp1371
sg82
g1056
sg75
(lp1372
g68
(g89
g70
NtRp1373
(dp1374
g73
(dp1375
g93
g94
ssg82
g1369
sg75
(lp1376
S'http_content_type'
p1377
asbag68
(g89
g70
NtRp1378
(dp1379
g73
(dp1380
g100
g101
ssg82
g1369
sg75
(lp1381
S':'
asbag68
(g89
g70
NtRp1382
(dp1383
g73
(dp1384
sg82
g1369
sg75
(lp1385
g68
(g69
g70
NtRp1386
(dp1387
g73
(dp1388
g81
I4
ssg82
g1382
sg75
(lp1389
g1194
asbasbasbag68
(g84
g70
NtRp1390
(dp1391
g73
(dp1392
sg82
g1056
sg75
(lp1393
g68
(g89
g70
NtRp1394
(dp1395
g73
(dp1396
g93
g94
ssg82
g1390
sg75
(lp1397
S'http_cookie'
p1398
asbag68
(g89
g70
NtRp1399
(dp1400
g73
(dp1401
g100
g101
ssg82
g1390
sg75
(lp1402
S':'
asbag68
(g89
g70
NtRp1403
(dp1404
g73
(dp1405
sg82
g1390
sg75
(lp1406
g68
(g69
g70
NtRp1407
(dp1408
g73
(dp1409
g81
I4
ssg82
g1403
sg75
(lp1410
S'session_id_welcome=127.0.0.1-72618583-00db-41b4-b6be-dd2f723b181a; session_id_admin=127.0.0.1-1744135d-0957-4bad-84d1-bf2f9c456344; session_id_gaurav=127.0.0.1-3ad6d46d-421c-4318-84ca-ddb0617d4d4d; session_id_songs=127.0.0.1-90798589-bfb5-4a98-8844-59e16717a241'
p1411
asbasbasbag68
(g84
g70
NtRp1412
(dp1413
g73
(dp1414
sg82
g1056
sg75
(lp1415
g68
(g89
g70
NtRp1416
(dp1417
g73
(dp1418
g93
g94
ssg82
g1412
sg75
(lp1419
S'http_host'
p1420
asbag68
(g89
g70
NtRp1421
(dp1422
g73
(dp1423
g100
g101
ssg82
g1412
sg75
(lp1424
S':'
asbag68
(g89
g70
NtRp1425
(dp1426
g73
(dp1427
sg82
g1412
sg75
(lp1428
g68
(g69
g70
NtRp1429
(dp1430
g73
(dp1431
g81
I4
ssg82
g1425
sg75
(lp1432
S'127.0.0.1:8000'
p1433
asbasbasbag68
(g84
g70
NtRp1434
(dp1435
g73
(dp1436
sg82
g1056
sg75
(lp1437
g68
(g89
g70
NtRp1438
(dp1439
g73
(dp1440
g93
g94
ssg82
g1434
sg75
(lp1441
S'http_referer'
p1442
asbag68
(g89
g70
NtRp1443
(dp1444
g73
(dp1445
g100
g101
ssg82
g1434
sg75
(lp1446
S':'
asbag68
(g89
g70
NtRp1447
(dp1448
g73
(dp1449
sg82
g1434
sg75
(lp1450
g68
(g69
g70
NtRp1451
(dp1452
g73
(dp1453
g81
I4
ssg82
g1447
sg75
(lp1454
S'http://127.0.0.1:8000/SONGS/default/update_len2/2'
p1455
asbasbasbag68
(g84
g70
NtRp1456
(dp1457
g73
(dp1458
sg82
g1056
sg75
(lp1459
g68
(g89
g70
NtRp1460
(dp1461
g73
(dp1462
g93
g94
ssg82
g1456
sg75
(lp1463
S'http_user_agent'
p1464
asbag68
(g89
g70
NtRp1465
(dp1466
g73
(dp1467
g100
g101
ssg82
g1456
sg75
(lp1468
S':'
asbag68
(g89
g70
NtRp1469
(dp1470
g73
(dp1471
sg82
g1456
sg75
(lp1472
g68
(g69
g70
NtRp1473
(dp1474
g73
(dp1475
g81
I4
ssg82
g1469
sg75
(lp1476
S'Mozilla/5.0 (X11; Ubuntu; Linux i686; rv:16.0) Gecko/20100101 Firefox/16.0'
p1477
asbasbasbag68
(g84
g70
NtRp1478
(dp1479
g73
(dp1480
sg82
g1056
sg75
(lp1481
g68
(g89
g70
NtRp1482
(dp1483
g73
(dp1484
g93
g94
ssg82
g1478
sg75
(lp1485
S'is_jython'
p1486
asbag68
(g89
g70
NtRp1487
(dp1488
g73
(dp1489
g100
g101
ssg82
g1478
sg75
(lp1490
S':'
asbag68
(g89
g70
NtRp1491
(dp1492
g73
(dp1493
sg82
g1478
sg75
(lp1494
g68
(g69
g70
NtRp1495
(dp1496
g73
(dp1497
g81
I4
ssg82
g1491
sg75
(lp1498
g111
asbasbasbag68
(g84
g70
NtRp1499
(dp1500
g73
(dp1501
sg82
g1056
sg75
(lp1502
g68
(g89
g70
NtRp1503
(dp1504
g73
(dp1505
g93
g94
ssg82
g1499
sg75
(lp1506
S'is_pypy'
p1507
asbag68
(g89
g70
NtRp1508
(dp1509
g73
(dp1510
g100
g101
ssg82
g1499
sg75
(lp1511
S':'
asbag68
(g89
g70
NtRp1512
(dp1513
g73
(dp1514
sg82
g1499
sg75
(lp1515
g68
(g69
g70
NtRp1516
(dp1517
g73
(dp1518
g81
I4
ssg82
g1512
sg75
(lp1519
g111
asbasbasbag68
(g84
g70
NtRp1520
(dp1521
g73
(dp1522
sg82
g1056
sg75
(lp1523
g68
(g89
g70
NtRp1524
(dp1525
g73
(dp1526
g93
g94
ssg82
g1520
sg75
(lp1527
S'local_hosts'
p1528
asbag68
(g89
g70
NtRp1529
(dp1530
g73
(dp1531
g100
g101
ssg82
g1520
sg75
(lp1532
S':'
asbag68
(g89
g70
NtRp1533
(dp1534
g73
(dp1535
sg82
g1520
sg75
(lp1536
g68
(g69
g70
NtRp1537
(dp1538
g73
(dp1539
g81
I4
ssg82
g1533
sg75
(lp1540
g68
(g77
g70
NtRp1541
(dp1542
g73
(dp1543
g81
I3
ssg82
Nsg75
(lp1544
g68
(g84
g70
NtRp1545
(dp1546
g73
(dp1547
sg82
g1541
sg75
(lp1548
g68
(g89
g70
NtRp1549
(dp1550
g73
(dp1551
sg82
g1545
sg75
(lp1552
g68
(g69
g70
NtRp1553
(dp1554
g73
(dp1555
g81
I3
ssg82
g1549
sg75
(lp1556
S'gaurav-Compaq-Presario-C700-Notebook-PC'
p1557
asbasbasbag68
(g84
g70
NtRp1558
(dp1559
g73
(dp1560
sg82
g1541
sg75
(lp1561
g68
(g89
g70
NtRp1562
(dp1563
g73
(dp1564
sg82
g1558
sg75
(lp1565
g68
(g69
g70
NtRp1566
(dp1567
g73
(dp1568
g81
I3
ssg82
g1562
sg75
(lp1569
S'::1'
p1570
asbasbasbag68
(g84
g70
NtRp1571
(dp1572
g73
(dp1573
sg82
g1541
sg75
(lp1574
g68
(g89
g70
NtRp1575
(dp1576
g73
(dp1577
sg82
g1571
sg75
(lp1578
g68
(g69
g70
NtRp1579
(dp1580
g73
(dp1581
g81
I3
ssg82
g1575
sg75
(lp1582
S'127.0.1.1'
p1583
asbasbasbag68
(g84
g70
NtRp1584
(dp1585
g73
(dp1586
sg82
g1541
sg75
(lp1587
g68
(g89
g70
NtRp1588
(dp1589
g73
(dp1590
sg82
g1584
sg75
(lp1591
g68
(g69
g70
NtRp1592
(dp1593
g73
(dp1594
g81
I3
ssg82
g1588
sg75
(lp1595
S'::ffff:127.0.0.1'
p1596
asbasbasbag68
(g84
g70
NtRp1597
(dp1598
g73
(dp1599
sg82
g1541
sg75
(lp1600
g68
(g89
g70
NtRp1601
(dp1602
g73
(dp1603
sg82
g1597
sg75
(lp1604
g68
(g69
g70
NtRp1605
(dp1606
g73
(dp1607
g81
I3
ssg82
g1601
sg75
(lp1608
S'127.0.0.1'
p1609
asbasbasbasbasbasbasbag68
(g84
g70
NtRp1610
(dp1611
g73
(dp1612
sg82
g1056
sg75
(lp1613
g68
(g89
g70
NtRp1614
(dp1615
g73
(dp1616
g93
g94
ssg82
g1610
sg75
(lp1617
S'path_info'
p1618
asbag68
(g89
g70
NtRp1619
(dp1620
g73
(dp1621
g100
g101
ssg82
g1610
sg75
(lp1622
S':'
asbag68
(g89
g70
NtRp1623
(dp1624
g73
(dp1625
sg82
g1610
sg75
(lp1626
g68
(g69
g70
NtRp1627
(dp1628
g73
(dp1629
g81
I4
ssg82
g1623
sg75
(lp1630
S'/SONGS/default/update_len2/2'
p1631
asbasbasbag68
(g84
g70
NtRp1632
(dp1633
g73
(dp1634
sg82
g1056
sg75
(lp1635
g68
(g89
g70
NtRp1636
(dp1637
g73
(dp1638
g93
g94
ssg82
g1632
sg75
(lp1639
S'query_string'
p1640
asbag68
(g89
g70
NtRp1641
(dp1642
g73
(dp1643
g100
g101
ssg82
g1632
sg75
(lp1644
S':'
asbag68
(g89
g70
NtRp1645
(dp1646
g73
(dp1647
sg82
g1632
sg75
(lp1648
g68
(g69
g70
NtRp1649
(dp1650
g73
(dp1651
g81
I4
ssg82
g1645
sg75
(lp1652
S''
asbasbasbag68
(g84
g70
NtRp1653
(dp1654
g73
(dp1655
sg82
g1056
sg75
(lp1656
g68
(g89
g70
NtRp1657
(dp1658
g73
(dp1659
g93
g94
ssg82
g1653
sg75
(lp1660
S'remote_addr'
p1661
asbag68
(g89
g70
NtRp1662
(dp1663
g73
(dp1664
g100
g101
ssg82
g1653
sg75
(lp1665
S':'
asbag68
(g89
g70
NtRp1666
(dp1667
g73
(dp1668
sg82
g1653
sg75
(lp1669
g68
(g69
g70
NtRp1670
(dp1671
g73
(dp1672
g81
I4
ssg82
g1666
sg75
(lp1673
g235
asbasbasbag68
(g84
g70
NtRp1674
(dp1675
g73
(dp1676
sg82
g1056
sg75
(lp1677
g68
(g89
g70
NtRp1678
(dp1679
g73
(dp1680
g93
g94
ssg82
g1674
sg75
(lp1681
S'remote_port'
p1682
asbag68
(g89
g70
NtRp1683
(dp1684
g73
(dp1685
g100
g101
ssg82
g1674
sg75
(lp1686
S':'
asbag68
(g89
g70
NtRp1687
(dp1688
g73
(dp1689
sg82
g1674
sg75
(lp1690
g68
(g69
g70
NtRp1691
(dp1692
g73
(dp1693
g81
I4
ssg82
g1687
sg75
(lp1694
S'43650'
p1695
asbasbasbag68
(g84
g70
NtRp1696
(dp1697
g73
(dp1698
sg82
g1056
sg75
(lp1699
g68
(g89
g70
NtRp1700
(dp1701
g73
(dp1702
g93
g94
ssg82
g1696
sg75
(lp1703
S'request_method'
p1704
asbag68
(g89
g70
NtRp1705
(dp1706
g73
(dp1707
g100
g101
ssg82
g1696
sg75
(lp1708
S':'
asbag68
(g89
g70
NtRp1709
(dp1710
g73
(dp1711
sg82
g1696
sg75
(lp1712
g68
(g69
g70
NtRp1713
(dp1714
g73
(dp1715
g81
I4
ssg82
g1709
sg75
(lp1716
S'POST'
p1717
asbasbasbag68
(g84
g70
NtRp1718
(dp1719
g73
(dp1720
sg82
g1056
sg75
(lp1721
g68
(g89
g70
NtRp1722
(dp1723
g73
(dp1724
g93
g94
ssg82
g1718
sg75
(lp1725
S'request_uri'
p1726
asbag68
(g89
g70
NtRp1727
(dp1728
g73
(dp1729
g100
g101
ssg82
g1718
sg75
(lp1730
S':'
asbag68
(g89
g70
NtRp1731
(dp1732
g73
(dp1733
sg82
g1718
sg75
(lp1734
g68
(g69
g70
NtRp1735
(dp1736
g73
(dp1737
g81
I4
ssg82
g1731
sg75
(lp1738
g1631
asbasbasbag68
(g84
g70
NtRp1739
(dp1740
g73
(dp1741
sg82
g1056
sg75
(lp1742
g68
(g89
g70
NtRp1743
(dp1744
g73
(dp1745
g93
g94
ssg82
g1739
sg75
(lp1746
S'script_name'
p1747
asbag68
(g89
g70
NtRp1748
(dp1749
g73
(dp1750
g100
g101
ssg82
g1739
sg75
(lp1751
S':'
asbag68
(g89
g70
NtRp1752
(dp1753
g73
(dp1754
sg82
g1739
sg75
(lp1755
g68
(g69
g70
NtRp1756
(dp1757
g73
(dp1758
g81
I4
ssg82
g1752
sg75
(lp1759
S''
asbasbasbag68
(g84
g70
NtRp1760
(dp1761
g73
(dp1762
sg82
g1056
sg75
(lp1763
g68
(g89
g70
NtRp1764
(dp1765
g73
(dp1766
g93
g94
ssg82
g1760
sg75
(lp1767
S'server_name'
p1768
asbag68
(g89
g70
NtRp1769
(dp1770
g73
(dp1771
g100
g101
ssg82
g1760
sg75
(lp1772
S':'
asbag68
(g89
g70
NtRp1773
(dp1774
g73
(dp1775
sg82
g1760
sg75
(lp1776
g68
(g69
g70
NtRp1777
(dp1778
g73
(dp1779
g81
I4
ssg82
g1773
sg75
(lp1780
S'gaurav-Compaq-Presario-C700-Notebook-PC'
p1781
asbasbasbag68
(g84
g70
NtRp1782
(dp1783
g73
(dp1784
sg82
g1056
sg75
(lp1785
g68
(g89
g70
NtRp1786
(dp1787
g73
(dp1788
g93
g94
ssg82
g1782
sg75
(lp1789
S'server_port'
p1790
asbag68
(g89
g70
NtRp1791
(dp1792
g73
(dp1793
g100
g101
ssg82
g1782
sg75
(lp1794
S':'
asbag68
(g89
g70
NtRp1795
(dp1796
g73
(dp1797
sg82
g1782
sg75
(lp1798
g68
(g69
g70
NtRp1799
(dp1800
g73
(dp1801
g81
I4
ssg82
g1795
sg75
(lp1802
S'8000'
p1803
asbasbasbag68
(g84
g70
NtRp1804
(dp1805
g73
(dp1806
sg82
g1056
sg75
(lp1807
g68
(g89
g70
NtRp1808
(dp1809
g73
(dp1810
g93
g94
ssg82
g1804
sg75
(lp1811
S'server_protocol'
p1812
asbag68
(g89
g70
NtRp1813
(dp1814
g73
(dp1815
g100
g101
ssg82
g1804
sg75
(lp1816
S':'
asbag68
(g89
g70
NtRp1817
(dp1818
g73
(dp1819
sg82
g1804
sg75
(lp1820
g68
(g69
g70
NtRp1821
(dp1822
g73
(dp1823
g81
I4
ssg82
g1817
sg75
(lp1824
S'HTTP/1.1'
p1825
asbasbasbag68
(g84
g70
NtRp1826
(dp1827
g73
(dp1828
sg82
g1056
sg75
(lp1829
g68
(g89
g70
NtRp1830
(dp1831
g73
(dp1832
g93
g94
ssg82
g1826
sg75
(lp1833
S'server_software'
p1834
asbag68
(g89
g70
NtRp1835
(dp1836
g73
(dp1837
g100
g101
ssg82
g1826
sg75
(lp1838
S':'
asbag68
(g89
g70
NtRp1839
(dp1840
g73
(dp1841
sg82
g1826
sg75
(lp1842
g68
(g69
g70
NtRp1843
(dp1844
g73
(dp1845
g81
I4
ssg82
g1839
sg75
(lp1846
S'Rocket 1.2.6'
p1847
asbasbasbag68
(g84
g70
NtRp1848
(dp1849
g73
(dp1850
sg82
g1056
sg75
(lp1851
g68
(g89
g70
NtRp1852
(dp1853
g73
(dp1854
g93
g94
ssg82
g1848
sg75
(lp1855
S'web2py_path'
p1856
asbag68
(g89
g70
NtRp1857
(dp1858
g73
(dp1859
g100
g101
ssg82
g1848
sg75
(lp1860
S':'
asbag68
(g89
g70
NtRp1861
(dp1862
g73
(dp1863
sg82
g1848
sg75
(lp1864
g68
(g69
g70
NtRp1865
(dp1866
g73
(dp1867
g81
I4
ssg82
g1861
sg75
(lp1868
g1103
asbasbasbag68
(g84
g70
NtRp1869
(dp1870
g73
(dp1871
sg82
g1056
sg75
(lp1872
g68
(g89
g70
NtRp1873
(dp1874
g73
(dp1875
g93
g94
ssg82
g1869
sg75
(lp1876
S'web2py_version'
p1877
asbag68
(g89
g70
NtRp1878
(dp1879
g73
(dp1880
g100
g101
ssg82
g1869
sg75
(lp1881
S':'
asbag68
(g89
g70
NtRp1882
(dp1883
g73
(dp1884
sg82
g1869
sg75
(lp1885
g68
(g69
g70
NtRp1886
(dp1887
g73
(dp1888
g81
I4
ssg82
g1882
sg75
(lp1889
g68
(g77
g70
NtRp1890
(dp1891
g73
(dp1892
g81
I3
ssg82
Nsg75
(lp1893
g68
(g84
g70
NtRp1894
(dp1895
g73
(dp1896
sg82
g1890
sg75
(lp1897
g68
(g89
g70
NtRp1898
(dp1899
g73
(dp1900
sg82
g1894
sg75
(lp1901
g68
(g69
g70
NtRp1902
(dp1903
g73
(dp1904
g81
I3
ssg82
g1898
sg75
(lp1905
S'2'
asbasbasbag68
(g84
g70
NtRp1906
(dp1907
g73
(dp1908
sg82
g1890
sg75
(lp1909
g68
(g89
g70
NtRp1910
(dp1911
g73
(dp1912
sg82
g1906
sg75
(lp1913
g68
(g69
g70
NtRp1914
(dp1915
g73
(dp1916
g81
I3
ssg82
g1910
sg75
(lp1917
S'3'
asbasbasbag68
(g84
g70
NtRp1918
(dp1919
g73
(dp1920
sg82
g1890
sg75
(lp1921
g68
(g89
g70
NtRp1922
(dp1923
g73
(dp1924
sg82
g1918
sg75
(lp1925
g68
(g69
g70
NtRp1926
(dp1927
g73
(dp1928
g81
I3
ssg82
g1922
sg75
(lp1929
S'2'
asbasbasbag68
(g84
g70
NtRp1930
(dp1931
g73
(dp1932
sg82
g1890
sg75
(lp1933
g68
(g89
g70
NtRp1934
(dp1935
g73
(dp1936
sg82
g1930
sg75
(lp1937
g68
(g69
g70
NtRp1938
(dp1939
g73
(dp1940
g81
I3
ssg82
g1934
sg75
(lp1941
S'datetime.datetime(2012, 12, 17, 15, 3, 30)'
p1942
asbasbasbag68
(g84
g70
NtRp1943
(dp1944
g73
(dp1945
sg82
g1890
sg75
(lp1946
g68
(g89
g70
NtRp1947
(dp1948
g73
(dp1949
sg82
g1943
sg75
(lp1950
g68
(g69
g70
NtRp1951
(dp1952
g73
(dp1953
g81
I3
ssg82
g1947
sg75
(lp1954
S'stable'
p1955
asbasbasbasbasbasbasbag68
(g84
g70
NtRp1956
(dp1957
g73
(dp1958
sg82
g1056
sg75
(lp1959
g68
(g89
g70
NtRp1960
(dp1961
g73
(dp1962
g93
g94
ssg82
g1956
sg75
(lp1963
S'wsgi_errors'
p1964
asbag68
(g89
g70
NtRp1965
(dp1966
g73
(dp1967
g100
g101
ssg82
g1956
sg75
(lp1968
S':'
asbag68
(g89
g70
NtRp1969
(dp1970
g73
(dp1971
sg82
g1956
sg75
(lp1972
g68
(g69
g70
NtRp1973
(dp1974
g73
(dp1975
g81
I4
ssg82
g1969
sg75
(lp1976
S"<open file '<stderr>', mode 'w' at 0xb74db0d0>"
p1977
asbasbasbag68
(g84
g70
NtRp1978
(dp1979
g73
(dp1980
sg82
g1056
sg75
(lp1981
g68
(g89
g70
NtRp1982
(dp1983
g73
(dp1984
g93
g94
ssg82
g1978
sg75
(lp1985
S'wsgi_file_wrapper'
p1986
asbag68
(g89
g70
NtRp1987
(dp1988
g73
(dp1989
g100
g101
ssg82
g1978
sg75
(lp1990
S':'
asbag68
(g89
g70
NtRp1991
(dp1992
g73
(dp1993
sg82
g1978
sg75
(lp1994
g68
(g69
g70
NtRp1995
(dp1996
g73
(dp1997
g81
I4
ssg82
g1991
sg75
(lp1998
S'<class wsgiref.util.FileWrapper at 0x9976ecc>'
p1999
asbasbasbag68
(g84
g70
NtRp2000
(dp2001
g73
(dp2002
sg82
g1056
sg75
(lp2003
g68
(g89
g70
NtRp2004
(dp2005
g73
(dp2006
g93
g94
ssg82
g2000
sg75
(lp2007
S'wsgi_input'
p2008
asbag68
(g89
g70
NtRp2009
(dp2010
g73
(dp2011
g100
g101
ssg82
g2000
sg75
(lp2012
S':'
asbag68
(g89
g70
NtRp2013
(dp2014
g73
(dp2015
sg82
g2000
sg75
(lp2016
g68
(g69
g70
NtRp2017
(dp2018
g73
(dp2019
g81
I4
ssg82
g2013
sg75
(lp2020
S'<socket._fileobject object at 0xae69f7ec>'
p2021
asbasbasbag68
(g84
g70
NtRp2022
(dp2023
g73
(dp2024
sg82
g1056
sg75
(lp2025
g68
(g89
g70
NtRp2026
(dp2027
g73
(dp2028
g93
g94
ssg82
g2022
sg75
(lp2029
S'wsgi_multiprocess'
p2030
asbag68
(g89
g70
NtRp2031
(dp2032
g73
(dp2033
g100
g101
ssg82
g2022
sg75
(lp2034
S':'
asbag68
(g89
g70
NtRp2035
(dp2036
g73
(dp2037
sg82
g2022
sg75
(lp2038
g68
(g69
g70
NtRp2039
(dp2040
g73
(dp2041
g81
I4
ssg82
g2035
sg75
(lp2042
g111
asbasbasbag68
(g84
g70
NtRp2043
(dp2044
g73
(dp2045
sg82
g1056
sg75
(lp2046
g68
(g89
g70
NtRp2047
(dp2048
g73
(dp2049
g93
g94
ssg82
g2043
sg75
(lp2050
S'wsgi_multithread'
p2051
asbag68
(g89
g70
NtRp2052
(dp2053
g73
(dp2054
g100
g101
ssg82
g2043
sg75
(lp2055
S':'
asbag68
(g89
g70
NtRp2056
(dp2057
g73
(dp2058
sg82
g2043
sg75
(lp2059
g68
(g69
g70
NtRp2060
(dp2061
g73
(dp2062
g81
I4
ssg82
g2056
sg75
(lp2063
S'True'
p2064
asbasbasbag68
(g84
g70
NtRp2065
(dp2066
g73
(dp2067
sg82
g1056
sg75
(lp2068
g68
(g89
g70
NtRp2069
(dp2070
g73
(dp2071
g93
g94
ssg82
g2065
sg75
(lp2072
S'wsgi_run_once'
p2073
asbag68
(g89
g70
NtRp2074
(dp2075
g73
(dp2076
g100
g101
ssg82
g2065
sg75
(lp2077
S':'
asbag68
(g89
g70
NtRp2078
(dp2079
g73
(dp2080
sg82
g2065
sg75
(lp2081
g68
(g69
g70
NtRp2082
(dp2083
g73
(dp2084
g81
I4
ssg82
g2078
sg75
(lp2085
g111
asbasbasbag68
(g84
g70
NtRp2086
(dp2087
g73
(dp2088
sg82
g1056
sg75
(lp2089
g68
(g89
g70
NtRp2090
(dp2091
g73
(dp2092
g93
g94
ssg82
g2086
sg75
(lp2093
S'wsgi_url_scheme'
p2094
asbag68
(g89
g70
NtRp2095
(dp2096
g73
(dp2097
g100
g101
ssg82
g2086
sg75
(lp2098
S':'
asbag68
(g89
g70
NtRp2099
(dp2100
g73
(dp2101
sg82
g2086
sg75
(lp2102
g68
(g69
g70
NtRp2103
(dp2104
g73
(dp2105
g81
I4
ssg82
g2099
sg75
(lp2106
S'http'
p2107
asbasbasbag68
(g84
g70
NtRp2108
(dp2109
g73
(dp2110
sg82
g1056
sg75
(lp2111
g68
(g89
g70
NtRp2112
(dp2113
g73
(dp2114
g93
g94
ssg82
g2108
sg75
(lp2115
S'wsgi_version'
p2116
asbag68
(g89
g70
NtRp2117
(dp2118
g73
(dp2119
g100
g101
ssg82
g2108
sg75
(lp2120
S':'
asbag68
(g89
g70
NtRp2121
(dp2122
g73
(dp2123
sg82
g2108
sg75
(lp2124
g68
(g69
g70
NtRp2125
(dp2126
g73
(dp2127
g81
I4
ssg82
g2121
sg75
(lp2128
g68
(g77
g70
NtRp2129
(dp2130
g73
(dp2131
g81
I3
ssg82
Nsg75
(lp2132
g68
(g84
g70
NtRp2133
(dp2134
g73
(dp2135
sg82
g2129
sg75
(lp2136
g68
(g89
g70
NtRp2137
(dp2138
g73
(dp2139
sg82
g2133
sg75
(lp2140
g68
(g69
g70
NtRp2141
(dp2142
g73
(dp2143
g81
I3
ssg82
g2137
sg75
(lp2144
S'1'
asbasbasbag68
(g84
g70
NtRp2145
(dp2146
g73
(dp2147
sg82
g2129
sg75
(lp2148
g68
(g89
g70
NtRp2149
(dp2150
g73
(dp2151
sg82
g2145
sg75
(lp2152
g68
(g69
g70
NtRp2153
(dp2154
g73
(dp2155
g81
I3
ssg82
g2149
sg75
(lp2156
S'0'
asbasbasbasbasbasbasbasbasbasbasbag68
(g84
g70
NtRp2157
(dp2158
g73
(dp2159
sg82
g78
sg75
(lp2160
g68
(g89
g70
NtRp2161
(dp2162
g73
(dp2163
g93
g94
ssg82
g2157
sg75
(lp2164
S'extension'
p2165
asbag68
(g89
g70
NtRp2166
(dp2167
g73
(dp2168
g100
g101
ssg82
g2157
sg75
(lp2169
S':'
asbag68
(g89
g70
NtRp2170
(dp2171
g73
(dp2172
sg82
g2157
sg75
(lp2173
g68
(g69
g70
NtRp2174
(dp2175
g73
(dp2176
g81
I5
ssg82
g2170
sg75
(lp2177
S'html'
p2178
asbasbasbag68
(g84
g70
NtRp2179
(dp2180
g73
(dp2181
sg82
g78
sg75
(lp2182
g68
(g89
g70
NtRp2183
(dp2184
g73
(dp2185
g93
g94
ssg82
g2179
sg75
(lp2186
S'folder'
p2187
asbag68
(g89
g70
NtRp2188
(dp2189
g73
(dp2190
g100
g101
ssg82
g2179
sg75
(lp2191
S':'
asbag68
(g89
g70
NtRp2192
(dp2193
g73
(dp2194
sg82
g2179
sg75
(lp2195
g68
(g69
g70
NtRp2196
(dp2197
g73
(dp2198
g81
I5
ssg82
g2192
sg75
(lp2199
S'/home/gaurav/classwork/WEB_PROGRAMMING/web2py/applications/SONGS/'
p2200
asbasbasbag68
(g84
g70
NtRp2201
(dp2202
g73
(dp2203
sg82
g78
sg75
(lp2204
g68
(g89
g70
NtRp2205
(dp2206
g73
(dp2207
g93
g94
ssg82
g2201
sg75
(lp2208
S'function'
p2209
asbag68
(g89
g70
NtRp2210
(dp2211
g73
(dp2212
g100
g101
ssg82
g2201
sg75
(lp2213
S':'
asbag68
(g89
g70
NtRp2214
(dp2215
g73
(dp2216
sg82
g2201
sg75
(lp2217
g68
(g69
g70
NtRp2218
(dp2219
g73
(dp2220
g81
I5
ssg82
g2214
sg75
(lp2221
S'update_len2'
p2222
asbasbasbag68
(g84
g70
NtRp2223
(dp2224
g73
(dp2225
sg82
g78
sg75
(lp2226
g68
(g89
g70
NtRp2227
(dp2228
g73
(dp2229
g93
g94
ssg82
g2223
sg75
(lp2230
S'get_vars'
p2231
asbag68
(g89
g70
NtRp2232
(dp2233
g73
(dp2234
g100
g101
ssg82
g2223
sg75
(lp2235
S':'
asbag68
(g89
g70
NtRp2236
(dp2237
g73
(dp2238
sg82
g2223
sg75
(lp2239
g68
(g69
g70
NtRp2240
(dp2241
g73
(dp2242
g81
I5
ssg82
g2236
sg75
(lp2243
g68
(g77
g70
NtRp2244
(dp2245
g73
(dp2246
g81
I4
ssg82
Nsg75
(lp2247
sbasbasbasbag68
(g84
g70
NtRp2248
(dp2249
g73
(dp2250
sg82
g78
sg75
(lp2251
g68
(g89
g70
NtRp2252
(dp2253
g73
(dp2254
g93
g94
ssg82
g2248
sg75
(lp2255
S'global_settings'
p2256
asbag68
(g89
g70
NtRp2257
(dp2258
g73
(dp2259
g100
g101
ssg82
g2248
sg75
(lp2260
S':'
asbag68
(g89
g70
NtRp2261
(dp2262
g73
(dp2263
sg82
g2248
sg75
(lp2264
g68
(g69
g70
NtRp2265
(dp2266
g73
(dp2267
g81
I5
ssg82
g2261
sg75
(lp2268
g68
(g77
g70
NtRp2269
(dp2270
g73
(dp2271
g81
I4
ssg82
Nsg75
(lp2272
g68
(g84
g70
NtRp2273
(dp2274
g73
(dp2275
sg82
g2269
sg75
(lp2276
g68
(g89
g70
NtRp2277
(dp2278
g73
(dp2279
g93
g94
ssg82
g2273
sg75
(lp2280
g1068
asbag68
(g89
g70
NtRp2281
(dp2282
g73
(dp2283
g100
g101
ssg82
g2273
sg75
(lp2284
S':'
asbag68
(g89
g70
NtRp2285
(dp2286
g73
(dp2287
sg82
g2273
sg75
(lp2288
g68
(g69
g70
NtRp2289
(dp2290
g73
(dp2291
g81
I4
ssg82
g2285
sg75
(lp2292
S"set(['/home/gaurav/classwork/WEB_PROGRAMMING/web2py/applications/admin/', '/home/gaurav/classwork/WEB_PROGRAMMING/web2py/applications/welcome/', '/home/gaurav/classwork/WEB_PROGRAMMING/web2py/applications/gaurav/', '/home/gaurav/classwork/WEB_PROGRAMMING/web2py/applications/SONGS/'])"
p2293
asbasbasbag68
(g84
g70
NtRp2294
(dp2295
g73
(dp2296
sg82
g2269
sg75
(lp2297
g68
(g89
g70
NtRp2298
(dp2299
g73
(dp2300
g93
g94
ssg82
g2294
sg75
(lp2301
g1090
asbag68
(g89
g70
NtRp2302
(dp2303
g73
(dp2304
g100
g101
ssg82
g2294
sg75
(lp2305
S':'
asbag68
(g89
g70
NtRp2306
(dp2307
g73
(dp2308
sg82
g2294
sg75
(lp2309
g68
(g69
g70
NtRp2310
(dp2311
g73
(dp2312
g81
I4
ssg82
g2306
sg75
(lp2313
g1103
asbasbasbag68
(g84
g70
NtRp2314
(dp2315
g73
(dp2316
sg82
g2269
sg75
(lp2317
g68
(g89
g70
NtRp2318
(dp2319
g73
(dp2320
g93
g94
ssg82
g2314
sg75
(lp2321
g1112
asbag68
(g89
g70
NtRp2322
(dp2323
g73
(dp2324
g100
g101
ssg82
g2314
sg75
(lp2325
S':'
asbag68
(g89
g70
NtRp2326
(dp2327
g73
(dp2328
sg82
g2314
sg75
(lp2329
g68
(g69
g70
NtRp2330
(dp2331
g73
(dp2332
g81
I4
ssg82
g2326
sg75
(lp2333
g68
(g77
g70
NtRp2334
(dp2335
g73
(dp2336
g81
I3
ssg82
Nsg75
(lp2337
sbasbasbasbag68
(g84
g70
NtRp2338
(dp2339
g73
(dp2340
sg82
g2269
sg75
(lp2341
g68
(g89
g70
NtRp2342
(dp2343
g73
(dp2344
g93
g94
ssg82
g2338
sg75
(lp2345
g1137
asbag68
(g89
g70
NtRp2346
(dp2347
g73
(dp2348
g100
g101
ssg82
g2338
sg75
(lp2349
S':'
asbag68
(g89
g70
NtRp2350
(dp2351
g73
(dp2352
sg82
g2338
sg75
(lp2353
g68
(g69
g70
NtRp2354
(dp2355
g73
(dp2356
g81
I4
ssg82
g2350
sg75
(lp2357
S"<Values at 0x99c26ec: {'verbose': False, 'ip': '127.0.0.1', 'with_scheduler': False, 'ips': [], 'shutdown_timeout': 5, 'taskbar': False, 'port': 8000, 'maxthreads': None, 'softcron': False, 'server_name': 'gaurav-Compaq-Presario-C700-Notebook-PC', 'bpython': False, 'nogui': False, 'pid_filename': 'httpserver.pid', 'extcron': False, 'runcron': False, 'run_system_tests': False, 'test': None, 'folder': '/home/gaurav/classwork/WEB_PROGRAMMING/web2py', 'config': '', 'import_models': False, 'winservice': '', 'shell': None, 'run': '', 'log_filename': 'httpserver.log', 'debuglevel': 30, 'args': [''], 'socket_timeout': 5, 'ssl_ca_certificate': None, 'scheduler': None, 'profiler_filename': None, 'ssl_private_key': '', 'scheduler_groups': None, 'password': '<ask>', 'request_queue_size': 5, 'ssl_certificate': '', 'cronjob': False, 'numthreads': None, 'quiet': False, 'interfaces': None, 'minthreads': None, 'timeout': 10, 'plain': False, 'nobanner': False}>"
p2358
asbasbasbag68
(g84
g70
NtRp2359
(dp2360
g73
(dp2361
sg82
g2269
sg75
(lp2362
g68
(g89
g70
NtRp2363
(dp2364
g73
(dp2365
g93
g94
ssg82
g2359
sg75
(lp2366
g1203
asbag68
(g89
g70
NtRp2367
(dp2368
g73
(dp2369
g100
g101
ssg82
g2359
sg75
(lp2370
S':'
asbag68
(g89
g70
NtRp2371
(dp2372
g73
(dp2373
sg82
g2359
sg75
(lp2374
g68
(g69
g70
NtRp2375
(dp2376
g73
(dp2377
g81
I4
ssg82
g2371
sg75
(lp2378
S'set([])'
p2379
asbasbasbag68
(g84
g70
NtRp2380
(dp2381
g73
(dp2382
sg82
g2269
sg75
(lp2383
g68
(g89
g70
NtRp2384
(dp2385
g73
(dp2386
g93
g94
ssg82
g2380
sg75
(lp2387
g1225
asbag68
(g89
g70
NtRp2388
(dp2389
g73
(dp2390
g100
g101
ssg82
g2380
sg75
(lp2391
S':'
asbag68
(g89
g70
NtRp2392
(dp2393
g73
(dp2394
sg82
g2380
sg75
(lp2395
g68
(g69
g70
NtRp2396
(dp2397
g73
(dp2398
g81
I4
ssg82
g2392
sg75
(lp2399
g111
asbasbasbag68
(g84
g70
NtRp2400
(dp2401
g73
(dp2402
sg82
g2269
sg75
(lp2403
g68
(g89
g70
NtRp2404
(dp2405
g73
(dp2406
g93
g94
ssg82
g2400
sg75
(lp2407
g1246
asbag68
(g89
g70
NtRp2408
(dp2409
g73
(dp2410
g100
g101
ssg82
g2400
sg75
(lp2411
S':'
asbag68
(g89
g70
NtRp2412
(dp2413
g73
(dp2414
sg82
g2400
sg75
(lp2415
g68
(g69
g70
NtRp2416
(dp2417
g73
(dp2418
g81
I4
ssg82
g2412
sg75
(lp2419
g1259
asbasbasbag68
(g84
g70
NtRp2420
(dp2421
g73
(dp2422
sg82
g2269
sg75
(lp2423
g68
(g89
g70
NtRp2424
(dp2425
g73
(dp2426
g93
g94
ssg82
g2420
sg75
(lp2427
g1486
asbag68
(g89
g70
NtRp2428
(dp2429
g73
(dp2430
g100
g101
ssg82
g2420
sg75
(lp2431
S':'
asbag68
(g89
g70
NtRp2432
(dp2433
g73
(dp2434
sg82
g2420
sg75
(lp2435
g68
(g69
g70
NtRp2436
(dp2437
g73
(dp2438
g81
I4
ssg82
g2432
sg75
(lp2439
g111
asbasbasbag68
(g84
g70
NtRp2440
(dp2441
g73
(dp2442
sg82
g2269
sg75
(lp2443
g68
(g89
g70
NtRp2444
(dp2445
g73
(dp2446
g93
g94
ssg82
g2440
sg75
(lp2447
g1507
asbag68
(g89
g70
NtRp2448
(dp2449
g73
(dp2450
g100
g101
ssg82
g2440
sg75
(lp2451
S':'
asbag68
(g89
g70
NtRp2452
(dp2453
g73
(dp2454
sg82
g2440
sg75
(lp2455
g68
(g69
g70
NtRp2456
(dp2457
g73
(dp2458
g81
I4
ssg82
g2452
sg75
(lp2459
g111
asbasbasbag68
(g84
g70
NtRp2460
(dp2461
g73
(dp2462
sg82
g2269
sg75
(lp2463
g68
(g89
g70
NtRp2464
(dp2465
g73
(dp2466
g93
g94
ssg82
g2460
sg75
(lp2467
g1528
asbag68
(g89
g70
NtRp2468
(dp2469
g73
(dp2470
g100
g101
ssg82
g2460
sg75
(lp2471
S':'
asbag68
(g89
g70
NtRp2472
(dp2473
g73
(dp2474
sg82
g2460
sg75
(lp2475
g68
(g69
g70
NtRp2476
(dp2477
g73
(dp2478
g81
I4
ssg82
g2472
sg75
(lp2479
g68
(g77
g70
NtRp2480
(dp2481
g73
(dp2482
g81
I3
ssg82
Nsg75
(lp2483
g68
(g84
g70
NtRp2484
(dp2485
g73
(dp2486
sg82
g2480
sg75
(lp2487
g68
(g89
g70
NtRp2488
(dp2489
g73
(dp2490
sg82
g2484
sg75
(lp2491
g68
(g69
g70
NtRp2492
(dp2493
g73
(dp2494
g81
I3
ssg82
g2488
sg75
(lp2495
g1557
asbasbasbag68
(g84
g70
NtRp2496
(dp2497
g73
(dp2498
sg82
g2480
sg75
(lp2499
g68
(g89
g70
NtRp2500
(dp2501
g73
(dp2502
sg82
g2496
sg75
(lp2503
g68
(g69
g70
NtRp2504
(dp2505
g73
(dp2506
g81
I3
ssg82
g2500
sg75
(lp2507
g1570
asbasbasbag68
(g84
g70
NtRp2508
(dp2509
g73
(dp2510
sg82
g2480
sg75
(lp2511
g68
(g89
g70
NtRp2512
(dp2513
g73
(dp2514
sg82
g2508
sg75
(lp2515
g68
(g69
g70
NtRp2516
(dp2517
g73
(dp2518
g81
I3
ssg82
g2512
sg75
(lp2519
g1583
asbasbasbag68
(g84
g70
NtRp2520
(dp2521
g73
(dp2522
sg82
g2480
sg75
(lp2523
g68
(g89
g70
NtRp2524
(dp2525
g73
(dp2526
sg82
g2520
sg75
(lp2527
g68
(g69
g70
NtRp2528
(dp2529
g73
(dp2530
g81
I3
ssg82
g2524
sg75
(lp2531
g1596
asbasbasbag68
(g84
g70
NtRp2532
(dp2533
g73
(dp2534
sg82
g2480
sg75
(lp2535
g68
(g89
g70
NtRp2536
(dp2537
g73
(dp2538
sg82
g2532
sg75
(lp2539
g68
(g69
g70
NtRp2540
(dp2541
g73
(dp2542
g81
I3
ssg82
g2536
sg75
(lp2543
g1609
asbasbasbasbasbasbasbag68
(g84
g70
NtRp2544
(dp2545
g73
(dp2546
sg82
g2269
sg75
(lp2547
g68
(g89
g70
NtRp2548
(dp2549
g73
(dp2550
g93
g94
ssg82
g2544
sg75
(lp2551
g1877
asbag68
(g89
g70
NtRp2552
(dp2553
g73
(dp2554
g100
g101
ssg82
g2544
sg75
(lp2555
S':'
asbag68
(g89
g70
NtRp2556
(dp2557
g73
(dp2558
sg82
g2544
sg75
(lp2559
g68
(g69
g70
NtRp2560
(dp2561
g73
(dp2562
g81
I4
ssg82
g2556
sg75
(lp2563
g68
(g77
g70
NtRp2564
(dp2565
g73
(dp2566
g81
I3
ssg82
Nsg75
(lp2567
g68
(g84
g70
NtRp2568
(dp2569
g73
(dp2570
sg82
g2564
sg75
(lp2571
g68
(g89
g70
NtRp2572
(dp2573
g73
(dp2574
sg82
g2568
sg75
(lp2575
g68
(g69
g70
NtRp2576
(dp2577
g73
(dp2578
g81
I3
ssg82
g2572
sg75
(lp2579
S'2'
asbasbasbag68
(g84
g70
NtRp2580
(dp2581
g73
(dp2582
sg82
g2564
sg75
(lp2583
g68
(g89
g70
NtRp2584
(dp2585
g73
(dp2586
sg82
g2580
sg75
(lp2587
g68
(g69
g70
NtRp2588
(dp2589
g73
(dp2590
g81
I3
ssg82
g2584
sg75
(lp2591
S'3'
asbasbasbag68
(g84
g70
NtRp2592
(dp2593
g73
(dp2594
sg82
g2564
sg75
(lp2595
g68
(g89
g70
NtRp2596
(dp2597
g73
(dp2598
sg82
g2592
sg75
(lp2599
g68
(g69
g70
NtRp2600
(dp2601
g73
(dp2602
g81
I3
ssg82
g2596
sg75
(lp2603
S'2'
asbasbasbag68
(g84
g70
NtRp2604
(dp2605
g73
(dp2606
sg82
g2564
sg75
(lp2607
g68
(g89
g70
NtRp2608
(dp2609
g73
(dp2610
sg82
g2604
sg75
(lp2611
g68
(g69
g70
NtRp2612
(dp2613
g73
(dp2614
g81
I3
ssg82
g2608
sg75
(lp2615
S'datetime.datetime(2012, 12, 17, 15, 3, 30)'
p2616
asbasbasbag68
(g84
g70
NtRp2617
(dp2618
g73
(dp2619
sg82
g2564
sg75
(lp2620
g68
(g89
g70
NtRp2621
(dp2622
g73
(dp2623
sg82
g2617
sg75
(lp2624
g68
(g69
g70
NtRp2625
(dp2626
g73
(dp2627
g81
I3
ssg82
g2621
sg75
(lp2628
g1955
asbasbasbasbasbasbasbasbasbasbasbag68
(g84
g70
NtRp2629
(dp2630
g73
(dp2631
sg82
g78
sg75
(lp2632
g68
(g89
g70
NtRp2633
(dp2634
g73
(dp2635
g93
g94
ssg82
g2629
sg75
(lp2636
S'is_https'
p2637
asbag68
(g89
g70
NtRp2638
(dp2639
g73
(dp2640
g100
g101
ssg82
g2629
sg75
(lp2641
S':'
asbag68
(g89
g70
NtRp2642
(dp2643
g73
(dp2644
sg82
g2629
sg75
(lp2645
g68
(g69
g70
NtRp2646
(dp2647
g73
(dp2648
g81
I5
ssg82
g2642
sg75
(lp2649
g111
asbasbasbag68
(g84
g70
NtRp2650
(dp2651
g73
(dp2652
sg82
g78
sg75
(lp2653
g68
(g89
g70
NtRp2654
(dp2655
g73
(dp2656
g93
g94
ssg82
g2650
sg75
(lp2657
S'is_local'
p2658
asbag68
(g89
g70
NtRp2659
(dp2660
g73
(dp2661
g100
g101
ssg82
g2650
sg75
(lp2662
S':'
asbag68
(g89
g70
NtRp2663
(dp2664
g73
(dp2665
sg82
g2650
sg75
(lp2666
g68
(g69
g70
NtRp2667
(dp2668
g73
(dp2669
g81
I5
ssg82
g2663
sg75
(lp2670
g2064
asbasbasbag68
(g84
g70
NtRp2671
(dp2672
g73
(dp2673
sg82
g78
sg75
(lp2674
g68
(g89
g70
NtRp2675
(dp2676
g73
(dp2677
g93
g94
ssg82
g2671
sg75
(lp2678
S'is_restful'
p2679
asbag68
(g89
g70
NtRp2680
(dp2681
g73
(dp2682
g100
g101
ssg82
g2671
sg75
(lp2683
S':'
asbag68
(g89
g70
NtRp2684
(dp2685
g73
(dp2686
sg82
g2671
sg75
(lp2687
g68
(g69
g70
NtRp2688
(dp2689
g73
(dp2690
g81
I5
ssg82
g2684
sg75
(lp2691
g111
asbasbasbag68
(g84
g70
NtRp2692
(dp2693
g73
(dp2694
sg82
g78
sg75
(lp2695
g68
(g89
g70
NtRp2696
(dp2697
g73
(dp2698
g93
g94
ssg82
g2692
sg75
(lp2699
S'now'
p2700
asbag68
(g89
g70
NtRp2701
(dp2702
g73
(dp2703
g100
g101
ssg82
g2692
sg75
(lp2704
S':'
asbag68
(g89
g70
NtRp2705
(dp2706
g73
(dp2707
sg82
g2692
sg75
(lp2708
g68
(g69
g70
NtRp2709
(dp2710
g73
(dp2711
g81
I5
ssg82
g2705
sg75
(lp2712
S'datetime.datetime(2013, 2, 26, 17, 39, 23, 769801)'
p2713
asbasbasbag68
(g84
g70
NtRp2714
(dp2715
g73
(dp2716
sg82
g78
sg75
(lp2717
g68
(g89
g70
NtRp2718
(dp2719
g73
(dp2720
g93
g94
ssg82
g2714
sg75
(lp2721
S'post_vars'
p2722
asbag68
(g89
g70
NtRp2723
(dp2724
g73
(dp2725
g100
g101
ssg82
g2714
sg75
(lp2726
S':'
asbag68
(g89
g70
NtRp2727
(dp2728
g73
(dp2729
sg82
g2714
sg75
(lp2730
g68
(g69
g70
NtRp2731
(dp2732
g73
(dp2733
g81
I5
ssg82
g2727
sg75
(lp2734
g68
(g77
g70
NtRp2735
(dp2736
g73
(dp2737
g81
I4
ssg82
Nsg75
(lp2738
g68
(g84
g70
NtRp2739
(dp2740
g73
(dp2741
sg82
g2735
sg75
(lp2742
g68
(g89
g70
NtRp2743
(dp2744
g73
(dp2745
g93
g94
ssg82
g2739
sg75
(lp2746
S'duration'
p2747
asbag68
(g89
g70
NtRp2748
(dp2749
g73
(dp2750
g100
g101
ssg82
g2739
sg75
(lp2751
S':'
asbag68
(g89
g70
NtRp2752
(dp2753
g73
(dp2754
sg82
g2739
sg75
(lp2755
g68
(g69
g70
NtRp2756
(dp2757
g73
(dp2758
g81
I4
ssg82
g2752
sg75
(lp2759
S'75878'
p2760
asbasbasbag68
(g84
g70
NtRp2761
(dp2762
g73
(dp2763
sg82
g2735
sg75
(lp2764
g68
(g89
g70
NtRp2765
(dp2766
g73
(dp2767
g93
g94
ssg82
g2761
sg75
(lp2768
S'id'
p2769
asbag68
(g89
g70
NtRp2770
(dp2771
g73
(dp2772
g100
g101
ssg82
g2761
sg75
(lp2773
S':'
asbag68
(g89
g70
NtRp2774
(dp2775
g73
(dp2776
sg82
g2761
sg75
(lp2777
g68
(g69
g70
NtRp2778
(dp2779
g73
(dp2780
g81
I4
ssg82
g2774
sg75
(lp2781
S'2'
asbasbasbag68
(g84
g70
NtRp2782
(dp2783
g73
(dp2784
sg82
g2735
sg75
(lp2785
g68
(g89
g70
NtRp2786
(dp2787
g73
(dp2788
g93
g94
ssg82
g2782
sg75
(lp2789
S'name'
p2790
asbag68
(g89
g70
NtRp2791
(dp2792
g73
(dp2793
g100
g101
ssg82
g2782
sg75
(lp2794
S':'
asbag68
(g89
g70
NtRp2795
(dp2796
g73
(dp2797
sg82
g2782
sg75
(lp2798
g68
(g69
g70
NtRp2799
(dp2800
g73
(dp2801
g81
I4
ssg82
g2795
sg75
(lp2802
S'halo'
p2803
asbasbasbasbasbasbasbag68
(g84
g70
NtRp2804
(dp2805
g73
(dp2806
sg82
g78
sg75
(lp2807
g68
(g89
g70
NtRp2808
(dp2809
g73
(dp2810
g93
g94
ssg82
g2804
sg75
(lp2811
S'raw_args'
p2812
asbag68
(g89
g70
NtRp2813
(dp2814
g73
(dp2815
g100
g101
ssg82
g2804
sg75
(lp2816
S':'
asbag68
(g89
g70
NtRp2817
(dp2818
g73
(dp2819
sg82
g2804
sg75
(lp2820
g68
(g69
g70
NtRp2821
(dp2822
g73
(dp2823
g81
I5
ssg82
g2817
sg75
(lp2824
S'2'
asbasbasbag68
(g84
g70
NtRp2825
(dp2826
g73
(dp2827
sg82
g78
sg75
(lp2828
g68
(g89
g70
NtRp2829
(dp2830
g73
(dp2831
g93
g94
ssg82
g2825
sg75
(lp2832
S'raw_extension'
p2833
asbag68
(g89
g70
NtRp2834
(dp2835
g73
(dp2836
g100
g101
ssg82
g2825
sg75
(lp2837
S':'
asbag68
(g89
g70
NtRp2838
(dp2839
g73
(dp2840
sg82
g2825
sg75
(lp2841
g68
(g69
g70
NtRp2842
(dp2843
g73
(dp2844
g81
I5
ssg82
g2838
sg75
(lp2845
S'None'
p2846
asbasbasbag68
(g84
g70
NtRp2847
(dp2848
g73
(dp2849
sg82
g78
sg75
(lp2850
g68
(g89
g70
NtRp2851
(dp2852
g73
(dp2853
g93
g94
ssg82
g2847
sg75
(lp2854
S'url'
p2855
asbag68
(g89
g70
NtRp2856
(dp2857
g73
(dp2858
g100
g101
ssg82
g2847
sg75
(lp2859
S':'
asbag68
(g89
g70
NtRp2860
(dp2861
g73
(dp2862
sg82
g2847
sg75
(lp2863
g68
(g69
g70
NtRp2864
(dp2865
g73
(dp2866
g81
I5
ssg82
g2860
sg75
(lp2867
g1631
asbasbasbag68
(g84
g70
NtRp2868
(dp2869
g73
(dp2870
sg82
g78
sg75
(lp2871
g68
(g89
g70
NtRp2872
(dp2873
g73
(dp2874
g93
g94
ssg82
g2868
sg75
(lp2875
S'utcnow'
p2876
asbag68
(g89
g70
NtRp2877
(dp2878
g73
(dp2879
g100
g101
ssg82
g2868
sg75
(lp2880
S':'
asbag68
(g89
g70
NtRp2881
(dp2882
g73
(dp2883
sg82
g2868
sg75
(lp2884
g68
(g69
g70
NtRp2885
(dp2886
g73
(dp2887
g81
I5
ssg82
g2881
sg75
(lp2888
S'datetime.datetime(2013, 2, 26, 12, 9, 23, 769843)'
p2889
asbasbasbag68
(g84
g70
NtRp2890
(dp2891
g73
(dp2892
sg82
g78
sg75
(lp2893
g68
(g89
g70
NtRp2894
(dp2895
g73
(dp2896
g93
g94
ssg82
g2890
sg75
(lp2897
S'uuid'
p2898
asbag68
(g89
g70
NtRp2899
(dp2900
g73
(dp2901
g100
g101
ssg82
g2890
sg75
(lp2902
S':'
asbag68
(g89
g70
NtRp2903
(dp2904
g73
(dp2905
sg82
g2890
sg75
(lp2906
g68
(g69
g70
NtRp2907
(dp2908
g73
(dp2909
g81
I5
ssg82
g2903
sg75
(lp2910
S'SONGS/127.0.0.1.2013-02-26.17-39-23.3f2c5fe3-b6d7-4383-b3aa-f6034545134d'
p2911
asbasbasbag68
(g84
g70
NtRp2912
(dp2913
g73
(dp2914
sg82
g78
sg75
(lp2915
g68
(g89
g70
NtRp2916
(dp2917
g73
(dp2918
g93
g94
ssg82
g2912
sg75
(lp2919
S'vars'
p2920
asbag68
(g89
g70
NtRp2921
(dp2922
g73
(dp2923
g100
g101
ssg82
g2912
sg75
(lp2924
S':'
asbag68
(g89
g70
NtRp2925
(dp2926
g73
(dp2927
sg82
g2912
sg75
(lp2928
g68
(g69
g70
NtRp2929
(dp2930
g73
(dp2931
g81
I5
ssg82
g2925
sg75
(lp2932
g68
(g77
g70
NtRp2933
(dp2934
g73
(dp2935
g81
I4
ssg82
Nsg75
(lp2936
g68
(g84
g70
NtRp2937
(dp2938
g73
(dp2939
sg82
g2933
sg75
(lp2940
g68
(g89
g70
NtRp2941
(dp2942
g73
(dp2943
g93
g94
ssg82
g2937
sg75
(lp2944
g2747
asbag68
(g89
g70
NtRp2945
(dp2946
g73
(dp2947
g100
g101
ssg82
g2937
sg75
(lp2948
S':'
asbag68
(g89
g70
NtRp2949
(dp2950
g73
(dp2951
sg82
g2937
sg75
(lp2952
g68
(g69
g70
NtRp2953
(dp2954
g73
(dp2955
g81
I4
ssg82
g2949
sg75
(lp2956
g2760
asbasbasbag68
(g84
g70
NtRp2957
(dp2958
g73
(dp2959
sg82
g2933
sg75
(lp2960
g68
(g89
g70
NtRp2961
(dp2962
g73
(dp2963
g93
g94
ssg82
g2957
sg75
(lp2964
g2769
asbag68
(g89
g70
NtRp2965
(dp2966
g73
(dp2967
g100
g101
ssg82
g2957
sg75
(lp2968
S':'
asbag68
(g89
g70
NtRp2969
(dp2970
g73
(dp2971
sg82
g2957
sg75
(lp2972
g68
(g69
g70
NtRp2973
(dp2974
g73
(dp2975
g81
I4
ssg82
g2969
sg75
(lp2976
S'2'
asbasbasbag68
(g84
g70
NtRp2977
(dp2978
g73
(dp2979
sg82
g2933
sg75
(lp2980
g68
(g89
g70
NtRp2981
(dp2982
g73
(dp2983
g93
g94
ssg82
g2977
sg75
(lp2984
g2790
asbag68
(g89
g70
NtRp2985
(dp2986
g73
(dp2987
g100
g101
ssg82
g2977
sg75
(lp2988
S':'
asbag68
(g89
g70
NtRp2989
(dp2990
g73
(dp2991
sg82
g2977
sg75
(lp2992
g68
(g69
g70
NtRp2993
(dp2994
g73
(dp2995
g81
I4
ssg82
g2989
sg75
(lp2996
g2803
asbasbasbasbasbasbasbag68
(g84
g70
NtRp2997
(dp2998
g73
(dp2999
sg82
g78
sg75
(lp3000
g68
(g89
g70
NtRp3001
(dp3002
g73
(dp3003
g93
g94
ssg82
g2997
sg75
(lp3004
S'wsgi'
p3005
asbag68
(g89
g70
NtRp3006
(dp3007
g73
(dp3008
g100
g101
ssg82
g2997
sg75
(lp3009
S':'
asbag68
(g89
g70
NtRp3010
(dp3011
g73
(dp3012
sg82
g2997
sg75
(lp3013
g68
(g69
g70
NtRp3014
(dp3015
g73
(dp3016
g81
I5
ssg82
g3010
sg75
(lp3017
g68
(g77
g70
NtRp3018
(dp3019
g73
(dp3020
g81
I4
ssg82
Nsg75
(lp3021
g68
(g84
g70
NtRp3022
(dp3023
g73
(dp3024
sg82
g3018
sg75
(lp3025
g68
(g89
g70
NtRp3026
(dp3027
g73
(dp3028
g93
g94
ssg82
g3022
sg75
(lp3029
S'environ'
p3030
asbag68
(g89
g70
NtRp3031
(dp3032
g73
(dp3033
g100
g101
ssg82
g3022
sg75
(lp3034
S':'
asbag68
(g89
g70
NtRp3035
(dp3036
g73
(dp3037
sg82
g3022
sg75
(lp3038
g68
(g69
g70
NtRp3039
(dp3040
g73
(dp3041
g81
I4
ssg82
g3035
sg75
(lp3042
g68
(g77
g70
NtRp3043
(dp3044
g73
(dp3045
g81
I3
ssg82
Nsg75
(lp3046
g68
(g84
g70
NtRp3047
(dp3048
g73
(dp3049
sg82
g3043
sg75
(lp3050
g68
(g89
g70
NtRp3051
(dp3052
g73
(dp3053
g93
g94
ssg82
g3047
sg75
(lp3054
S'CONTENT_LENGTH'
p3055
asbag68
(g89
g70
NtRp3056
(dp3057
g73
(dp3058
g100
g101
ssg82
g3047
sg75
(lp3059
S':'
asbag68
(g89
g70
NtRp3060
(dp3061
g73
(dp3062
sg82
g3047
sg75
(lp3063
g68
(g69
g70
NtRp3064
(dp3065
g73
(dp3066
g81
I3
ssg82
g3060
sg75
(lp3067
g1172
asbasbasbag68
(g84
g70
NtRp3068
(dp3069
g73
(dp3070
sg82
g3043
sg75
(lp3071
g68
(g89
g70
NtRp3072
(dp3073
g73
(dp3074
g93
g94
ssg82
g3068
sg75
(lp3075
S'CONTENT_TYPE'
p3076
asbag68
(g89
g70
NtRp3077
(dp3078
g73
(dp3079
g100
g101
ssg82
g3068
sg75
(lp3080
S':'
asbag68
(g89
g70
NtRp3081
(dp3082
g73
(dp3083
sg82
g3068
sg75
(lp3084
g68
(g69
g70
NtRp3085
(dp3086
g73
(dp3087
g81
I3
ssg82
g3081
sg75
(lp3088
g1194
asbasbasbag68
(g84
g70
NtRp3089
(dp3090
g73
(dp3091
sg82
g3043
sg75
(lp3092
g68
(g89
g70
NtRp3093
(dp3094
g73
(dp3095
g93
g94
ssg82
g3089
sg75
(lp3096
S'HTTP_ACCEPT'
p3097
asbag68
(g89
g70
NtRp3098
(dp3099
g73
(dp3100
g100
g101
ssg82
g3089
sg75
(lp3101
S':'
asbag68
(g89
g70
NtRp3102
(dp3103
g73
(dp3104
sg82
g3089
sg75
(lp3105
g68
(g69
g70
NtRp3106
(dp3107
g73
(dp3108
g81
I3
ssg82
g3102
sg75
(lp3109
g1281
asbasbasbag68
(g84
g70
NtRp3110
(dp3111
g73
(dp3112
sg82
g3043
sg75
(lp3113
g68
(g89
g70
NtRp3114
(dp3115
g73
(dp3116
g93
g94
ssg82
g3110
sg75
(lp3117
S'HTTP_ACCEPT_ENCODING'
p3118
asbag68
(g89
g70
NtRp3119
(dp3120
g73
(dp3121
g100
g101
ssg82
g3110
sg75
(lp3122
S':'
asbag68
(g89
g70
NtRp3123
(dp3124
g73
(dp3125
sg82
g3110
sg75
(lp3126
g68
(g69
g70
NtRp3127
(dp3128
g73
(dp3129
g81
I3
ssg82
g3123
sg75
(lp3130
g1303
asbasbasbag68
(g84
g70
NtRp3131
(dp3132
g73
(dp3133
sg82
g3043
sg75
(lp3134
g68
(g89
g70
NtRp3135
(dp3136
g73
(dp3137
g93
g94
ssg82
g3131
sg75
(lp3138
S'HTTP_ACCEPT_LANGUAGE'
p3139
asbag68
(g89
g70
NtRp3140
(dp3141
g73
(dp3142
g100
g101
ssg82
g3131
sg75
(lp3143
S':'
asbag68
(g89
g70
NtRp3144
(dp3145
g73
(dp3146
sg82
g3131
sg75
(lp3147
g68
(g69
g70
NtRp3148
(dp3149
g73
(dp3150
g81
I3
ssg82
g3144
sg75
(lp3151
g1325
asbasbasbag68
(g84
g70
NtRp3152
(dp3153
g73
(dp3154
sg82
g3043
sg75
(lp3155
g68
(g89
g70
NtRp3156
(dp3157
g73
(dp3158
g93
g94
ssg82
g3152
sg75
(lp3159
S'HTTP_CONNECTION'
p3160
asbag68
(g89
g70
NtRp3161
(dp3162
g73
(dp3163
g100
g101
ssg82
g3152
sg75
(lp3164
S':'
asbag68
(g89
g70
NtRp3165
(dp3166
g73
(dp3167
sg82
g3152
sg75
(lp3168
g68
(g69
g70
NtRp3169
(dp3170
g73
(dp3171
g81
I3
ssg82
g3165
sg75
(lp3172
g1347
asbasbasbag68
(g84
g70
NtRp3173
(dp3174
g73
(dp3175
sg82
g3043
sg75
(lp3176
g68
(g89
g70
NtRp3177
(dp3178
g73
(dp3179
g93
g94
ssg82
g3173
sg75
(lp3180
S'HTTP_CONTENT_LENGTH'
p3181
asbag68
(g89
g70
NtRp3182
(dp3183
g73
(dp3184
g100
g101
ssg82
g3173
sg75
(lp3185
S':'
asbag68
(g89
g70
NtRp3186
(dp3187
g73
(dp3188
sg82
g3173
sg75
(lp3189
g68
(g69
g70
NtRp3190
(dp3191
g73
(dp3192
g81
I3
ssg82
g3186
sg75
(lp3193
g1172
asbasbasbag68
(g84
g70
NtRp3194
(dp3195
g73
(dp3196
sg82
g3043
sg75
(lp3197
g68
(g89
g70
NtRp3198
(dp3199
g73
(dp3200
g93
g94
ssg82
g3194
sg75
(lp3201
S'HTTP_CONTENT_TYPE'
p3202
asbag68
(g89
g70
NtRp3203
(dp3204
g73
(dp3205
g100
g101
ssg82
g3194
sg75
(lp3206
S':'
asbag68
(g89
g70
NtRp3207
(dp3208
g73
(dp3209
sg82
g3194
sg75
(lp3210
g68
(g69
g70
NtRp3211
(dp3212
g73
(dp3213
g81
I3
ssg82
g3207
sg75
(lp3214
g1194
asbasbasbag68
(g84
g70
NtRp3215
(dp3216
g73
(dp3217
sg82
g3043
sg75
(lp3218
g68
(g89
g70
NtRp3219
(dp3220
g73
(dp3221
g93
g94
ssg82
g3215
sg75
(lp3222
S'HTTP_COOKIE'
p3223
asbag68
(g89
g70
NtRp3224
(dp3225
g73
(dp3226
g100
g101
ssg82
g3215
sg75
(lp3227
S':'
asbag68
(g89
g70
NtRp3228
(dp3229
g73
(dp3230
sg82
g3215
sg75
(lp3231
g68
(g69
g70
NtRp3232
(dp3233
g73
(dp3234
g81
I3
ssg82
g3228
sg75
(lp3235
g1411
asbasbasbag68
(g84
g70
NtRp3236
(dp3237
g73
(dp3238
sg82
g3043
sg75
(lp3239
g68
(g89
g70
NtRp3240
(dp3241
g73
(dp3242
g93
g94
ssg82
g3236
sg75
(lp3243
S'HTTP_HOST'
p3244
asbag68
(g89
g70
NtRp3245
(dp3246
g73
(dp3247
g100
g101
ssg82
g3236
sg75
(lp3248
S':'
asbag68
(g89
g70
NtRp3249
(dp3250
g73
(dp3251
sg82
g3236
sg75
(lp3252
g68
(g69
g70
NtRp3253
(dp3254
g73
(dp3255
g81
I3
ssg82
g3249
sg75
(lp3256
g1433
asbasbasbag68
(g84
g70
NtRp3257
(dp3258
g73
(dp3259
sg82
g3043
sg75
(lp3260
g68
(g89
g70
NtRp3261
(dp3262
g73
(dp3263
g93
g94
ssg82
g3257
sg75
(lp3264
S'HTTP_REFERER'
p3265
asbag68
(g89
g70
NtRp3266
(dp3267
g73
(dp3268
g100
g101
ssg82
g3257
sg75
(lp3269
S':'
asbag68
(g89
g70
NtRp3270
(dp3271
g73
(dp3272
sg82
g3257
sg75
(lp3273
g68
(g69
g70
NtRp3274
(dp3275
g73
(dp3276
g81
I3
ssg82
g3270
sg75
(lp3277
g1455
asbasbasbag68
(g84
g70
NtRp3278
(dp3279
g73
(dp3280
sg82
g3043
sg75
(lp3281
g68
(g89
g70
NtRp3282
(dp3283
g73
(dp3284
g93
g94
ssg82
g3278
sg75
(lp3285
S'HTTP_USER_AGENT'
p3286
asbag68
(g89
g70
NtRp3287
(dp3288
g73
(dp3289
g100
g101
ssg82
g3278
sg75
(lp3290
S':'
asbag68
(g89
g70
NtRp3291
(dp3292
g73
(dp3293
sg82
g3278
sg75
(lp3294
g68
(g69
g70
NtRp3295
(dp3296
g73
(dp3297
g81
I3
ssg82
g3291
sg75
(lp3298
g1477
asbasbasbag68
(g84
g70
NtRp3299
(dp3300
g73
(dp3301
sg82
g3043
sg75
(lp3302
g68
(g89
g70
NtRp3303
(dp3304
g73
(dp3305
g93
g94
ssg82
g3299
sg75
(lp3306
S'PATH_INFO'
p3307
asbag68
(g89
g70
NtRp3308
(dp3309
g73
(dp3310
g100
g101
ssg82
g3299
sg75
(lp3311
S':'
asbag68
(g89
g70
NtRp3312
(dp3313
g73
(dp3314
sg82
g3299
sg75
(lp3315
g68
(g69
g70
NtRp3316
(dp3317
g73
(dp3318
g81
I3
ssg82
g3312
sg75
(lp3319
g1631
asbasbasbag68
(g84
g70
NtRp3320
(dp3321
g73
(dp3322
sg82
g3043
sg75
(lp3323
g68
(g89
g70
NtRp3324
(dp3325
g73
(dp3326
g93
g94
ssg82
g3320
sg75
(lp3327
S'QUERY_STRING'
p3328
asbag68
(g89
g70
NtRp3329
(dp3330
g73
(dp3331
g100
g101
ssg82
g3320
sg75
(lp3332
S':'
asbag68
(g89
g70
NtRp3333
(dp3334
g73
(dp3335
sg82
g3320
sg75
(lp3336
g68
(g69
g70
NtRp3337
(dp3338
g73
(dp3339
g81
I3
ssg82
g3333
sg75
(lp3340
S''
asbasbasbag68
(g84
g70
NtRp3341
(dp3342
g73
(dp3343
sg82
g3043
sg75
(lp3344
g68
(g89
g70
NtRp3345
(dp3346
g73
(dp3347
g93
g94
ssg82
g3341
sg75
(lp3348
S'REMOTE_ADDR'
p3349
asbag68
(g89
g70
NtRp3350
(dp3351
g73
(dp3352
g100
g101
ssg82
g3341
sg75
(lp3353
S':'
asbag68
(g89
g70
NtRp3354
(dp3355
g73
(dp3356
sg82
g3341
sg75
(lp3357
g68
(g69
g70
NtRp3358
(dp3359
g73
(dp3360
g81
I3
ssg82
g3354
sg75
(lp3361
g235
asbasbasbag68
(g84
g70
NtRp3362
(dp3363
g73
(dp3364
sg82
g3043
sg75
(lp3365
g68
(g89
g70
NtRp3366
(dp3367
g73
(dp3368
g93
g94
ssg82
g3362
sg75
(lp3369
S'REMOTE_PORT'
p3370
asbag68
(g89
g70
NtRp3371
(dp3372
g73
(dp3373
g100
g101
ssg82
g3362
sg75
(lp3374
S':'
asbag68
(g89
g70
NtRp3375
(dp3376
g73
(dp3377
sg82
g3362
sg75
(lp3378
g68
(g69
g70
NtRp3379
(dp3380
g73
(dp3381
g81
I3
ssg82
g3375
sg75
(lp3382
g1695
asbasbasbag68
(g84
g70
NtRp3383
(dp3384
g73
(dp3385
sg82
g3043
sg75
(lp3386
g68
(g89
g70
NtRp3387
(dp3388
g73
(dp3389
g93
g94
ssg82
g3383
sg75
(lp3390
S'REQUEST_METHOD'
p3391
asbag68
(g89
g70
NtRp3392
(dp3393
g73
(dp3394
g100
g101
ssg82
g3383
sg75
(lp3395
S':'
asbag68
(g89
g70
NtRp3396
(dp3397
g73
(dp3398
sg82
g3383
sg75
(lp3399
g68
(g69
g70
NtRp3400
(dp3401
g73
(dp3402
g81
I3
ssg82
g3396
sg75
(lp3403
g1717
asbasbasbag68
(g84
g70
NtRp3404
(dp3405
g73
(dp3406
sg82
g3043
sg75
(lp3407
g68
(g89
g70
NtRp3408
(dp3409
g73
(dp3410
g93
g94
ssg82
g3404
sg75
(lp3411
S'REQUEST_URI'
p3412
asbag68
(g89
g70
NtRp3413
(dp3414
g73
(dp3415
g100
g101
ssg82
g3404
sg75
(lp3416
S':'
asbag68
(g89
g70
NtRp3417
(dp3418
g73
(dp3419
sg82
g3404
sg75
(lp3420
g68
(g69
g70
NtRp3421
(dp3422
g73
(dp3423
g81
I3
ssg82
g3417
sg75
(lp3424
g1631
asbasbasbag68
(g84
g70
NtRp3425
(dp3426
g73
(dp3427
sg82
g3043
sg75
(lp3428
g68
(g89
g70
NtRp3429
(dp3430
g73
(dp3431
g93
g94
ssg82
g3425
sg75
(lp3432
S'SCRIPT_NAME'
p3433
asbag68
(g89
g70
NtRp3434
(dp3435
g73
(dp3436
g100
g101
ssg82
g3425
sg75
(lp3437
S':'
asbag68
(g89
g70
NtRp3438
(dp3439
g73
(dp3440
sg82
g3425
sg75
(lp3441
g68
(g69
g70
NtRp3442
(dp3443
g73
(dp3444
g81
I3
ssg82
g3438
sg75
(lp3445
S''
asbasbasbag68
(g84
g70
NtRp3446
(dp3447
g73
(dp3448
sg82
g3043
sg75
(lp3449
g68
(g89
g70
NtRp3450
(dp3451
g73
(dp3452
g93
g94
ssg82
g3446
sg75
(lp3453
S'SERVER_NAME'
p3454
asbag68
(g89
g70
NtRp3455
(dp3456
g73
(dp3457
g100
g101
ssg82
g3446
sg75
(lp3458
S':'
asbag68
(g89
g70
NtRp3459
(dp3460
g73
(dp3461
sg82
g3446
sg75
(lp3462
g68
(g69
g70
NtRp3463
(dp3464
g73
(dp3465
g81
I3
ssg82
g3459
sg75
(lp3466
g1781
asbasbasbag68
(g84
g70
NtRp3467
(dp3468
g73
(dp3469
sg82
g3043
sg75
(lp3470
g68
(g89
g70
NtRp3471
(dp3472
g73
(dp3473
g93
g94
ssg82
g3467
sg75
(lp3474
S'SERVER_PORT'
p3475
asbag68
(g89
g70
NtRp3476
(dp3477
g73
(dp3478
g100
g101
ssg82
g3467
sg75
(lp3479
S':'
asbag68
(g89
g70
NtRp3480
(dp3481
g73
(dp3482
sg82
g3467
sg75
(lp3483
g68
(g69
g70
NtRp3484
(dp3485
g73
(dp3486
g81
I3
ssg82
g3480
sg75
(lp3487
g1803
asbasbasbag68
(g84
g70
NtRp3488
(dp3489
g73
(dp3490
sg82
g3043
sg75
(lp3491
g68
(g89
g70
NtRp3492
(dp3493
g73
(dp3494
g93
g94
ssg82
g3488
sg75
(lp3495
S'SERVER_PROTOCOL'
p3496
asbag68
(g89
g70
NtRp3497
(dp3498
g73
(dp3499
g100
g101
ssg82
g3488
sg75
(lp3500
S':'
asbag68
(g89
g70
NtRp3501
(dp3502
g73
(dp3503
sg82
g3488
sg75
(lp3504
g68
(g69
g70
NtRp3505
(dp3506
g73
(dp3507
g81
I3
ssg82
g3501
sg75
(lp3508
g1825
asbasbasbag68
(g84
g70
NtRp3509
(dp3510
g73
(dp3511
sg82
g3043
sg75
(lp3512
g68
(g89
g70
NtRp3513
(dp3514
g73
(dp3515
g93
g94
ssg82
g3509
sg75
(lp3516
S'SERVER_SOFTWARE'
p3517
asbag68
(g89
g70
NtRp3518
(dp3519
g73
(dp3520
g100
g101
ssg82
g3509
sg75
(lp3521
S':'
asbag68
(g89
g70
NtRp3522
(dp3523
g73
(dp3524
sg82
g3509
sg75
(lp3525
g68
(g69
g70
NtRp3526
(dp3527
g73
(dp3528
g81
I3
ssg82
g3522
sg75
(lp3529
g1847
asbasbasbag68
(g84
g70
NtRp3530
(dp3531
g73
(dp3532
sg82
g3043
sg75
(lp3533
g68
(g89
g70
NtRp3534
(dp3535
g73
(dp3536
g93
g94
ssg82
g3530
sg75
(lp3537
S'wsgi.errors'
p3538
asbag68
(g89
g70
NtRp3539
(dp3540
g73
(dp3541
g100
g101
ssg82
g3530
sg75
(lp3542
S':'
asbag68
(g89
g70
NtRp3543
(dp3544
g73
(dp3545
sg82
g3530
sg75
(lp3546
g68
(g69
g70
NtRp3547
(dp3548
g73
(dp3549
g81
I3
ssg82
g3543
sg75
(lp3550
S"<open file '<stderr>', mode 'w' at 0xb74db0d0>"
p3551
asbasbasbag68
(g84
g70
NtRp3552
(dp3553
g73
(dp3554
sg82
g3043
sg75
(lp3555
g68
(g89
g70
NtRp3556
(dp3557
g73
(dp3558
g93
g94
ssg82
g3552
sg75
(lp3559
S'wsgi.file_wrapper'
p3560
asbag68
(g89
g70
NtRp3561
(dp3562
g73
(dp3563
g100
g101
ssg82
g3552
sg75
(lp3564
S':'
asbag68
(g89
g70
NtRp3565
(dp3566
g73
(dp3567
sg82
g3552
sg75
(lp3568
g68
(g69
g70
NtRp3569
(dp3570
g73
(dp3571
g81
I3
ssg82
g3565
sg75
(lp3572
S'<class wsgiref.util.FileWrapper at 0x9976ecc>'
p3573
asbasbasbag68
(g84
g70
NtRp3574
(dp3575
g73
(dp3576
sg82
g3043
sg75
(lp3577
g68
(g89
g70
NtRp3578
(dp3579
g73
(dp3580
g93
g94
ssg82
g3574
sg75
(lp3581
S'wsgi.input'
p3582
asbag68
(g89
g70
NtRp3583
(dp3584
g73
(dp3585
g100
g101
ssg82
g3574
sg75
(lp3586
S':'
asbag68
(g89
g70
NtRp3587
(dp3588
g73
(dp3589
sg82
g3574
sg75
(lp3590
g68
(g69
g70
NtRp3591
(dp3592
g73
(dp3593
g81
I3
ssg82
g3587
sg75
(lp3594
S"<open file '<fdopen>', mode 'w+b' at 0xae383180>"
p3595
asbasbasbag68
(g84
g70
NtRp3596
(dp3597
g73
(dp3598
sg82
g3043
sg75
(lp3599
g68
(g89
g70
NtRp3600
(dp3601
g73
(dp3602
g93
g94
ssg82
g3596
sg75
(lp3603
S'wsgi.multiprocess'
p3604
asbag68
(g89
g70
NtRp3605
(dp3606
g73
(dp3607
g100
g101
ssg82
g3596
sg75
(lp3608
S':'
asbag68
(g89
g70
NtRp3609
(dp3610
g73
(dp3611
sg82
g3596
sg75
(lp3612
g68
(g69
g70
NtRp3613
(dp3614
g73
(dp3615
g81
I3
ssg82
g3609
sg75
(lp3616
g111
asbasbasbag68
(g84
g70
NtRp3617
(dp3618
g73
(dp3619
sg82
g3043
sg75
(lp3620
g68
(g89
g70
NtRp3621
(dp3622
g73
(dp3623
g93
g94
ssg82
g3617
sg75
(lp3624
S'wsgi.multithread'
p3625
asbag68
(g89
g70
NtRp3626
(dp3627
g73
(dp3628
g100
g101
ssg82
g3617
sg75
(lp3629
S':'
asbag68
(g89
g70
NtRp3630
(dp3631
g73
(dp3632
sg82
g3617
sg75
(lp3633
g68
(g69
g70
NtRp3634
(dp3635
g73
(dp3636
g81
I3
ssg82
g3630
sg75
(lp3637
g2064
asbasbasbag68
(g84
g70
NtRp3638
(dp3639
g73
(dp3640
sg82
g3043
sg75
(lp3641
g68
(g89
g70
NtRp3642
(dp3643
g73
(dp3644
g93
g94
ssg82
g3638
sg75
(lp3645
S'wsgi.run_once'
p3646
asbag68
(g89
g70
NtRp3647
(dp3648
g73
(dp3649
g100
g101
ssg82
g3638
sg75
(lp3650
S':'
asbag68
(g89
g70
NtRp3651
(dp3652
g73
(dp3653
sg82
g3638
sg75
(lp3654
g68
(g69
g70
NtRp3655
(dp3656
g73
(dp3657
g81
I3
ssg82
g3651
sg75
(lp3658
g111
asbasbasbag68
(g84
g70
NtRp3659
(dp3660
g73
(dp3661
sg82
g3043
sg75
(lp3662
g68
(g89
g70
NtRp3663
(dp3664
g73
(dp3665
g93
g94
ssg82
g3659
sg75
(lp3666
S'wsgi.url_scheme'
p3667
asbag68
(g89
g70
NtRp3668
(dp3669
g73
(dp3670
g100
g101
ssg82
g3659
sg75
(lp3671
S':'
asbag68
(g89
g70
NtRp3672
(dp3673
g73
(dp3674
sg82
g3659
sg75
(lp3675
g68
(g69
g70
NtRp3676
(dp3677
g73
(dp3678
g81
I3
ssg82
g3672
sg75
(lp3679
g2107
asbasbasbag68
(g84
g70
NtRp3680
(dp3681
g73
(dp3682
sg82
g3043
sg75
(lp3683
g68
(g89
g70
NtRp3684
(dp3685
g73
(dp3686
g93
g94
ssg82
g3680
sg75
(lp3687
S'wsgi.version'
p3688
asbag68
(g89
g70
NtRp3689
(dp3690
g73
(dp3691
g100
g101
ssg82
g3680
sg75
(lp3692
S':'
asbag68
(g89
g70
NtRp3693
(dp3694
g73
(dp3695
sg82
g3680
sg75
(lp3696
g68
(g69
g70
NtRp3697
(dp3698
g73
(dp3699
g81
I3
ssg82
g3693
sg75
(lp3700
S'1'
asbasbasbasbasbasbasbasbasbasbasbasbasbsS'frames'
p3701
(lp3702
(dp3703
S'file'
p3704
S'/home/gaurav/classwork/WEB_PROGRAMMING/web2py/gluon/restricted.py'
p3705
sS'dump'
p3706
(dp3707
S'code'
p3708
S"'# -*- coding: utf-8 -*-\\n# this file is released ...)\\n\\n\\nresponse._vars=response._caller(update_len2)\\n'"
p3709
sS'layer'
p3710
S"'/home/gaurav/classwork/WEB_PROGRAMMING/web2py/applications/SONGS/controllers/default.py'"
p3711
sS'global compile2'
p3712
S'<function compile2>'
p3713
sS'ccode'
p3714
S'undefined'
p3715
ssS'lnum'
p3716
I211
sS'lines'
p3717
(dp3718
I206
S"    environment['__name__'] = '__restricted__'"
p3719
sI207
S'    try:'
p3720
sI208
S'        if isinstance(code, types.CodeType):'
p3721
sI209
S'            ccode = code'
p3722
sI210
S'        else:'
p3723
sI211
S'            ccode = compile2(code, layer)'
p3724
sI212
S'        exec ccode in environment'
p3725
sI213
S'    except HTTP:'
p3726
sI214
S'        raise'
p3727
sI215
S'    except RestrictedError:'
p3728
ssS'call'
p3729
S"(code='# -*- coding: utf-8 -*-\\n# this file is released ...)\\n\\n\\nresponse._vars=response._caller(update_len2)\\n', environment={'A': <class 'gluon.html.A'>, 'Auth': <class 'gluon.tools.Auth'>, 'B': <class 'gluon.html.B'>, 'BEAUTIFY': <class 'gluon.html.BEAUTIFY'>, 'BODY': <class 'gluon.html.BODY'>, 'BR': <class 'gluon.html.BR'>, 'BUTTON': <class 'gluon.html.BUTTON'>, 'CAT': <class 'gluon.html.CAT'>, 'CENTER': <class 'gluon.html.CENTER'>, 'CLEANUP': <class 'gluon.validators.CLEANUP'>, ...}, layer='/home/gaurav/classwork/WEB_PROGRAMMING/web2py/applications/SONGS/controllers/default.py')"
p3730
sS'func'
p3731
S'restricted'
p3732
sa(dp3733
g3704
S'/home/gaurav/classwork/WEB_PROGRAMMING/web2py/gluon/restricted.py'
p3734
sg3706
(dp3735
S'builtincompile'
p3736
S'<built-in function compile>'
p3737
sS'code'
p3738
S"'# -*- coding: utf-8 -*-\\n# this file is released ...)\\n\\n\\nresponse._vars=response._caller(update_len2)\\n'"
p3739
sS'code.rstrip'
p3740
S'<built-in method rstrip of str object>'
p3741
sS').replace'
p3742
g3715
sS'layer'
p3743
S"'/home/gaurav/classwork/WEB_PROGRAMMING/web2py/applications/SONGS/controllers/default.py'"
p3744
ssg3716
I194
sg3717
(dp3745
I192
S"    The +'\\n' is necessary else compile fails when code ends in a comment."
p3746
sI193
S'    """'
p3747
sI194
S"    return compile(code.rstrip().replace('\\r\\n', '\\n') + '\\n', layer, 'exec')"
p3748
sI195
S''
sI196
S''
sI197
S"def restricted(code, environment=None, layer='Unknown'):"
p3749
sI198
S'    """'
p3750
sI189
S''
sI190
S'def compile2(code, layer):'
p3751
sI191
S'    """'
p3752
ssg3729
S"(code='# -*- coding: utf-8 -*-\\n# this file is released ...)\\n\\n\\nresponse._vars=response._caller(update_len2)\\n', layer='/home/gaurav/classwork/WEB_PROGRAMMING/web2py/applications/SONGS/controllers/default.py')"
p3753
sg3731
S'compile2'
p3754
sasS'pyver'
p3755
S'Python 2.7.3: /usr/bin/python'
p3756
sS'session'
p3757
g68
(g69
g70
NtRp3758
(dp3759
g73
(dp3760
sg75
(lp3761
g68
(g77
g70
NtRp3762
(dp3763
g73
(dp3764
g81
I5
ssg82
Nsg75
(lp3765
g68
(g84
g70
NtRp3766
(dp3767
g73
(dp3768
sg82
g3762
sg75
(lp3769
g68
(g89
g70
NtRp3770
(dp3771
g73
(dp3772
g93
g94
ssg82
g3766
sg75
(lp3773
S'last_orderby'
p3774
asbag68
(g89
g70
NtRp3775
(dp3776
g73
(dp3777
g100
g101
ssg82
g3766
sg75
(lp3778
S':'
asbag68
(g89
g70
NtRp3779
(dp3780
g73
(dp3781
sg82
g3766
sg75
(lp3782
g68
(g69
g70
NtRp3783
(dp3784
g73
(dp3785
g81
I5
ssg82
g3779
sg75
(lp3786
S'None'
p3787
asbasbasbag68
(g84
g70
NtRp3788
(dp3789
g73
(dp3790
sg82
g3762
sg75
(lp3791
g68
(g89
g70
NtRp3792
(dp3793
g73
(dp3794
g93
g94
ssg82
g3788
sg75
(lp3795
S'last_query'
p3796
asbag68
(g89
g70
NtRp3797
(dp3798
g73
(dp3799
g100
g101
ssg82
g3788
sg75
(lp3800
S':'
asbag68
(g89
g70
NtRp3801
(dp3802
g73
(dp3803
sg82
g3788
sg75
(lp3804
g68
(g69
g70
NtRp3805
(dp3806
g73
(dp3807
g81
I5
ssg82
g3801
sg75
(lp3808
S'db.songs.id>0'
p3809
asbasbasbasbasbsS'etype'
p3810
S"<type 'exceptions.SyntaxError'>"
p3811
sS'date'
p3812
S'Tue Feb 26 17:39:23 2013'
p3813
sS'response'
p3814
g68
(g69
g70
NtRp3815
(dp3816
g73
(dp3817
sg75
(lp3818
g68
(g77
g70
NtRp3819
(dp3820
g73
(dp3821
g81
I5
ssg82
Nsg75
(lp3822
g68
(g84
g70
NtRp3823
(dp3824
g73
(dp3825
sg82
g3819
sg75
(lp3826
g68
(g89
g70
NtRp3827
(dp3828
g73
(dp3829
g93
g94
ssg82
g3823
sg75
(lp3830
g178
asbag68
(g89
g70
NtRp3831
(dp3832
g73
(dp3833
g100
g101
ssg82
g3823
sg75
(lp3834
S':'
asbag68
(g89
g70
NtRp3835
(dp3836
g73
(dp3837
sg82
g3823
sg75
(lp3838
g68
(g69
g70
NtRp3839
(dp3840
g73
(dp3841
g81
I5
ssg82
g3835
sg75
(lp3842
S'<cStringIO.StringO object at 0xa2c5b20>'
p3843
asbasbasbag68
(g84
g70
NtRp3844
(dp3845
g73
(dp3846
sg82
g3819
sg75
(lp3847
g68
(g89
g70
NtRp3848
(dp3849
g73
(dp3850
g93
g94
ssg82
g3844
sg75
(lp3851
g266
asbag68
(g89
g70
NtRp3852
(dp3853
g73
(dp3854
g100
g101
ssg82
g3844
sg75
(lp3855
S':'
asbag68
(g89
g70
NtRp3856
(dp3857
g73
(dp3858
sg82
g3844
sg75
(lp3859
g68
(g69
g70
NtRp3860
(dp3861
g73
(dp3862
g81
I5
ssg82
g3856
sg75
(lp3863
g68
(g77
g70
NtRp3864
(dp3865
g73
(dp3866
g81
I4
ssg82
Nsg75
(lp3867
g68
(g84
g70
NtRp3868
(dp3869
g73
(dp3870
sg82
g3864
sg75
(lp3871
g68
(g89
g70
NtRp3872
(dp3873
g73
(dp3874
g93
g94
ssg82
g3868
sg75
(lp3875
S'session_id_songs'
p3876
asbag68
(g89
g70
NtRp3877
(dp3878
g73
(dp3879
g100
g101
ssg82
g3868
sg75
(lp3880
S':'
asbag68
(g89
g70
NtRp3881
(dp3882
g73
(dp3883
sg82
g3868
sg75
(lp3884
g68
(g69
g70
NtRp3885
(dp3886
g73
(dp3887
g81
I4
ssg82
g3881
sg75
(lp3888
g684
ag68
(g77
g70
NtRp3889
(dp3890
g73
(dp3891
g81
I3
ssg82
Nsg75
(lp3892
g68
(g84
g70
NtRp3893
(dp3894
g73
(dp3895
sg82
g3889
sg75
(lp3896
g68
(g89
g70
NtRp3897
(dp3898
g73
(dp3899
g93
g94
ssg82
g3893
sg75
(lp3900
g317
asbag68
(g89
g70
NtRp3901
(dp3902
g73
(dp3903
g100
g101
ssg82
g3893
sg75
(lp3904
S':'
asbag68
(g89
g70
NtRp3905
(dp3906
g73
(dp3907
sg82
g3893
sg75
(lp3908
g68
(g69
g70
NtRp3909
(dp3910
g73
(dp3911
g81
I3
ssg82
g3905
sg75
(lp3912
S''
asbasbasbag68
(g84
g70
NtRp3913
(dp3914
g73
(dp3915
sg82
g3889
sg75
(lp3916
g68
(g89
g70
NtRp3917
(dp3918
g73
(dp3919
g93
g94
ssg82
g3913
sg75
(lp3920
g338
asbag68
(g89
g70
NtRp3921
(dp3922
g73
(dp3923
g100
g101
ssg82
g3913
sg75
(lp3924
S':'
asbag68
(g89
g70
NtRp3925
(dp3926
g73
(dp3927
sg82
g3913
sg75
(lp3928
g68
(g69
g70
NtRp3929
(dp3930
g73
(dp3931
g81
I3
ssg82
g3925
sg75
(lp3932
S''
asbasbasbag68
(g84
g70
NtRp3933
(dp3934
g73
(dp3935
sg82
g3889
sg75
(lp3936
g68
(g89
g70
NtRp3937
(dp3938
g73
(dp3939
g93
g94
ssg82
g3933
sg75
(lp3940
g359
asbag68
(g89
g70
NtRp3941
(dp3942
g73
(dp3943
g100
g101
ssg82
g3933
sg75
(lp3944
S':'
asbag68
(g89
g70
NtRp3945
(dp3946
g73
(dp3947
sg82
g3933
sg75
(lp3948
g68
(g69
g70
NtRp3949
(dp3950
g73
(dp3951
g81
I3
ssg82
g3945
sg75
(lp3952
S''
asbasbasbag68
(g84
g70
NtRp3953
(dp3954
g73
(dp3955
sg82
g3889
sg75
(lp3956
g68
(g89
g70
NtRp3957
(dp3958
g73
(dp3959
g93
g94
ssg82
g3953
sg75
(lp3960
g380
asbag68
(g89
g70
NtRp3961
(dp3962
g73
(dp3963
g100
g101
ssg82
g3953
sg75
(lp3964
S':'
asbag68
(g89
g70
NtRp3965
(dp3966
g73
(dp3967
sg82
g3953
sg75
(lp3968
g68
(g69
g70
NtRp3969
(dp3970
g73
(dp3971
g81
I3
ssg82
g3965
sg75
(lp3972
S''
asbasbasbag68
(g84
g70
NtRp3973
(dp3974
g73
(dp3975
sg82
g3889
sg75
(lp3976
g68
(g89
g70
NtRp3977
(dp3978
g73
(dp3979
g93
g94
ssg82
g3973
sg75
(lp3980
g401
asbag68
(g89
g70
NtRp3981
(dp3982
g73
(dp3983
g100
g101
ssg82
g3973
sg75
(lp3984
S':'
asbag68
(g89
g70
NtRp3985
(dp3986
g73
(dp3987
sg82
g3973
sg75
(lp3988
g68
(g69
g70
NtRp3989
(dp3990
g73
(dp3991
g81
I3
ssg82
g3985
sg75
(lp3992
S''
asbasbasbag68
(g84
g70
NtRp3993
(dp3994
g73
(dp3995
sg82
g3889
sg75
(lp3996
g68
(g89
g70
NtRp3997
(dp3998
g73
(dp3999
g93
g94
ssg82
g3993
sg75
(lp4000
g422
asbag68
(g89
g70
NtRp4001
(dp4002
g73
(dp4003
g100
g101
ssg82
g3993
sg75
(lp4004
S':'
asbag68
(g89
g70
NtRp4005
(dp4006
g73
(dp4007
sg82
g3993
sg75
(lp4008
g68
(g69
g70
NtRp4009
(dp4010
g73
(dp4011
g81
I3
ssg82
g4005
sg75
(lp4012
S'/'
asbasbasbag68
(g84
g70
NtRp4013
(dp4014
g73
(dp4015
sg82
g3889
sg75
(lp4016
g68
(g89
g70
NtRp4017
(dp4018
g73
(dp4019
g93
g94
ssg82
g4013
sg75
(lp4020
g443
asbag68
(g89
g70
NtRp4021
(dp4022
g73
(dp4023
g100
g101
ssg82
g4013
sg75
(lp4024
S':'
asbag68
(g89
g70
NtRp4025
(dp4026
g73
(dp4027
sg82
g4013
sg75
(lp4028
g68
(g69
g70
NtRp4029
(dp4030
g73
(dp4031
g81
I3
ssg82
g4025
sg75
(lp4032
S''
asbasbasbag68
(g84
g70
NtRp4033
(dp4034
g73
(dp4035
sg82
g3889
sg75
(lp4036
g68
(g89
g70
NtRp4037
(dp4038
g73
(dp4039
g93
g94
ssg82
g4033
sg75
(lp4040
g464
asbag68
(g89
g70
NtRp4041
(dp4042
g73
(dp4043
g100
g101
ssg82
g4033
sg75
(lp4044
S':'
asbag68
(g89
g70
NtRp4045
(dp4046
g73
(dp4047
sg82
g4033
sg75
(lp4048
g68
(g69
g70
NtRp4049
(dp4050
g73
(dp4051
g81
I3
ssg82
g4045
sg75
(lp4052
S''
asbasbasbasbasbasbasbasbasbasbasbag68
(g84
g70
NtRp4053
(dp4054
g73
(dp4055
sg82
g3819
sg75
(lp4056
g68
(g89
g70
NtRp4057
(dp4058
g73
(dp4059
g93
g94
ssg82
g4053
sg75
(lp4060
S'delimiters'
p4061
asbag68
(g89
g70
NtRp4062
(dp4063
g73
(dp4064
g100
g101
ssg82
g4053
sg75
(lp4065
S':'
asbag68
(g89
g70
NtRp4066
(dp4067
g73
(dp4068
sg82
g4053
sg75
(lp4069
g68
(g69
g70
NtRp4070
(dp4071
g73
(dp4072
g81
I5
ssg82
g4066
sg75
(lp4073
g68
(g77
g70
NtRp4074
(dp4075
g73
(dp4076
g81
I4
ssg82
Nsg75
(lp4077
g68
(g84
g70
NtRp4078
(dp4079
g73
(dp4080
sg82
g4074
sg75
(lp4081
g68
(g89
g70
NtRp4082
(dp4083
g73
(dp4084
sg82
g4078
sg75
(lp4085
g68
(g69
g70
NtRp4086
(dp4087
g73
(dp4088
g81
I4
ssg82
g4082
sg75
(lp4089
S'{{'
p4090
asbasbasbag68
(g84
g70
NtRp4091
(dp4092
g73
(dp4093
sg82
g4074
sg75
(lp4094
g68
(g89
g70
NtRp4095
(dp4096
g73
(dp4097
sg82
g4091
sg75
(lp4098
g68
(g69
g70
NtRp4099
(dp4100
g73
(dp4101
g81
I4
ssg82
g4095
sg75
(lp4102
S'}}'
p4103
asbasbasbasbasbasbasbag68
(g84
g70
NtRp4104
(dp4105
g73
(dp4106
sg82
g3819
sg75
(lp4107
g68
(g89
g70
NtRp4108
(dp4109
g73
(dp4110
g93
g94
ssg82
g4104
sg75
(lp4111
S'files'
p4112
asbag68
(g89
g70
NtRp4113
(dp4114
g73
(dp4115
g100
g101
ssg82
g4104
sg75
(lp4116
S':'
asbag68
(g89
g70
NtRp4117
(dp4118
g73
(dp4119
sg82
g4104
sg75
(lp4120
g68
(g69
g70
NtRp4121
(dp4122
g73
(dp4123
g81
I5
ssg82
g4117
sg75
(lp4124
g68
(g77
g70
NtRp4125
(dp4126
g73
(dp4127
g81
I4
ssg82
Nsg75
(lp4128
sbasbasbasbag68
(g84
g70
NtRp4129
(dp4130
g73
(dp4131
sg82
g3819
sg75
(lp4132
g68
(g89
g70
NtRp4133
(dp4134
g73
(dp4135
g93
g94
ssg82
g4129
sg75
(lp4136
S'flash'
p4137
asbag68
(g89
g70
NtRp4138
(dp4139
g73
(dp4140
g100
g101
ssg82
g4129
sg75
(lp4141
S':'
asbag68
(g89
g70
NtRp4142
(dp4143
g73
(dp4144
sg82
g4129
sg75
(lp4145
g68
(g69
g70
NtRp4146
(dp4147
g73
(dp4148
g81
I5
ssg82
g4142
sg75
(lp4149
S''
asbasbasbag68
(g84
g70
NtRp4150
(dp4151
g73
(dp4152
sg82
g3819
sg75
(lp4153
g68
(g89
g70
NtRp4154
(dp4155
g73
(dp4156
g93
g94
ssg82
g4150
sg75
(lp4157
S'generic_patterns'
p4158
asbag68
(g89
g70
NtRp4159
(dp4160
g73
(dp4161
g100
g101
ssg82
g4150
sg75
(lp4162
S':'
asbag68
(g89
g70
NtRp4163
(dp4164
g73
(dp4165
sg82
g4150
sg75
(lp4166
g68
(g69
g70
NtRp4167
(dp4168
g73
(dp4169
g81
I5
ssg82
g4163
sg75
(lp4170
g68
(g77
g70
NtRp4171
(dp4172
g73
(dp4173
g81
I4
ssg82
Nsg75
(lp4174
g68
(g84
g70
NtRp4175
(dp4176
g73
(dp4177
sg82
g4171
sg75
(lp4178
g68
(g89
g70
NtRp4179
(dp4180
g73
(dp4181
sg82
g4175
sg75
(lp4182
g68
(g69
g70
NtRp4183
(dp4184
g73
(dp4185
g81
I4
ssg82
g4179
sg75
(lp4186
S'*'
asbasbasbasbasbasbasbag68
(g84
g70
NtRp4187
(dp4188
g73
(dp4189
sg82
g3819
sg75
(lp4190
g68
(g89
g70
NtRp4191
(dp4192
g73
(dp4193
g93
g94
ssg82
g4187
sg75
(lp4194
S'google_analytics_id'
p4195
asbag68
(g89
g70
NtRp4196
(dp4197
g73
(dp4198
g100
g101
ssg82
g4187
sg75
(lp4199
S':'
asbag68
(g89
g70
NtRp4200
(dp4201
g73
(dp4202
sg82
g4187
sg75
(lp4203
g68
(g69
g70
NtRp4204
(dp4205
g73
(dp4206
g81
I5
ssg82
g4200
sg75
(lp4207
S'None'
p4208
asbasbasbag68
(g84
g70
NtRp4209
(dp4210
g73
(dp4211
sg82
g3819
sg75
(lp4212
g68
(g89
g70
NtRp4213
(dp4214
g73
(dp4215
g93
g94
ssg82
g4209
sg75
(lp4216
S'headers'
p4217
asbag68
(g89
g70
NtRp4218
(dp4219
g73
(dp4220
g100
g101
ssg82
g4209
sg75
(lp4221
S':'
asbag68
(g89
g70
NtRp4222
(dp4223
g73
(dp4224
sg82
g4209
sg75
(lp4225
g68
(g69
g70
NtRp4226
(dp4227
g73
(dp4228
g81
I5
ssg82
g4222
sg75
(lp4229
g68
(g77
g70
NtRp4230
(dp4231
g73
(dp4232
g81
I4
ssg82
Nsg75
(lp4233
g68
(g84
g70
NtRp4234
(dp4235
g73
(dp4236
sg82
g4230
sg75
(lp4237
g68
(g89
g70
NtRp4238
(dp4239
g73
(dp4240
g93
g94
ssg82
g4234
sg75
(lp4241
S'X-Powered-By'
p4242
asbag68
(g89
g70
NtRp4243
(dp4244
g73
(dp4245
g100
g101
ssg82
g4234
sg75
(lp4246
S':'
asbag68
(g89
g70
NtRp4247
(dp4248
g73
(dp4249
sg82
g4234
sg75
(lp4250
g68
(g69
g70
NtRp4251
(dp4252
g73
(dp4253
g81
I4
ssg82
g4247
sg75
(lp4254
S'web2py'
p4255
asbasbasbasbasbasbasbag68
(g84
g70
NtRp4256
(dp4257
g73
(dp4258
sg82
g3819
sg75
(lp4259
g68
(g89
g70
NtRp4260
(dp4261
g73
(dp4262
g93
g94
ssg82
g4256
sg75
(lp4263
S'logo'
p4264
asbag68
(g89
g70
NtRp4265
(dp4266
g73
(dp4267
g100
g101
ssg82
g4256
sg75
(lp4268
S':'
asbag68
(g89
g70
NtRp4269
(dp4270
g73
(dp4271
sg82
g4256
sg75
(lp4272
g68
(g69
g70
NtRp4273
(dp4274
g73
(dp4275
g81
I5
ssg82
g4269
sg75
(lp4276
g68
(cgluon.html
A
p4277
g70
NtRp4278
(dp4279
g73
(dp4280
S'_class'
p4281
S'brand'
p4282
sS'_href'
p4283
S'http://www.web2py.com/'
p4284
ssg82
Nsg75
(lp4285
g68
(cgluon.html
B
p4286
g70
NtRp4287
(dp4288
g73
(dp4289
sg82
g4278
sg75
(lp4290
S'web'
p4291
ag68
(cgluon.html
SPAN
p4292
g70
NtRp4293
(dp4294
g73
(dp4295
sg82
g4287
sg75
(lp4296
I2
asbaS'py'
p4297
asbacgluon.html
XML_unpickle
p4298
(S's\r\x00\x00\x00&trade;&nbsp;'
tRp4299
asbasbasbasbag68
(g84
g70
NtRp4300
(dp4301
g73
(dp4302
sg82
g3819
sg75
(lp4303
g68
(g89
g70
NtRp4304
(dp4305
g73
(dp4306
g93
g94
ssg82
g4300
sg75
(lp4307
S'menu'
p4308
asbag68
(g89
g70
NtRp4309
(dp4310
g73
(dp4311
g100
g101
ssg82
g4300
sg75
(lp4312
S':'
asbag68
(g89
g70
NtRp4313
(dp4314
g73
(dp4315
sg82
g4300
sg75
(lp4316
g68
(g69
g70
NtRp4317
(dp4318
g73
(dp4319
g81
I5
ssg82
g4313
sg75
(lp4320
g68
(g77
g70
NtRp4321
(dp4322
g73
(dp4323
g81
I4
ssg82
Nsg75
(lp4324
g68
(g84
g70
NtRp4325
(dp4326
g73
(dp4327
sg82
g4321
sg75
(lp4328
g68
(g89
g70
NtRp4329
(dp4330
g73
(dp4331
sg82
g4325
sg75
(lp4332
g68
(g69
g70
NtRp4333
(dp4334
g73
(dp4335
g81
I4
ssg82
g4329
sg75
(lp4336
g68
(g77
g70
NtRp4337
(dp4338
g73
(dp4339
g81
I3
ssg82
Nsg75
(lp4340
g68
(g84
g70
NtRp4341
(dp4342
g73
(dp4343
sg82
g4337
sg75
(lp4344
g68
(g89
g70
NtRp4345
(dp4346
g73
(dp4347
sg82
g4341
sg75
(lp4348
g68
(g69
g70
NtRp4349
(dp4350
g73
(dp4351
g81
I3
ssg82
g4345
sg75
(lp4352
cgluon.languages
lazyT_unpickle
p4353
(S's\x04\x00\x00\x00Home'
tRp4354
asbasbasbag68
(g84
g70
NtRp4355
(dp4356
g73
(dp4357
sg82
g4337
sg75
(lp4358
g68
(g89
g70
NtRp4359
(dp4360
g73
(dp4361
sg82
g4355
sg75
(lp4362
g68
(g69
g70
NtRp4363
(dp4364
g73
(dp4365
g81
I3
ssg82
g4359
sg75
(lp4366
g111
asbasbasbag68
(g84
g70
NtRp4367
(dp4368
g73
(dp4369
sg82
g4337
sg75
(lp4370
g68
(g89
g70
NtRp4371
(dp4372
g73
(dp4373
sg82
g4367
sg75
(lp4374
g68
(g69
g70
NtRp4375
(dp4376
g73
(dp4377
g81
I3
ssg82
g4371
sg75
(lp4378
S'/SONGS/default/index'
p4379
asbasbasbag68
(g84
g70
NtRp4380
(dp4381
g73
(dp4382
sg82
g4337
sg75
(lp4383
g68
(g89
g70
NtRp4384
(dp4385
g73
(dp4386
sg82
g4380
sg75
(lp4387
g68
(g69
g70
NtRp4388
(dp4389
g73
(dp4390
g81
I3
ssg82
g4384
sg75
(lp4391
g68
(g77
g70
NtRp4392
(dp4393
g73
(dp4394
g81
I2
ssg82
Nsg75
(lp4395
sbasbasbasbasbasbasbasbag68
(g84
g70
NtRp4396
(dp4397
g73
(dp4398
sg82
g4321
sg75
(lp4399
g68
(g89
g70
NtRp4400
(dp4401
g73
(dp4402
sg82
g4396
sg75
(lp4403
g68
(g69
g70
NtRp4404
(dp4405
g73
(dp4406
g81
I4
ssg82
g4400
sg75
(lp4407
g68
(g77
g70
NtRp4408
(dp4409
g73
(dp4410
g81
I3
ssg82
Nsg75
(lp4411
g68
(g84
g70
NtRp4412
(dp4413
g73
(dp4414
sg82
g4408
sg75
(lp4415
g68
(g89
g70
NtRp4416
(dp4417
g73
(dp4418
sg82
g4412
sg75
(lp4419
g68
(g69
g70
NtRp4420
(dp4421
g73
(dp4422
g81
I3
ssg82
g4416
sg75
(lp4423
g68
(g4292
g70
NtRp4424
(dp4425
g73
(dp4426
g4281
S'highlighted'
p4427
ssg82
Nsg75
(lp4428
g4255
asbasbasbasbag68
(g84
g70
NtRp4429
(dp4430
g73
(dp4431
sg82
g4408
sg75
(lp4432
g68
(g89
g70
NtRp4433
(dp4434
g73
(dp4435
sg82
g4429
sg75
(lp4436
g68
(g69
g70
NtRp4437
(dp4438
g73
(dp4439
g81
I3
ssg82
g4433
sg75
(lp4440
g111
asbasbasbag68
(g84
g70
NtRp4441
(dp4442
g73
(dp4443
sg82
g4408
sg75
(lp4444
g68
(g89
g70
NtRp4445
(dp4446
g73
(dp4447
sg82
g4441
sg75
(lp4448
g68
(g69
g70
NtRp4449
(dp4450
g73
(dp4451
g81
I3
ssg82
g4445
sg75
(lp4452
S'http://web2py.com'
p4453
asbasbasbag68
(g84
g70
NtRp4454
(dp4455
g73
(dp4456
sg82
g4408
sg75
(lp4457
g68
(g89
g70
NtRp4458
(dp4459
g73
(dp4460
sg82
g4454
sg75
(lp4461
g68
(g69
g70
NtRp4462
(dp4463
g73
(dp4464
g81
I3
ssg82
g4458
sg75
(lp4465
g68
(g77
g70
NtRp4466
(dp4467
g73
(dp4468
g81
I2
ssg82
Nsg75
(lp4469
g68
(g84
g70
NtRp4470
(dp4471
g73
(dp4472
sg82
g4466
sg75
(lp4473
g68
(g89
g70
NtRp4474
(dp4475
g73
(dp4476
sg82
g4470
sg75
(lp4477
g68
(g69
g70
NtRp4478
(dp4479
g73
(dp4480
g81
I2
ssg82
g4474
sg75
(lp4481
g68
(g77
g70
NtRp4482
(dp4483
g73
(dp4484
g81
I1
ssg82
Nsg75
(lp4485
g68
(g84
g70
NtRp4486
(dp4487
g73
(dp4488
sg82
g4482
sg75
(lp4489
g68
(g89
g70
NtRp4490
(dp4491
g73
(dp4492
sg82
g4486
sg75
(lp4493
g68
(g69
g70
NtRp4494
(dp4495
g73
(dp4496
g81
I1
ssg82
g4490
sg75
(lp4497
g4353
(S's\x08\x00\x00\x00My Sites'
tRp4498
asbasbasbag68
(g84
g70
NtRp4499
(dp4500
g73
(dp4501
sg82
g4482
sg75
(lp4502
g68
(g89
g70
NtRp4503
(dp4504
g73
(dp4505
sg82
g4499
sg75
(lp4506
g68
(g69
g70
NtRp4507
(dp4508
g73
(dp4509
g81
I1
ssg82
g4503
sg75
(lp4510
I00
asbasbasbag68
(g84
g70
NtRp4511
(dp4512
g73
(dp4513
sg82
g4482
sg75
(lp4514
g68
(g89
g70
NtRp4515
(dp4516
g73
(dp4517
sg82
g4511
sg75
(lp4518
g68
(g69
g70
NtRp4519
(dp4520
g73
(dp4521
g81
I1
ssg82
g4515
sg75
(lp4522
S'/admin/default/site'
p4523
asbasbasbasbasbasbasbag68
(g84
g70
NtRp4524
(dp4525
g73
(dp4526
sg82
g4466
sg75
(lp4527
g68
(g89
g70
NtRp4528
(dp4529
g73
(dp4530
sg82
g4524
sg75
(lp4531
g68
(g69
g70
NtRp4532
(dp4533
g73
(dp4534
g81
I2
ssg82
g4528
sg75
(lp4535
g68
(g77
g70
NtRp4536
(dp4537
g73
(dp4538
g81
I1
ssg82
Nsg75
(lp4539
g68
(g84
g70
NtRp4540
(dp4541
g73
(dp4542
sg82
g4536
sg75
(lp4543
g68
(g89
g70
NtRp4544
(dp4545
g73
(dp4546
sg82
g4540
sg75
(lp4547
g68
(g69
g70
NtRp4548
(dp4549
g73
(dp4550
g81
I1
ssg82
g4544
sg75
(lp4551
g4353
(S's\x08\x00\x00\x00This App'
tRp4552
asbasbasbag68
(g84
g70
NtRp4553
(dp4554
g73
(dp4555
sg82
g4536
sg75
(lp4556
g68
(g89
g70
NtRp4557
(dp4558
g73
(dp4559
sg82
g4553
sg75
(lp4560
g68
(g69
g70
NtRp4561
(dp4562
g73
(dp4563
g81
I1
ssg82
g4557
sg75
(lp4564
I00
asbasbasbag68
(g84
g70
NtRp4565
(dp4566
g73
(dp4567
sg82
g4536
sg75
(lp4568
g68
(g89
g70
NtRp4569
(dp4570
g73
(dp4571
sg82
g4565
sg75
(lp4572
g68
(g69
g70
NtRp4573
(dp4574
g73
(dp4575
g81
I1
ssg82
g4569
sg75
(lp4576
S'/admin/default/design/SONGS'
p4577
asbasbasbag68
(g84
g70
NtRp4578
(dp4579
g73
(dp4580
sg82
g4536
sg75
(lp4581
g68
(g89
g70
NtRp4582
(dp4583
g73
(dp4584
sg82
g4578
sg75
(lp4585
g68
(g69
g70
NtRp4586
(dp4587
g73
(dp4588
g81
I1
ssg82
g4582
sg75
(lp4589
(lp4590
(g4353
(S's\n\x00\x00\x00Controller'
tRp4591
I00
S'/admin/default/edit/SONGS/controllers/default.py'
tp4592
a(g4353
(S's\x04\x00\x00\x00View'
tRp4593
I00
S'/admin/default/edit/SONGS/views/default/update_len2.html'
tp4594
a(g4353
(S's\x06\x00\x00\x00Layout'
tRp4595
I00
S'/admin/default/edit/SONGS/views/layout.html'
tp4596
a(g4353
(S's\n\x00\x00\x00Stylesheet'
tRp4597
I00
S'/admin/default/edit/SONGS/static/css/web2py.css'
tp4598
a(g4353
(S's\x08\x00\x00\x00DB Model'
tRp4599
I00
S'/admin/default/edit/SONGS/models/db.py'
tp4600
a(g4353
(S's\n\x00\x00\x00Menu Model'
tRp4601
I00
S'/admin/default/edit/SONGS/models/menu.py'
tp4602
a(g4353
(S's\x08\x00\x00\x00Database'
tRp4603
I00
S'/SONGS/appadmin/index'
tp4604
a(g4353
(S's\x06\x00\x00\x00Errors'
tRp4605
I00
S'/admin/default/errors/SONGS'
tp4606
a(g4353
(S's\x05\x00\x00\x00About'
tRp4607
I00
S'/admin/default/about/SONGS'
tp4608
aasbasbasbasbasbasbasbag68
(g84
g70
NtRp4609
(dp4610
g73
(dp4611
sg82
g4466
sg75
(lp4612
g68
(g89
g70
NtRp4613
(dp4614
g73
(dp4615
sg82
g4609
sg75
(lp4616
g68
(g69
g70
NtRp4617
(dp4618
g73
(dp4619
g81
I2
ssg82
g4613
sg75
(lp4620
g68
(g77
g70
NtRp4621
(dp4622
g73
(dp4623
g81
I1
ssg82
Nsg75
(lp4624
g68
(g84
g70
NtRp4625
(dp4626
g73
(dp4627
sg82
g4621
sg75
(lp4628
g68
(g89
g70
NtRp4629
(dp4630
g73
(dp4631
sg82
g4625
sg75
(lp4632
g68
(g69
g70
NtRp4633
(dp4634
g73
(dp4635
g81
I1
ssg82
g4629
sg75
(lp4636
S'web2py.com'
p4637
asbasbasbag68
(g84
g70
NtRp4638
(dp4639
g73
(dp4640
sg82
g4621
sg75
(lp4641
g68
(g89
g70
NtRp4642
(dp4643
g73
(dp4644
sg82
g4638
sg75
(lp4645
g68
(g69
g70
NtRp4646
(dp4647
g73
(dp4648
g81
I1
ssg82
g4642
sg75
(lp4649
I00
asbasbasbag68
(g84
g70
NtRp4650
(dp4651
g73
(dp4652
sg82
g4621
sg75
(lp4653
g68
(g89
g70
NtRp4654
(dp4655
g73
(dp4656
sg82
g4650
sg75
(lp4657
g68
(g69
g70
NtRp4658
(dp4659
g73
(dp4660
g81
I1
ssg82
g4654
sg75
(lp4661
S'http://www.web2py.com'
p4662
asbasbasbag68
(g84
g70
NtRp4663
(dp4664
g73
(dp4665
sg82
g4621
sg75
(lp4666
g68
(g89
g70
NtRp4667
(dp4668
g73
(dp4669
sg82
g4663
sg75
(lp4670
g68
(g69
g70
NtRp4671
(dp4672
g73
(dp4673
g81
I1
ssg82
g4667
sg75
(lp4674
(lp4675
(g4353
(S's\x08\x00\x00\x00Download'
tRp4676
I00
S'http://www.web2py.com/examples/default/download'
p4677
tp4678
a(g4353
(S's\x07\x00\x00\x00Support'
tRp4679
I00
S'http://www.web2py.com/examples/default/support'
p4680
tp4681
a(g4353
(S's\x04\x00\x00\x00Demo'
tRp4682
I00
S'http://web2py.com/demo_admin'
p4683
tp4684
a(g4353
(S's\x0e\x00\x00\x00Quick Examples'
tRp4685
I00
S'http://web2py.com/examples/default/examples'
p4686
tp4687
a(g4353
(S's\x03\x00\x00\x00FAQ'
tRp4688
I00
S'http://web2py.com/AlterEgo'
p4689
tp4690
a(g4353
(S's\x06\x00\x00\x00Videos'
tRp4691
I00
S'http://www.web2py.com/examples/default/videos/'
p4692
tp4693
a(g4353
(S's\x11\x00\x00\x00Free Applications'
tRp4694
I00
S'http://web2py.com/appliances'
p4695
tp4696
a(g4353
(S's\x07\x00\x00\x00Plugins'
tRp4697
I00
S'http://web2py.com/plugins'
p4698
tp4699
a(g4353
(S's\x07\x00\x00\x00Layouts'
tRp4700
I00
S'http://web2py.com/layouts'
p4701
tp4702
a(g4353
(S's\x07\x00\x00\x00Recipes'
tRp4703
I00
S'http://web2pyslices.com/'
p4704
tp4705
a(g4353
(S's\x08\x00\x00\x00Semantic'
tRp4706
I00
S'http://web2py.com/semantic'
p4707
tp4708
aasbasbasbasbasbasbasbag68
(g84
g70
NtRp4709
(dp4710
g73
(dp4711
sg82
g4466
sg75
(lp4712
g68
(g89
g70
NtRp4713
(dp4714
g73
(dp4715
sg82
g4709
sg75
(lp4716
g68
(g69
g70
NtRp4717
(dp4718
g73
(dp4719
g81
I2
ssg82
g4713
sg75
(lp4720
g68
(g77
g70
NtRp4721
(dp4722
g73
(dp4723
g81
I1
ssg82
Nsg75
(lp4724
g68
(g84
g70
NtRp4725
(dp4726
g73
(dp4727
sg82
g4721
sg75
(lp4728
g68
(g89
g70
NtRp4729
(dp4730
g73
(dp4731
sg82
g4725
sg75
(lp4732
g68
(g69
g70
NtRp4733
(dp4734
g73
(dp4735
g81
I1
ssg82
g4729
sg75
(lp4736
g4353
(S's\r\x00\x00\x00Documentation'
tRp4737
asbasbasbag68
(g84
g70
NtRp4738
(dp4739
g73
(dp4740
sg82
g4721
sg75
(lp4741
g68
(g89
g70
NtRp4742
(dp4743
g73
(dp4744
sg82
g4738
sg75
(lp4745
g68
(g69
g70
NtRp4746
(dp4747
g73
(dp4748
g81
I1
ssg82
g4742
sg75
(lp4749
I00
asbasbasbag68
(g84
g70
NtRp4750
(dp4751
g73
(dp4752
sg82
g4721
sg75
(lp4753
g68
(g89
g70
NtRp4754
(dp4755
g73
(dp4756
sg82
g4750
sg75
(lp4757
g68
(g69
g70
NtRp4758
(dp4759
g73
(dp4760
g81
I1
ssg82
g4754
sg75
(lp4761
S'http://www.web2py.com/book'
p4762
asbasbasbag68
(g84
g70
NtRp4763
(dp4764
g73
(dp4765
sg82
g4721
sg75
(lp4766
g68
(g89
g70
NtRp4767
(dp4768
g73
(dp4769
sg82
g4763
sg75
(lp4770
g68
(g69
g70
NtRp4771
(dp4772
g73
(dp4773
g81
I1
ssg82
g4767
sg75
(lp4774
(lp4775
(g4353
(S's\x07\x00\x00\x00Preface'
tRp4776
I00
S'http://www.web2py.com/book/default/chapter/00'
p4777
tp4778
a(g4353
(S's\x0c\x00\x00\x00Introduction'
tRp4779
I00
S'http://www.web2py.com/book/default/chapter/01'
p4780
tp4781
a(g4353
(S's\x06\x00\x00\x00Python'
tRp4782
I00
S'http://www.web2py.com/book/default/chapter/02'
p4783
tp4784
a(g4353
(S's\x08\x00\x00\x00Overview'
tRp4785
I00
S'http://www.web2py.com/book/default/chapter/03'
p4786
tp4787
a(g4353
(S's\x08\x00\x00\x00The Core'
tRp4788
I00
S'http://www.web2py.com/book/default/chapter/04'
p4789
tp4790
a(g4353
(S's\t\x00\x00\x00The Views'
tRp4791
I00
S'http://www.web2py.com/book/default/chapter/05'
p4792
tp4793
a(g4353
(S's\x08\x00\x00\x00Database'
tRp4794
I00
S'http://www.web2py.com/book/default/chapter/06'
p4795
tp4796
a(g4353
(S's\x14\x00\x00\x00Forms and Validators'
tRp4797
I00
S'http://www.web2py.com/book/default/chapter/07'
p4798
tp4799
a(g4353
(S's\r\x00\x00\x00Email and SMS'
tRp4800
I00
S'http://www.web2py.com/book/default/chapter/08'
p4801
tp4802
a(g4353
(S's\x0e\x00\x00\x00Access Control'
tRp4803
I00
S'http://www.web2py.com/book/default/chapter/09'
p4804
tp4805
a(g4353
(S's\x08\x00\x00\x00Services'
tRp4806
I00
S'http://www.web2py.com/book/default/chapter/10'
p4807
tp4808
a(g4353
(S's\x0c\x00\x00\x00Ajax Recipes'
tRp4809
I00
S'http://www.web2py.com/book/default/chapter/11'
p4810
tp4811
a(g4353
(S's\x16\x00\x00\x00Components and Plugins'
tRp4812
I00
S'http://www.web2py.com/book/default/chapter/12'
p4813
tp4814
a(g4353
(S's\x12\x00\x00\x00Deployment Recipes'
tRp4815
I00
S'http://www.web2py.com/book/default/chapter/13'
p4816
tp4817
a(g4353
(S's\r\x00\x00\x00Other Recipes'
tRp4818
I00
S'http://www.web2py.com/book/default/chapter/14'
p4819
tp4820
a(g4353
(S's\r\x00\x00\x00Buy this book'
tRp4821
I00
S'http://stores.lulu.com/web2py'
p4822
tp4823
aasbasbasbasbasbasbasbag68
(g84
g70
NtRp4824
(dp4825
g73
(dp4826
sg82
g4466
sg75
(lp4827
g68
(g89
g70
NtRp4828
(dp4829
g73
(dp4830
sg82
g4824
sg75
(lp4831
g68
(g69
g70
NtRp4832
(dp4833
g73
(dp4834
g81
I2
ssg82
g4828
sg75
(lp4835
g68
(g77
g70
NtRp4836
(dp4837
g73
(dp4838
g81
I1
ssg82
Nsg75
(lp4839
g68
(g84
g70
NtRp4840
(dp4841
g73
(dp4842
sg82
g4836
sg75
(lp4843
g68
(g89
g70
NtRp4844
(dp4845
g73
(dp4846
sg82
g4840
sg75
(lp4847
g68
(g69
g70
NtRp4848
(dp4849
g73
(dp4850
g81
I1
ssg82
g4844
sg75
(lp4851
g4353
(S's\t\x00\x00\x00Community'
tRp4852
asbasbasbag68
(g84
g70
NtRp4853
(dp4854
g73
(dp4855
sg82
g4836
sg75
(lp4856
g68
(g89
g70
NtRp4857
(dp4858
g73
(dp4859
sg82
g4853
sg75
(lp4860
g68
(g69
g70
NtRp4861
(dp4862
g73
(dp4863
g81
I1
ssg82
g4857
sg75
(lp4864
I00
asbasbasbag68
(g84
g70
NtRp4865
(dp4866
g73
(dp4867
sg82
g4836
sg75
(lp4868
g68
(g89
g70
NtRp4869
(dp4870
g73
(dp4871
sg82
g4865
sg75
(lp4872
g68
(g69
g70
NtRp4873
(dp4874
g73
(dp4875
g81
I1
ssg82
g4869
sg75
(lp4876
Nasbasbasbag68
(g84
g70
NtRp4877
(dp4878
g73
(dp4879
sg82
g4836
sg75
(lp4880
g68
(g89
g70
NtRp4881
(dp4882
g73
(dp4883
sg82
g4877
sg75
(lp4884
g68
(g69
g70
NtRp4885
(dp4886
g73
(dp4887
g81
I1
ssg82
g4881
sg75
(lp4888
(lp4889
(g4353
(S's\x06\x00\x00\x00Groups'
tRp4890
I00
S'http://www.web2py.com/examples/default/usergroups'
p4891
tp4892
a(g4353
(S's\x07\x00\x00\x00Twitter'
tRp4893
I00
S'http://twitter.com/web2py'
p4894
tp4895
a(g4353
(S's\t\x00\x00\x00Live Chat'
tRp4896
I00
S'http://webchat.freenode.net/?channels=web2py'
p4897
tp4898
aasbasbasbasbasbasbasbag68
(g84
g70
NtRp4899
(dp4900
g73
(dp4901
sg82
g4466
sg75
(lp4902
g68
(g89
g70
NtRp4903
(dp4904
g73
(dp4905
sg82
g4899
sg75
(lp4906
g68
(g69
g70
NtRp4907
(dp4908
g73
(dp4909
g81
I2
ssg82
g4903
sg75
(lp4910
g68
(g77
g70
NtRp4911
(dp4912
g73
(dp4913
g81
I1
ssg82
Nsg75
(lp4914
g68
(g84
g70
NtRp4915
(dp4916
g73
(dp4917
sg82
g4911
sg75
(lp4918
g68
(g89
g70
NtRp4919
(dp4920
g73
(dp4921
sg82
g4915
sg75
(lp4922
g68
(g69
g70
NtRp4923
(dp4924
g73
(dp4925
g81
I1
ssg82
g4919
sg75
(lp4926
g4353
(S's\x07\x00\x00\x00Plugins'
tRp4927
asbasbasbag68
(g84
g70
NtRp4928
(dp4929
g73
(dp4930
sg82
g4911
sg75
(lp4931
g68
(g89
g70
NtRp4932
(dp4933
g73
(dp4934
sg82
g4928
sg75
(lp4935
g68
(g69
g70
NtRp4936
(dp4937
g73
(dp4938
g81
I1
ssg82
g4932
sg75
(lp4939
I00
asbasbasbag68
(g84
g70
NtRp4940
(dp4941
g73
(dp4942
sg82
g4911
sg75
(lp4943
g68
(g89
g70
NtRp4944
(dp4945
g73
(dp4946
sg82
g4940
sg75
(lp4947
g68
(g69
g70
NtRp4948
(dp4949
g73
(dp4950
g81
I1
ssg82
g4944
sg75
(lp4951
Nasbasbasbag68
(g84
g70
NtRp4952
(dp4953
g73
(dp4954
sg82
g4911
sg75
(lp4955
g68
(g89
g70
NtRp4956
(dp4957
g73
(dp4958
sg82
g4952
sg75
(lp4959
g68
(g69
g70
NtRp4960
(dp4961
g73
(dp4962
g81
I1
ssg82
g4956
sg75
(lp4963
(lp4964
(S'plugin_wiki'
p4965
I00
S'http://web2py.com/examples/default/download'
p4966
tp4967
a(g4353
(S's\r\x00\x00\x00Other Plugins'
tRp4968
I00
g4698
tp4969
a(g4353
(S's\x0e\x00\x00\x00Layout Plugins'
tRp4970
I00
g4701
tp4971
aasbasbasbasbasbasbasbasbasbasbasbasbasbasbasbasbasbasbasbag68
(g84
g70
NtRp4972
(dp4973
g73
(dp4974
sg82
g3819
sg75
(lp4975
g68
(g89
g70
NtRp4976
(dp4977
g73
(dp4978
g93
g94
ssg82
g4972
sg75
(lp4979
S'meta'
p4980
asbag68
(g89
g70
NtRp4981
(dp4982
g73
(dp4983
g100
g101
ssg82
g4972
sg75
(lp4984
S':'
asbag68
(g89
g70
NtRp4985
(dp4986
g73
(dp4987
sg82
g4972
sg75
(lp4988
g68
(g69
g70
NtRp4989
(dp4990
g73
(dp4991
g81
I5
ssg82
g4985
sg75
(lp4992
g68
(g77
g70
NtRp4993
(dp4994
g73
(dp4995
g81
I4
ssg82
Nsg75
(lp4996
g68
(g84
g70
NtRp4997
(dp4998
g73
(dp4999
sg82
g4993
sg75
(lp5000
g68
(g89
g70
NtRp5001
(dp5002
g73
(dp5003
g93
g94
ssg82
g4997
sg75
(lp5004
S'author'
p5005
asbag68
(g89
g70
NtRp5006
(dp5007
g73
(dp5008
g100
g101
ssg82
g4997
sg75
(lp5009
S':'
asbag68
(g89
g70
NtRp5010
(dp5011
g73
(dp5012
sg82
g4997
sg75
(lp5013
g68
(g69
g70
NtRp5014
(dp5015
g73
(dp5016
g81
I4
ssg82
g5010
sg75
(lp5017
S'Your Name <you@example.com>'
p5018
asbasbasbag68
(g84
g70
NtRp5019
(dp5020
g73
(dp5021
sg82
g4993
sg75
(lp5022
g68
(g89
g70
NtRp5023
(dp5024
g73
(dp5025
g93
g94
ssg82
g5019
sg75
(lp5026
S'description'
p5027
asbag68
(g89
g70
NtRp5028
(dp5029
g73
(dp5030
g100
g101
ssg82
g5019
sg75
(lp5031
S':'
asbag68
(g89
g70
NtRp5032
(dp5033
g73
(dp5034
sg82
g5019
sg75
(lp5035
g68
(g69
g70
NtRp5036
(dp5037
g73
(dp5038
g81
I4
ssg82
g5032
sg75
(lp5039
S'a cool new app'
p5040
asbasbasbag68
(g84
g70
NtRp5041
(dp5042
g73
(dp5043
sg82
g4993
sg75
(lp5044
g68
(g89
g70
NtRp5045
(dp5046
g73
(dp5047
g93
g94
ssg82
g5041
sg75
(lp5048
S'generator'
p5049
asbag68
(g89
g70
NtRp5050
(dp5051
g73
(dp5052
g100
g101
ssg82
g5041
sg75
(lp5053
S':'
asbag68
(g89
g70
NtRp5054
(dp5055
g73
(dp5056
sg82
g5041
sg75
(lp5057
g68
(g69
g70
NtRp5058
(dp5059
g73
(dp5060
g81
I4
ssg82
g5054
sg75
(lp5061
S'Web2py Web Framework'
p5062
asbasbasbag68
(g84
g70
NtRp5063
(dp5064
g73
(dp5065
sg82
g4993
sg75
(lp5066
g68
(g89
g70
NtRp5067
(dp5068
g73
(dp5069
g93
g94
ssg82
g5063
sg75
(lp5070
S'keywords'
p5071
asbag68
(g89
g70
NtRp5072
(dp5073
g73
(dp5074
g100
g101
ssg82
g5063
sg75
(lp5075
S':'
asbag68
(g89
g70
NtRp5076
(dp5077
g73
(dp5078
sg82
g5063
sg75
(lp5079
g68
(g69
g70
NtRp5080
(dp5081
g73
(dp5082
g81
I4
ssg82
g5076
sg75
(lp5083
S'web2py, python, framework'
p5084
asbasbasbasbasbasbasbag68
(g84
g70
NtRp5085
(dp5086
g73
(dp5087
sg82
g3819
sg75
(lp5088
g68
(g89
g70
NtRp5089
(dp5090
g73
(dp5091
g93
g94
ssg82
g5085
sg75
(lp5092
S'models_to_run'
p5093
asbag68
(g89
g70
NtRp5094
(dp5095
g73
(dp5096
g100
g101
ssg82
g5085
sg75
(lp5097
S':'
asbag68
(g89
g70
NtRp5098
(dp5099
g73
(dp5100
sg82
g5085
sg75
(lp5101
g68
(g69
g70
NtRp5102
(dp5103
g73
(dp5104
g81
I5
ssg82
g5098
sg75
(lp5105
g68
(g77
g70
NtRp5106
(dp5107
g73
(dp5108
g81
I4
ssg82
Nsg75
(lp5109
g68
(g84
g70
NtRp5110
(dp5111
g73
(dp5112
sg82
g5106
sg75
(lp5113
g68
(g89
g70
NtRp5114
(dp5115
g73
(dp5116
sg82
g5110
sg75
(lp5117
g68
(g69
g70
NtRp5118
(dp5119
g73
(dp5120
g81
I4
ssg82
g5114
sg75
(lp5121
S'^\\w+\\.py$'
p5122
asbasbasbag68
(g84
g70
NtRp5123
(dp5124
g73
(dp5125
sg82
g5106
sg75
(lp5126
g68
(g89
g70
NtRp5127
(dp5128
g73
(dp5129
sg82
g5123
sg75
(lp5130
g68
(g69
g70
NtRp5131
(dp5132
g73
(dp5133
g81
I4
ssg82
g5127
sg75
(lp5134
S'^default/\\w+\\.py$'
p5135
asbasbasbag68
(g84
g70
NtRp5136
(dp5137
g73
(dp5138
sg82
g5106
sg75
(lp5139
g68
(g89
g70
NtRp5140
(dp5141
g73
(dp5142
sg82
g5136
sg75
(lp5143
g68
(g69
g70
NtRp5144
(dp5145
g73
(dp5146
g81
I4
ssg82
g5140
sg75
(lp5147
S'^default/update_len2/\\w+\\.py$'
p5148
asbasbasbasbasbasbasbag68
(g84
g70
NtRp5149
(dp5150
g73
(dp5151
sg82
g3819
sg75
(lp5152
g68
(g89
g70
NtRp5153
(dp5154
g73
(dp5155
g93
g94
ssg82
g5149
sg75
(lp5156
S'postprocessing'
p5157
asbag68
(g89
g70
NtRp5158
(dp5159
g73
(dp5160
g100
g101
ssg82
g5149
sg75
(lp5161
S':'
asbag68
(g89
g70
NtRp5162
(dp5163
g73
(dp5164
sg82
g5149
sg75
(lp5165
g68
(g69
g70
NtRp5166
(dp5167
g73
(dp5168
g81
I5
ssg82
g5162
sg75
(lp5169
g68
(g77
g70
NtRp5170
(dp5171
g73
(dp5172
g81
I4
ssg82
Nsg75
(lp5173
sbasbasbasbag68
(g84
g70
NtRp5174
(dp5175
g73
(dp5176
sg82
g3819
sg75
(lp5177
g68
(g89
g70
NtRp5178
(dp5179
g73
(dp5180
g93
g94
ssg82
g5174
sg75
(lp5181
S'session_cookie_expires'
p5182
asbag68
(g89
g70
NtRp5183
(dp5184
g73
(dp5185
g100
g101
ssg82
g5174
sg75
(lp5186
S':'
asbag68
(g89
g70
NtRp5187
(dp5188
g73
(dp5189
sg82
g5174
sg75
(lp5190
g68
(g69
g70
NtRp5191
(dp5192
g73
(dp5193
g81
I5
ssg82
g5187
sg75
(lp5194
S'None'
p5195
asbasbasbag68
(g84
g70
NtRp5196
(dp5197
g73
(dp5198
sg82
g3819
sg75
(lp5199
g68
(g89
g70
NtRp5200
(dp5201
g73
(dp5202
g93
g94
ssg82
g5196
sg75
(lp5203
S'session_data_name'
p5204
asbag68
(g89
g70
NtRp5205
(dp5206
g73
(dp5207
g100
g101
ssg82
g5196
sg75
(lp5208
S':'
asbag68
(g89
g70
NtRp5209
(dp5210
g73
(dp5211
sg82
g5196
sg75
(lp5212
g68
(g69
g70
NtRp5213
(dp5214
g73
(dp5215
g81
I5
ssg82
g5209
sg75
(lp5216
S'session_data_songs'
p5217
asbasbasbag68
(g84
g70
NtRp5218
(dp5219
g73
(dp5220
sg82
g3819
sg75
(lp5221
g68
(g89
g70
NtRp5222
(dp5223
g73
(dp5224
g93
g94
ssg82
g5218
sg75
(lp5225
S'session_file'
p5226
asbag68
(g89
g70
NtRp5227
(dp5228
g73
(dp5229
g100
g101
ssg82
g5218
sg75
(lp5230
S':'
asbag68
(g89
g70
NtRp5231
(dp5232
g73
(dp5233
sg82
g5218
sg75
(lp5234
g68
(g69
g70
NtRp5235
(dp5236
g73
(dp5237
g81
I5
ssg82
g5231
sg75
(lp5238
S"<open file '/home/gaurav/classwork/WEB_PROGRAMMING/web2py/applications/SONGS/sessions/127.0.0.1-90798589-bfb5-4a98-8844-59e16717a241', mode 'rb+' at 0xae3831d8>"
p5239
asbasbasbag68
(g84
g70
NtRp5240
(dp5241
g73
(dp5242
sg82
g3819
sg75
(lp5243
g68
(g89
g70
NtRp5244
(dp5245
g73
(dp5246
g93
g94
ssg82
g5240
sg75
(lp5247
S'session_filename'
p5248
asbag68
(g89
g70
NtRp5249
(dp5250
g73
(dp5251
g100
g101
ssg82
g5240
sg75
(lp5252
S':'
asbag68
(g89
g70
NtRp5253
(dp5254
g73
(dp5255
sg82
g5240
sg75
(lp5256
g68
(g69
g70
NtRp5257
(dp5258
g73
(dp5259
g81
I5
ssg82
g5253
sg75
(lp5260
S'/home/gaurav/classwork/WEB_PROGRAMMING/web2py/applications/SONGS/sessions/127.0.0.1-90798589-bfb5-4a98-8844-59e16717a241'
p5261
asbasbasbag68
(g84
g70
NtRp5262
(dp5263
g73
(dp5264
sg82
g3819
sg75
(lp5265
g68
(g89
g70
NtRp5266
(dp5267
g73
(dp5268
g93
g94
ssg82
g5262
sg75
(lp5269
S'session_id'
p5270
asbag68
(g89
g70
NtRp5271
(dp5272
g73
(dp5273
g100
g101
ssg82
g5262
sg75
(lp5274
S':'
asbag68
(g89
g70
NtRp5275
(dp5276
g73
(dp5277
sg82
g5262
sg75
(lp5278
g68
(g69
g70
NtRp5279
(dp5280
g73
(dp5281
g81
I5
ssg82
g5275
sg75
(lp5282
g684
asbasbasbag68
(g84
g70
NtRp5283
(dp5284
g73
(dp5285
sg82
g3819
sg75
(lp5286
g68
(g89
g70
NtRp5287
(dp5288
g73
(dp5289
g93
g94
ssg82
g5283
sg75
(lp5290
S'session_id_name'
p5291
asbag68
(g89
g70
NtRp5292
(dp5293
g73
(dp5294
g100
g101
ssg82
g5283
sg75
(lp5295
S':'
asbag68
(g89
g70
NtRp5296
(dp5297
g73
(dp5298
sg82
g5283
sg75
(lp5299
g68
(g69
g70
NtRp5300
(dp5301
g73
(dp5302
g81
I5
ssg82
g5296
sg75
(lp5303
g3876
asbasbasbag68
(g84
g70
NtRp5304
(dp5305
g73
(dp5306
sg82
g3819
sg75
(lp5307
g68
(g89
g70
NtRp5308
(dp5309
g73
(dp5310
g93
g94
ssg82
g5304
sg75
(lp5311
S'session_locked'
p5312
asbag68
(g89
g70
NtRp5313
(dp5314
g73
(dp5315
g100
g101
ssg82
g5304
sg75
(lp5316
S':'
asbag68
(g89
g70
NtRp5317
(dp5318
g73
(dp5319
sg82
g5304
sg75
(lp5320
g68
(g69
g70
NtRp5321
(dp5322
g73
(dp5323
g81
I5
ssg82
g5317
sg75
(lp5324
g2064
asbasbasbag68
(g84
g70
NtRp5325
(dp5326
g73
(dp5327
sg82
g3819
sg75
(lp5328
g68
(g89
g70
NtRp5329
(dp5330
g73
(dp5331
g93
g94
ssg82
g5325
sg75
(lp5332
S'session_new'
p5333
asbag68
(g89
g70
NtRp5334
(dp5335
g73
(dp5336
g100
g101
ssg82
g5325
sg75
(lp5337
S':'
asbag68
(g89
g70
NtRp5338
(dp5339
g73
(dp5340
sg82
g5325
sg75
(lp5341
g68
(g69
g70
NtRp5342
(dp5343
g73
(dp5344
g81
I5
ssg82
g5338
sg75
(lp5345
g111
asbasbasbag68
(g84
g70
NtRp5346
(dp5347
g73
(dp5348
sg82
g3819
sg75
(lp5349
g68
(g89
g70
NtRp5350
(dp5351
g73
(dp5352
g93
g94
ssg82
g5346
sg75
(lp5353
S'session_storage_type'
p5354
asbag68
(g89
g70
NtRp5355
(dp5356
g73
(dp5357
g100
g101
ssg82
g5346
sg75
(lp5358
S':'
asbag68
(g89
g70
NtRp5359
(dp5360
g73
(dp5361
sg82
g5346
sg75
(lp5362
g68
(g69
g70
NtRp5363
(dp5364
g73
(dp5365
g81
I5
ssg82
g5359
sg75
(lp5366
g3704
asbasbasbag68
(g84
g70
NtRp5367
(dp5368
g73
(dp5369
sg82
g3819
sg75
(lp5370
g68
(g89
g70
NtRp5371
(dp5372
g73
(dp5373
g93
g94
ssg82
g5367
sg75
(lp5374
S'status'
p5375
asbag68
(g89
g70
NtRp5376
(dp5377
g73
(dp5378
g100
g101
ssg82
g5367
sg75
(lp5379
S':'
asbag68
(g89
g70
NtRp5380
(dp5381
g73
(dp5382
sg82
g5367
sg75
(lp5383
g68
(g69
g70
NtRp5384
(dp5385
g73
(dp5386
g81
I5
ssg82
g5380
sg75
(lp5387
S'200'
p5388
asbasbasbag68
(g84
g70
NtRp5389
(dp5390
g73
(dp5391
sg82
g3819
sg75
(lp5392
g68
(g89
g70
NtRp5393
(dp5394
g73
(dp5395
g93
g94
ssg82
g5389
sg75
(lp5396
S'subtitle'
p5397
asbag68
(g89
g70
NtRp5398
(dp5399
g73
(dp5400
g100
g101
ssg82
g5389
sg75
(lp5401
S':'
asbag68
(g89
g70
NtRp5402
(dp5403
g73
(dp5404
sg82
g5389
sg75
(lp5405
g68
(g69
g70
NtRp5406
(dp5407
g73
(dp5408
g81
I5
ssg82
g5402
sg75
(lp5409
g4353
(S's\r\x00\x00\x00customize me!'
tRp5410
asbasbasbag68
(g84
g70
NtRp5411
(dp5412
g73
(dp5413
sg82
g3819
sg75
(lp5414
g68
(g89
g70
NtRp5415
(dp5416
g73
(dp5417
g93
g94
ssg82
g5411
sg75
(lp5418
S'title'
p5419
asbag68
(g89
g70
NtRp5420
(dp5421
g73
(dp5422
g100
g101
ssg82
g5411
sg75
(lp5423
S':'
asbag68
(g89
g70
NtRp5424
(dp5425
g73
(dp5426
sg82
g5411
sg75
(lp5427
g68
(g69
g70
NtRp5428
(dp5429
g73
(dp5430
g81
I5
ssg82
g5424
sg75
(lp5431
S'Songs'
p5432
asbasbasbag68
(g84
g70
NtRp5433
(dp5434
g73
(dp5435
sg82
g3819
sg75
(lp5436
g68
(g89
g70
NtRp5437
(dp5438
g73
(dp5439
g93
g94
ssg82
g5433
sg75
(lp5440
S'view'
p5441
asbag68
(g89
g70
NtRp5442
(dp5443
g73
(dp5444
g100
g101
ssg82
g5433
sg75
(lp5445
S':'
asbag68
(g89
g70
NtRp5446
(dp5447
g73
(dp5448
sg82
g5433
sg75
(lp5449
g68
(g69
g70
NtRp5450
(dp5451
g73
(dp5452
g81
I5
ssg82
g5446
sg75
(lp5453
S'default/update_len2.html'
p5454
asbasbasbasbasbsS'locals'
p5455
(dp5456
g4
S"'/home/gaurav/classwork/WEB_PROGRAMMING/web2py/applications/SONGS/controllers/default.py'"
p5457
sg6
S"'# -*- coding: utf-8 -*-\\n# this file is released ...)\\n\\n\\nresponse._vars=response._caller(update_len2)\\n'"
p5458
sssS'traceback'
p5459
S'Traceback (most recent call last):\n  File "/home/gaurav/classwork/WEB_PROGRAMMING/web2py/gluon/restricted.py", line 211, in restricted\n    ccode = compile2(code, layer)\n  File "/home/gaurav/classwork/WEB_PROGRAMMING/web2py/gluon/restricted.py", line 194, in compile2\n    return compile(code.rstrip().replace(\'\\r\\n\', \'\\n\') + \'\\n\', layer, \'exec\')\n  File "/home/gaurav/classwork/WEB_PROGRAMMING/web2py/applications/SONGS/controllers/default.py", line 85\n    elif form.errors:\n       ^\nSyntaxError: invalid syntax\n'
p5460
s.