(dp1
S'output'
p2
S"<type 'exceptions.IndentationError'> expected an indented block (default.py, line 92)"
p3
sS'layer'
p4
S'/home/gaurav/classwork/WEB_PROGRAMMING/web2py/applications/SONGS/controllers/default.py'
p5
sS'code'
p6
S'# -*- coding: utf-8 -*-\n# this file is released under public domain and you can use without limitations\n\n#########################################################################\n## This is a samples controller\n## - index is the default action of any application\n## - user is required for authentication and authorization\n## - download is for downloading files uploaded in the db (does streaming)\n## - call exposes all registered services (none by default)\n#########################################################################\n\n\ndef index():\n    """\n    example action using the internationalization operator T and flash\n    rendered by views/default/index.html or views/generic.html\n\n    if you need a simple wiki simple replace the two lines below with:\n    return auth.wiki()\n    """\n    response.flash = T("Welcome to web2py!")\n    return dict(message=T(\'Hello World\'))\n\n\ndef user():\n    """\n    exposes:\n    http://..../[app]/default/user/login\n    http://..../[app]/default/user/logout\n    http://..../[app]/default/user/register\n    http://..../[app]/default/user/profile\n    http://..../[app]/default/user/retrieve_password\n    http://..../[app]/default/user/change_password\n    use @auth.requires_login()\n        @auth.requires_membership(\'group name\')\n        @auth.requires_permission(\'read\',\'table name\',record_id)\n    to decorate functions that need access control\n    """\n    return dict(form=auth())\n\n\ndef download():\n    """\n    allows downloading of uploaded files\n    http://..../[app]/default/download/[filename]\n    """\n    return response.download(request, db)\n\n\ndef call():\n    """\n    exposes services. for example:\n    http://..../[app]/default/call/jsonrpc\n    decorate with @services.jsonrpc the functions to expose\n    supports xml, json, xmlrpc, jsonrpc, amfrpc, rss, csv\n    """\n    return service()\n\n\n@auth.requires_signature()\ndef data():\n    """\n    http://..../[app]/default/data/tables\n    http://..../[app]/default/data/create/[table]\n    http://..../[app]/default/data/read/[table]/[id]\n    http://..../[app]/default/data/update/[table]/[id]\n    http://..../[app]/default/data/delete/[table]/[id]\n    http://..../[app]/default/data/select/[table]\n    http://..../[app]/default/data/search/[table]\n    but URLs must be signed, i.e. linked with\n      A(\'table\',_href=URL(\'data/tables\',user_signature=True))\n    or with the signed load operator\n      LOAD(\'default\',\'data.load\',args=\'tables\',ajax=True,user_signature=True)\n    """\n    return dict(form=crud())\n\n\ndef update_len():\n     form=SQLFORM.factory(\n\t       db.Field(\'name\',db.songs,requires=IS_IN_DB(db,\'songs.id\',\'songs.name\'),required=True,label=\'Select Song\'),\n\t       db.Field(\'length\',\'double\'))\n     if form.accepts(request.vars,session):                   # THE SEND INFORMATION STORED IN REQUEST.VARS OF THAT SESSION\n\t  update_songs(request)\n     elif form.errors:\n\t  response.flash=\'ERROR!!!\'\n     return dict(form=form)\n\n\ndef update_songs(request):\n\n\nresponse._vars=response._caller(update_len)\n'
p7
sS'snapshot'
p8
(dp9
S'exception'
p10
(dp11
S'__getslice__'
p12
S"<method-wrapper '__getslice__' of exceptions.IndentationError object>"
p13
sS'text'
p14
S"'response._vars=response._caller(update_len)\\n'"
p15
sS'__str__'
p16
S"<method-wrapper '__str__' of exceptions.IndentationError object>"
p17
sS'__reduce__'
p18
S'<built-in method __reduce__ of exceptions.IndentationError object>'
p19
sS'__dict__'
p20
S'{}'
p21
sS'__sizeof__'
p22
S'<built-in method __sizeof__ of exceptions.IndentationError object>'
p23
sS'__init__'
p24
S"<method-wrapper '__init__' of exceptions.IndentationError object>"
p25
sS'__setattr__'
p26
S"<method-wrapper '__setattr__' of exceptions.IndentationError object>"
p27
sS'__reduce_ex__'
p28
S'<built-in method __reduce_ex__ of exceptions.IndentationError object>'
p29
sS'__new__'
p30
S'<built-in method __new__ of type object>'
p31
sS'__format__'
p32
S'<built-in method __format__ of exceptions.IndentationError object>'
p33
sS'__class__'
p34
S"<type 'exceptions.IndentationError'>"
p35
sS'filename'
p36
S"'/home/gaurav/classwork/WEB_PROGRAMMING/web2py/applications/SONGS/controllers/default.py'"
p37
sS'lineno'
p38
S'92'
p39
sS'msg'
p40
S"'expected an indented block'"
p41
sS'__doc__'
p42
S"'Improper indentation.'"
p43
sS'__getitem__'
p44
S"<method-wrapper '__getitem__' of exceptions.IndentationError object>"
p45
sS'__setstate__'
p46
S'<built-in method __setstate__ of exceptions.IndentationError object>'
p47
sS'__getattribute__'
p48
S"<method-wrapper '__getattribute__' of exceptions.IndentationError object>"
p49
sS'print_file_and_line'
p50
S'None'
p51
sS'args'
p52
S"('expected an indented block', ('/home/gaurav/classwork/WEB_PROGRAMMING/web2py/applications/SONGS/controllers/default.py', 92, 8, 'response._vars=response._caller(update_len)\\n'))"
p53
sS'__subclasshook__'
p54
S'<built-in method __subclasshook__ of type object>'
p55
sS'offset'
p56
S'8'
sS'__unicode__'
p57
S'<built-in method __unicode__ of exceptions.IndentationError object>'
p58
sS'__delattr__'
p59
S"<method-wrapper '__delattr__' of exceptions.IndentationError object>"
p60
sS'__repr__'
p61
S"<method-wrapper '__repr__' of exceptions.IndentationError object>"
p62
sS'__hash__'
p63
S"<method-wrapper '__hash__' of exceptions.IndentationError object>"
p64
ssS'evalue'
p65
S'expected an indented block (default.py, line 92)'
p66
sS'request'
p67
ccopy_reg
_reconstructor
p68
(cgluon.html
BEAUTIFY
p69
c__builtin__
object
p70
NtRp71
(dp72
S'attributes'
p73
(dp74
sS'components'
p75
(lp76
g68
(cgluon.html
TABLE
p77
g70
NtRp78
(dp79
g73
(dp80
S'level'
p81
I5
ssS'parent'
p82
Nsg75
(lp83
g68
(cgluon.html
TR
p84
g70
NtRp85
(dp86
g73
(dp87
sg82
g78
sg75
(lp88
g68
(cgluon.html
TD
p89
g70
NtRp90
(dp91
g73
(dp92
S'_style'
p93
S'font-weight:bold;vertical-align:top'
p94
ssg82
g85
sg75
(lp95
S'ajax'
p96
asbag68
(g89
g70
NtRp97
(dp98
g73
(dp99
S'_valign'
p100
S'top'
p101
ssg82
g85
sg75
(lp102
S':'
asbag68
(g89
g70
NtRp103
(dp104
g73
(dp105
sg82
g85
sg75
(lp106
g68
(g69
g70
NtRp107
(dp108
g73
(dp109
g81
I5
ssg82
g103
sg75
(lp110
S'False'
p111
asbasbasbag68
(g84
g70
NtRp112
(dp113
g73
(dp114
sg82
g78
sg75
(lp115
g68
(g89
g70
NtRp116
(dp117
g73
(dp118
g93
g94
ssg82
g112
sg75
(lp119
S'application'
p120
asbag68
(g89
g70
NtRp121
(dp122
g73
(dp123
g100
g101
ssg82
g112
sg75
(lp124
S':'
asbag68
(g89
g70
NtRp125
(dp126
g73
(dp127
sg82
g112
sg75
(lp128
g68
(g69
g70
NtRp129
(dp130
g73
(dp131
g81
I5
ssg82
g125
sg75
(lp132
S'SONGS'
p133
asbasbasbag68
(g84
g70
NtRp134
(dp135
g73
(dp136
sg82
g78
sg75
(lp137
g68
(g89
g70
NtRp138
(dp139
g73
(dp140
g93
g94
ssg82
g134
sg75
(lp141
g52
asbag68
(g89
g70
NtRp142
(dp143
g73
(dp144
g100
g101
ssg82
g134
sg75
(lp145
S':'
asbag68
(g89
g70
NtRp146
(dp147
g73
(dp148
sg82
g134
sg75
(lp149
g68
(g69
g70
NtRp150
(dp151
g73
(dp152
g81
I5
ssg82
g146
sg75
(lp153
g68
(g77
g70
NtRp154
(dp155
g73
(dp156
g81
I4
ssg82
Nsg75
(lp157
sbasbasbasbag68
(g84
g70
NtRp158
(dp159
g73
(dp160
sg82
g78
sg75
(lp161
g68
(g89
g70
NtRp162
(dp163
g73
(dp164
g93
g94
ssg82
g158
sg75
(lp165
S'body'
p166
asbag68
(g89
g70
NtRp167
(dp168
g73
(dp169
g100
g101
ssg82
g158
sg75
(lp170
S':'
asbag68
(g89
g70
NtRp171
(dp172
g73
(dp173
sg82
g158
sg75
(lp174
g68
(g69
g70
NtRp175
(dp176
g73
(dp177
g81
I5
ssg82
g171
sg75
(lp178
S'<cStringIO.StringO object at 0x9efd260>'
p179
asbasbasbag68
(g84
g70
NtRp180
(dp181
g73
(dp182
sg82
g78
sg75
(lp183
g68
(g89
g70
NtRp184
(dp185
g73
(dp186
g93
g94
ssg82
g180
sg75
(lp187
S'cid'
p188
asbag68
(g89
g70
NtRp189
(dp190
g73
(dp191
g100
g101
ssg82
g180
sg75
(lp192
S':'
asbag68
(g89
g70
NtRp193
(dp194
g73
(dp195
sg82
g180
sg75
(lp196
g68
(g69
g70
NtRp197
(dp198
g73
(dp199
g81
I5
ssg82
g193
sg75
(lp200
S'None'
p201
asbasbasbag68
(g84
g70
NtRp202
(dp203
g73
(dp204
sg82
g78
sg75
(lp205
g68
(g89
g70
NtRp206
(dp207
g73
(dp208
g93
g94
ssg82
g202
sg75
(lp209
S'client'
p210
asbag68
(g89
g70
NtRp211
(dp212
g73
(dp213
g100
g101
ssg82
g202
sg75
(lp214
S':'
asbag68
(g89
g70
NtRp215
(dp216
g73
(dp217
sg82
g202
sg75
(lp218
g68
(g69
g70
NtRp219
(dp220
g73
(dp221
g81
I5
ssg82
g215
sg75
(lp222
S'127.0.0.1'
p223
asbasbasbag68
(g84
g70
NtRp224
(dp225
g73
(dp226
sg82
g78
sg75
(lp227
g68
(g89
g70
NtRp228
(dp229
g73
(dp230
g93
g94
ssg82
g224
sg75
(lp231
S'controller'
p232
asbag68
(g89
g70
NtRp233
(dp234
g73
(dp235
g100
g101
ssg82
g224
sg75
(lp236
S':'
asbag68
(g89
g70
NtRp237
(dp238
g73
(dp239
sg82
g224
sg75
(lp240
g68
(g69
g70
NtRp241
(dp242
g73
(dp243
g81
I5
ssg82
g237
sg75
(lp244
S'default'
p245
asbasbasbag68
(g84
g70
NtRp246
(dp247
g73
(dp248
sg82
g78
sg75
(lp249
g68
(g89
g70
NtRp250
(dp251
g73
(dp252
g93
g94
ssg82
g246
sg75
(lp253
S'cookies'
p254
asbag68
(g89
g70
NtRp255
(dp256
g73
(dp257
g100
g101
ssg82
g246
sg75
(lp258
S':'
asbag68
(g89
g70
NtRp259
(dp260
g73
(dp261
sg82
g246
sg75
(lp262
g68
(g69
g70
NtRp263
(dp264
g73
(dp265
g81
I5
ssg82
g259
sg75
(lp266
g68
(g77
g70
NtRp267
(dp268
g73
(dp269
g81
I4
ssg82
Nsg75
(lp270
g68
(g84
g70
NtRp271
(dp272
g73
(dp273
sg82
g267
sg75
(lp274
g68
(g89
g70
NtRp275
(dp276
g73
(dp277
g93
g94
ssg82
g271
sg75
(lp278
S'session_id_admin'
p279
asbag68
(g89
g70
NtRp280
(dp281
g73
(dp282
g100
g101
ssg82
g271
sg75
(lp283
S':'
asbag68
(g89
g70
NtRp284
(dp285
g73
(dp286
sg82
g271
sg75
(lp287
g68
(g69
g70
NtRp288
(dp289
g73
(dp290
g81
I4
ssg82
g284
sg75
(lp291
S'127.0.0.1-1744135d-0957-4bad-84d1-bf2f9c456344'
p292
ag68
(g77
g70
NtRp293
(dp294
g73
(dp295
g81
I3
ssg82
Nsg75
(lp296
g68
(g84
g70
NtRp297
(dp298
g73
(dp299
sg82
g293
sg75
(lp300
g68
(g89
g70
NtRp301
(dp302
g73
(dp303
g93
g94
ssg82
g297
sg75
(lp304
S'comment'
p305
asbag68
(g89
g70
NtRp306
(dp307
g73
(dp308
g100
g101
ssg82
g297
sg75
(lp309
S':'
asbag68
(g89
g70
NtRp310
(dp311
g73
(dp312
sg82
g297
sg75
(lp313
g68
(g69
g70
NtRp314
(dp315
g73
(dp316
g81
I3
ssg82
g310
sg75
(lp317
S''
asbasbasbag68
(g84
g70
NtRp318
(dp319
g73
(dp320
sg82
g293
sg75
(lp321
g68
(g89
g70
NtRp322
(dp323
g73
(dp324
g93
g94
ssg82
g318
sg75
(lp325
S'domain'
p326
asbag68
(g89
g70
NtRp327
(dp328
g73
(dp329
g100
g101
ssg82
g318
sg75
(lp330
S':'
asbag68
(g89
g70
NtRp331
(dp332
g73
(dp333
sg82
g318
sg75
(lp334
g68
(g69
g70
NtRp335
(dp336
g73
(dp337
g81
I3
ssg82
g331
sg75
(lp338
S''
asbasbasbag68
(g84
g70
NtRp339
(dp340
g73
(dp341
sg82
g293
sg75
(lp342
g68
(g89
g70
NtRp343
(dp344
g73
(dp345
g93
g94
ssg82
g339
sg75
(lp346
S'expires'
p347
asbag68
(g89
g70
NtRp348
(dp349
g73
(dp350
g100
g101
ssg82
g339
sg75
(lp351
S':'
asbag68
(g89
g70
NtRp352
(dp353
g73
(dp354
sg82
g339
sg75
(lp355
g68
(g69
g70
NtRp356
(dp357
g73
(dp358
g81
I3
ssg82
g352
sg75
(lp359
S''
asbasbasbag68
(g84
g70
NtRp360
(dp361
g73
(dp362
sg82
g293
sg75
(lp363
g68
(g89
g70
NtRp364
(dp365
g73
(dp366
g93
g94
ssg82
g360
sg75
(lp367
S'httponly'
p368
asbag68
(g89
g70
NtRp369
(dp370
g73
(dp371
g100
g101
ssg82
g360
sg75
(lp372
S':'
asbag68
(g89
g70
NtRp373
(dp374
g73
(dp375
sg82
g360
sg75
(lp376
g68
(g69
g70
NtRp377
(dp378
g73
(dp379
g81
I3
ssg82
g373
sg75
(lp380
S''
asbasbasbag68
(g84
g70
NtRp381
(dp382
g73
(dp383
sg82
g293
sg75
(lp384
g68
(g89
g70
NtRp385
(dp386
g73
(dp387
g93
g94
ssg82
g381
sg75
(lp388
S'max-age'
p389
asbag68
(g89
g70
NtRp390
(dp391
g73
(dp392
g100
g101
ssg82
g381
sg75
(lp393
S':'
asbag68
(g89
g70
NtRp394
(dp395
g73
(dp396
sg82
g381
sg75
(lp397
g68
(g69
g70
NtRp398
(dp399
g73
(dp400
g81
I3
ssg82
g394
sg75
(lp401
S''
asbasbasbag68
(g84
g70
NtRp402
(dp403
g73
(dp404
sg82
g293
sg75
(lp405
g68
(g89
g70
NtRp406
(dp407
g73
(dp408
g93
g94
ssg82
g402
sg75
(lp409
S'path'
p410
asbag68
(g89
g70
NtRp411
(dp412
g73
(dp413
g100
g101
ssg82
g402
sg75
(lp414
S':'
asbag68
(g89
g70
NtRp415
(dp416
g73
(dp417
sg82
g402
sg75
(lp418
g68
(g69
g70
NtRp419
(dp420
g73
(dp421
g81
I3
ssg82
g415
sg75
(lp422
S''
asbasbasbag68
(g84
g70
NtRp423
(dp424
g73
(dp425
sg82
g293
sg75
(lp426
g68
(g89
g70
NtRp427
(dp428
g73
(dp429
g93
g94
ssg82
g423
sg75
(lp430
S'secure'
p431
asbag68
(g89
g70
NtRp432
(dp433
g73
(dp434
g100
g101
ssg82
g423
sg75
(lp435
S':'
asbag68
(g89
g70
NtRp436
(dp437
g73
(dp438
sg82
g423
sg75
(lp439
g68
(g69
g70
NtRp440
(dp441
g73
(dp442
g81
I3
ssg82
g436
sg75
(lp443
S''
asbasbasbag68
(g84
g70
NtRp444
(dp445
g73
(dp446
sg82
g293
sg75
(lp447
g68
(g89
g70
NtRp448
(dp449
g73
(dp450
g93
g94
ssg82
g444
sg75
(lp451
S'version'
p452
asbag68
(g89
g70
NtRp453
(dp454
g73
(dp455
g100
g101
ssg82
g444
sg75
(lp456
S':'
asbag68
(g89
g70
NtRp457
(dp458
g73
(dp459
sg82
g444
sg75
(lp460
g68
(g69
g70
NtRp461
(dp462
g73
(dp463
g81
I3
ssg82
g457
sg75
(lp464
S''
asbasbasbasbasbasbasbag68
(g84
g70
NtRp465
(dp466
g73
(dp467
sg82
g267
sg75
(lp468
g68
(g89
g70
NtRp469
(dp470
g73
(dp471
g93
g94
ssg82
g465
sg75
(lp472
S'session_id_gaurav'
p473
asbag68
(g89
g70
NtRp474
(dp475
g73
(dp476
g100
g101
ssg82
g465
sg75
(lp477
S':'
asbag68
(g89
g70
NtRp478
(dp479
g73
(dp480
sg82
g465
sg75
(lp481
g68
(g69
g70
NtRp482
(dp483
g73
(dp484
g81
I4
ssg82
g478
sg75
(lp485
S'127.0.0.1-3ad6d46d-421c-4318-84ca-ddb0617d4d4d'
p486
ag68
(g77
g70
NtRp487
(dp488
g73
(dp489
g81
I3
ssg82
Nsg75
(lp490
g68
(g84
g70
NtRp491
(dp492
g73
(dp493
sg82
g487
sg75
(lp494
g68
(g89
g70
NtRp495
(dp496
g73
(dp497
g93
g94
ssg82
g491
sg75
(lp498
g305
asbag68
(g89
g70
NtRp499
(dp500
g73
(dp501
g100
g101
ssg82
g491
sg75
(lp502
S':'
asbag68
(g89
g70
NtRp503
(dp504
g73
(dp505
sg82
g491
sg75
(lp506
g68
(g69
g70
NtRp507
(dp508
g73
(dp509
g81
I3
ssg82
g503
sg75
(lp510
S''
asbasbasbag68
(g84
g70
NtRp511
(dp512
g73
(dp513
sg82
g487
sg75
(lp514
g68
(g89
g70
NtRp515
(dp516
g73
(dp517
g93
g94
ssg82
g511
sg75
(lp518
g326
asbag68
(g89
g70
NtRp519
(dp520
g73
(dp521
g100
g101
ssg82
g511
sg75
(lp522
S':'
asbag68
(g89
g70
NtRp523
(dp524
g73
(dp525
sg82
g511
sg75
(lp526
g68
(g69
g70
NtRp527
(dp528
g73
(dp529
g81
I3
ssg82
g523
sg75
(lp530
S''
asbasbasbag68
(g84
g70
NtRp531
(dp532
g73
(dp533
sg82
g487
sg75
(lp534
g68
(g89
g70
NtRp535
(dp536
g73
(dp537
g93
g94
ssg82
g531
sg75
(lp538
g347
asbag68
(g89
g70
NtRp539
(dp540
g73
(dp541
g100
g101
ssg82
g531
sg75
(lp542
S':'
asbag68
(g89
g70
NtRp543
(dp544
g73
(dp545
sg82
g531
sg75
(lp546
g68
(g69
g70
NtRp547
(dp548
g73
(dp549
g81
I3
ssg82
g543
sg75
(lp550
S''
asbasbasbag68
(g84
g70
NtRp551
(dp552
g73
(dp553
sg82
g487
sg75
(lp554
g68
(g89
g70
NtRp555
(dp556
g73
(dp557
g93
g94
ssg82
g551
sg75
(lp558
g368
asbag68
(g89
g70
NtRp559
(dp560
g73
(dp561
g100
g101
ssg82
g551
sg75
(lp562
S':'
asbag68
(g89
g70
NtRp563
(dp564
g73
(dp565
sg82
g551
sg75
(lp566
g68
(g69
g70
NtRp567
(dp568
g73
(dp569
g81
I3
ssg82
g563
sg75
(lp570
S''
asbasbasbag68
(g84
g70
NtRp571
(dp572
g73
(dp573
sg82
g487
sg75
(lp574
g68
(g89
g70
NtRp575
(dp576
g73
(dp577
g93
g94
ssg82
g571
sg75
(lp578
g389
asbag68
(g89
g70
NtRp579
(dp580
g73
(dp581
g100
g101
ssg82
g571
sg75
(lp582
S':'
asbag68
(g89
g70
NtRp583
(dp584
g73
(dp585
sg82
g571
sg75
(lp586
g68
(g69
g70
NtRp587
(dp588
g73
(dp589
g81
I3
ssg82
g583
sg75
(lp590
S''
asbasbasbag68
(g84
g70
NtRp591
(dp592
g73
(dp593
sg82
g487
sg75
(lp594
g68
(g89
g70
NtRp595
(dp596
g73
(dp597
g93
g94
ssg82
g591
sg75
(lp598
g410
asbag68
(g89
g70
NtRp599
(dp600
g73
(dp601
g100
g101
ssg82
g591
sg75
(lp602
S':'
asbag68
(g89
g70
NtRp603
(dp604
g73
(dp605
sg82
g591
sg75
(lp606
g68
(g69
g70
NtRp607
(dp608
g73
(dp609
g81
I3
ssg82
g603
sg75
(lp610
S''
asbasbasbag68
(g84
g70
NtRp611
(dp612
g73
(dp613
sg82
g487
sg75
(lp614
g68
(g89
g70
NtRp615
(dp616
g73
(dp617
g93
g94
ssg82
g611
sg75
(lp618
g431
asbag68
(g89
g70
NtRp619
(dp620
g73
(dp621
g100
g101
ssg82
g611
sg75
(lp622
S':'
asbag68
(g89
g70
NtRp623
(dp624
g73
(dp625
sg82
g611
sg75
(lp626
g68
(g69
g70
NtRp627
(dp628
g73
(dp629
g81
I3
ssg82
g623
sg75
(lp630
S''
asbasbasbag68
(g84
g70
NtRp631
(dp632
g73
(dp633
sg82
g487
sg75
(lp634
g68
(g89
g70
NtRp635
(dp636
g73
(dp637
g93
g94
ssg82
g631
sg75
(lp638
g452
asbag68
(g89
g70
NtRp639
(dp640
g73
(dp641
g100
g101
ssg82
g631
sg75
(lp642
S':'
asbag68
(g89
g70
NtRp643
(dp644
g73
(dp645
sg82
g631
sg75
(lp646
g68
(g69
g70
NtRp647
(dp648
g73
(dp649
g81
I3
ssg82
g643
sg75
(lp650
S''
asbasbasbasbasbasbasbag68
(g84
g70
NtRp651
(dp652
g73
(dp653
sg82
g267
sg75
(lp654
g68
(g89
g70
NtRp655
(dp656
g73
(dp657
g93
g94
ssg82
g651
sg75
(lp658
S'session_id_songs'
p659
asbag68
(g89
g70
NtRp660
(dp661
g73
(dp662
g100
g101
ssg82
g651
sg75
(lp663
S':'
asbag68
(g89
g70
NtRp664
(dp665
g73
(dp666
sg82
g651
sg75
(lp667
g68
(g69
g70
NtRp668
(dp669
g73
(dp670
g81
I4
ssg82
g664
sg75
(lp671
S'127.0.0.1-90798589-bfb5-4a98-8844-59e16717a241'
p672
ag68
(g77
g70
NtRp673
(dp674
g73
(dp675
g81
I3
ssg82
Nsg75
(lp676
g68
(g84
g70
NtRp677
(dp678
g73
(dp679
sg82
g673
sg75
(lp680
g68
(g89
g70
NtRp681
(dp682
g73
(dp683
g93
g94
ssg82
g677
sg75
(lp684
g305
asbag68
(g89
g70
NtRp685
(dp686
g73
(dp687
g100
g101
ssg82
g677
sg75
(lp688
S':'
asbag68
(g89
g70
NtRp689
(dp690
g73
(dp691
sg82
g677
sg75
(lp692
g68
(g69
g70
NtRp693
(dp694
g73
(dp695
g81
I3
ssg82
g689
sg75
(lp696
S''
asbasbasbag68
(g84
g70
NtRp697
(dp698
g73
(dp699
sg82
g673
sg75
(lp700
g68
(g89
g70
NtRp701
(dp702
g73
(dp703
g93
g94
ssg82
g697
sg75
(lp704
g326
asbag68
(g89
g70
NtRp705
(dp706
g73
(dp707
g100
g101
ssg82
g697
sg75
(lp708
S':'
asbag68
(g89
g70
NtRp709
(dp710
g73
(dp711
sg82
g697
sg75
(lp712
g68
(g69
g70
NtRp713
(dp714
g73
(dp715
g81
I3
ssg82
g709
sg75
(lp716
S''
asbasbasbag68
(g84
g70
NtRp717
(dp718
g73
(dp719
sg82
g673
sg75
(lp720
g68
(g89
g70
NtRp721
(dp722
g73
(dp723
g93
g94
ssg82
g717
sg75
(lp724
g347
asbag68
(g89
g70
NtRp725
(dp726
g73
(dp727
g100
g101
ssg82
g717
sg75
(lp728
S':'
asbag68
(g89
g70
NtRp729
(dp730
g73
(dp731
sg82
g717
sg75
(lp732
g68
(g69
g70
NtRp733
(dp734
g73
(dp735
g81
I3
ssg82
g729
sg75
(lp736
S''
asbasbasbag68
(g84
g70
NtRp737
(dp738
g73
(dp739
sg82
g673
sg75
(lp740
g68
(g89
g70
NtRp741
(dp742
g73
(dp743
g93
g94
ssg82
g737
sg75
(lp744
g368
asbag68
(g89
g70
NtRp745
(dp746
g73
(dp747
g100
g101
ssg82
g737
sg75
(lp748
S':'
asbag68
(g89
g70
NtRp749
(dp750
g73
(dp751
sg82
g737
sg75
(lp752
g68
(g69
g70
NtRp753
(dp754
g73
(dp755
g81
I3
ssg82
g749
sg75
(lp756
S''
asbasbasbag68
(g84
g70
NtRp757
(dp758
g73
(dp759
sg82
g673
sg75
(lp760
g68
(g89
g70
NtRp761
(dp762
g73
(dp763
g93
g94
ssg82
g757
sg75
(lp764
g389
asbag68
(g89
g70
NtRp765
(dp766
g73
(dp767
g100
g101
ssg82
g757
sg75
(lp768
S':'
asbag68
(g89
g70
NtRp769
(dp770
g73
(dp771
sg82
g757
sg75
(lp772
g68
(g69
g70
NtRp773
(dp774
g73
(dp775
g81
I3
ssg82
g769
sg75
(lp776
S''
asbasbasbag68
(g84
g70
NtRp777
(dp778
g73
(dp779
sg82
g673
sg75
(lp780
g68
(g89
g70
NtRp781
(dp782
g73
(dp783
g93
g94
ssg82
g777
sg75
(lp784
g410
asbag68
(g89
g70
NtRp785
(dp786
g73
(dp787
g100
g101
ssg82
g777
sg75
(lp788
S':'
asbag68
(g89
g70
NtRp789
(dp790
g73
(dp791
sg82
g777
sg75
(lp792
g68
(g69
g70
NtRp793
(dp794
g73
(dp795
g81
I3
ssg82
g789
sg75
(lp796
S''
asbasbasbag68
(g84
g70
NtRp797
(dp798
g73
(dp799
sg82
g673
sg75
(lp800
g68
(g89
g70
NtRp801
(dp802
g73
(dp803
g93
g94
ssg82
g797
sg75
(lp804
g431
asbag68
(g89
g70
NtRp805
(dp806
g73
(dp807
g100
g101
ssg82
g797
sg75
(lp808
S':'
asbag68
(g89
g70
NtRp809
(dp810
g73
(dp811
sg82
g797
sg75
(lp812
g68
(g69
g70
NtRp813
(dp814
g73
(dp815
g81
I3
ssg82
g809
sg75
(lp816
S''
asbasbasbag68
(g84
g70
NtRp817
(dp818
g73
(dp819
sg82
g673
sg75
(lp820
g68
(g89
g70
NtRp821
(dp822
g73
(dp823
g93
g94
ssg82
g817
sg75
(lp824
g452
asbag68
(g89
g70
NtRp825
(dp826
g73
(dp827
g100
g101
ssg82
g817
sg75
(lp828
S':'
asbag68
(g89
g70
NtRp829
(dp830
g73
(dp831
sg82
g817
sg75
(lp832
g68
(g69
g70
NtRp833
(dp834
g73
(dp835
g81
I3
ssg82
g829
sg75
(lp836
S''
asbasbasbasbasbasbasbag68
(g84
g70
NtRp837
(dp838
g73
(dp839
sg82
g267
sg75
(lp840
g68
(g89
g70
NtRp841
(dp842
g73
(dp843
g93
g94
ssg82
g837
sg75
(lp844
S'session_id_welcome'
p845
asbag68
(g89
g70
NtRp846
(dp847
g73
(dp848
g100
g101
ssg82
g837
sg75
(lp849
S':'
asbag68
(g89
g70
NtRp850
(dp851
g73
(dp852
sg82
g837
sg75
(lp853
g68
(g69
g70
NtRp854
(dp855
g73
(dp856
g81
I4
ssg82
g850
sg75
(lp857
S'127.0.0.1-72618583-00db-41b4-b6be-dd2f723b181a'
p858
ag68
(g77
g70
NtRp859
(dp860
g73
(dp861
g81
I3
ssg82
Nsg75
(lp862
g68
(g84
g70
NtRp863
(dp864
g73
(dp865
sg82
g859
sg75
(lp866
g68
(g89
g70
NtRp867
(dp868
g73
(dp869
g93
g94
ssg82
g863
sg75
(lp870
g305
asbag68
(g89
g70
NtRp871
(dp872
g73
(dp873
g100
g101
ssg82
g863
sg75
(lp874
S':'
asbag68
(g89
g70
NtRp875
(dp876
g73
(dp877
sg82
g863
sg75
(lp878
g68
(g69
g70
NtRp879
(dp880
g73
(dp881
g81
I3
ssg82
g875
sg75
(lp882
S''
asbasbasbag68
(g84
g70
NtRp883
(dp884
g73
(dp885
sg82
g859
sg75
(lp886
g68
(g89
g70
NtRp887
(dp888
g73
(dp889
g93
g94
ssg82
g883
sg75
(lp890
g326
asbag68
(g89
g70
NtRp891
(dp892
g73
(dp893
g100
g101
ssg82
g883
sg75
(lp894
S':'
asbag68
(g89
g70
NtRp895
(dp896
g73
(dp897
sg82
g883
sg75
(lp898
g68
(g69
g70
NtRp899
(dp900
g73
(dp901
g81
I3
ssg82
g895
sg75
(lp902
S''
asbasbasbag68
(g84
g70
NtRp903
(dp904
g73
(dp905
sg82
g859
sg75
(lp906
g68
(g89
g70
NtRp907
(dp908
g73
(dp909
g93
g94
ssg82
g903
sg75
(lp910
g347
asbag68
(g89
g70
NtRp911
(dp912
g73
(dp913
g100
g101
ssg82
g903
sg75
(lp914
S':'
asbag68
(g89
g70
NtRp915
(dp916
g73
(dp917
sg82
g903
sg75
(lp918
g68
(g69
g70
NtRp919
(dp920
g73
(dp921
g81
I3
ssg82
g915
sg75
(lp922
S''
asbasbasbag68
(g84
g70
NtRp923
(dp924
g73
(dp925
sg82
g859
sg75
(lp926
g68
(g89
g70
NtRp927
(dp928
g73
(dp929
g93
g94
ssg82
g923
sg75
(lp930
g368
asbag68
(g89
g70
NtRp931
(dp932
g73
(dp933
g100
g101
ssg82
g923
sg75
(lp934
S':'
asbag68
(g89
g70
NtRp935
(dp936
g73
(dp937
sg82
g923
sg75
(lp938
g68
(g69
g70
NtRp939
(dp940
g73
(dp941
g81
I3
ssg82
g935
sg75
(lp942
S''
asbasbasbag68
(g84
g70
NtRp943
(dp944
g73
(dp945
sg82
g859
sg75
(lp946
g68
(g89
g70
NtRp947
(dp948
g73
(dp949
g93
g94
ssg82
g943
sg75
(lp950
g389
asbag68
(g89
g70
NtRp951
(dp952
g73
(dp953
g100
g101
ssg82
g943
sg75
(lp954
S':'
asbag68
(g89
g70
NtRp955
(dp956
g73
(dp957
sg82
g943
sg75
(lp958
g68
(g69
g70
NtRp959
(dp960
g73
(dp961
g81
I3
ssg82
g955
sg75
(lp962
S''
asbasbasbag68
(g84
g70
NtRp963
(dp964
g73
(dp965
sg82
g859
sg75
(lp966
g68
(g89
g70
NtRp967
(dp968
g73
(dp969
g93
g94
ssg82
g963
sg75
(lp970
g410
asbag68
(g89
g70
NtRp971
(dp972
g73
(dp973
g100
g101
ssg82
g963
sg75
(lp974
S':'
asbag68
(g89
g70
NtRp975
(dp976
g73
(dp977
sg82
g963
sg75
(lp978
g68
(g69
g70
NtRp979
(dp980
g73
(dp981
g81
I3
ssg82
g975
sg75
(lp982
S''
asbasbasbag68
(g84
g70
NtRp983
(dp984
g73
(dp985
sg82
g859
sg75
(lp986
g68
(g89
g70
NtRp987
(dp988
g73
(dp989
g93
g94
ssg82
g983
sg75
(lp990
g431
asbag68
(g89
g70
NtRp991
(dp992
g73
(dp993
g100
g101
ssg82
g983
sg75
(lp994
S':'
asbag68
(g89
g70
NtRp995
(dp996
g73
(dp997
sg82
g983
sg75
(lp998
g68
(g69
g70
NtRp999
(dp1000
g73
(dp1001
g81
I3
ssg82
g995
sg75
(lp1002
S''
asbasbasbag68
(g84
g70
NtRp1003
(dp1004
g73
(dp1005
sg82
g859
sg75
(lp1006
g68
(g89
g70
NtRp1007
(dp1008
g73
(dp1009
g93
g94
ssg82
g1003
sg75
(lp1010
g452
asbag68
(g89
g70
NtRp1011
(dp1012
g73
(dp1013
g100
g101
ssg82
g1003
sg75
(lp1014
S':'
asbag68
(g89
g70
NtRp1015
(dp1016
g73
(dp1017
sg82
g1003
sg75
(lp1018
g68
(g69
g70
NtRp1019
(dp1020
g73
(dp1021
g81
I3
ssg82
g1015
sg75
(lp1022
S''
asbasbasbasbasbasbasbasbasbasbasbag68
(g84
g70
NtRp1023
(dp1024
g73
(dp1025
sg82
g78
sg75
(lp1026
g68
(g89
g70
NtRp1027
(dp1028
g73
(dp1029
g93
g94
ssg82
g1023
sg75
(lp1030
S'env'
p1031
asbag68
(g89
g70
NtRp1032
(dp1033
g73
(dp1034
g100
g101
ssg82
g1023
sg75
(lp1035
S':'
asbag68
(g89
g70
NtRp1036
(dp1037
g73
(dp1038
sg82
g1023
sg75
(lp1039
g68
(g69
g70
NtRp1040
(dp1041
g73
(dp1042
g81
I5
ssg82
g1036
sg75
(lp1043
g68
(g77
g70
NtRp1044
(dp1045
g73
(dp1046
g81
I4
ssg82
Nsg75
(lp1047
g68
(g84
g70
NtRp1048
(dp1049
g73
(dp1050
sg82
g1044
sg75
(lp1051
g68
(g89
g70
NtRp1052
(dp1053
g73
(dp1054
g93
g94
ssg82
g1048
sg75
(lp1055
S'app_folders'
p1056
asbag68
(g89
g70
NtRp1057
(dp1058
g73
(dp1059
g100
g101
ssg82
g1048
sg75
(lp1060
S':'
asbag68
(g89
g70
NtRp1061
(dp1062
g73
(dp1063
sg82
g1048
sg75
(lp1064
g68
(g69
g70
NtRp1065
(dp1066
g73
(dp1067
g81
I4
ssg82
g1061
sg75
(lp1068
S"set(['/home/gaurav/classwork/WEB_PROGRAMMING/web2py/applications/admin/', '/home/gaurav/classwork/WEB_PROGRAMMING/web2py/applications/welcome/', '/home/gaurav/classwork/WEB_PROGRAMMING/web2py/applications/gaurav/', '/home/gaurav/classwork/WEB_PROGRAMMING/web2py/applications/SONGS/'])"
p1069
asbasbasbag68
(g84
g70
NtRp1070
(dp1071
g73
(dp1072
sg82
g1044
sg75
(lp1073
g68
(g89
g70
NtRp1074
(dp1075
g73
(dp1076
g93
g94
ssg82
g1070
sg75
(lp1077
S'applications_parent'
p1078
asbag68
(g89
g70
NtRp1079
(dp1080
g73
(dp1081
g100
g101
ssg82
g1070
sg75
(lp1082
S':'
asbag68
(g89
g70
NtRp1083
(dp1084
g73
(dp1085
sg82
g1070
sg75
(lp1086
g68
(g69
g70
NtRp1087
(dp1088
g73
(dp1089
g81
I4
ssg82
g1083
sg75
(lp1090
S'/home/gaurav/classwork/WEB_PROGRAMMING/web2py'
p1091
asbasbasbag68
(g84
g70
NtRp1092
(dp1093
g73
(dp1094
sg82
g1044
sg75
(lp1095
g68
(g89
g70
NtRp1096
(dp1097
g73
(dp1098
g93
g94
ssg82
g1092
sg75
(lp1099
S'cmd_args'
p1100
asbag68
(g89
g70
NtRp1101
(dp1102
g73
(dp1103
g100
g101
ssg82
g1092
sg75
(lp1104
S':'
asbag68
(g89
g70
NtRp1105
(dp1106
g73
(dp1107
sg82
g1092
sg75
(lp1108
g68
(g69
g70
NtRp1109
(dp1110
g73
(dp1111
g81
I4
ssg82
g1105
sg75
(lp1112
g68
(g77
g70
NtRp1113
(dp1114
g73
(dp1115
g81
I3
ssg82
Nsg75
(lp1116
sbasbasbasbag68
(g84
g70
NtRp1117
(dp1118
g73
(dp1119
sg82
g1044
sg75
(lp1120
g68
(g89
g70
NtRp1121
(dp1122
g73
(dp1123
g93
g94
ssg82
g1117
sg75
(lp1124
S'cmd_options'
p1125
asbag68
(g89
g70
NtRp1126
(dp1127
g73
(dp1128
g100
g101
ssg82
g1117
sg75
(lp1129
S':'
asbag68
(g89
g70
NtRp1130
(dp1131
g73
(dp1132
sg82
g1117
sg75
(lp1133
g68
(g69
g70
NtRp1134
(dp1135
g73
(dp1136
g81
I4
ssg82
g1130
sg75
(lp1137
S"<Values at 0x99c26ec: {'verbose': False, 'ip': '127.0.0.1', 'with_scheduler': False, 'ips': [], 'shutdown_timeout': 5, 'taskbar': False, 'port': 8000, 'maxthreads': None, 'softcron': False, 'server_name': 'gaurav-Compaq-Presario-C700-Notebook-PC', 'bpython': False, 'nogui': False, 'pid_filename': 'httpserver.pid', 'extcron': False, 'runcron': False, 'run_system_tests': False, 'test': None, 'folder': '/home/gaurav/classwork/WEB_PROGRAMMING/web2py', 'config': '', 'import_models': False, 'winservice': '', 'shell': None, 'run': '', 'log_filename': 'httpserver.log', 'debuglevel': 30, 'args': [''], 'socket_timeout': 5, 'ssl_ca_certificate': None, 'scheduler': None, 'profiler_filename': None, 'ssl_private_key': '', 'scheduler_groups': None, 'password': '<ask>', 'request_queue_size': 5, 'ssl_certificate': '', 'cronjob': False, 'numthreads': None, 'quiet': False, 'interfaces': None, 'minthreads': None, 'timeout': 10, 'plain': False, 'nobanner': False}>"
p1138
asbasbasbag68
(g84
g70
NtRp1139
(dp1140
g73
(dp1141
sg82
g1044
sg75
(lp1142
g68
(g89
g70
NtRp1143
(dp1144
g73
(dp1145
g93
g94
ssg82
g1139
sg75
(lp1146
S'db_sessions'
p1147
asbag68
(g89
g70
NtRp1148
(dp1149
g73
(dp1150
g100
g101
ssg82
g1139
sg75
(lp1151
S':'
asbag68
(g89
g70
NtRp1152
(dp1153
g73
(dp1154
sg82
g1139
sg75
(lp1155
g68
(g69
g70
NtRp1156
(dp1157
g73
(dp1158
g81
I4
ssg82
g1152
sg75
(lp1159
S'set([])'
p1160
asbasbasbag68
(g84
g70
NtRp1161
(dp1162
g73
(dp1163
sg82
g1044
sg75
(lp1164
g68
(g89
g70
NtRp1165
(dp1166
g73
(dp1167
g93
g94
ssg82
g1161
sg75
(lp1168
S'debugging'
p1169
asbag68
(g89
g70
NtRp1170
(dp1171
g73
(dp1172
g100
g101
ssg82
g1161
sg75
(lp1173
S':'
asbag68
(g89
g70
NtRp1174
(dp1175
g73
(dp1176
sg82
g1161
sg75
(lp1177
g68
(g69
g70
NtRp1178
(dp1179
g73
(dp1180
g81
I4
ssg82
g1174
sg75
(lp1181
g111
asbasbasbag68
(g84
g70
NtRp1182
(dp1183
g73
(dp1184
sg82
g1044
sg75
(lp1185
g68
(g89
g70
NtRp1186
(dp1187
g73
(dp1188
g93
g94
ssg82
g1182
sg75
(lp1189
S'gluon_parent'
p1190
asbag68
(g89
g70
NtRp1191
(dp1192
g73
(dp1193
g100
g101
ssg82
g1182
sg75
(lp1194
S':'
asbag68
(g89
g70
NtRp1195
(dp1196
g73
(dp1197
sg82
g1182
sg75
(lp1198
g68
(g69
g70
NtRp1199
(dp1200
g73
(dp1201
g81
I4
ssg82
g1195
sg75
(lp1202
S'/home/gaurav/classwork/WEB_PROGRAMMING/web2py'
p1203
asbasbasbag68
(g84
g70
NtRp1204
(dp1205
g73
(dp1206
sg82
g1044
sg75
(lp1207
g68
(g89
g70
NtRp1208
(dp1209
g73
(dp1210
g93
g94
ssg82
g1204
sg75
(lp1211
S'http_accept'
p1212
asbag68
(g89
g70
NtRp1213
(dp1214
g73
(dp1215
g100
g101
ssg82
g1204
sg75
(lp1216
S':'
asbag68
(g89
g70
NtRp1217
(dp1218
g73
(dp1219
sg82
g1204
sg75
(lp1220
g68
(g69
g70
NtRp1221
(dp1222
g73
(dp1223
g81
I4
ssg82
g1217
sg75
(lp1224
S'text/html,application/xhtml+xml,application/xml;q=0.9,*/*;q=0.8'
p1225
asbasbasbag68
(g84
g70
NtRp1226
(dp1227
g73
(dp1228
sg82
g1044
sg75
(lp1229
g68
(g89
g70
NtRp1230
(dp1231
g73
(dp1232
g93
g94
ssg82
g1226
sg75
(lp1233
S'http_accept_encoding'
p1234
asbag68
(g89
g70
NtRp1235
(dp1236
g73
(dp1237
g100
g101
ssg82
g1226
sg75
(lp1238
S':'
asbag68
(g89
g70
NtRp1239
(dp1240
g73
(dp1241
sg82
g1226
sg75
(lp1242
g68
(g69
g70
NtRp1243
(dp1244
g73
(dp1245
g81
I4
ssg82
g1239
sg75
(lp1246
S'gzip, deflate'
p1247
asbasbasbag68
(g84
g70
NtRp1248
(dp1249
g73
(dp1250
sg82
g1044
sg75
(lp1251
g68
(g89
g70
NtRp1252
(dp1253
g73
(dp1254
g93
g94
ssg82
g1248
sg75
(lp1255
S'http_accept_language'
p1256
asbag68
(g89
g70
NtRp1257
(dp1258
g73
(dp1259
g100
g101
ssg82
g1248
sg75
(lp1260
S':'
asbag68
(g89
g70
NtRp1261
(dp1262
g73
(dp1263
sg82
g1248
sg75
(lp1264
g68
(g69
g70
NtRp1265
(dp1266
g73
(dp1267
g81
I4
ssg82
g1261
sg75
(lp1268
S'en-US,en;q=0.5'
p1269
asbasbasbag68
(g84
g70
NtRp1270
(dp1271
g73
(dp1272
sg82
g1044
sg75
(lp1273
g68
(g89
g70
NtRp1274
(dp1275
g73
(dp1276
g93
g94
ssg82
g1270
sg75
(lp1277
S'http_connection'
p1278
asbag68
(g89
g70
NtRp1279
(dp1280
g73
(dp1281
g100
g101
ssg82
g1270
sg75
(lp1282
S':'
asbag68
(g89
g70
NtRp1283
(dp1284
g73
(dp1285
sg82
g1270
sg75
(lp1286
g68
(g69
g70
NtRp1287
(dp1288
g73
(dp1289
g81
I4
ssg82
g1283
sg75
(lp1290
S'keep-alive'
p1291
asbasbasbag68
(g84
g70
NtRp1292
(dp1293
g73
(dp1294
sg82
g1044
sg75
(lp1295
g68
(g89
g70
NtRp1296
(dp1297
g73
(dp1298
g93
g94
ssg82
g1292
sg75
(lp1299
S'http_cookie'
p1300
asbag68
(g89
g70
NtRp1301
(dp1302
g73
(dp1303
g100
g101
ssg82
g1292
sg75
(lp1304
S':'
asbag68
(g89
g70
NtRp1305
(dp1306
g73
(dp1307
sg82
g1292
sg75
(lp1308
g68
(g69
g70
NtRp1309
(dp1310
g73
(dp1311
g81
I4
ssg82
g1305
sg75
(lp1312
S'session_id_welcome=127.0.0.1-72618583-00db-41b4-b6be-dd2f723b181a; session_id_admin=127.0.0.1-1744135d-0957-4bad-84d1-bf2f9c456344; session_id_gaurav=127.0.0.1-3ad6d46d-421c-4318-84ca-ddb0617d4d4d; session_id_songs=127.0.0.1-90798589-bfb5-4a98-8844-59e16717a241'
p1313
asbasbasbag68
(g84
g70
NtRp1314
(dp1315
g73
(dp1316
sg82
g1044
sg75
(lp1317
g68
(g89
g70
NtRp1318
(dp1319
g73
(dp1320
g93
g94
ssg82
g1314
sg75
(lp1321
S'http_host'
p1322
asbag68
(g89
g70
NtRp1323
(dp1324
g73
(dp1325
g100
g101
ssg82
g1314
sg75
(lp1326
S':'
asbag68
(g89
g70
NtRp1327
(dp1328
g73
(dp1329
sg82
g1314
sg75
(lp1330
g68
(g69
g70
NtRp1331
(dp1332
g73
(dp1333
g81
I4
ssg82
g1327
sg75
(lp1334
S'127.0.0.1:8000'
p1335
asbasbasbag68
(g84
g70
NtRp1336
(dp1337
g73
(dp1338
sg82
g1044
sg75
(lp1339
g68
(g89
g70
NtRp1340
(dp1341
g73
(dp1342
g93
g94
ssg82
g1336
sg75
(lp1343
S'http_user_agent'
p1344
asbag68
(g89
g70
NtRp1345
(dp1346
g73
(dp1347
g100
g101
ssg82
g1336
sg75
(lp1348
S':'
asbag68
(g89
g70
NtRp1349
(dp1350
g73
(dp1351
sg82
g1336
sg75
(lp1352
g68
(g69
g70
NtRp1353
(dp1354
g73
(dp1355
g81
I4
ssg82
g1349
sg75
(lp1356
S'Mozilla/5.0 (X11; Ubuntu; Linux i686; rv:16.0) Gecko/20100101 Firefox/16.0'
p1357
asbasbasbag68
(g84
g70
NtRp1358
(dp1359
g73
(dp1360
sg82
g1044
sg75
(lp1361
g68
(g89
g70
NtRp1362
(dp1363
g73
(dp1364
g93
g94
ssg82
g1358
sg75
(lp1365
S'is_jython'
p1366
asbag68
(g89
g70
NtRp1367
(dp1368
g73
(dp1369
g100
g101
ssg82
g1358
sg75
(lp1370
S':'
asbag68
(g89
g70
NtRp1371
(dp1372
g73
(dp1373
sg82
g1358
sg75
(lp1374
g68
(g69
g70
NtRp1375
(dp1376
g73
(dp1377
g81
I4
ssg82
g1371
sg75
(lp1378
g111
asbasbasbag68
(g84
g70
NtRp1379
(dp1380
g73
(dp1381
sg82
g1044
sg75
(lp1382
g68
(g89
g70
NtRp1383
(dp1384
g73
(dp1385
g93
g94
ssg82
g1379
sg75
(lp1386
S'is_pypy'
p1387
asbag68
(g89
g70
NtRp1388
(dp1389
g73
(dp1390
g100
g101
ssg82
g1379
sg75
(lp1391
S':'
asbag68
(g89
g70
NtRp1392
(dp1393
g73
(dp1394
sg82
g1379
sg75
(lp1395
g68
(g69
g70
NtRp1396
(dp1397
g73
(dp1398
g81
I4
ssg82
g1392
sg75
(lp1399
g111
asbasbasbag68
(g84
g70
NtRp1400
(dp1401
g73
(dp1402
sg82
g1044
sg75
(lp1403
g68
(g89
g70
NtRp1404
(dp1405
g73
(dp1406
g93
g94
ssg82
g1400
sg75
(lp1407
S'local_hosts'
p1408
asbag68
(g89
g70
NtRp1409
(dp1410
g73
(dp1411
g100
g101
ssg82
g1400
sg75
(lp1412
S':'
asbag68
(g89
g70
NtRp1413
(dp1414
g73
(dp1415
sg82
g1400
sg75
(lp1416
g68
(g69
g70
NtRp1417
(dp1418
g73
(dp1419
g81
I4
ssg82
g1413
sg75
(lp1420
g68
(g77
g70
NtRp1421
(dp1422
g73
(dp1423
g81
I3
ssg82
Nsg75
(lp1424
g68
(g84
g70
NtRp1425
(dp1426
g73
(dp1427
sg82
g1421
sg75
(lp1428
g68
(g89
g70
NtRp1429
(dp1430
g73
(dp1431
sg82
g1425
sg75
(lp1432
g68
(g69
g70
NtRp1433
(dp1434
g73
(dp1435
g81
I3
ssg82
g1429
sg75
(lp1436
S'gaurav-Compaq-Presario-C700-Notebook-PC'
p1437
asbasbasbag68
(g84
g70
NtRp1438
(dp1439
g73
(dp1440
sg82
g1421
sg75
(lp1441
g68
(g89
g70
NtRp1442
(dp1443
g73
(dp1444
sg82
g1438
sg75
(lp1445
g68
(g69
g70
NtRp1446
(dp1447
g73
(dp1448
g81
I3
ssg82
g1442
sg75
(lp1449
S'::1'
p1450
asbasbasbag68
(g84
g70
NtRp1451
(dp1452
g73
(dp1453
sg82
g1421
sg75
(lp1454
g68
(g89
g70
NtRp1455
(dp1456
g73
(dp1457
sg82
g1451
sg75
(lp1458
g68
(g69
g70
NtRp1459
(dp1460
g73
(dp1461
g81
I3
ssg82
g1455
sg75
(lp1462
S'127.0.1.1'
p1463
asbasbasbag68
(g84
g70
NtRp1464
(dp1465
g73
(dp1466
sg82
g1421
sg75
(lp1467
g68
(g89
g70
NtRp1468
(dp1469
g73
(dp1470
sg82
g1464
sg75
(lp1471
g68
(g69
g70
NtRp1472
(dp1473
g73
(dp1474
g81
I3
ssg82
g1468
sg75
(lp1475
S'::ffff:127.0.0.1'
p1476
asbasbasbag68
(g84
g70
NtRp1477
(dp1478
g73
(dp1479
sg82
g1421
sg75
(lp1480
g68
(g89
g70
NtRp1481
(dp1482
g73
(dp1483
sg82
g1477
sg75
(lp1484
g68
(g69
g70
NtRp1485
(dp1486
g73
(dp1487
g81
I3
ssg82
g1481
sg75
(lp1488
S'127.0.0.1'
p1489
asbasbasbasbasbasbasbag68
(g84
g70
NtRp1490
(dp1491
g73
(dp1492
sg82
g1044
sg75
(lp1493
g68
(g89
g70
NtRp1494
(dp1495
g73
(dp1496
g93
g94
ssg82
g1490
sg75
(lp1497
S'path_info'
p1498
asbag68
(g89
g70
NtRp1499
(dp1500
g73
(dp1501
g100
g101
ssg82
g1490
sg75
(lp1502
S':'
asbag68
(g89
g70
NtRp1503
(dp1504
g73
(dp1505
sg82
g1490
sg75
(lp1506
g68
(g69
g70
NtRp1507
(dp1508
g73
(dp1509
g81
I4
ssg82
g1503
sg75
(lp1510
S'/SONGS/default/update_len.html'
p1511
asbasbasbag68
(g84
g70
NtRp1512
(dp1513
g73
(dp1514
sg82
g1044
sg75
(lp1515
g68
(g89
g70
NtRp1516
(dp1517
g73
(dp1518
g93
g94
ssg82
g1512
sg75
(lp1519
S'query_string'
p1520
asbag68
(g89
g70
NtRp1521
(dp1522
g73
(dp1523
g100
g101
ssg82
g1512
sg75
(lp1524
S':'
asbag68
(g89
g70
NtRp1525
(dp1526
g73
(dp1527
sg82
g1512
sg75
(lp1528
g68
(g69
g70
NtRp1529
(dp1530
g73
(dp1531
g81
I4
ssg82
g1525
sg75
(lp1532
S''
asbasbasbag68
(g84
g70
NtRp1533
(dp1534
g73
(dp1535
sg82
g1044
sg75
(lp1536
g68
(g89
g70
NtRp1537
(dp1538
g73
(dp1539
g93
g94
ssg82
g1533
sg75
(lp1540
S'remote_addr'
p1541
asbag68
(g89
g70
NtRp1542
(dp1543
g73
(dp1544
g100
g101
ssg82
g1533
sg75
(lp1545
S':'
asbag68
(g89
g70
NtRp1546
(dp1547
g73
(dp1548
sg82
g1533
sg75
(lp1549
g68
(g69
g70
NtRp1550
(dp1551
g73
(dp1552
g81
I4
ssg82
g1546
sg75
(lp1553
g223
asbasbasbag68
(g84
g70
NtRp1554
(dp1555
g73
(dp1556
sg82
g1044
sg75
(lp1557
g68
(g89
g70
NtRp1558
(dp1559
g73
(dp1560
g93
g94
ssg82
g1554
sg75
(lp1561
S'remote_port'
p1562
asbag68
(g89
g70
NtRp1563
(dp1564
g73
(dp1565
g100
g101
ssg82
g1554
sg75
(lp1566
S':'
asbag68
(g89
g70
NtRp1567
(dp1568
g73
(dp1569
sg82
g1554
sg75
(lp1570
g68
(g69
g70
NtRp1571
(dp1572
g73
(dp1573
g81
I4
ssg82
g1567
sg75
(lp1574
S'43459'
p1575
asbasbasbag68
(g84
g70
NtRp1576
(dp1577
g73
(dp1578
sg82
g1044
sg75
(lp1579
g68
(g89
g70
NtRp1580
(dp1581
g73
(dp1582
g93
g94
ssg82
g1576
sg75
(lp1583
S'request_method'
p1584
asbag68
(g89
g70
NtRp1585
(dp1586
g73
(dp1587
g100
g101
ssg82
g1576
sg75
(lp1588
S':'
asbag68
(g89
g70
NtRp1589
(dp1590
g73
(dp1591
sg82
g1576
sg75
(lp1592
g68
(g69
g70
NtRp1593
(dp1594
g73
(dp1595
g81
I4
ssg82
g1589
sg75
(lp1596
S'GET'
p1597
asbasbasbag68
(g84
g70
NtRp1598
(dp1599
g73
(dp1600
sg82
g1044
sg75
(lp1601
g68
(g89
g70
NtRp1602
(dp1603
g73
(dp1604
g93
g94
ssg82
g1598
sg75
(lp1605
S'request_uri'
p1606
asbag68
(g89
g70
NtRp1607
(dp1608
g73
(dp1609
g100
g101
ssg82
g1598
sg75
(lp1610
S':'
asbag68
(g89
g70
NtRp1611
(dp1612
g73
(dp1613
sg82
g1598
sg75
(lp1614
g68
(g69
g70
NtRp1615
(dp1616
g73
(dp1617
g81
I4
ssg82
g1611
sg75
(lp1618
g1511
asbasbasbag68
(g84
g70
NtRp1619
(dp1620
g73
(dp1621
sg82
g1044
sg75
(lp1622
g68
(g89
g70
NtRp1623
(dp1624
g73
(dp1625
g93
g94
ssg82
g1619
sg75
(lp1626
S'script_name'
p1627
asbag68
(g89
g70
NtRp1628
(dp1629
g73
(dp1630
g100
g101
ssg82
g1619
sg75
(lp1631
S':'
asbag68
(g89
g70
NtRp1632
(dp1633
g73
(dp1634
sg82
g1619
sg75
(lp1635
g68
(g69
g70
NtRp1636
(dp1637
g73
(dp1638
g81
I4
ssg82
g1632
sg75
(lp1639
S''
asbasbasbag68
(g84
g70
NtRp1640
(dp1641
g73
(dp1642
sg82
g1044
sg75
(lp1643
g68
(g89
g70
NtRp1644
(dp1645
g73
(dp1646
g93
g94
ssg82
g1640
sg75
(lp1647
S'server_name'
p1648
asbag68
(g89
g70
NtRp1649
(dp1650
g73
(dp1651
g100
g101
ssg82
g1640
sg75
(lp1652
S':'
asbag68
(g89
g70
NtRp1653
(dp1654
g73
(dp1655
sg82
g1640
sg75
(lp1656
g68
(g69
g70
NtRp1657
(dp1658
g73
(dp1659
g81
I4
ssg82
g1653
sg75
(lp1660
S'gaurav-Compaq-Presario-C700-Notebook-PC'
p1661
asbasbasbag68
(g84
g70
NtRp1662
(dp1663
g73
(dp1664
sg82
g1044
sg75
(lp1665
g68
(g89
g70
NtRp1666
(dp1667
g73
(dp1668
g93
g94
ssg82
g1662
sg75
(lp1669
S'server_port'
p1670
asbag68
(g89
g70
NtRp1671
(dp1672
g73
(dp1673
g100
g101
ssg82
g1662
sg75
(lp1674
S':'
asbag68
(g89
g70
NtRp1675
(dp1676
g73
(dp1677
sg82
g1662
sg75
(lp1678
g68
(g69
g70
NtRp1679
(dp1680
g73
(dp1681
g81
I4
ssg82
g1675
sg75
(lp1682
S'8000'
p1683
asbasbasbag68
(g84
g70
NtRp1684
(dp1685
g73
(dp1686
sg82
g1044
sg75
(lp1687
g68
(g89
g70
NtRp1688
(dp1689
g73
(dp1690
g93
g94
ssg82
g1684
sg75
(lp1691
S'server_protocol'
p1692
asbag68
(g89
g70
NtRp1693
(dp1694
g73
(dp1695
g100
g101
ssg82
g1684
sg75
(lp1696
S':'
asbag68
(g89
g70
NtRp1697
(dp1698
g73
(dp1699
sg82
g1684
sg75
(lp1700
g68
(g69
g70
NtRp1701
(dp1702
g73
(dp1703
g81
I4
ssg82
g1697
sg75
(lp1704
S'HTTP/1.1'
p1705
asbasbasbag68
(g84
g70
NtRp1706
(dp1707
g73
(dp1708
sg82
g1044
sg75
(lp1709
g68
(g89
g70
NtRp1710
(dp1711
g73
(dp1712
g93
g94
ssg82
g1706
sg75
(lp1713
S'server_software'
p1714
asbag68
(g89
g70
NtRp1715
(dp1716
g73
(dp1717
g100
g101
ssg82
g1706
sg75
(lp1718
S':'
asbag68
(g89
g70
NtRp1719
(dp1720
g73
(dp1721
sg82
g1706
sg75
(lp1722
g68
(g69
g70
NtRp1723
(dp1724
g73
(dp1725
g81
I4
ssg82
g1719
sg75
(lp1726
S'Rocket 1.2.6'
p1727
asbasbasbag68
(g84
g70
NtRp1728
(dp1729
g73
(dp1730
sg82
g1044
sg75
(lp1731
g68
(g89
g70
NtRp1732
(dp1733
g73
(dp1734
g93
g94
ssg82
g1728
sg75
(lp1735
S'web2py_path'
p1736
asbag68
(g89
g70
NtRp1737
(dp1738
g73
(dp1739
g100
g101
ssg82
g1728
sg75
(lp1740
S':'
asbag68
(g89
g70
NtRp1741
(dp1742
g73
(dp1743
sg82
g1728
sg75
(lp1744
g68
(g69
g70
NtRp1745
(dp1746
g73
(dp1747
g81
I4
ssg82
g1741
sg75
(lp1748
g1091
asbasbasbag68
(g84
g70
NtRp1749
(dp1750
g73
(dp1751
sg82
g1044
sg75
(lp1752
g68
(g89
g70
NtRp1753
(dp1754
g73
(dp1755
g93
g94
ssg82
g1749
sg75
(lp1756
S'web2py_version'
p1757
asbag68
(g89
g70
NtRp1758
(dp1759
g73
(dp1760
g100
g101
ssg82
g1749
sg75
(lp1761
S':'
asbag68
(g89
g70
NtRp1762
(dp1763
g73
(dp1764
sg82
g1749
sg75
(lp1765
g68
(g69
g70
NtRp1766
(dp1767
g73
(dp1768
g81
I4
ssg82
g1762
sg75
(lp1769
g68
(g77
g70
NtRp1770
(dp1771
g73
(dp1772
g81
I3
ssg82
Nsg75
(lp1773
g68
(g84
g70
NtRp1774
(dp1775
g73
(dp1776
sg82
g1770
sg75
(lp1777
g68
(g89
g70
NtRp1778
(dp1779
g73
(dp1780
sg82
g1774
sg75
(lp1781
g68
(g69
g70
NtRp1782
(dp1783
g73
(dp1784
g81
I3
ssg82
g1778
sg75
(lp1785
S'2'
asbasbasbag68
(g84
g70
NtRp1786
(dp1787
g73
(dp1788
sg82
g1770
sg75
(lp1789
g68
(g89
g70
NtRp1790
(dp1791
g73
(dp1792
sg82
g1786
sg75
(lp1793
g68
(g69
g70
NtRp1794
(dp1795
g73
(dp1796
g81
I3
ssg82
g1790
sg75
(lp1797
S'3'
asbasbasbag68
(g84
g70
NtRp1798
(dp1799
g73
(dp1800
sg82
g1770
sg75
(lp1801
g68
(g89
g70
NtRp1802
(dp1803
g73
(dp1804
sg82
g1798
sg75
(lp1805
g68
(g69
g70
NtRp1806
(dp1807
g73
(dp1808
g81
I3
ssg82
g1802
sg75
(lp1809
S'2'
asbasbasbag68
(g84
g70
NtRp1810
(dp1811
g73
(dp1812
sg82
g1770
sg75
(lp1813
g68
(g89
g70
NtRp1814
(dp1815
g73
(dp1816
sg82
g1810
sg75
(lp1817
g68
(g69
g70
NtRp1818
(dp1819
g73
(dp1820
g81
I3
ssg82
g1814
sg75
(lp1821
S'datetime.datetime(2012, 12, 17, 15, 3, 30)'
p1822
asbasbasbag68
(g84
g70
NtRp1823
(dp1824
g73
(dp1825
sg82
g1770
sg75
(lp1826
g68
(g89
g70
NtRp1827
(dp1828
g73
(dp1829
sg82
g1823
sg75
(lp1830
g68
(g69
g70
NtRp1831
(dp1832
g73
(dp1833
g81
I3
ssg82
g1827
sg75
(lp1834
S'stable'
p1835
asbasbasbasbasbasbasbag68
(g84
g70
NtRp1836
(dp1837
g73
(dp1838
sg82
g1044
sg75
(lp1839
g68
(g89
g70
NtRp1840
(dp1841
g73
(dp1842
g93
g94
ssg82
g1836
sg75
(lp1843
S'wsgi_errors'
p1844
asbag68
(g89
g70
NtRp1845
(dp1846
g73
(dp1847
g100
g101
ssg82
g1836
sg75
(lp1848
S':'
asbag68
(g89
g70
NtRp1849
(dp1850
g73
(dp1851
sg82
g1836
sg75
(lp1852
g68
(g69
g70
NtRp1853
(dp1854
g73
(dp1855
g81
I4
ssg82
g1849
sg75
(lp1856
S"<open file '<stderr>', mode 'w' at 0xb74db0d0>"
p1857
asbasbasbag68
(g84
g70
NtRp1858
(dp1859
g73
(dp1860
sg82
g1044
sg75
(lp1861
g68
(g89
g70
NtRp1862
(dp1863
g73
(dp1864
g93
g94
ssg82
g1858
sg75
(lp1865
S'wsgi_file_wrapper'
p1866
asbag68
(g89
g70
NtRp1867
(dp1868
g73
(dp1869
g100
g101
ssg82
g1858
sg75
(lp1870
S':'
asbag68
(g89
g70
NtRp1871
(dp1872
g73
(dp1873
sg82
g1858
sg75
(lp1874
g68
(g69
g70
NtRp1875
(dp1876
g73
(dp1877
g81
I4
ssg82
g1871
sg75
(lp1878
S'<class wsgiref.util.FileWrapper at 0x9976ecc>'
p1879
asbasbasbag68
(g84
g70
NtRp1880
(dp1881
g73
(dp1882
sg82
g1044
sg75
(lp1883
g68
(g89
g70
NtRp1884
(dp1885
g73
(dp1886
g93
g94
ssg82
g1880
sg75
(lp1887
S'wsgi_input'
p1888
asbag68
(g89
g70
NtRp1889
(dp1890
g73
(dp1891
g100
g101
ssg82
g1880
sg75
(lp1892
S':'
asbag68
(g89
g70
NtRp1893
(dp1894
g73
(dp1895
sg82
g1880
sg75
(lp1896
g68
(g69
g70
NtRp1897
(dp1898
g73
(dp1899
g81
I4
ssg82
g1893
sg75
(lp1900
S'<socket._fileobject object at 0x9d7452c>'
p1901
asbasbasbag68
(g84
g70
NtRp1902
(dp1903
g73
(dp1904
sg82
g1044
sg75
(lp1905
g68
(g89
g70
NtRp1906
(dp1907
g73
(dp1908
g93
g94
ssg82
g1902
sg75
(lp1909
S'wsgi_multiprocess'
p1910
asbag68
(g89
g70
NtRp1911
(dp1912
g73
(dp1913
g100
g101
ssg82
g1902
sg75
(lp1914
S':'
asbag68
(g89
g70
NtRp1915
(dp1916
g73
(dp1917
sg82
g1902
sg75
(lp1918
g68
(g69
g70
NtRp1919
(dp1920
g73
(dp1921
g81
I4
ssg82
g1915
sg75
(lp1922
g111
asbasbasbag68
(g84
g70
NtRp1923
(dp1924
g73
(dp1925
sg82
g1044
sg75
(lp1926
g68
(g89
g70
NtRp1927
(dp1928
g73
(dp1929
g93
g94
ssg82
g1923
sg75
(lp1930
S'wsgi_multithread'
p1931
asbag68
(g89
g70
NtRp1932
(dp1933
g73
(dp1934
g100
g101
ssg82
g1923
sg75
(lp1935
S':'
asbag68
(g89
g70
NtRp1936
(dp1937
g73
(dp1938
sg82
g1923
sg75
(lp1939
g68
(g69
g70
NtRp1940
(dp1941
g73
(dp1942
g81
I4
ssg82
g1936
sg75
(lp1943
S'True'
p1944
asbasbasbag68
(g84
g70
NtRp1945
(dp1946
g73
(dp1947
sg82
g1044
sg75
(lp1948
g68
(g89
g70
NtRp1949
(dp1950
g73
(dp1951
g93
g94
ssg82
g1945
sg75
(lp1952
S'wsgi_run_once'
p1953
asbag68
(g89
g70
NtRp1954
(dp1955
g73
(dp1956
g100
g101
ssg82
g1945
sg75
(lp1957
S':'
asbag68
(g89
g70
NtRp1958
(dp1959
g73
(dp1960
sg82
g1945
sg75
(lp1961
g68
(g69
g70
NtRp1962
(dp1963
g73
(dp1964
g81
I4
ssg82
g1958
sg75
(lp1965
g111
asbasbasbag68
(g84
g70
NtRp1966
(dp1967
g73
(dp1968
sg82
g1044
sg75
(lp1969
g68
(g89
g70
NtRp1970
(dp1971
g73
(dp1972
g93
g94
ssg82
g1966
sg75
(lp1973
S'wsgi_url_scheme'
p1974
asbag68
(g89
g70
NtRp1975
(dp1976
g73
(dp1977
g100
g101
ssg82
g1966
sg75
(lp1978
S':'
asbag68
(g89
g70
NtRp1979
(dp1980
g73
(dp1981
sg82
g1966
sg75
(lp1982
g68
(g69
g70
NtRp1983
(dp1984
g73
(dp1985
g81
I4
ssg82
g1979
sg75
(lp1986
S'http'
p1987
asbasbasbag68
(g84
g70
NtRp1988
(dp1989
g73
(dp1990
sg82
g1044
sg75
(lp1991
g68
(g89
g70
NtRp1992
(dp1993
g73
(dp1994
g93
g94
ssg82
g1988
sg75
(lp1995
S'wsgi_version'
p1996
asbag68
(g89
g70
NtRp1997
(dp1998
g73
(dp1999
g100
g101
ssg82
g1988
sg75
(lp2000
S':'
asbag68
(g89
g70
NtRp2001
(dp2002
g73
(dp2003
sg82
g1988
sg75
(lp2004
g68
(g69
g70
NtRp2005
(dp2006
g73
(dp2007
g81
I4
ssg82
g2001
sg75
(lp2008
g68
(g77
g70
NtRp2009
(dp2010
g73
(dp2011
g81
I3
ssg82
Nsg75
(lp2012
g68
(g84
g70
NtRp2013
(dp2014
g73
(dp2015
sg82
g2009
sg75
(lp2016
g68
(g89
g70
NtRp2017
(dp2018
g73
(dp2019
sg82
g2013
sg75
(lp2020
g68
(g69
g70
NtRp2021
(dp2022
g73
(dp2023
g81
I3
ssg82
g2017
sg75
(lp2024
S'1'
asbasbasbag68
(g84
g70
NtRp2025
(dp2026
g73
(dp2027
sg82
g2009
sg75
(lp2028
g68
(g89
g70
NtRp2029
(dp2030
g73
(dp2031
sg82
g2025
sg75
(lp2032
g68
(g69
g70
NtRp2033
(dp2034
g73
(dp2035
g81
I3
ssg82
g2029
sg75
(lp2036
S'0'
asbasbasbasbasbasbasbasbasbasbasbag68
(g84
g70
NtRp2037
(dp2038
g73
(dp2039
sg82
g78
sg75
(lp2040
g68
(g89
g70
NtRp2041
(dp2042
g73
(dp2043
g93
g94
ssg82
g2037
sg75
(lp2044
S'extension'
p2045
asbag68
(g89
g70
NtRp2046
(dp2047
g73
(dp2048
g100
g101
ssg82
g2037
sg75
(lp2049
S':'
asbag68
(g89
g70
NtRp2050
(dp2051
g73
(dp2052
sg82
g2037
sg75
(lp2053
g68
(g69
g70
NtRp2054
(dp2055
g73
(dp2056
g81
I5
ssg82
g2050
sg75
(lp2057
S'html'
p2058
asbasbasbag68
(g84
g70
NtRp2059
(dp2060
g73
(dp2061
sg82
g78
sg75
(lp2062
g68
(g89
g70
NtRp2063
(dp2064
g73
(dp2065
g93
g94
ssg82
g2059
sg75
(lp2066
S'folder'
p2067
asbag68
(g89
g70
NtRp2068
(dp2069
g73
(dp2070
g100
g101
ssg82
g2059
sg75
(lp2071
S':'
asbag68
(g89
g70
NtRp2072
(dp2073
g73
(dp2074
sg82
g2059
sg75
(lp2075
g68
(g69
g70
NtRp2076
(dp2077
g73
(dp2078
g81
I5
ssg82
g2072
sg75
(lp2079
S'/home/gaurav/classwork/WEB_PROGRAMMING/web2py/applications/SONGS/'
p2080
asbasbasbag68
(g84
g70
NtRp2081
(dp2082
g73
(dp2083
sg82
g78
sg75
(lp2084
g68
(g89
g70
NtRp2085
(dp2086
g73
(dp2087
g93
g94
ssg82
g2081
sg75
(lp2088
S'function'
p2089
asbag68
(g89
g70
NtRp2090
(dp2091
g73
(dp2092
g100
g101
ssg82
g2081
sg75
(lp2093
S':'
asbag68
(g89
g70
NtRp2094
(dp2095
g73
(dp2096
sg82
g2081
sg75
(lp2097
g68
(g69
g70
NtRp2098
(dp2099
g73
(dp2100
g81
I5
ssg82
g2094
sg75
(lp2101
S'update_len'
p2102
asbasbasbag68
(g84
g70
NtRp2103
(dp2104
g73
(dp2105
sg82
g78
sg75
(lp2106
g68
(g89
g70
NtRp2107
(dp2108
g73
(dp2109
g93
g94
ssg82
g2103
sg75
(lp2110
S'get_vars'
p2111
asbag68
(g89
g70
NtRp2112
(dp2113
g73
(dp2114
g100
g101
ssg82
g2103
sg75
(lp2115
S':'
asbag68
(g89
g70
NtRp2116
(dp2117
g73
(dp2118
sg82
g2103
sg75
(lp2119
g68
(g69
g70
NtRp2120
(dp2121
g73
(dp2122
g81
I5
ssg82
g2116
sg75
(lp2123
g68
(g77
g70
NtRp2124
(dp2125
g73
(dp2126
g81
I4
ssg82
Nsg75
(lp2127
sbasbasbasbag68
(g84
g70
NtRp2128
(dp2129
g73
(dp2130
sg82
g78
sg75
(lp2131
g68
(g89
g70
NtRp2132
(dp2133
g73
(dp2134
g93
g94
ssg82
g2128
sg75
(lp2135
S'global_settings'
p2136
asbag68
(g89
g70
NtRp2137
(dp2138
g73
(dp2139
g100
g101
ssg82
g2128
sg75
(lp2140
S':'
asbag68
(g89
g70
NtRp2141
(dp2142
g73
(dp2143
sg82
g2128
sg75
(lp2144
g68
(g69
g70
NtRp2145
(dp2146
g73
(dp2147
g81
I5
ssg82
g2141
sg75
(lp2148
g68
(g77
g70
NtRp2149
(dp2150
g73
(dp2151
g81
I4
ssg82
Nsg75
(lp2152
g68
(g84
g70
NtRp2153
(dp2154
g73
(dp2155
sg82
g2149
sg75
(lp2156
g68
(g89
g70
NtRp2157
(dp2158
g73
(dp2159
g93
g94
ssg82
g2153
sg75
(lp2160
g1056
asbag68
(g89
g70
NtRp2161
(dp2162
g73
(dp2163
g100
g101
ssg82
g2153
sg75
(lp2164
S':'
asbag68
(g89
g70
NtRp2165
(dp2166
g73
(dp2167
sg82
g2153
sg75
(lp2168
g68
(g69
g70
NtRp2169
(dp2170
g73
(dp2171
g81
I4
ssg82
g2165
sg75
(lp2172
S"set(['/home/gaurav/classwork/WEB_PROGRAMMING/web2py/applications/admin/', '/home/gaurav/classwork/WEB_PROGRAMMING/web2py/applications/welcome/', '/home/gaurav/classwork/WEB_PROGRAMMING/web2py/applications/gaurav/', '/home/gaurav/classwork/WEB_PROGRAMMING/web2py/applications/SONGS/'])"
p2173
asbasbasbag68
(g84
g70
NtRp2174
(dp2175
g73
(dp2176
sg82
g2149
sg75
(lp2177
g68
(g89
g70
NtRp2178
(dp2179
g73
(dp2180
g93
g94
ssg82
g2174
sg75
(lp2181
g1078
asbag68
(g89
g70
NtRp2182
(dp2183
g73
(dp2184
g100
g101
ssg82
g2174
sg75
(lp2185
S':'
asbag68
(g89
g70
NtRp2186
(dp2187
g73
(dp2188
sg82
g2174
sg75
(lp2189
g68
(g69
g70
NtRp2190
(dp2191
g73
(dp2192
g81
I4
ssg82
g2186
sg75
(lp2193
g1091
asbasbasbag68
(g84
g70
NtRp2194
(dp2195
g73
(dp2196
sg82
g2149
sg75
(lp2197
g68
(g89
g70
NtRp2198
(dp2199
g73
(dp2200
g93
g94
ssg82
g2194
sg75
(lp2201
g1100
asbag68
(g89
g70
NtRp2202
(dp2203
g73
(dp2204
g100
g101
ssg82
g2194
sg75
(lp2205
S':'
asbag68
(g89
g70
NtRp2206
(dp2207
g73
(dp2208
sg82
g2194
sg75
(lp2209
g68
(g69
g70
NtRp2210
(dp2211
g73
(dp2212
g81
I4
ssg82
g2206
sg75
(lp2213
g68
(g77
g70
NtRp2214
(dp2215
g73
(dp2216
g81
I3
ssg82
Nsg75
(lp2217
sbasbasbasbag68
(g84
g70
NtRp2218
(dp2219
g73
(dp2220
sg82
g2149
sg75
(lp2221
g68
(g89
g70
NtRp2222
(dp2223
g73
(dp2224
g93
g94
ssg82
g2218
sg75
(lp2225
g1125
asbag68
(g89
g70
NtRp2226
(dp2227
g73
(dp2228
g100
g101
ssg82
g2218
sg75
(lp2229
S':'
asbag68
(g89
g70
NtRp2230
(dp2231
g73
(dp2232
sg82
g2218
sg75
(lp2233
g68
(g69
g70
NtRp2234
(dp2235
g73
(dp2236
g81
I4
ssg82
g2230
sg75
(lp2237
S"<Values at 0x99c26ec: {'verbose': False, 'ip': '127.0.0.1', 'with_scheduler': False, 'ips': [], 'shutdown_timeout': 5, 'taskbar': False, 'port': 8000, 'maxthreads': None, 'softcron': False, 'server_name': 'gaurav-Compaq-Presario-C700-Notebook-PC', 'bpython': False, 'nogui': False, 'pid_filename': 'httpserver.pid', 'extcron': False, 'runcron': False, 'run_system_tests': False, 'test': None, 'folder': '/home/gaurav/classwork/WEB_PROGRAMMING/web2py', 'config': '', 'import_models': False, 'winservice': '', 'shell': None, 'run': '', 'log_filename': 'httpserver.log', 'debuglevel': 30, 'args': [''], 'socket_timeout': 5, 'ssl_ca_certificate': None, 'scheduler': None, 'profiler_filename': None, 'ssl_private_key': '', 'scheduler_groups': None, 'password': '<ask>', 'request_queue_size': 5, 'ssl_certificate': '', 'cronjob': False, 'numthreads': None, 'quiet': False, 'interfaces': None, 'minthreads': None, 'timeout': 10, 'plain': False, 'nobanner': False}>"
p2238
asbasbasbag68
(g84
g70
NtRp2239
(dp2240
g73
(dp2241
sg82
g2149
sg75
(lp2242
g68
(g89
g70
NtRp2243
(dp2244
g73
(dp2245
g93
g94
ssg82
g2239
sg75
(lp2246
g1147
asbag68
(g89
g70
NtRp2247
(dp2248
g73
(dp2249
g100
g101
ssg82
g2239
sg75
(lp2250
S':'
asbag68
(g89
g70
NtRp2251
(dp2252
g73
(dp2253
sg82
g2239
sg75
(lp2254
g68
(g69
g70
NtRp2255
(dp2256
g73
(dp2257
g81
I4
ssg82
g2251
sg75
(lp2258
S'set([])'
p2259
asbasbasbag68
(g84
g70
NtRp2260
(dp2261
g73
(dp2262
sg82
g2149
sg75
(lp2263
g68
(g89
g70
NtRp2264
(dp2265
g73
(dp2266
g93
g94
ssg82
g2260
sg75
(lp2267
g1169
asbag68
(g89
g70
NtRp2268
(dp2269
g73
(dp2270
g100
g101
ssg82
g2260
sg75
(lp2271
S':'
asbag68
(g89
g70
NtRp2272
(dp2273
g73
(dp2274
sg82
g2260
sg75
(lp2275
g68
(g69
g70
NtRp2276
(dp2277
g73
(dp2278
g81
I4
ssg82
g2272
sg75
(lp2279
g111
asbasbasbag68
(g84
g70
NtRp2280
(dp2281
g73
(dp2282
sg82
g2149
sg75
(lp2283
g68
(g89
g70
NtRp2284
(dp2285
g73
(dp2286
g93
g94
ssg82
g2280
sg75
(lp2287
g1190
asbag68
(g89
g70
NtRp2288
(dp2289
g73
(dp2290
g100
g101
ssg82
g2280
sg75
(lp2291
S':'
asbag68
(g89
g70
NtRp2292
(dp2293
g73
(dp2294
sg82
g2280
sg75
(lp2295
g68
(g69
g70
NtRp2296
(dp2297
g73
(dp2298
g81
I4
ssg82
g2292
sg75
(lp2299
g1203
asbasbasbag68
(g84
g70
NtRp2300
(dp2301
g73
(dp2302
sg82
g2149
sg75
(lp2303
g68
(g89
g70
NtRp2304
(dp2305
g73
(dp2306
g93
g94
ssg82
g2300
sg75
(lp2307
g1366
asbag68
(g89
g70
NtRp2308
(dp2309
g73
(dp2310
g100
g101
ssg82
g2300
sg75
(lp2311
S':'
asbag68
(g89
g70
NtRp2312
(dp2313
g73
(dp2314
sg82
g2300
sg75
(lp2315
g68
(g69
g70
NtRp2316
(dp2317
g73
(dp2318
g81
I4
ssg82
g2312
sg75
(lp2319
g111
asbasbasbag68
(g84
g70
NtRp2320
(dp2321
g73
(dp2322
sg82
g2149
sg75
(lp2323
g68
(g89
g70
NtRp2324
(dp2325
g73
(dp2326
g93
g94
ssg82
g2320
sg75
(lp2327
g1387
asbag68
(g89
g70
NtRp2328
(dp2329
g73
(dp2330
g100
g101
ssg82
g2320
sg75
(lp2331
S':'
asbag68
(g89
g70
NtRp2332
(dp2333
g73
(dp2334
sg82
g2320
sg75
(lp2335
g68
(g69
g70
NtRp2336
(dp2337
g73
(dp2338
g81
I4
ssg82
g2332
sg75
(lp2339
g111
asbasbasbag68
(g84
g70
NtRp2340
(dp2341
g73
(dp2342
sg82
g2149
sg75
(lp2343
g68
(g89
g70
NtRp2344
(dp2345
g73
(dp2346
g93
g94
ssg82
g2340
sg75
(lp2347
g1408
asbag68
(g89
g70
NtRp2348
(dp2349
g73
(dp2350
g100
g101
ssg82
g2340
sg75
(lp2351
S':'
asbag68
(g89
g70
NtRp2352
(dp2353
g73
(dp2354
sg82
g2340
sg75
(lp2355
g68
(g69
g70
NtRp2356
(dp2357
g73
(dp2358
g81
I4
ssg82
g2352
sg75
(lp2359
g68
(g77
g70
NtRp2360
(dp2361
g73
(dp2362
g81
I3
ssg82
Nsg75
(lp2363
g68
(g84
g70
NtRp2364
(dp2365
g73
(dp2366
sg82
g2360
sg75
(lp2367
g68
(g89
g70
NtRp2368
(dp2369
g73
(dp2370
sg82
g2364
sg75
(lp2371
g68
(g69
g70
NtRp2372
(dp2373
g73
(dp2374
g81
I3
ssg82
g2368
sg75
(lp2375
g1437
asbasbasbag68
(g84
g70
NtRp2376
(dp2377
g73
(dp2378
sg82
g2360
sg75
(lp2379
g68
(g89
g70
NtRp2380
(dp2381
g73
(dp2382
sg82
g2376
sg75
(lp2383
g68
(g69
g70
NtRp2384
(dp2385
g73
(dp2386
g81
I3
ssg82
g2380
sg75
(lp2387
g1450
asbasbasbag68
(g84
g70
NtRp2388
(dp2389
g73
(dp2390
sg82
g2360
sg75
(lp2391
g68
(g89
g70
NtRp2392
(dp2393
g73
(dp2394
sg82
g2388
sg75
(lp2395
g68
(g69
g70
NtRp2396
(dp2397
g73
(dp2398
g81
I3
ssg82
g2392
sg75
(lp2399
g1463
asbasbasbag68
(g84
g70
NtRp2400
(dp2401
g73
(dp2402
sg82
g2360
sg75
(lp2403
g68
(g89
g70
NtRp2404
(dp2405
g73
(dp2406
sg82
g2400
sg75
(lp2407
g68
(g69
g70
NtRp2408
(dp2409
g73
(dp2410
g81
I3
ssg82
g2404
sg75
(lp2411
g1476
asbasbasbag68
(g84
g70
NtRp2412
(dp2413
g73
(dp2414
sg82
g2360
sg75
(lp2415
g68
(g89
g70
NtRp2416
(dp2417
g73
(dp2418
sg82
g2412
sg75
(lp2419
g68
(g69
g70
NtRp2420
(dp2421
g73
(dp2422
g81
I3
ssg82
g2416
sg75
(lp2423
g1489
asbasbasbasbasbasbasbag68
(g84
g70
NtRp2424
(dp2425
g73
(dp2426
sg82
g2149
sg75
(lp2427
g68
(g89
g70
NtRp2428
(dp2429
g73
(dp2430
g93
g94
ssg82
g2424
sg75
(lp2431
g1757
asbag68
(g89
g70
NtRp2432
(dp2433
g73
(dp2434
g100
g101
ssg82
g2424
sg75
(lp2435
S':'
asbag68
(g89
g70
NtRp2436
(dp2437
g73
(dp2438
sg82
g2424
sg75
(lp2439
g68
(g69
g70
NtRp2440
(dp2441
g73
(dp2442
g81
I4
ssg82
g2436
sg75
(lp2443
g68
(g77
g70
NtRp2444
(dp2445
g73
(dp2446
g81
I3
ssg82
Nsg75
(lp2447
g68
(g84
g70
NtRp2448
(dp2449
g73
(dp2450
sg82
g2444
sg75
(lp2451
g68
(g89
g70
NtRp2452
(dp2453
g73
(dp2454
sg82
g2448
sg75
(lp2455
g68
(g69
g70
NtRp2456
(dp2457
g73
(dp2458
g81
I3
ssg82
g2452
sg75
(lp2459
S'2'
asbasbasbag68
(g84
g70
NtRp2460
(dp2461
g73
(dp2462
sg82
g2444
sg75
(lp2463
g68
(g89
g70
NtRp2464
(dp2465
g73
(dp2466
sg82
g2460
sg75
(lp2467
g68
(g69
g70
NtRp2468
(dp2469
g73
(dp2470
g81
I3
ssg82
g2464
sg75
(lp2471
S'3'
asbasbasbag68
(g84
g70
NtRp2472
(dp2473
g73
(dp2474
sg82
g2444
sg75
(lp2475
g68
(g89
g70
NtRp2476
(dp2477
g73
(dp2478
sg82
g2472
sg75
(lp2479
g68
(g69
g70
NtRp2480
(dp2481
g73
(dp2482
g81
I3
ssg82
g2476
sg75
(lp2483
S'2'
asbasbasbag68
(g84
g70
NtRp2484
(dp2485
g73
(dp2486
sg82
g2444
sg75
(lp2487
g68
(g89
g70
NtRp2488
(dp2489
g73
(dp2490
sg82
g2484
sg75
(lp2491
g68
(g69
g70
NtRp2492
(dp2493
g73
(dp2494
g81
I3
ssg82
g2488
sg75
(lp2495
S'datetime.datetime(2012, 12, 17, 15, 3, 30)'
p2496
asbasbasbag68
(g84
g70
NtRp2497
(dp2498
g73
(dp2499
sg82
g2444
sg75
(lp2500
g68
(g89
g70
NtRp2501
(dp2502
g73
(dp2503
sg82
g2497
sg75
(lp2504
g68
(g69
g70
NtRp2505
(dp2506
g73
(dp2507
g81
I3
ssg82
g2501
sg75
(lp2508
g1835
asbasbasbasbasbasbasbasbasbasbasbag68
(g84
g70
NtRp2509
(dp2510
g73
(dp2511
sg82
g78
sg75
(lp2512
g68
(g89
g70
NtRp2513
(dp2514
g73
(dp2515
g93
g94
ssg82
g2509
sg75
(lp2516
S'is_https'
p2517
asbag68
(g89
g70
NtRp2518
(dp2519
g73
(dp2520
g100
g101
ssg82
g2509
sg75
(lp2521
S':'
asbag68
(g89
g70
NtRp2522
(dp2523
g73
(dp2524
sg82
g2509
sg75
(lp2525
g68
(g69
g70
NtRp2526
(dp2527
g73
(dp2528
g81
I5
ssg82
g2522
sg75
(lp2529
g111
asbasbasbag68
(g84
g70
NtRp2530
(dp2531
g73
(dp2532
sg82
g78
sg75
(lp2533
g68
(g89
g70
NtRp2534
(dp2535
g73
(dp2536
g93
g94
ssg82
g2530
sg75
(lp2537
S'is_local'
p2538
asbag68
(g89
g70
NtRp2539
(dp2540
g73
(dp2541
g100
g101
ssg82
g2530
sg75
(lp2542
S':'
asbag68
(g89
g70
NtRp2543
(dp2544
g73
(dp2545
sg82
g2530
sg75
(lp2546
g68
(g69
g70
NtRp2547
(dp2548
g73
(dp2549
g81
I5
ssg82
g2543
sg75
(lp2550
g1944
asbasbasbag68
(g84
g70
NtRp2551
(dp2552
g73
(dp2553
sg82
g78
sg75
(lp2554
g68
(g89
g70
NtRp2555
(dp2556
g73
(dp2557
g93
g94
ssg82
g2551
sg75
(lp2558
S'is_restful'
p2559
asbag68
(g89
g70
NtRp2560
(dp2561
g73
(dp2562
g100
g101
ssg82
g2551
sg75
(lp2563
S':'
asbag68
(g89
g70
NtRp2564
(dp2565
g73
(dp2566
sg82
g2551
sg75
(lp2567
g68
(g69
g70
NtRp2568
(dp2569
g73
(dp2570
g81
I5
ssg82
g2564
sg75
(lp2571
g111
asbasbasbag68
(g84
g70
NtRp2572
(dp2573
g73
(dp2574
sg82
g78
sg75
(lp2575
g68
(g89
g70
NtRp2576
(dp2577
g73
(dp2578
g93
g94
ssg82
g2572
sg75
(lp2579
S'now'
p2580
asbag68
(g89
g70
NtRp2581
(dp2582
g73
(dp2583
g100
g101
ssg82
g2572
sg75
(lp2584
S':'
asbag68
(g89
g70
NtRp2585
(dp2586
g73
(dp2587
sg82
g2572
sg75
(lp2588
g68
(g69
g70
NtRp2589
(dp2590
g73
(dp2591
g81
I5
ssg82
g2585
sg75
(lp2592
S'datetime.datetime(2013, 2, 26, 16, 50, 10, 153100)'
p2593
asbasbasbag68
(g84
g70
NtRp2594
(dp2595
g73
(dp2596
sg82
g78
sg75
(lp2597
g68
(g89
g70
NtRp2598
(dp2599
g73
(dp2600
g93
g94
ssg82
g2594
sg75
(lp2601
S'post_vars'
p2602
asbag68
(g89
g70
NtRp2603
(dp2604
g73
(dp2605
g100
g101
ssg82
g2594
sg75
(lp2606
S':'
asbag68
(g89
g70
NtRp2607
(dp2608
g73
(dp2609
sg82
g2594
sg75
(lp2610
g68
(g69
g70
NtRp2611
(dp2612
g73
(dp2613
g81
I5
ssg82
g2607
sg75
(lp2614
g68
(g77
g70
NtRp2615
(dp2616
g73
(dp2617
g81
I4
ssg82
Nsg75
(lp2618
sbasbasbasbag68
(g84
g70
NtRp2619
(dp2620
g73
(dp2621
sg82
g78
sg75
(lp2622
g68
(g89
g70
NtRp2623
(dp2624
g73
(dp2625
g93
g94
ssg82
g2619
sg75
(lp2626
S'raw_args'
p2627
asbag68
(g89
g70
NtRp2628
(dp2629
g73
(dp2630
g100
g101
ssg82
g2619
sg75
(lp2631
S':'
asbag68
(g89
g70
NtRp2632
(dp2633
g73
(dp2634
sg82
g2619
sg75
(lp2635
g68
(g69
g70
NtRp2636
(dp2637
g73
(dp2638
g81
I5
ssg82
g2632
sg75
(lp2639
S''
asbasbasbag68
(g84
g70
NtRp2640
(dp2641
g73
(dp2642
sg82
g78
sg75
(lp2643
g68
(g89
g70
NtRp2644
(dp2645
g73
(dp2646
g93
g94
ssg82
g2640
sg75
(lp2647
S'raw_extension'
p2648
asbag68
(g89
g70
NtRp2649
(dp2650
g73
(dp2651
g100
g101
ssg82
g2640
sg75
(lp2652
S':'
asbag68
(g89
g70
NtRp2653
(dp2654
g73
(dp2655
sg82
g2640
sg75
(lp2656
g68
(g69
g70
NtRp2657
(dp2658
g73
(dp2659
g81
I5
ssg82
g2653
sg75
(lp2660
g2058
asbasbasbag68
(g84
g70
NtRp2661
(dp2662
g73
(dp2663
sg82
g78
sg75
(lp2664
g68
(g89
g70
NtRp2665
(dp2666
g73
(dp2667
g93
g94
ssg82
g2661
sg75
(lp2668
S'url'
p2669
asbag68
(g89
g70
NtRp2670
(dp2671
g73
(dp2672
g100
g101
ssg82
g2661
sg75
(lp2673
S':'
asbag68
(g89
g70
NtRp2674
(dp2675
g73
(dp2676
sg82
g2661
sg75
(lp2677
g68
(g69
g70
NtRp2678
(dp2679
g73
(dp2680
g81
I5
ssg82
g2674
sg75
(lp2681
g1511
asbasbasbag68
(g84
g70
NtRp2682
(dp2683
g73
(dp2684
sg82
g78
sg75
(lp2685
g68
(g89
g70
NtRp2686
(dp2687
g73
(dp2688
g93
g94
ssg82
g2682
sg75
(lp2689
S'utcnow'
p2690
asbag68
(g89
g70
NtRp2691
(dp2692
g73
(dp2693
g100
g101
ssg82
g2682
sg75
(lp2694
S':'
asbag68
(g89
g70
NtRp2695
(dp2696
g73
(dp2697
sg82
g2682
sg75
(lp2698
g68
(g69
g70
NtRp2699
(dp2700
g73
(dp2701
g81
I5
ssg82
g2695
sg75
(lp2702
S'datetime.datetime(2013, 2, 26, 11, 20, 10, 153162)'
p2703
asbasbasbag68
(g84
g70
NtRp2704
(dp2705
g73
(dp2706
sg82
g78
sg75
(lp2707
g68
(g89
g70
NtRp2708
(dp2709
g73
(dp2710
g93
g94
ssg82
g2704
sg75
(lp2711
S'uuid'
p2712
asbag68
(g89
g70
NtRp2713
(dp2714
g73
(dp2715
g100
g101
ssg82
g2704
sg75
(lp2716
S':'
asbag68
(g89
g70
NtRp2717
(dp2718
g73
(dp2719
sg82
g2704
sg75
(lp2720
g68
(g69
g70
NtRp2721
(dp2722
g73
(dp2723
g81
I5
ssg82
g2717
sg75
(lp2724
S'SONGS/127.0.0.1.2013-02-26.16-50-10.ee18fdb5-9a36-49c7-927a-acf4bf50adb5'
p2725
asbasbasbag68
(g84
g70
NtRp2726
(dp2727
g73
(dp2728
sg82
g78
sg75
(lp2729
g68
(g89
g70
NtRp2730
(dp2731
g73
(dp2732
g93
g94
ssg82
g2726
sg75
(lp2733
S'vars'
p2734
asbag68
(g89
g70
NtRp2735
(dp2736
g73
(dp2737
g100
g101
ssg82
g2726
sg75
(lp2738
S':'
asbag68
(g89
g70
NtRp2739
(dp2740
g73
(dp2741
sg82
g2726
sg75
(lp2742
g68
(g69
g70
NtRp2743
(dp2744
g73
(dp2745
g81
I5
ssg82
g2739
sg75
(lp2746
g68
(g77
g70
NtRp2747
(dp2748
g73
(dp2749
g81
I4
ssg82
Nsg75
(lp2750
sbasbasbasbag68
(g84
g70
NtRp2751
(dp2752
g73
(dp2753
sg82
g78
sg75
(lp2754
g68
(g89
g70
NtRp2755
(dp2756
g73
(dp2757
g93
g94
ssg82
g2751
sg75
(lp2758
S'wsgi'
p2759
asbag68
(g89
g70
NtRp2760
(dp2761
g73
(dp2762
g100
g101
ssg82
g2751
sg75
(lp2763
S':'
asbag68
(g89
g70
NtRp2764
(dp2765
g73
(dp2766
sg82
g2751
sg75
(lp2767
g68
(g69
g70
NtRp2768
(dp2769
g73
(dp2770
g81
I5
ssg82
g2764
sg75
(lp2771
g68
(g77
g70
NtRp2772
(dp2773
g73
(dp2774
g81
I4
ssg82
Nsg75
(lp2775
g68
(g84
g70
NtRp2776
(dp2777
g73
(dp2778
sg82
g2772
sg75
(lp2779
g68
(g89
g70
NtRp2780
(dp2781
g73
(dp2782
g93
g94
ssg82
g2776
sg75
(lp2783
S'environ'
p2784
asbag68
(g89
g70
NtRp2785
(dp2786
g73
(dp2787
g100
g101
ssg82
g2776
sg75
(lp2788
S':'
asbag68
(g89
g70
NtRp2789
(dp2790
g73
(dp2791
sg82
g2776
sg75
(lp2792
g68
(g69
g70
NtRp2793
(dp2794
g73
(dp2795
g81
I4
ssg82
g2789
sg75
(lp2796
g68
(g77
g70
NtRp2797
(dp2798
g73
(dp2799
g81
I3
ssg82
Nsg75
(lp2800
g68
(g84
g70
NtRp2801
(dp2802
g73
(dp2803
sg82
g2797
sg75
(lp2804
g68
(g89
g70
NtRp2805
(dp2806
g73
(dp2807
g93
g94
ssg82
g2801
sg75
(lp2808
S'HTTP_ACCEPT'
p2809
asbag68
(g89
g70
NtRp2810
(dp2811
g73
(dp2812
g100
g101
ssg82
g2801
sg75
(lp2813
S':'
asbag68
(g89
g70
NtRp2814
(dp2815
g73
(dp2816
sg82
g2801
sg75
(lp2817
g68
(g69
g70
NtRp2818
(dp2819
g73
(dp2820
g81
I3
ssg82
g2814
sg75
(lp2821
g1225
asbasbasbag68
(g84
g70
NtRp2822
(dp2823
g73
(dp2824
sg82
g2797
sg75
(lp2825
g68
(g89
g70
NtRp2826
(dp2827
g73
(dp2828
g93
g94
ssg82
g2822
sg75
(lp2829
S'HTTP_ACCEPT_ENCODING'
p2830
asbag68
(g89
g70
NtRp2831
(dp2832
g73
(dp2833
g100
g101
ssg82
g2822
sg75
(lp2834
S':'
asbag68
(g89
g70
NtRp2835
(dp2836
g73
(dp2837
sg82
g2822
sg75
(lp2838
g68
(g69
g70
NtRp2839
(dp2840
g73
(dp2841
g81
I3
ssg82
g2835
sg75
(lp2842
g1247
asbasbasbag68
(g84
g70
NtRp2843
(dp2844
g73
(dp2845
sg82
g2797
sg75
(lp2846
g68
(g89
g70
NtRp2847
(dp2848
g73
(dp2849
g93
g94
ssg82
g2843
sg75
(lp2850
S'HTTP_ACCEPT_LANGUAGE'
p2851
asbag68
(g89
g70
NtRp2852
(dp2853
g73
(dp2854
g100
g101
ssg82
g2843
sg75
(lp2855
S':'
asbag68
(g89
g70
NtRp2856
(dp2857
g73
(dp2858
sg82
g2843
sg75
(lp2859
g68
(g69
g70
NtRp2860
(dp2861
g73
(dp2862
g81
I3
ssg82
g2856
sg75
(lp2863
g1269
asbasbasbag68
(g84
g70
NtRp2864
(dp2865
g73
(dp2866
sg82
g2797
sg75
(lp2867
g68
(g89
g70
NtRp2868
(dp2869
g73
(dp2870
g93
g94
ssg82
g2864
sg75
(lp2871
S'HTTP_CONNECTION'
p2872
asbag68
(g89
g70
NtRp2873
(dp2874
g73
(dp2875
g100
g101
ssg82
g2864
sg75
(lp2876
S':'
asbag68
(g89
g70
NtRp2877
(dp2878
g73
(dp2879
sg82
g2864
sg75
(lp2880
g68
(g69
g70
NtRp2881
(dp2882
g73
(dp2883
g81
I3
ssg82
g2877
sg75
(lp2884
g1291
asbasbasbag68
(g84
g70
NtRp2885
(dp2886
g73
(dp2887
sg82
g2797
sg75
(lp2888
g68
(g89
g70
NtRp2889
(dp2890
g73
(dp2891
g93
g94
ssg82
g2885
sg75
(lp2892
S'HTTP_COOKIE'
p2893
asbag68
(g89
g70
NtRp2894
(dp2895
g73
(dp2896
g100
g101
ssg82
g2885
sg75
(lp2897
S':'
asbag68
(g89
g70
NtRp2898
(dp2899
g73
(dp2900
sg82
g2885
sg75
(lp2901
g68
(g69
g70
NtRp2902
(dp2903
g73
(dp2904
g81
I3
ssg82
g2898
sg75
(lp2905
g1313
asbasbasbag68
(g84
g70
NtRp2906
(dp2907
g73
(dp2908
sg82
g2797
sg75
(lp2909
g68
(g89
g70
NtRp2910
(dp2911
g73
(dp2912
g93
g94
ssg82
g2906
sg75
(lp2913
S'HTTP_HOST'
p2914
asbag68
(g89
g70
NtRp2915
(dp2916
g73
(dp2917
g100
g101
ssg82
g2906
sg75
(lp2918
S':'
asbag68
(g89
g70
NtRp2919
(dp2920
g73
(dp2921
sg82
g2906
sg75
(lp2922
g68
(g69
g70
NtRp2923
(dp2924
g73
(dp2925
g81
I3
ssg82
g2919
sg75
(lp2926
g1335
asbasbasbag68
(g84
g70
NtRp2927
(dp2928
g73
(dp2929
sg82
g2797
sg75
(lp2930
g68
(g89
g70
NtRp2931
(dp2932
g73
(dp2933
g93
g94
ssg82
g2927
sg75
(lp2934
S'HTTP_USER_AGENT'
p2935
asbag68
(g89
g70
NtRp2936
(dp2937
g73
(dp2938
g100
g101
ssg82
g2927
sg75
(lp2939
S':'
asbag68
(g89
g70
NtRp2940
(dp2941
g73
(dp2942
sg82
g2927
sg75
(lp2943
g68
(g69
g70
NtRp2944
(dp2945
g73
(dp2946
g81
I3
ssg82
g2940
sg75
(lp2947
g1357
asbasbasbag68
(g84
g70
NtRp2948
(dp2949
g73
(dp2950
sg82
g2797
sg75
(lp2951
g68
(g89
g70
NtRp2952
(dp2953
g73
(dp2954
g93
g94
ssg82
g2948
sg75
(lp2955
S'PATH_INFO'
p2956
asbag68
(g89
g70
NtRp2957
(dp2958
g73
(dp2959
g100
g101
ssg82
g2948
sg75
(lp2960
S':'
asbag68
(g89
g70
NtRp2961
(dp2962
g73
(dp2963
sg82
g2948
sg75
(lp2964
g68
(g69
g70
NtRp2965
(dp2966
g73
(dp2967
g81
I3
ssg82
g2961
sg75
(lp2968
g1511
asbasbasbag68
(g84
g70
NtRp2969
(dp2970
g73
(dp2971
sg82
g2797
sg75
(lp2972
g68
(g89
g70
NtRp2973
(dp2974
g73
(dp2975
g93
g94
ssg82
g2969
sg75
(lp2976
S'QUERY_STRING'
p2977
asbag68
(g89
g70
NtRp2978
(dp2979
g73
(dp2980
g100
g101
ssg82
g2969
sg75
(lp2981
S':'
asbag68
(g89
g70
NtRp2982
(dp2983
g73
(dp2984
sg82
g2969
sg75
(lp2985
g68
(g69
g70
NtRp2986
(dp2987
g73
(dp2988
g81
I3
ssg82
g2982
sg75
(lp2989
S''
asbasbasbag68
(g84
g70
NtRp2990
(dp2991
g73
(dp2992
sg82
g2797
sg75
(lp2993
g68
(g89
g70
NtRp2994
(dp2995
g73
(dp2996
g93
g94
ssg82
g2990
sg75
(lp2997
S'REMOTE_ADDR'
p2998
asbag68
(g89
g70
NtRp2999
(dp3000
g73
(dp3001
g100
g101
ssg82
g2990
sg75
(lp3002
S':'
asbag68
(g89
g70
NtRp3003
(dp3004
g73
(dp3005
sg82
g2990
sg75
(lp3006
g68
(g69
g70
NtRp3007
(dp3008
g73
(dp3009
g81
I3
ssg82
g3003
sg75
(lp3010
g223
asbasbasbag68
(g84
g70
NtRp3011
(dp3012
g73
(dp3013
sg82
g2797
sg75
(lp3014
g68
(g89
g70
NtRp3015
(dp3016
g73
(dp3017
g93
g94
ssg82
g3011
sg75
(lp3018
S'REMOTE_PORT'
p3019
asbag68
(g89
g70
NtRp3020
(dp3021
g73
(dp3022
g100
g101
ssg82
g3011
sg75
(lp3023
S':'
asbag68
(g89
g70
NtRp3024
(dp3025
g73
(dp3026
sg82
g3011
sg75
(lp3027
g68
(g69
g70
NtRp3028
(dp3029
g73
(dp3030
g81
I3
ssg82
g3024
sg75
(lp3031
g1575
asbasbasbag68
(g84
g70
NtRp3032
(dp3033
g73
(dp3034
sg82
g2797
sg75
(lp3035
g68
(g89
g70
NtRp3036
(dp3037
g73
(dp3038
g93
g94
ssg82
g3032
sg75
(lp3039
S'REQUEST_METHOD'
p3040
asbag68
(g89
g70
NtRp3041
(dp3042
g73
(dp3043
g100
g101
ssg82
g3032
sg75
(lp3044
S':'
asbag68
(g89
g70
NtRp3045
(dp3046
g73
(dp3047
sg82
g3032
sg75
(lp3048
g68
(g69
g70
NtRp3049
(dp3050
g73
(dp3051
g81
I3
ssg82
g3045
sg75
(lp3052
g1597
asbasbasbag68
(g84
g70
NtRp3053
(dp3054
g73
(dp3055
sg82
g2797
sg75
(lp3056
g68
(g89
g70
NtRp3057
(dp3058
g73
(dp3059
g93
g94
ssg82
g3053
sg75
(lp3060
S'REQUEST_URI'
p3061
asbag68
(g89
g70
NtRp3062
(dp3063
g73
(dp3064
g100
g101
ssg82
g3053
sg75
(lp3065
S':'
asbag68
(g89
g70
NtRp3066
(dp3067
g73
(dp3068
sg82
g3053
sg75
(lp3069
g68
(g69
g70
NtRp3070
(dp3071
g73
(dp3072
g81
I3
ssg82
g3066
sg75
(lp3073
g1511
asbasbasbag68
(g84
g70
NtRp3074
(dp3075
g73
(dp3076
sg82
g2797
sg75
(lp3077
g68
(g89
g70
NtRp3078
(dp3079
g73
(dp3080
g93
g94
ssg82
g3074
sg75
(lp3081
S'SCRIPT_NAME'
p3082
asbag68
(g89
g70
NtRp3083
(dp3084
g73
(dp3085
g100
g101
ssg82
g3074
sg75
(lp3086
S':'
asbag68
(g89
g70
NtRp3087
(dp3088
g73
(dp3089
sg82
g3074
sg75
(lp3090
g68
(g69
g70
NtRp3091
(dp3092
g73
(dp3093
g81
I3
ssg82
g3087
sg75
(lp3094
S''
asbasbasbag68
(g84
g70
NtRp3095
(dp3096
g73
(dp3097
sg82
g2797
sg75
(lp3098
g68
(g89
g70
NtRp3099
(dp3100
g73
(dp3101
g93
g94
ssg82
g3095
sg75
(lp3102
S'SERVER_NAME'
p3103
asbag68
(g89
g70
NtRp3104
(dp3105
g73
(dp3106
g100
g101
ssg82
g3095
sg75
(lp3107
S':'
asbag68
(g89
g70
NtRp3108
(dp3109
g73
(dp3110
sg82
g3095
sg75
(lp3111
g68
(g69
g70
NtRp3112
(dp3113
g73
(dp3114
g81
I3
ssg82
g3108
sg75
(lp3115
g1661
asbasbasbag68
(g84
g70
NtRp3116
(dp3117
g73
(dp3118
sg82
g2797
sg75
(lp3119
g68
(g89
g70
NtRp3120
(dp3121
g73
(dp3122
g93
g94
ssg82
g3116
sg75
(lp3123
S'SERVER_PORT'
p3124
asbag68
(g89
g70
NtRp3125
(dp3126
g73
(dp3127
g100
g101
ssg82
g3116
sg75
(lp3128
S':'
asbag68
(g89
g70
NtRp3129
(dp3130
g73
(dp3131
sg82
g3116
sg75
(lp3132
g68
(g69
g70
NtRp3133
(dp3134
g73
(dp3135
g81
I3
ssg82
g3129
sg75
(lp3136
g1683
asbasbasbag68
(g84
g70
NtRp3137
(dp3138
g73
(dp3139
sg82
g2797
sg75
(lp3140
g68
(g89
g70
NtRp3141
(dp3142
g73
(dp3143
g93
g94
ssg82
g3137
sg75
(lp3144
S'SERVER_PROTOCOL'
p3145
asbag68
(g89
g70
NtRp3146
(dp3147
g73
(dp3148
g100
g101
ssg82
g3137
sg75
(lp3149
S':'
asbag68
(g89
g70
NtRp3150
(dp3151
g73
(dp3152
sg82
g3137
sg75
(lp3153
g68
(g69
g70
NtRp3154
(dp3155
g73
(dp3156
g81
I3
ssg82
g3150
sg75
(lp3157
g1705
asbasbasbag68
(g84
g70
NtRp3158
(dp3159
g73
(dp3160
sg82
g2797
sg75
(lp3161
g68
(g89
g70
NtRp3162
(dp3163
g73
(dp3164
g93
g94
ssg82
g3158
sg75
(lp3165
S'SERVER_SOFTWARE'
p3166
asbag68
(g89
g70
NtRp3167
(dp3168
g73
(dp3169
g100
g101
ssg82
g3158
sg75
(lp3170
S':'
asbag68
(g89
g70
NtRp3171
(dp3172
g73
(dp3173
sg82
g3158
sg75
(lp3174
g68
(g69
g70
NtRp3175
(dp3176
g73
(dp3177
g81
I3
ssg82
g3171
sg75
(lp3178
g1727
asbasbasbag68
(g84
g70
NtRp3179
(dp3180
g73
(dp3181
sg82
g2797
sg75
(lp3182
g68
(g89
g70
NtRp3183
(dp3184
g73
(dp3185
g93
g94
ssg82
g3179
sg75
(lp3186
S'wsgi.errors'
p3187
asbag68
(g89
g70
NtRp3188
(dp3189
g73
(dp3190
g100
g101
ssg82
g3179
sg75
(lp3191
S':'
asbag68
(g89
g70
NtRp3192
(dp3193
g73
(dp3194
sg82
g3179
sg75
(lp3195
g68
(g69
g70
NtRp3196
(dp3197
g73
(dp3198
g81
I3
ssg82
g3192
sg75
(lp3199
S"<open file '<stderr>', mode 'w' at 0xb74db0d0>"
p3200
asbasbasbag68
(g84
g70
NtRp3201
(dp3202
g73
(dp3203
sg82
g2797
sg75
(lp3204
g68
(g89
g70
NtRp3205
(dp3206
g73
(dp3207
g93
g94
ssg82
g3201
sg75
(lp3208
S'wsgi.file_wrapper'
p3209
asbag68
(g89
g70
NtRp3210
(dp3211
g73
(dp3212
g100
g101
ssg82
g3201
sg75
(lp3213
S':'
asbag68
(g89
g70
NtRp3214
(dp3215
g73
(dp3216
sg82
g3201
sg75
(lp3217
g68
(g69
g70
NtRp3218
(dp3219
g73
(dp3220
g81
I3
ssg82
g3214
sg75
(lp3221
S'<class wsgiref.util.FileWrapper at 0x9976ecc>'
p3222
asbasbasbag68
(g84
g70
NtRp3223
(dp3224
g73
(dp3225
sg82
g2797
sg75
(lp3226
g68
(g89
g70
NtRp3227
(dp3228
g73
(dp3229
g93
g94
ssg82
g3223
sg75
(lp3230
S'wsgi.input'
p3231
asbag68
(g89
g70
NtRp3232
(dp3233
g73
(dp3234
g100
g101
ssg82
g3223
sg75
(lp3235
S':'
asbag68
(g89
g70
NtRp3236
(dp3237
g73
(dp3238
sg82
g3223
sg75
(lp3239
g68
(g69
g70
NtRp3240
(dp3241
g73
(dp3242
g81
I3
ssg82
g3236
sg75
(lp3243
S'<cStringIO.StringO object at 0x9efd260>'
p3244
asbasbasbag68
(g84
g70
NtRp3245
(dp3246
g73
(dp3247
sg82
g2797
sg75
(lp3248
g68
(g89
g70
NtRp3249
(dp3250
g73
(dp3251
g93
g94
ssg82
g3245
sg75
(lp3252
S'wsgi.multiprocess'
p3253
asbag68
(g89
g70
NtRp3254
(dp3255
g73
(dp3256
g100
g101
ssg82
g3245
sg75
(lp3257
S':'
asbag68
(g89
g70
NtRp3258
(dp3259
g73
(dp3260
sg82
g3245
sg75
(lp3261
g68
(g69
g70
NtRp3262
(dp3263
g73
(dp3264
g81
I3
ssg82
g3258
sg75
(lp3265
g111
asbasbasbag68
(g84
g70
NtRp3266
(dp3267
g73
(dp3268
sg82
g2797
sg75
(lp3269
g68
(g89
g70
NtRp3270
(dp3271
g73
(dp3272
g93
g94
ssg82
g3266
sg75
(lp3273
S'wsgi.multithread'
p3274
asbag68
(g89
g70
NtRp3275
(dp3276
g73
(dp3277
g100
g101
ssg82
g3266
sg75
(lp3278
S':'
asbag68
(g89
g70
NtRp3279
(dp3280
g73
(dp3281
sg82
g3266
sg75
(lp3282
g68
(g69
g70
NtRp3283
(dp3284
g73
(dp3285
g81
I3
ssg82
g3279
sg75
(lp3286
g1944
asbasbasbag68
(g84
g70
NtRp3287
(dp3288
g73
(dp3289
sg82
g2797
sg75
(lp3290
g68
(g89
g70
NtRp3291
(dp3292
g73
(dp3293
g93
g94
ssg82
g3287
sg75
(lp3294
S'wsgi.run_once'
p3295
asbag68
(g89
g70
NtRp3296
(dp3297
g73
(dp3298
g100
g101
ssg82
g3287
sg75
(lp3299
S':'
asbag68
(g89
g70
NtRp3300
(dp3301
g73
(dp3302
sg82
g3287
sg75
(lp3303
g68
(g69
g70
NtRp3304
(dp3305
g73
(dp3306
g81
I3
ssg82
g3300
sg75
(lp3307
g111
asbasbasbag68
(g84
g70
NtRp3308
(dp3309
g73
(dp3310
sg82
g2797
sg75
(lp3311
g68
(g89
g70
NtRp3312
(dp3313
g73
(dp3314
g93
g94
ssg82
g3308
sg75
(lp3315
S'wsgi.url_scheme'
p3316
asbag68
(g89
g70
NtRp3317
(dp3318
g73
(dp3319
g100
g101
ssg82
g3308
sg75
(lp3320
S':'
asbag68
(g89
g70
NtRp3321
(dp3322
g73
(dp3323
sg82
g3308
sg75
(lp3324
g68
(g69
g70
NtRp3325
(dp3326
g73
(dp3327
g81
I3
ssg82
g3321
sg75
(lp3328
g1987
asbasbasbag68
(g84
g70
NtRp3329
(dp3330
g73
(dp3331
sg82
g2797
sg75
(lp3332
g68
(g89
g70
NtRp3333
(dp3334
g73
(dp3335
g93
g94
ssg82
g3329
sg75
(lp3336
S'wsgi.version'
p3337
asbag68
(g89
g70
NtRp3338
(dp3339
g73
(dp3340
g100
g101
ssg82
g3329
sg75
(lp3341
S':'
asbag68
(g89
g70
NtRp3342
(dp3343
g73
(dp3344
sg82
g3329
sg75
(lp3345
g68
(g69
g70
NtRp3346
(dp3347
g73
(dp3348
g81
I3
ssg82
g3342
sg75
(lp3349
S'1'
asbasbasbasbasbasbasbasbasbasbasbasbasbsS'frames'
p3350
(lp3351
(dp3352
S'file'
p3353
S'/home/gaurav/classwork/WEB_PROGRAMMING/web2py/gluon/restricted.py'
p3354
sS'dump'
p3355
(dp3356
S'code'
p3357
S"'# -*- coding: utf-8 -*-\\n# this file is released ...):\\n\\n\\nresponse._vars=response._caller(update_len)\\n'"
p3358
sS'layer'
p3359
S"'/home/gaurav/classwork/WEB_PROGRAMMING/web2py/applications/SONGS/controllers/default.py'"
p3360
sS'global compile2'
p3361
S'<function compile2>'
p3362
sS'ccode'
p3363
S'undefined'
p3364
ssS'lnum'
p3365
I211
sS'lines'
p3366
(dp3367
I206
S"    environment['__name__'] = '__restricted__'"
p3368
sI207
S'    try:'
p3369
sI208
S'        if isinstance(code, types.CodeType):'
p3370
sI209
S'            ccode = code'
p3371
sI210
S'        else:'
p3372
sI211
S'            ccode = compile2(code, layer)'
p3373
sI212
S'        exec ccode in environment'
p3374
sI213
S'    except HTTP:'
p3375
sI214
S'        raise'
p3376
sI215
S'    except RestrictedError:'
p3377
ssS'call'
p3378
S"(code='# -*- coding: utf-8 -*-\\n# this file is released ...):\\n\\n\\nresponse._vars=response._caller(update_len)\\n', environment={'A': <class 'gluon.html.A'>, 'Auth': <class 'gluon.tools.Auth'>, 'B': <class 'gluon.html.B'>, 'BEAUTIFY': <class 'gluon.html.BEAUTIFY'>, 'BODY': <class 'gluon.html.BODY'>, 'BR': <class 'gluon.html.BR'>, 'BUTTON': <class 'gluon.html.BUTTON'>, 'CAT': <class 'gluon.html.CAT'>, 'CENTER': <class 'gluon.html.CENTER'>, 'CLEANUP': <class 'gluon.validators.CLEANUP'>, ...}, layer='/home/gaurav/classwork/WEB_PROGRAMMING/web2py/applications/SONGS/controllers/default.py')"
p3379
sS'func'
p3380
S'restricted'
p3381
sa(dp3382
g3353
S'/home/gaurav/classwork/WEB_PROGRAMMING/web2py/gluon/restricted.py'
p3383
sg3355
(dp3384
S'builtincompile'
p3385
S'<built-in function compile>'
p3386
sS'code'
p3387
S"'# -*- coding: utf-8 -*-\\n# this file is released ...):\\n\\n\\nresponse._vars=response._caller(update_len)\\n'"
p3388
sS'code.rstrip'
p3389
S'<built-in method rstrip of str object>'
p3390
sS').replace'
p3391
g3364
sS'layer'
p3392
S"'/home/gaurav/classwork/WEB_PROGRAMMING/web2py/applications/SONGS/controllers/default.py'"
p3393
ssg3365
I194
sg3366
(dp3394
I192
S"    The +'\\n' is necessary else compile fails when code ends in a comment."
p3395
sI193
S'    """'
p3396
sI194
S"    return compile(code.rstrip().replace('\\r\\n', '\\n') + '\\n', layer, 'exec')"
p3397
sI195
S''
sI196
S''
sI197
S"def restricted(code, environment=None, layer='Unknown'):"
p3398
sI198
S'    """'
p3399
sI189
S''
sI190
S'def compile2(code, layer):'
p3400
sI191
S'    """'
p3401
ssg3378
S"(code='# -*- coding: utf-8 -*-\\n# this file is released ...):\\n\\n\\nresponse._vars=response._caller(update_len)\\n', layer='/home/gaurav/classwork/WEB_PROGRAMMING/web2py/applications/SONGS/controllers/default.py')"
p3402
sg3380
S'compile2'
p3403
sasS'pyver'
p3404
S'Python 2.7.3: /usr/bin/python'
p3405
sS'session'
p3406
g68
(g69
g70
NtRp3407
(dp3408
g73
(dp3409
sg75
(lp3410
g68
(g77
g70
NtRp3411
(dp3412
g73
(dp3413
g81
I5
ssg82
Nsg75
(lp3414
g68
(g84
g70
NtRp3415
(dp3416
g73
(dp3417
sg82
g3411
sg75
(lp3418
g68
(g89
g70
NtRp3419
(dp3420
g73
(dp3421
g93
g94
ssg82
g3415
sg75
(lp3422
S'last_orderby'
p3423
asbag68
(g89
g70
NtRp3424
(dp3425
g73
(dp3426
g100
g101
ssg82
g3415
sg75
(lp3427
S':'
asbag68
(g89
g70
NtRp3428
(dp3429
g73
(dp3430
sg82
g3415
sg75
(lp3431
g68
(g69
g70
NtRp3432
(dp3433
g73
(dp3434
g81
I5
ssg82
g3428
sg75
(lp3435
S'None'
p3436
asbasbasbag68
(g84
g70
NtRp3437
(dp3438
g73
(dp3439
sg82
g3411
sg75
(lp3440
g68
(g89
g70
NtRp3441
(dp3442
g73
(dp3443
g93
g94
ssg82
g3437
sg75
(lp3444
S'last_query'
p3445
asbag68
(g89
g70
NtRp3446
(dp3447
g73
(dp3448
g100
g101
ssg82
g3437
sg75
(lp3449
S':'
asbag68
(g89
g70
NtRp3450
(dp3451
g73
(dp3452
sg82
g3437
sg75
(lp3453
g68
(g69
g70
NtRp3454
(dp3455
g73
(dp3456
g81
I5
ssg82
g3450
sg75
(lp3457
S'db.songs.id>0'
p3458
asbasbasbasbasbsS'etype'
p3459
S"<type 'exceptions.IndentationError'>"
p3460
sS'date'
p3461
S'Tue Feb 26 16:50:10 2013'
p3462
sS'response'
p3463
g68
(g69
g70
NtRp3464
(dp3465
g73
(dp3466
sg75
(lp3467
g68
(g77
g70
NtRp3468
(dp3469
g73
(dp3470
g81
I5
ssg82
Nsg75
(lp3471
g68
(g84
g70
NtRp3472
(dp3473
g73
(dp3474
sg82
g3468
sg75
(lp3475
g68
(g89
g70
NtRp3476
(dp3477
g73
(dp3478
g93
g94
ssg82
g3472
sg75
(lp3479
g166
asbag68
(g89
g70
NtRp3480
(dp3481
g73
(dp3482
g100
g101
ssg82
g3472
sg75
(lp3483
S':'
asbag68
(g89
g70
NtRp3484
(dp3485
g73
(dp3486
sg82
g3472
sg75
(lp3487
g68
(g69
g70
NtRp3488
(dp3489
g73
(dp3490
g81
I5
ssg82
g3484
sg75
(lp3491
S'<cStringIO.StringO object at 0xa098a60>'
p3492
asbasbasbag68
(g84
g70
NtRp3493
(dp3494
g73
(dp3495
sg82
g3468
sg75
(lp3496
g68
(g89
g70
NtRp3497
(dp3498
g73
(dp3499
g93
g94
ssg82
g3493
sg75
(lp3500
g254
asbag68
(g89
g70
NtRp3501
(dp3502
g73
(dp3503
g100
g101
ssg82
g3493
sg75
(lp3504
S':'
asbag68
(g89
g70
NtRp3505
(dp3506
g73
(dp3507
sg82
g3493
sg75
(lp3508
g68
(g69
g70
NtRp3509
(dp3510
g73
(dp3511
g81
I5
ssg82
g3505
sg75
(lp3512
g68
(g77
g70
NtRp3513
(dp3514
g73
(dp3515
g81
I4
ssg82
Nsg75
(lp3516
g68
(g84
g70
NtRp3517
(dp3518
g73
(dp3519
sg82
g3513
sg75
(lp3520
g68
(g89
g70
NtRp3521
(dp3522
g73
(dp3523
g93
g94
ssg82
g3517
sg75
(lp3524
S'session_id_songs'
p3525
asbag68
(g89
g70
NtRp3526
(dp3527
g73
(dp3528
g100
g101
ssg82
g3517
sg75
(lp3529
S':'
asbag68
(g89
g70
NtRp3530
(dp3531
g73
(dp3532
sg82
g3517
sg75
(lp3533
g68
(g69
g70
NtRp3534
(dp3535
g73
(dp3536
g81
I4
ssg82
g3530
sg75
(lp3537
g672
ag68
(g77
g70
NtRp3538
(dp3539
g73
(dp3540
g81
I3
ssg82
Nsg75
(lp3541
g68
(g84
g70
NtRp3542
(dp3543
g73
(dp3544
sg82
g3538
sg75
(lp3545
g68
(g89
g70
NtRp3546
(dp3547
g73
(dp3548
g93
g94
ssg82
g3542
sg75
(lp3549
g305
asbag68
(g89
g70
NtRp3550
(dp3551
g73
(dp3552
g100
g101
ssg82
g3542
sg75
(lp3553
S':'
asbag68
(g89
g70
NtRp3554
(dp3555
g73
(dp3556
sg82
g3542
sg75
(lp3557
g68
(g69
g70
NtRp3558
(dp3559
g73
(dp3560
g81
I3
ssg82
g3554
sg75
(lp3561
S''
asbasbasbag68
(g84
g70
NtRp3562
(dp3563
g73
(dp3564
sg82
g3538
sg75
(lp3565
g68
(g89
g70
NtRp3566
(dp3567
g73
(dp3568
g93
g94
ssg82
g3562
sg75
(lp3569
g326
asbag68
(g89
g70
NtRp3570
(dp3571
g73
(dp3572
g100
g101
ssg82
g3562
sg75
(lp3573
S':'
asbag68
(g89
g70
NtRp3574
(dp3575
g73
(dp3576
sg82
g3562
sg75
(lp3577
g68
(g69
g70
NtRp3578
(dp3579
g73
(dp3580
g81
I3
ssg82
g3574
sg75
(lp3581
S''
asbasbasbag68
(g84
g70
NtRp3582
(dp3583
g73
(dp3584
sg82
g3538
sg75
(lp3585
g68
(g89
g70
NtRp3586
(dp3587
g73
(dp3588
g93
g94
ssg82
g3582
sg75
(lp3589
g347
asbag68
(g89
g70
NtRp3590
(dp3591
g73
(dp3592
g100
g101
ssg82
g3582
sg75
(lp3593
S':'
asbag68
(g89
g70
NtRp3594
(dp3595
g73
(dp3596
sg82
g3582
sg75
(lp3597
g68
(g69
g70
NtRp3598
(dp3599
g73
(dp3600
g81
I3
ssg82
g3594
sg75
(lp3601
S''
asbasbasbag68
(g84
g70
NtRp3602
(dp3603
g73
(dp3604
sg82
g3538
sg75
(lp3605
g68
(g89
g70
NtRp3606
(dp3607
g73
(dp3608
g93
g94
ssg82
g3602
sg75
(lp3609
g368
asbag68
(g89
g70
NtRp3610
(dp3611
g73
(dp3612
g100
g101
ssg82
g3602
sg75
(lp3613
S':'
asbag68
(g89
g70
NtRp3614
(dp3615
g73
(dp3616
sg82
g3602
sg75
(lp3617
g68
(g69
g70
NtRp3618
(dp3619
g73
(dp3620
g81
I3
ssg82
g3614
sg75
(lp3621
S''
asbasbasbag68
(g84
g70
NtRp3622
(dp3623
g73
(dp3624
sg82
g3538
sg75
(lp3625
g68
(g89
g70
NtRp3626
(dp3627
g73
(dp3628
g93
g94
ssg82
g3622
sg75
(lp3629
g389
asbag68
(g89
g70
NtRp3630
(dp3631
g73
(dp3632
g100
g101
ssg82
g3622
sg75
(lp3633
S':'
asbag68
(g89
g70
NtRp3634
(dp3635
g73
(dp3636
sg82
g3622
sg75
(lp3637
g68
(g69
g70
NtRp3638
(dp3639
g73
(dp3640
g81
I3
ssg82
g3634
sg75
(lp3641
S''
asbasbasbag68
(g84
g70
NtRp3642
(dp3643
g73
(dp3644
sg82
g3538
sg75
(lp3645
g68
(g89
g70
NtRp3646
(dp3647
g73
(dp3648
g93
g94
ssg82
g3642
sg75
(lp3649
g410
asbag68
(g89
g70
NtRp3650
(dp3651
g73
(dp3652
g100
g101
ssg82
g3642
sg75
(lp3653
S':'
asbag68
(g89
g70
NtRp3654
(dp3655
g73
(dp3656
sg82
g3642
sg75
(lp3657
g68
(g69
g70
NtRp3658
(dp3659
g73
(dp3660
g81
I3
ssg82
g3654
sg75
(lp3661
S'/'
asbasbasbag68
(g84
g70
NtRp3662
(dp3663
g73
(dp3664
sg82
g3538
sg75
(lp3665
g68
(g89
g70
NtRp3666
(dp3667
g73
(dp3668
g93
g94
ssg82
g3662
sg75
(lp3669
g431
asbag68
(g89
g70
NtRp3670
(dp3671
g73
(dp3672
g100
g101
ssg82
g3662
sg75
(lp3673
S':'
asbag68
(g89
g70
NtRp3674
(dp3675
g73
(dp3676
sg82
g3662
sg75
(lp3677
g68
(g69
g70
NtRp3678
(dp3679
g73
(dp3680
g81
I3
ssg82
g3674
sg75
(lp3681
S''
asbasbasbag68
(g84
g70
NtRp3682
(dp3683
g73
(dp3684
sg82
g3538
sg75
(lp3685
g68
(g89
g70
NtRp3686
(dp3687
g73
(dp3688
g93
g94
ssg82
g3682
sg75
(lp3689
g452
asbag68
(g89
g70
NtRp3690
(dp3691
g73
(dp3692
g100
g101
ssg82
g3682
sg75
(lp3693
S':'
asbag68
(g89
g70
NtRp3694
(dp3695
g73
(dp3696
sg82
g3682
sg75
(lp3697
g68
(g69
g70
NtRp3698
(dp3699
g73
(dp3700
g81
I3
ssg82
g3694
sg75
(lp3701
S''
asbasbasbasbasbasbasbasbasbasbasbag68
(g84
g70
NtRp3702
(dp3703
g73
(dp3704
sg82
g3468
sg75
(lp3705
g68
(g89
g70
NtRp3706
(dp3707
g73
(dp3708
g93
g94
ssg82
g3702
sg75
(lp3709
S'delimiters'
p3710
asbag68
(g89
g70
NtRp3711
(dp3712
g73
(dp3713
g100
g101
ssg82
g3702
sg75
(lp3714
S':'
asbag68
(g89
g70
NtRp3715
(dp3716
g73
(dp3717
sg82
g3702
sg75
(lp3718
g68
(g69
g70
NtRp3719
(dp3720
g73
(dp3721
g81
I5
ssg82
g3715
sg75
(lp3722
g68
(g77
g70
NtRp3723
(dp3724
g73
(dp3725
g81
I4
ssg82
Nsg75
(lp3726
g68
(g84
g70
NtRp3727
(dp3728
g73
(dp3729
sg82
g3723
sg75
(lp3730
g68
(g89
g70
NtRp3731
(dp3732
g73
(dp3733
sg82
g3727
sg75
(lp3734
g68
(g69
g70
NtRp3735
(dp3736
g73
(dp3737
g81
I4
ssg82
g3731
sg75
(lp3738
S'{{'
p3739
asbasbasbag68
(g84
g70
NtRp3740
(dp3741
g73
(dp3742
sg82
g3723
sg75
(lp3743
g68
(g89
g70
NtRp3744
(dp3745
g73
(dp3746
sg82
g3740
sg75
(lp3747
g68
(g69
g70
NtRp3748
(dp3749
g73
(dp3750
g81
I4
ssg82
g3744
sg75
(lp3751
S'}}'
p3752
asbasbasbasbasbasbasbag68
(g84
g70
NtRp3753
(dp3754
g73
(dp3755
sg82
g3468
sg75
(lp3756
g68
(g89
g70
NtRp3757
(dp3758
g73
(dp3759
g93
g94
ssg82
g3753
sg75
(lp3760
S'files'
p3761
asbag68
(g89
g70
NtRp3762
(dp3763
g73
(dp3764
g100
g101
ssg82
g3753
sg75
(lp3765
S':'
asbag68
(g89
g70
NtRp3766
(dp3767
g73
(dp3768
sg82
g3753
sg75
(lp3769
g68
(g69
g70
NtRp3770
(dp3771
g73
(dp3772
g81
I5
ssg82
g3766
sg75
(lp3773
g68
(g77
g70
NtRp3774
(dp3775
g73
(dp3776
g81
I4
ssg82
Nsg75
(lp3777
sbasbasbasbag68
(g84
g70
NtRp3778
(dp3779
g73
(dp3780
sg82
g3468
sg75
(lp3781
g68
(g89
g70
NtRp3782
(dp3783
g73
(dp3784
g93
g94
ssg82
g3778
sg75
(lp3785
S'flash'
p3786
asbag68
(g89
g70
NtRp3787
(dp3788
g73
(dp3789
g100
g101
ssg82
g3778
sg75
(lp3790
S':'
asbag68
(g89
g70
NtRp3791
(dp3792
g73
(dp3793
sg82
g3778
sg75
(lp3794
g68
(g69
g70
NtRp3795
(dp3796
g73
(dp3797
g81
I5
ssg82
g3791
sg75
(lp3798
S''
asbasbasbag68
(g84
g70
NtRp3799
(dp3800
g73
(dp3801
sg82
g3468
sg75
(lp3802
g68
(g89
g70
NtRp3803
(dp3804
g73
(dp3805
g93
g94
ssg82
g3799
sg75
(lp3806
S'generic_patterns'
p3807
asbag68
(g89
g70
NtRp3808
(dp3809
g73
(dp3810
g100
g101
ssg82
g3799
sg75
(lp3811
S':'
asbag68
(g89
g70
NtRp3812
(dp3813
g73
(dp3814
sg82
g3799
sg75
(lp3815
g68
(g69
g70
NtRp3816
(dp3817
g73
(dp3818
g81
I5
ssg82
g3812
sg75
(lp3819
g68
(g77
g70
NtRp3820
(dp3821
g73
(dp3822
g81
I4
ssg82
Nsg75
(lp3823
g68
(g84
g70
NtRp3824
(dp3825
g73
(dp3826
sg82
g3820
sg75
(lp3827
g68
(g89
g70
NtRp3828
(dp3829
g73
(dp3830
sg82
g3824
sg75
(lp3831
g68
(g69
g70
NtRp3832
(dp3833
g73
(dp3834
g81
I4
ssg82
g3828
sg75
(lp3835
S'*'
asbasbasbasbasbasbasbag68
(g84
g70
NtRp3836
(dp3837
g73
(dp3838
sg82
g3468
sg75
(lp3839
g68
(g89
g70
NtRp3840
(dp3841
g73
(dp3842
g93
g94
ssg82
g3836
sg75
(lp3843
S'google_analytics_id'
p3844
asbag68
(g89
g70
NtRp3845
(dp3846
g73
(dp3847
g100
g101
ssg82
g3836
sg75
(lp3848
S':'
asbag68
(g89
g70
NtRp3849
(dp3850
g73
(dp3851
sg82
g3836
sg75
(lp3852
g68
(g69
g70
NtRp3853
(dp3854
g73
(dp3855
g81
I5
ssg82
g3849
sg75
(lp3856
S'None'
p3857
asbasbasbag68
(g84
g70
NtRp3858
(dp3859
g73
(dp3860
sg82
g3468
sg75
(lp3861
g68
(g89
g70
NtRp3862
(dp3863
g73
(dp3864
g93
g94
ssg82
g3858
sg75
(lp3865
S'headers'
p3866
asbag68
(g89
g70
NtRp3867
(dp3868
g73
(dp3869
g100
g101
ssg82
g3858
sg75
(lp3870
S':'
asbag68
(g89
g70
NtRp3871
(dp3872
g73
(dp3873
sg82
g3858
sg75
(lp3874
g68
(g69
g70
NtRp3875
(dp3876
g73
(dp3877
g81
I5
ssg82
g3871
sg75
(lp3878
g68
(g77
g70
NtRp3879
(dp3880
g73
(dp3881
g81
I4
ssg82
Nsg75
(lp3882
g68
(g84
g70
NtRp3883
(dp3884
g73
(dp3885
sg82
g3879
sg75
(lp3886
g68
(g89
g70
NtRp3887
(dp3888
g73
(dp3889
g93
g94
ssg82
g3883
sg75
(lp3890
S'X-Powered-By'
p3891
asbag68
(g89
g70
NtRp3892
(dp3893
g73
(dp3894
g100
g101
ssg82
g3883
sg75
(lp3895
S':'
asbag68
(g89
g70
NtRp3896
(dp3897
g73
(dp3898
sg82
g3883
sg75
(lp3899
g68
(g69
g70
NtRp3900
(dp3901
g73
(dp3902
g81
I4
ssg82
g3896
sg75
(lp3903
S'web2py'
p3904
asbasbasbasbasbasbasbag68
(g84
g70
NtRp3905
(dp3906
g73
(dp3907
sg82
g3468
sg75
(lp3908
g68
(g89
g70
NtRp3909
(dp3910
g73
(dp3911
g93
g94
ssg82
g3905
sg75
(lp3912
S'logo'
p3913
asbag68
(g89
g70
NtRp3914
(dp3915
g73
(dp3916
g100
g101
ssg82
g3905
sg75
(lp3917
S':'
asbag68
(g89
g70
NtRp3918
(dp3919
g73
(dp3920
sg82
g3905
sg75
(lp3921
g68
(g69
g70
NtRp3922
(dp3923
g73
(dp3924
g81
I5
ssg82
g3918
sg75
(lp3925
g68
(cgluon.html
A
p3926
g70
NtRp3927
(dp3928
g73
(dp3929
S'_class'
p3930
S'brand'
p3931
sS'_href'
p3932
S'http://www.web2py.com/'
p3933
ssg82
Nsg75
(lp3934
g68
(cgluon.html
B
p3935
g70
NtRp3936
(dp3937
g73
(dp3938
sg82
g3927
sg75
(lp3939
S'web'
p3940
ag68
(cgluon.html
SPAN
p3941
g70
NtRp3942
(dp3943
g73
(dp3944
sg82
g3936
sg75
(lp3945
I2
asbaS'py'
p3946
asbacgluon.html
XML_unpickle
p3947
(S's\r\x00\x00\x00&trade;&nbsp;'
tRp3948
asbasbasbasbag68
(g84
g70
NtRp3949
(dp3950
g73
(dp3951
sg82
g3468
sg75
(lp3952
g68
(g89
g70
NtRp3953
(dp3954
g73
(dp3955
g93
g94
ssg82
g3949
sg75
(lp3956
S'menu'
p3957
asbag68
(g89
g70
NtRp3958
(dp3959
g73
(dp3960
g100
g101
ssg82
g3949
sg75
(lp3961
S':'
asbag68
(g89
g70
NtRp3962
(dp3963
g73
(dp3964
sg82
g3949
sg75
(lp3965
g68
(g69
g70
NtRp3966
(dp3967
g73
(dp3968
g81
I5
ssg82
g3962
sg75
(lp3969
g68
(g77
g70
NtRp3970
(dp3971
g73
(dp3972
g81
I4
ssg82
Nsg75
(lp3973
g68
(g84
g70
NtRp3974
(dp3975
g73
(dp3976
sg82
g3970
sg75
(lp3977
g68
(g89
g70
NtRp3978
(dp3979
g73
(dp3980
sg82
g3974
sg75
(lp3981
g68
(g69
g70
NtRp3982
(dp3983
g73
(dp3984
g81
I4
ssg82
g3978
sg75
(lp3985
g68
(g77
g70
NtRp3986
(dp3987
g73
(dp3988
g81
I3
ssg82
Nsg75
(lp3989
g68
(g84
g70
NtRp3990
(dp3991
g73
(dp3992
sg82
g3986
sg75
(lp3993
g68
(g89
g70
NtRp3994
(dp3995
g73
(dp3996
sg82
g3990
sg75
(lp3997
g68
(g69
g70
NtRp3998
(dp3999
g73
(dp4000
g81
I3
ssg82
g3994
sg75
(lp4001
cgluon.languages
lazyT_unpickle
p4002
(S's\x04\x00\x00\x00Home'
tRp4003
asbasbasbag68
(g84
g70
NtRp4004
(dp4005
g73
(dp4006
sg82
g3986
sg75
(lp4007
g68
(g89
g70
NtRp4008
(dp4009
g73
(dp4010
sg82
g4004
sg75
(lp4011
g68
(g69
g70
NtRp4012
(dp4013
g73
(dp4014
g81
I3
ssg82
g4008
sg75
(lp4015
g111
asbasbasbag68
(g84
g70
NtRp4016
(dp4017
g73
(dp4018
sg82
g3986
sg75
(lp4019
g68
(g89
g70
NtRp4020
(dp4021
g73
(dp4022
sg82
g4016
sg75
(lp4023
g68
(g69
g70
NtRp4024
(dp4025
g73
(dp4026
g81
I3
ssg82
g4020
sg75
(lp4027
S'/SONGS/default/index'
p4028
asbasbasbag68
(g84
g70
NtRp4029
(dp4030
g73
(dp4031
sg82
g3986
sg75
(lp4032
g68
(g89
g70
NtRp4033
(dp4034
g73
(dp4035
sg82
g4029
sg75
(lp4036
g68
(g69
g70
NtRp4037
(dp4038
g73
(dp4039
g81
I3
ssg82
g4033
sg75
(lp4040
g68
(g77
g70
NtRp4041
(dp4042
g73
(dp4043
g81
I2
ssg82
Nsg75
(lp4044
sbasbasbasbasbasbasbasbag68
(g84
g70
NtRp4045
(dp4046
g73
(dp4047
sg82
g3970
sg75
(lp4048
g68
(g89
g70
NtRp4049
(dp4050
g73
(dp4051
sg82
g4045
sg75
(lp4052
g68
(g69
g70
NtRp4053
(dp4054
g73
(dp4055
g81
I4
ssg82
g4049
sg75
(lp4056
g68
(g77
g70
NtRp4057
(dp4058
g73
(dp4059
g81
I3
ssg82
Nsg75
(lp4060
g68
(g84
g70
NtRp4061
(dp4062
g73
(dp4063
sg82
g4057
sg75
(lp4064
g68
(g89
g70
NtRp4065
(dp4066
g73
(dp4067
sg82
g4061
sg75
(lp4068
g68
(g69
g70
NtRp4069
(dp4070
g73
(dp4071
g81
I3
ssg82
g4065
sg75
(lp4072
g68
(g3941
g70
NtRp4073
(dp4074
g73
(dp4075
g3930
S'highlighted'
p4076
ssg82
Nsg75
(lp4077
g3904
asbasbasbasbag68
(g84
g70
NtRp4078
(dp4079
g73
(dp4080
sg82
g4057
sg75
(lp4081
g68
(g89
g70
NtRp4082
(dp4083
g73
(dp4084
sg82
g4078
sg75
(lp4085
g68
(g69
g70
NtRp4086
(dp4087
g73
(dp4088
g81
I3
ssg82
g4082
sg75
(lp4089
g111
asbasbasbag68
(g84
g70
NtRp4090
(dp4091
g73
(dp4092
sg82
g4057
sg75
(lp4093
g68
(g89
g70
NtRp4094
(dp4095
g73
(dp4096
sg82
g4090
sg75
(lp4097
g68
(g69
g70
NtRp4098
(dp4099
g73
(dp4100
g81
I3
ssg82
g4094
sg75
(lp4101
S'http://web2py.com'
p4102
asbasbasbag68
(g84
g70
NtRp4103
(dp4104
g73
(dp4105
sg82
g4057
sg75
(lp4106
g68
(g89
g70
NtRp4107
(dp4108
g73
(dp4109
sg82
g4103
sg75
(lp4110
g68
(g69
g70
NtRp4111
(dp4112
g73
(dp4113
g81
I3
ssg82
g4107
sg75
(lp4114
g68
(g77
g70
NtRp4115
(dp4116
g73
(dp4117
g81
I2
ssg82
Nsg75
(lp4118
g68
(g84
g70
NtRp4119
(dp4120
g73
(dp4121
sg82
g4115
sg75
(lp4122
g68
(g89
g70
NtRp4123
(dp4124
g73
(dp4125
sg82
g4119
sg75
(lp4126
g68
(g69
g70
NtRp4127
(dp4128
g73
(dp4129
g81
I2
ssg82
g4123
sg75
(lp4130
g68
(g77
g70
NtRp4131
(dp4132
g73
(dp4133
g81
I1
ssg82
Nsg75
(lp4134
g68
(g84
g70
NtRp4135
(dp4136
g73
(dp4137
sg82
g4131
sg75
(lp4138
g68
(g89
g70
NtRp4139
(dp4140
g73
(dp4141
sg82
g4135
sg75
(lp4142
g68
(g69
g70
NtRp4143
(dp4144
g73
(dp4145
g81
I1
ssg82
g4139
sg75
(lp4146
g4002
(S's\x08\x00\x00\x00My Sites'
tRp4147
asbasbasbag68
(g84
g70
NtRp4148
(dp4149
g73
(dp4150
sg82
g4131
sg75
(lp4151
g68
(g89
g70
NtRp4152
(dp4153
g73
(dp4154
sg82
g4148
sg75
(lp4155
g68
(g69
g70
NtRp4156
(dp4157
g73
(dp4158
g81
I1
ssg82
g4152
sg75
(lp4159
I00
asbasbasbag68
(g84
g70
NtRp4160
(dp4161
g73
(dp4162
sg82
g4131
sg75
(lp4163
g68
(g89
g70
NtRp4164
(dp4165
g73
(dp4166
sg82
g4160
sg75
(lp4167
g68
(g69
g70
NtRp4168
(dp4169
g73
(dp4170
g81
I1
ssg82
g4164
sg75
(lp4171
S'/admin/default/site'
p4172
asbasbasbasbasbasbasbag68
(g84
g70
NtRp4173
(dp4174
g73
(dp4175
sg82
g4115
sg75
(lp4176
g68
(g89
g70
NtRp4177
(dp4178
g73
(dp4179
sg82
g4173
sg75
(lp4180
g68
(g69
g70
NtRp4181
(dp4182
g73
(dp4183
g81
I2
ssg82
g4177
sg75
(lp4184
g68
(g77
g70
NtRp4185
(dp4186
g73
(dp4187
g81
I1
ssg82
Nsg75
(lp4188
g68
(g84
g70
NtRp4189
(dp4190
g73
(dp4191
sg82
g4185
sg75
(lp4192
g68
(g89
g70
NtRp4193
(dp4194
g73
(dp4195
sg82
g4189
sg75
(lp4196
g68
(g69
g70
NtRp4197
(dp4198
g73
(dp4199
g81
I1
ssg82
g4193
sg75
(lp4200
g4002
(S's\x08\x00\x00\x00This App'
tRp4201
asbasbasbag68
(g84
g70
NtRp4202
(dp4203
g73
(dp4204
sg82
g4185
sg75
(lp4205
g68
(g89
g70
NtRp4206
(dp4207
g73
(dp4208
sg82
g4202
sg75
(lp4209
g68
(g69
g70
NtRp4210
(dp4211
g73
(dp4212
g81
I1
ssg82
g4206
sg75
(lp4213
I00
asbasbasbag68
(g84
g70
NtRp4214
(dp4215
g73
(dp4216
sg82
g4185
sg75
(lp4217
g68
(g89
g70
NtRp4218
(dp4219
g73
(dp4220
sg82
g4214
sg75
(lp4221
g68
(g69
g70
NtRp4222
(dp4223
g73
(dp4224
g81
I1
ssg82
g4218
sg75
(lp4225
S'/admin/default/design/SONGS'
p4226
asbasbasbag68
(g84
g70
NtRp4227
(dp4228
g73
(dp4229
sg82
g4185
sg75
(lp4230
g68
(g89
g70
NtRp4231
(dp4232
g73
(dp4233
sg82
g4227
sg75
(lp4234
g68
(g69
g70
NtRp4235
(dp4236
g73
(dp4237
g81
I1
ssg82
g4231
sg75
(lp4238
(lp4239
(g4002
(S's\n\x00\x00\x00Controller'
tRp4240
I00
S'/admin/default/edit/SONGS/controllers/default.py'
tp4241
a(g4002
(S's\x04\x00\x00\x00View'
tRp4242
I00
S'/admin/default/edit/SONGS/views/default/update_len.html'
tp4243
a(g4002
(S's\x06\x00\x00\x00Layout'
tRp4244
I00
S'/admin/default/edit/SONGS/views/layout.html'
tp4245
a(g4002
(S's\n\x00\x00\x00Stylesheet'
tRp4246
I00
S'/admin/default/edit/SONGS/static/css/web2py.css'
tp4247
a(g4002
(S's\x08\x00\x00\x00DB Model'
tRp4248
I00
S'/admin/default/edit/SONGS/models/db.py'
tp4249
a(g4002
(S's\n\x00\x00\x00Menu Model'
tRp4250
I00
S'/admin/default/edit/SONGS/models/menu.py'
tp4251
a(g4002
(S's\x08\x00\x00\x00Database'
tRp4252
I00
S'/SONGS/appadmin/index'
tp4253
a(g4002
(S's\x06\x00\x00\x00Errors'
tRp4254
I00
S'/admin/default/errors/SONGS'
tp4255
a(g4002
(S's\x05\x00\x00\x00About'
tRp4256
I00
S'/admin/default/about/SONGS'
tp4257
aasbasbasbasbasbasbasbag68
(g84
g70
NtRp4258
(dp4259
g73
(dp4260
sg82
g4115
sg75
(lp4261
g68
(g89
g70
NtRp4262
(dp4263
g73
(dp4264
sg82
g4258
sg75
(lp4265
g68
(g69
g70
NtRp4266
(dp4267
g73
(dp4268
g81
I2
ssg82
g4262
sg75
(lp4269
g68
(g77
g70
NtRp4270
(dp4271
g73
(dp4272
g81
I1
ssg82
Nsg75
(lp4273
g68
(g84
g70
NtRp4274
(dp4275
g73
(dp4276
sg82
g4270
sg75
(lp4277
g68
(g89
g70
NtRp4278
(dp4279
g73
(dp4280
sg82
g4274
sg75
(lp4281
g68
(g69
g70
NtRp4282
(dp4283
g73
(dp4284
g81
I1
ssg82
g4278
sg75
(lp4285
S'web2py.com'
p4286
asbasbasbag68
(g84
g70
NtRp4287
(dp4288
g73
(dp4289
sg82
g4270
sg75
(lp4290
g68
(g89
g70
NtRp4291
(dp4292
g73
(dp4293
sg82
g4287
sg75
(lp4294
g68
(g69
g70
NtRp4295
(dp4296
g73
(dp4297
g81
I1
ssg82
g4291
sg75
(lp4298
I00
asbasbasbag68
(g84
g70
NtRp4299
(dp4300
g73
(dp4301
sg82
g4270
sg75
(lp4302
g68
(g89
g70
NtRp4303
(dp4304
g73
(dp4305
sg82
g4299
sg75
(lp4306
g68
(g69
g70
NtRp4307
(dp4308
g73
(dp4309
g81
I1
ssg82
g4303
sg75
(lp4310
S'http://www.web2py.com'
p4311
asbasbasbag68
(g84
g70
NtRp4312
(dp4313
g73
(dp4314
sg82
g4270
sg75
(lp4315
g68
(g89
g70
NtRp4316
(dp4317
g73
(dp4318
sg82
g4312
sg75
(lp4319
g68
(g69
g70
NtRp4320
(dp4321
g73
(dp4322
g81
I1
ssg82
g4316
sg75
(lp4323
(lp4324
(g4002
(S's\x08\x00\x00\x00Download'
tRp4325
I00
S'http://www.web2py.com/examples/default/download'
p4326
tp4327
a(g4002
(S's\x07\x00\x00\x00Support'
tRp4328
I00
S'http://www.web2py.com/examples/default/support'
p4329
tp4330
a(g4002
(S's\x04\x00\x00\x00Demo'
tRp4331
I00
S'http://web2py.com/demo_admin'
p4332
tp4333
a(g4002
(S's\x0e\x00\x00\x00Quick Examples'
tRp4334
I00
S'http://web2py.com/examples/default/examples'
p4335
tp4336
a(g4002
(S's\x03\x00\x00\x00FAQ'
tRp4337
I00
S'http://web2py.com/AlterEgo'
p4338
tp4339
a(g4002
(S's\x06\x00\x00\x00Videos'
tRp4340
I00
S'http://www.web2py.com/examples/default/videos/'
p4341
tp4342
a(g4002
(S's\x11\x00\x00\x00Free Applications'
tRp4343
I00
S'http://web2py.com/appliances'
p4344
tp4345
a(g4002
(S's\x07\x00\x00\x00Plugins'
tRp4346
I00
S'http://web2py.com/plugins'
p4347
tp4348
a(g4002
(S's\x07\x00\x00\x00Layouts'
tRp4349
I00
S'http://web2py.com/layouts'
p4350
tp4351
a(g4002
(S's\x07\x00\x00\x00Recipes'
tRp4352
I00
S'http://web2pyslices.com/'
p4353
tp4354
a(g4002
(S's\x08\x00\x00\x00Semantic'
tRp4355
I00
S'http://web2py.com/semantic'
p4356
tp4357
aasbasbasbasbasbasbasbag68
(g84
g70
NtRp4358
(dp4359
g73
(dp4360
sg82
g4115
sg75
(lp4361
g68
(g89
g70
NtRp4362
(dp4363
g73
(dp4364
sg82
g4358
sg75
(lp4365
g68
(g69
g70
NtRp4366
(dp4367
g73
(dp4368
g81
I2
ssg82
g4362
sg75
(lp4369
g68
(g77
g70
NtRp4370
(dp4371
g73
(dp4372
g81
I1
ssg82
Nsg75
(lp4373
g68
(g84
g70
NtRp4374
(dp4375
g73
(dp4376
sg82
g4370
sg75
(lp4377
g68
(g89
g70
NtRp4378
(dp4379
g73
(dp4380
sg82
g4374
sg75
(lp4381
g68
(g69
g70
NtRp4382
(dp4383
g73
(dp4384
g81
I1
ssg82
g4378
sg75
(lp4385
g4002
(S's\r\x00\x00\x00Documentation'
tRp4386
asbasbasbag68
(g84
g70
NtRp4387
(dp4388
g73
(dp4389
sg82
g4370
sg75
(lp4390
g68
(g89
g70
NtRp4391
(dp4392
g73
(dp4393
sg82
g4387
sg75
(lp4394
g68
(g69
g70
NtRp4395
(dp4396
g73
(dp4397
g81
I1
ssg82
g4391
sg75
(lp4398
I00
asbasbasbag68
(g84
g70
NtRp4399
(dp4400
g73
(dp4401
sg82
g4370
sg75
(lp4402
g68
(g89
g70
NtRp4403
(dp4404
g73
(dp4405
sg82
g4399
sg75
(lp4406
g68
(g69
g70
NtRp4407
(dp4408
g73
(dp4409
g81
I1
ssg82
g4403
sg75
(lp4410
S'http://www.web2py.com/book'
p4411
asbasbasbag68
(g84
g70
NtRp4412
(dp4413
g73
(dp4414
sg82
g4370
sg75
(lp4415
g68
(g89
g70
NtRp4416
(dp4417
g73
(dp4418
sg82
g4412
sg75
(lp4419
g68
(g69
g70
NtRp4420
(dp4421
g73
(dp4422
g81
I1
ssg82
g4416
sg75
(lp4423
(lp4424
(g4002
(S's\x07\x00\x00\x00Preface'
tRp4425
I00
S'http://www.web2py.com/book/default/chapter/00'
p4426
tp4427
a(g4002
(S's\x0c\x00\x00\x00Introduction'
tRp4428
I00
S'http://www.web2py.com/book/default/chapter/01'
p4429
tp4430
a(g4002
(S's\x06\x00\x00\x00Python'
tRp4431
I00
S'http://www.web2py.com/book/default/chapter/02'
p4432
tp4433
a(g4002
(S's\x08\x00\x00\x00Overview'
tRp4434
I00
S'http://www.web2py.com/book/default/chapter/03'
p4435
tp4436
a(g4002
(S's\x08\x00\x00\x00The Core'
tRp4437
I00
S'http://www.web2py.com/book/default/chapter/04'
p4438
tp4439
a(g4002
(S's\t\x00\x00\x00The Views'
tRp4440
I00
S'http://www.web2py.com/book/default/chapter/05'
p4441
tp4442
a(g4002
(S's\x08\x00\x00\x00Database'
tRp4443
I00
S'http://www.web2py.com/book/default/chapter/06'
p4444
tp4445
a(g4002
(S's\x14\x00\x00\x00Forms and Validators'
tRp4446
I00
S'http://www.web2py.com/book/default/chapter/07'
p4447
tp4448
a(g4002
(S's\r\x00\x00\x00Email and SMS'
tRp4449
I00
S'http://www.web2py.com/book/default/chapter/08'
p4450
tp4451
a(g4002
(S's\x0e\x00\x00\x00Access Control'
tRp4452
I00
S'http://www.web2py.com/book/default/chapter/09'
p4453
tp4454
a(g4002
(S's\x08\x00\x00\x00Services'
tRp4455
I00
S'http://www.web2py.com/book/default/chapter/10'
p4456
tp4457
a(g4002
(S's\x0c\x00\x00\x00Ajax Recipes'
tRp4458
I00
S'http://www.web2py.com/book/default/chapter/11'
p4459
tp4460
a(g4002
(S's\x16\x00\x00\x00Components and Plugins'
tRp4461
I00
S'http://www.web2py.com/book/default/chapter/12'
p4462
tp4463
a(g4002
(S's\x12\x00\x00\x00Deployment Recipes'
tRp4464
I00
S'http://www.web2py.com/book/default/chapter/13'
p4465
tp4466
a(g4002
(S's\r\x00\x00\x00Other Recipes'
tRp4467
I00
S'http://www.web2py.com/book/default/chapter/14'
p4468
tp4469
a(g4002
(S's\r\x00\x00\x00Buy this book'
tRp4470
I00
S'http://stores.lulu.com/web2py'
p4471
tp4472
aasbasbasbasbasbasbasbag68
(g84
g70
NtRp4473
(dp4474
g73
(dp4475
sg82
g4115
sg75
(lp4476
g68
(g89
g70
NtRp4477
(dp4478
g73
(dp4479
sg82
g4473
sg75
(lp4480
g68
(g69
g70
NtRp4481
(dp4482
g73
(dp4483
g81
I2
ssg82
g4477
sg75
(lp4484
g68
(g77
g70
NtRp4485
(dp4486
g73
(dp4487
g81
I1
ssg82
Nsg75
(lp4488
g68
(g84
g70
NtRp4489
(dp4490
g73
(dp4491
sg82
g4485
sg75
(lp4492
g68
(g89
g70
NtRp4493
(dp4494
g73
(dp4495
sg82
g4489
sg75
(lp4496
g68
(g69
g70
NtRp4497
(dp4498
g73
(dp4499
g81
I1
ssg82
g4493
sg75
(lp4500
g4002
(S's\t\x00\x00\x00Community'
tRp4501
asbasbasbag68
(g84
g70
NtRp4502
(dp4503
g73
(dp4504
sg82
g4485
sg75
(lp4505
g68
(g89
g70
NtRp4506
(dp4507
g73
(dp4508
sg82
g4502
sg75
(lp4509
g68
(g69
g70
NtRp4510
(dp4511
g73
(dp4512
g81
I1
ssg82
g4506
sg75
(lp4513
I00
asbasbasbag68
(g84
g70
NtRp4514
(dp4515
g73
(dp4516
sg82
g4485
sg75
(lp4517
g68
(g89
g70
NtRp4518
(dp4519
g73
(dp4520
sg82
g4514
sg75
(lp4521
g68
(g69
g70
NtRp4522
(dp4523
g73
(dp4524
g81
I1
ssg82
g4518
sg75
(lp4525
Nasbasbasbag68
(g84
g70
NtRp4526
(dp4527
g73
(dp4528
sg82
g4485
sg75
(lp4529
g68
(g89
g70
NtRp4530
(dp4531
g73
(dp4532
sg82
g4526
sg75
(lp4533
g68
(g69
g70
NtRp4534
(dp4535
g73
(dp4536
g81
I1
ssg82
g4530
sg75
(lp4537
(lp4538
(g4002
(S's\x06\x00\x00\x00Groups'
tRp4539
I00
S'http://www.web2py.com/examples/default/usergroups'
p4540
tp4541
a(g4002
(S's\x07\x00\x00\x00Twitter'
tRp4542
I00
S'http://twitter.com/web2py'
p4543
tp4544
a(g4002
(S's\t\x00\x00\x00Live Chat'
tRp4545
I00
S'http://webchat.freenode.net/?channels=web2py'
p4546
tp4547
aasbasbasbasbasbasbasbag68
(g84
g70
NtRp4548
(dp4549
g73
(dp4550
sg82
g4115
sg75
(lp4551
g68
(g89
g70
NtRp4552
(dp4553
g73
(dp4554
sg82
g4548
sg75
(lp4555
g68
(g69
g70
NtRp4556
(dp4557
g73
(dp4558
g81
I2
ssg82
g4552
sg75
(lp4559
g68
(g77
g70
NtRp4560
(dp4561
g73
(dp4562
g81
I1
ssg82
Nsg75
(lp4563
g68
(g84
g70
NtRp4564
(dp4565
g73
(dp4566
sg82
g4560
sg75
(lp4567
g68
(g89
g70
NtRp4568
(dp4569
g73
(dp4570
sg82
g4564
sg75
(lp4571
g68
(g69
g70
NtRp4572
(dp4573
g73
(dp4574
g81
I1
ssg82
g4568
sg75
(lp4575
g4002
(S's\x07\x00\x00\x00Plugins'
tRp4576
asbasbasbag68
(g84
g70
NtRp4577
(dp4578
g73
(dp4579
sg82
g4560
sg75
(lp4580
g68
(g89
g70
NtRp4581
(dp4582
g73
(dp4583
sg82
g4577
sg75
(lp4584
g68
(g69
g70
NtRp4585
(dp4586
g73
(dp4587
g81
I1
ssg82
g4581
sg75
(lp4588
I00
asbasbasbag68
(g84
g70
NtRp4589
(dp4590
g73
(dp4591
sg82
g4560
sg75
(lp4592
g68
(g89
g70
NtRp4593
(dp4594
g73
(dp4595
sg82
g4589
sg75
(lp4596
g68
(g69
g70
NtRp4597
(dp4598
g73
(dp4599
g81
I1
ssg82
g4593
sg75
(lp4600
Nasbasbasbag68
(g84
g70
NtRp4601
(dp4602
g73
(dp4603
sg82
g4560
sg75
(lp4604
g68
(g89
g70
NtRp4605
(dp4606
g73
(dp4607
sg82
g4601
sg75
(lp4608
g68
(g69
g70
NtRp4609
(dp4610
g73
(dp4611
g81
I1
ssg82
g4605
sg75
(lp4612
(lp4613
(S'plugin_wiki'
p4614
I00
S'http://web2py.com/examples/default/download'
p4615
tp4616
a(g4002
(S's\r\x00\x00\x00Other Plugins'
tRp4617
I00
g4347
tp4618
a(g4002
(S's\x0e\x00\x00\x00Layout Plugins'
tRp4619
I00
g4350
tp4620
aasbasbasbasbasbasbasbasbasbasbasbasbasbasbasbasbasbasbasbag68
(g84
g70
NtRp4621
(dp4622
g73
(dp4623
sg82
g3468
sg75
(lp4624
g68
(g89
g70
NtRp4625
(dp4626
g73
(dp4627
g93
g94
ssg82
g4621
sg75
(lp4628
S'meta'
p4629
asbag68
(g89
g70
NtRp4630
(dp4631
g73
(dp4632
g100
g101
ssg82
g4621
sg75
(lp4633
S':'
asbag68
(g89
g70
NtRp4634
(dp4635
g73
(dp4636
sg82
g4621
sg75
(lp4637
g68
(g69
g70
NtRp4638
(dp4639
g73
(dp4640
g81
I5
ssg82
g4634
sg75
(lp4641
g68
(g77
g70
NtRp4642
(dp4643
g73
(dp4644
g81
I4
ssg82
Nsg75
(lp4645
g68
(g84
g70
NtRp4646
(dp4647
g73
(dp4648
sg82
g4642
sg75
(lp4649
g68
(g89
g70
NtRp4650
(dp4651
g73
(dp4652
g93
g94
ssg82
g4646
sg75
(lp4653
S'author'
p4654
asbag68
(g89
g70
NtRp4655
(dp4656
g73
(dp4657
g100
g101
ssg82
g4646
sg75
(lp4658
S':'
asbag68
(g89
g70
NtRp4659
(dp4660
g73
(dp4661
sg82
g4646
sg75
(lp4662
g68
(g69
g70
NtRp4663
(dp4664
g73
(dp4665
g81
I4
ssg82
g4659
sg75
(lp4666
S'Your Name <you@example.com>'
p4667
asbasbasbag68
(g84
g70
NtRp4668
(dp4669
g73
(dp4670
sg82
g4642
sg75
(lp4671
g68
(g89
g70
NtRp4672
(dp4673
g73
(dp4674
g93
g94
ssg82
g4668
sg75
(lp4675
S'description'
p4676
asbag68
(g89
g70
NtRp4677
(dp4678
g73
(dp4679
g100
g101
ssg82
g4668
sg75
(lp4680
S':'
asbag68
(g89
g70
NtRp4681
(dp4682
g73
(dp4683
sg82
g4668
sg75
(lp4684
g68
(g69
g70
NtRp4685
(dp4686
g73
(dp4687
g81
I4
ssg82
g4681
sg75
(lp4688
S'a cool new app'
p4689
asbasbasbag68
(g84
g70
NtRp4690
(dp4691
g73
(dp4692
sg82
g4642
sg75
(lp4693
g68
(g89
g70
NtRp4694
(dp4695
g73
(dp4696
g93
g94
ssg82
g4690
sg75
(lp4697
S'generator'
p4698
asbag68
(g89
g70
NtRp4699
(dp4700
g73
(dp4701
g100
g101
ssg82
g4690
sg75
(lp4702
S':'
asbag68
(g89
g70
NtRp4703
(dp4704
g73
(dp4705
sg82
g4690
sg75
(lp4706
g68
(g69
g70
NtRp4707
(dp4708
g73
(dp4709
g81
I4
ssg82
g4703
sg75
(lp4710
S'Web2py Web Framework'
p4711
asbasbasbag68
(g84
g70
NtRp4712
(dp4713
g73
(dp4714
sg82
g4642
sg75
(lp4715
g68
(g89
g70
NtRp4716
(dp4717
g73
(dp4718
g93
g94
ssg82
g4712
sg75
(lp4719
S'keywords'
p4720
asbag68
(g89
g70
NtRp4721
(dp4722
g73
(dp4723
g100
g101
ssg82
g4712
sg75
(lp4724
S':'
asbag68
(g89
g70
NtRp4725
(dp4726
g73
(dp4727
sg82
g4712
sg75
(lp4728
g68
(g69
g70
NtRp4729
(dp4730
g73
(dp4731
g81
I4
ssg82
g4725
sg75
(lp4732
S'web2py, python, framework'
p4733
asbasbasbasbasbasbasbag68
(g84
g70
NtRp4734
(dp4735
g73
(dp4736
sg82
g3468
sg75
(lp4737
g68
(g89
g70
NtRp4738
(dp4739
g73
(dp4740
g93
g94
ssg82
g4734
sg75
(lp4741
S'models_to_run'
p4742
asbag68
(g89
g70
NtRp4743
(dp4744
g73
(dp4745
g100
g101
ssg82
g4734
sg75
(lp4746
S':'
asbag68
(g89
g70
NtRp4747
(dp4748
g73
(dp4749
sg82
g4734
sg75
(lp4750
g68
(g69
g70
NtRp4751
(dp4752
g73
(dp4753
g81
I5
ssg82
g4747
sg75
(lp4754
g68
(g77
g70
NtRp4755
(dp4756
g73
(dp4757
g81
I4
ssg82
Nsg75
(lp4758
g68
(g84
g70
NtRp4759
(dp4760
g73
(dp4761
sg82
g4755
sg75
(lp4762
g68
(g89
g70
NtRp4763
(dp4764
g73
(dp4765
sg82
g4759
sg75
(lp4766
g68
(g69
g70
NtRp4767
(dp4768
g73
(dp4769
g81
I4
ssg82
g4763
sg75
(lp4770
S'^\\w+\\.py$'
p4771
asbasbasbag68
(g84
g70
NtRp4772
(dp4773
g73
(dp4774
sg82
g4755
sg75
(lp4775
g68
(g89
g70
NtRp4776
(dp4777
g73
(dp4778
sg82
g4772
sg75
(lp4779
g68
(g69
g70
NtRp4780
(dp4781
g73
(dp4782
g81
I4
ssg82
g4776
sg75
(lp4783
S'^default/\\w+\\.py$'
p4784
asbasbasbag68
(g84
g70
NtRp4785
(dp4786
g73
(dp4787
sg82
g4755
sg75
(lp4788
g68
(g89
g70
NtRp4789
(dp4790
g73
(dp4791
sg82
g4785
sg75
(lp4792
g68
(g69
g70
NtRp4793
(dp4794
g73
(dp4795
g81
I4
ssg82
g4789
sg75
(lp4796
S'^default/update_len/\\w+\\.py$'
p4797
asbasbasbasbasbasbasbag68
(g84
g70
NtRp4798
(dp4799
g73
(dp4800
sg82
g3468
sg75
(lp4801
g68
(g89
g70
NtRp4802
(dp4803
g73
(dp4804
g93
g94
ssg82
g4798
sg75
(lp4805
S'postprocessing'
p4806
asbag68
(g89
g70
NtRp4807
(dp4808
g73
(dp4809
g100
g101
ssg82
g4798
sg75
(lp4810
S':'
asbag68
(g89
g70
NtRp4811
(dp4812
g73
(dp4813
sg82
g4798
sg75
(lp4814
g68
(g69
g70
NtRp4815
(dp4816
g73
(dp4817
g81
I5
ssg82
g4811
sg75
(lp4818
g68
(g77
g70
NtRp4819
(dp4820
g73
(dp4821
g81
I4
ssg82
Nsg75
(lp4822
sbasbasbasbag68
(g84
g70
NtRp4823
(dp4824
g73
(dp4825
sg82
g3468
sg75
(lp4826
g68
(g89
g70
NtRp4827
(dp4828
g73
(dp4829
g93
g94
ssg82
g4823
sg75
(lp4830
S'session_cookie_expires'
p4831
asbag68
(g89
g70
NtRp4832
(dp4833
g73
(dp4834
g100
g101
ssg82
g4823
sg75
(lp4835
S':'
asbag68
(g89
g70
NtRp4836
(dp4837
g73
(dp4838
sg82
g4823
sg75
(lp4839
g68
(g69
g70
NtRp4840
(dp4841
g73
(dp4842
g81
I5
ssg82
g4836
sg75
(lp4843
S'None'
p4844
asbasbasbag68
(g84
g70
NtRp4845
(dp4846
g73
(dp4847
sg82
g3468
sg75
(lp4848
g68
(g89
g70
NtRp4849
(dp4850
g73
(dp4851
g93
g94
ssg82
g4845
sg75
(lp4852
S'session_data_name'
p4853
asbag68
(g89
g70
NtRp4854
(dp4855
g73
(dp4856
g100
g101
ssg82
g4845
sg75
(lp4857
S':'
asbag68
(g89
g70
NtRp4858
(dp4859
g73
(dp4860
sg82
g4845
sg75
(lp4861
g68
(g69
g70
NtRp4862
(dp4863
g73
(dp4864
g81
I5
ssg82
g4858
sg75
(lp4865
S'session_data_songs'
p4866
asbasbasbag68
(g84
g70
NtRp4867
(dp4868
g73
(dp4869
sg82
g3468
sg75
(lp4870
g68
(g89
g70
NtRp4871
(dp4872
g73
(dp4873
g93
g94
ssg82
g4867
sg75
(lp4874
S'session_file'
p4875
asbag68
(g89
g70
NtRp4876
(dp4877
g73
(dp4878
g100
g101
ssg82
g4867
sg75
(lp4879
S':'
asbag68
(g89
g70
NtRp4880
(dp4881
g73
(dp4882
sg82
g4867
sg75
(lp4883
g68
(g69
g70
NtRp4884
(dp4885
g73
(dp4886
g81
I5
ssg82
g4880
sg75
(lp4887
S"<open file '/home/gaurav/classwork/WEB_PROGRAMMING/web2py/applications/SONGS/sessions/127.0.0.1-90798589-bfb5-4a98-8844-59e16717a241', mode 'rb+' at 0xae248e90>"
p4888
asbasbasbag68
(g84
g70
NtRp4889
(dp4890
g73
(dp4891
sg82
g3468
sg75
(lp4892
g68
(g89
g70
NtRp4893
(dp4894
g73
(dp4895
g93
g94
ssg82
g4889
sg75
(lp4896
S'session_filename'
p4897
asbag68
(g89
g70
NtRp4898
(dp4899
g73
(dp4900
g100
g101
ssg82
g4889
sg75
(lp4901
S':'
asbag68
(g89
g70
NtRp4902
(dp4903
g73
(dp4904
sg82
g4889
sg75
(lp4905
g68
(g69
g70
NtRp4906
(dp4907
g73
(dp4908
g81
I5
ssg82
g4902
sg75
(lp4909
S'/home/gaurav/classwork/WEB_PROGRAMMING/web2py/applications/SONGS/sessions/127.0.0.1-90798589-bfb5-4a98-8844-59e16717a241'
p4910
asbasbasbag68
(g84
g70
NtRp4911
(dp4912
g73
(dp4913
sg82
g3468
sg75
(lp4914
g68
(g89
g70
NtRp4915
(dp4916
g73
(dp4917
g93
g94
ssg82
g4911
sg75
(lp4918
S'session_id'
p4919
asbag68
(g89
g70
NtRp4920
(dp4921
g73
(dp4922
g100
g101
ssg82
g4911
sg75
(lp4923
S':'
asbag68
(g89
g70
NtRp4924
(dp4925
g73
(dp4926
sg82
g4911
sg75
(lp4927
g68
(g69
g70
NtRp4928
(dp4929
g73
(dp4930
g81
I5
ssg82
g4924
sg75
(lp4931
g672
asbasbasbag68
(g84
g70
NtRp4932
(dp4933
g73
(dp4934
sg82
g3468
sg75
(lp4935
g68
(g89
g70
NtRp4936
(dp4937
g73
(dp4938
g93
g94
ssg82
g4932
sg75
(lp4939
S'session_id_name'
p4940
asbag68
(g89
g70
NtRp4941
(dp4942
g73
(dp4943
g100
g101
ssg82
g4932
sg75
(lp4944
S':'
asbag68
(g89
g70
NtRp4945
(dp4946
g73
(dp4947
sg82
g4932
sg75
(lp4948
g68
(g69
g70
NtRp4949
(dp4950
g73
(dp4951
g81
I5
ssg82
g4945
sg75
(lp4952
g3525
asbasbasbag68
(g84
g70
NtRp4953
(dp4954
g73
(dp4955
sg82
g3468
sg75
(lp4956
g68
(g89
g70
NtRp4957
(dp4958
g73
(dp4959
g93
g94
ssg82
g4953
sg75
(lp4960
S'session_locked'
p4961
asbag68
(g89
g70
NtRp4962
(dp4963
g73
(dp4964
g100
g101
ssg82
g4953
sg75
(lp4965
S':'
asbag68
(g89
g70
NtRp4966
(dp4967
g73
(dp4968
sg82
g4953
sg75
(lp4969
g68
(g69
g70
NtRp4970
(dp4971
g73
(dp4972
g81
I5
ssg82
g4966
sg75
(lp4973
g1944
asbasbasbag68
(g84
g70
NtRp4974
(dp4975
g73
(dp4976
sg82
g3468
sg75
(lp4977
g68
(g89
g70
NtRp4978
(dp4979
g73
(dp4980
g93
g94
ssg82
g4974
sg75
(lp4981
S'session_new'
p4982
asbag68
(g89
g70
NtRp4983
(dp4984
g73
(dp4985
g100
g101
ssg82
g4974
sg75
(lp4986
S':'
asbag68
(g89
g70
NtRp4987
(dp4988
g73
(dp4989
sg82
g4974
sg75
(lp4990
g68
(g69
g70
NtRp4991
(dp4992
g73
(dp4993
g81
I5
ssg82
g4987
sg75
(lp4994
g111
asbasbasbag68
(g84
g70
NtRp4995
(dp4996
g73
(dp4997
sg82
g3468
sg75
(lp4998
g68
(g89
g70
NtRp4999
(dp5000
g73
(dp5001
g93
g94
ssg82
g4995
sg75
(lp5002
S'session_storage_type'
p5003
asbag68
(g89
g70
NtRp5004
(dp5005
g73
(dp5006
g100
g101
ssg82
g4995
sg75
(lp5007
S':'
asbag68
(g89
g70
NtRp5008
(dp5009
g73
(dp5010
sg82
g4995
sg75
(lp5011
g68
(g69
g70
NtRp5012
(dp5013
g73
(dp5014
g81
I5
ssg82
g5008
sg75
(lp5015
g3353
asbasbasbag68
(g84
g70
NtRp5016
(dp5017
g73
(dp5018
sg82
g3468
sg75
(lp5019
g68
(g89
g70
NtRp5020
(dp5021
g73
(dp5022
g93
g94
ssg82
g5016
sg75
(lp5023
S'status'
p5024
asbag68
(g89
g70
NtRp5025
(dp5026
g73
(dp5027
g100
g101
ssg82
g5016
sg75
(lp5028
S':'
asbag68
(g89
g70
NtRp5029
(dp5030
g73
(dp5031
sg82
g5016
sg75
(lp5032
g68
(g69
g70
NtRp5033
(dp5034
g73
(dp5035
g81
I5
ssg82
g5029
sg75
(lp5036
S'200'
p5037
asbasbasbag68
(g84
g70
NtRp5038
(dp5039
g73
(dp5040
sg82
g3468
sg75
(lp5041
g68
(g89
g70
NtRp5042
(dp5043
g73
(dp5044
g93
g94
ssg82
g5038
sg75
(lp5045
S'subtitle'
p5046
asbag68
(g89
g70
NtRp5047
(dp5048
g73
(dp5049
g100
g101
ssg82
g5038
sg75
(lp5050
S':'
asbag68
(g89
g70
NtRp5051
(dp5052
g73
(dp5053
sg82
g5038
sg75
(lp5054
g68
(g69
g70
NtRp5055
(dp5056
g73
(dp5057
g81
I5
ssg82
g5051
sg75
(lp5058
g4002
(S's\r\x00\x00\x00customize me!'
tRp5059
asbasbasbag68
(g84
g70
NtRp5060
(dp5061
g73
(dp5062
sg82
g3468
sg75
(lp5063
g68
(g89
g70
NtRp5064
(dp5065
g73
(dp5066
g93
g94
ssg82
g5060
sg75
(lp5067
S'title'
p5068
asbag68
(g89
g70
NtRp5069
(dp5070
g73
(dp5071
g100
g101
ssg82
g5060
sg75
(lp5072
S':'
asbag68
(g89
g70
NtRp5073
(dp5074
g73
(dp5075
sg82
g5060
sg75
(lp5076
g68
(g69
g70
NtRp5077
(dp5078
g73
(dp5079
g81
I5
ssg82
g5073
sg75
(lp5080
S'Songs'
p5081
asbasbasbag68
(g84
g70
NtRp5082
(dp5083
g73
(dp5084
sg82
g3468
sg75
(lp5085
g68
(g89
g70
NtRp5086
(dp5087
g73
(dp5088
g93
g94
ssg82
g5082
sg75
(lp5089
S'view'
p5090
asbag68
(g89
g70
NtRp5091
(dp5092
g73
(dp5093
g100
g101
ssg82
g5082
sg75
(lp5094
S':'
asbag68
(g89
g70
NtRp5095
(dp5096
g73
(dp5097
sg82
g5082
sg75
(lp5098
g68
(g69
g70
NtRp5099
(dp5100
g73
(dp5101
g81
I5
ssg82
g5095
sg75
(lp5102
S'default/update_len.html'
p5103
asbasbasbasbasbsS'locals'
p5104
(dp5105
g4
S"'/home/gaurav/classwork/WEB_PROGRAMMING/web2py/applications/SONGS/controllers/default.py'"
p5106
sg6
S"'# -*- coding: utf-8 -*-\\n# this file is released ...):\\n\\n\\nresponse._vars=response._caller(update_len)\\n'"
p5107
sssS'traceback'
p5108
S'Traceback (most recent call last):\n  File "/home/gaurav/classwork/WEB_PROGRAMMING/web2py/gluon/restricted.py", line 211, in restricted\n    ccode = compile2(code, layer)\n  File "/home/gaurav/classwork/WEB_PROGRAMMING/web2py/gluon/restricted.py", line 194, in compile2\n    return compile(code.rstrip().replace(\'\\r\\n\', \'\\n\') + \'\\n\', layer, \'exec\')\n  File "/home/gaurav/classwork/WEB_PROGRAMMING/web2py/applications/SONGS/controllers/default.py", line 92\n    response._vars=response._caller(update_len)\n           ^\nIndentationError: expected an indented block\n'
p5109
s.