(dp1
S'output'
p2
S'<type \'exceptions.SyntaxError\'> invalid table/column name "names" is a "ALL" reserved SQL keyword'
p3
sS'layer'
p4
S'/home/gaurav/classwork/WEB_PROGRAMMING/web2py/applications/MUSIC/models/db.py'
p5
sS'code'
p6
S"# -*- coding: utf-8 -*-\n\n#########################################################################\n## This scaffolding model makes your app work on Google App Engine too\n## File is released under public domain and you can use without limitations\n#########################################################################\n\n## if SSL/HTTPS is properly configured and you want all HTTP requests to\n## be redirected to HTTPS, uncomment the line below:\n# request.requires_https()\n\nif not request.env.web2py_runtime_gae:\n    ## if NOT running on Google App Engine use SQLite or other DB\n    db = DAL('sqlite://storage.sqlite',pool_size=1,check_reserved=['all'])\nelse:\n    ## connect to Google BigTable (optional 'google:datastore://namespace')\n    db = DAL('google:datastore')\n    ## store sessions and tickets there\n    session.connect(request, response, db=db)\n    ## or store session in Memcache, Redis, etc.\n    ## from gluon.contrib.memdb import MEMDB\n    ## from google.appengine.api.memcache import Client\n    ## session.connect(request, response, db = MEMDB(Client()))\n\n## by default give a view/generic.extension to all actions from localhost\n## none otherwise. a pattern can be 'controller/function.extension'\nresponse.generic_patterns = ['*'] if request.is_local else []\n## (optional) optimize handling of static files\n# response.optimize_css = 'concat,minify,inline'\n# response.optimize_js = 'concat,minify,inline'\n\n#########################################################################\n## Here is sample code if you need for\n## - email capabilities\n## - authentication (registration, login, logout, ... )\n## - authorization (role based authorization)\n## - services (xml, csv, json, xmlrpc, jsonrpc, amf, rss)\n## - old style crud actions\n## (more options discussed in gluon/tools.py)\n#########################################################################\n\nfrom gluon.tools import Auth, Crud, Service, PluginManager, prettydate\nauth = Auth(db)\ncrud, service, plugins = Crud(db), Service(), PluginManager()\n\n## create all tables needed by auth if not custom tables\nauth.define_tables(username=False, signature=False)\n\n## configure email\nmail = auth.settings.mailer\nmail.settings.server = 'logging' or 'smtp.gmail.com:587'\nmail.settings.sender = 'you@gmail.com'\nmail.settings.login = 'username:password'\n\n## configure auth policy\nauth.settings.registration_requires_verification = False\nauth.settings.registration_requires_approval = False\nauth.settings.reset_password_requires_verification = True\n\n## if you need to use OpenID, Facebook, MySpace, Twitter, Linkedin, etc.\n## register with janrain.com, write your domain:api_key in private/janrain.key\nfrom gluon.contrib.login_methods.rpx_account import use_janrain\nuse_janrain(auth, filename='private/janrain.key')\n\n#########################################################################\n## Define your tables below (or better in another model file) for example\n##\n## >>> db.define_table('mytable',Field('myfield','string'))\n##\n## Fields can be 'string','text','password','integer','double','boolean'\n##       'date','time','datetime','blob','upload', 'reference TABLENAME'\n## There is an implicit 'id integer autoincrement' field\n## Consult manual for more options, validators, etc.\n##\n## More API examples for controllers:\n##\n## >>> db.mytable.insert(myfield='value')\n## >>> rows=db(db.mytable.myfield=='value').select(db.mytable.ALL)\n## >>> for row in rows: print row.id, row.myfield\n#########################################################################\n\n## after defining tables, uncomment below to enable auditing\n# auth.enable_record_versioning(db)\n\n\n\n\n\ndb.define_table('artist',\n\t  Field('actors','string'),\n\t  Field('directors','string'),\n\t  Field('singers','string'))\n\ndb.define_table('movie',\n\t  Field('name','string',required=True),\n\t  Field('hero',db.artist,required=True,requires=IS_IN_DB(db,'artist.id','artist.actors')),\n\t  Field('director','string',required=True),\n\t  Field('release_date','date',required=True))\n\ndb.define_table('song',\n\t  Field('names','string',required=True),\n\t  Field('lengths','string',required=True),\n\t  Field('singers','string',required=True),\n\t  Field('composers','string',required=True),\n\t  Field('movies','string',required=True))\n\n"
p7
sS'snapshot'
p8
(dp9
S'exception'
p10
(dp11
S'__getslice__'
p12
S"<method-wrapper '__getslice__' of exceptions.SyntaxError object>"
p13
sS'text'
p14
S'None'
p15
sS'__str__'
p16
S"<method-wrapper '__str__' of exceptions.SyntaxError object>"
p17
sS'__reduce__'
p18
S'<built-in method __reduce__ of exceptions.SyntaxError object>'
p19
sS'__dict__'
p20
S'{}'
p21
sS'__sizeof__'
p22
S'<built-in method __sizeof__ of exceptions.SyntaxError object>'
p23
sS'__init__'
p24
S"<method-wrapper '__init__' of exceptions.SyntaxError object>"
p25
sS'__setattr__'
p26
S"<method-wrapper '__setattr__' of exceptions.SyntaxError object>"
p27
sS'__reduce_ex__'
p28
S'<built-in method __reduce_ex__ of exceptions.SyntaxError object>'
p29
sS'__new__'
p30
S'<built-in method __new__ of type object>'
p31
sS'__format__'
p32
S'<built-in method __format__ of exceptions.SyntaxError object>'
p33
sS'__class__'
p34
S"<type 'exceptions.SyntaxError'>"
p35
sS'filename'
p36
S'None'
p37
sS'lineno'
p38
S'None'
p39
sS'msg'
p40
S'\'invalid table/column name "names" is a "ALL" reserved SQL keyword\''
p41
sS'__doc__'
p42
S"'Invalid syntax.'"
p43
sS'__getitem__'
p44
S"<method-wrapper '__getitem__' of exceptions.SyntaxError object>"
p45
sS'__setstate__'
p46
S'<built-in method __setstate__ of exceptions.SyntaxError object>'
p47
sS'__getattribute__'
p48
S"<method-wrapper '__getattribute__' of exceptions.SyntaxError object>"
p49
sS'print_file_and_line'
p50
S'None'
p51
sS'args'
p52
S'(\'invalid table/column name "names" is a "ALL" reserved SQL keyword\',)'
p53
sS'__subclasshook__'
p54
S'<built-in method __subclasshook__ of type object>'
p55
sS'offset'
p56
S'None'
p57
sS'__unicode__'
p58
S'<built-in method __unicode__ of exceptions.SyntaxError object>'
p59
sS'__delattr__'
p60
S"<method-wrapper '__delattr__' of exceptions.SyntaxError object>"
p61
sS'__repr__'
p62
S"<method-wrapper '__repr__' of exceptions.SyntaxError object>"
p63
sS'__hash__'
p64
S"<method-wrapper '__hash__' of exceptions.SyntaxError object>"
p65
ssS'evalue'
p66
S'invalid table/column name "names" is a "ALL" reserved SQL keyword'
p67
sS'request'
p68
ccopy_reg
_reconstructor
p69
(cgluon.html
BEAUTIFY
p70
c__builtin__
object
p71
NtRp72
(dp73
S'attributes'
p74
(dp75
sS'components'
p76
(lp77
g69
(cgluon.html
TABLE
p78
g71
NtRp79
(dp80
g74
(dp81
S'level'
p82
I5
ssS'parent'
p83
Nsg76
(lp84
g69
(cgluon.html
TR
p85
g71
NtRp86
(dp87
g74
(dp88
sg83
g79
sg76
(lp89
g69
(cgluon.html
TD
p90
g71
NtRp91
(dp92
g74
(dp93
S'_style'
p94
S'font-weight:bold;vertical-align:top'
p95
ssg83
g86
sg76
(lp96
S'ajax'
p97
asbag69
(g90
g71
NtRp98
(dp99
g74
(dp100
S'_valign'
p101
S'top'
p102
ssg83
g86
sg76
(lp103
S':'
asbag69
(g90
g71
NtRp104
(dp105
g74
(dp106
sg83
g86
sg76
(lp107
g69
(g70
g71
NtRp108
(dp109
g74
(dp110
g82
I5
ssg83
g104
sg76
(lp111
S'False'
p112
asbasbasbag69
(g85
g71
NtRp113
(dp114
g74
(dp115
sg83
g79
sg76
(lp116
g69
(g90
g71
NtRp117
(dp118
g74
(dp119
g94
g95
ssg83
g113
sg76
(lp120
S'application'
p121
asbag69
(g90
g71
NtRp122
(dp123
g74
(dp124
g101
g102
ssg83
g113
sg76
(lp125
S':'
asbag69
(g90
g71
NtRp126
(dp127
g74
(dp128
sg83
g113
sg76
(lp129
g69
(g70
g71
NtRp130
(dp131
g74
(dp132
g82
I5
ssg83
g126
sg76
(lp133
S'MUSIC'
p134
asbasbasbag69
(g85
g71
NtRp135
(dp136
g74
(dp137
sg83
g79
sg76
(lp138
g69
(g90
g71
NtRp139
(dp140
g74
(dp141
g94
g95
ssg83
g135
sg76
(lp142
g52
asbag69
(g90
g71
NtRp143
(dp144
g74
(dp145
g101
g102
ssg83
g135
sg76
(lp146
S':'
asbag69
(g90
g71
NtRp147
(dp148
g74
(dp149
sg83
g135
sg76
(lp150
g69
(g70
g71
NtRp151
(dp152
g74
(dp153
g82
I5
ssg83
g147
sg76
(lp154
g69
(g78
g71
NtRp155
(dp156
g74
(dp157
g82
I4
ssg83
Nsg76
(lp158
g69
(g85
g71
NtRp159
(dp160
g74
(dp161
sg83
g155
sg76
(lp162
g69
(g90
g71
NtRp163
(dp164
g74
(dp165
sg83
g159
sg76
(lp166
g69
(g70
g71
NtRp167
(dp168
g74
(dp169
g82
I4
ssg83
g163
sg76
(lp170
S'db'
p171
asbasbasbag69
(g85
g71
NtRp172
(dp173
g74
(dp174
sg83
g155
sg76
(lp175
g69
(g90
g71
NtRp176
(dp177
g74
(dp178
sg83
g172
sg76
(lp179
g69
(g70
g71
NtRp180
(dp181
g74
(dp182
g82
I4
ssg83
g176
sg76
(lp183
S'artist'
p184
asbasbasbasbasbasbasbag69
(g85
g71
NtRp185
(dp186
g74
(dp187
sg83
g79
sg76
(lp188
g69
(g90
g71
NtRp189
(dp190
g74
(dp191
g94
g95
ssg83
g185
sg76
(lp192
S'body'
p193
asbag69
(g90
g71
NtRp194
(dp195
g74
(dp196
g101
g102
ssg83
g185
sg76
(lp197
S':'
asbag69
(g90
g71
NtRp198
(dp199
g74
(dp200
sg83
g185
sg76
(lp201
g69
(g70
g71
NtRp202
(dp203
g74
(dp204
g82
I5
ssg83
g198
sg76
(lp205
S'<cStringIO.StringO object at 0x8e3e700>'
p206
asbasbasbag69
(g85
g71
NtRp207
(dp208
g74
(dp209
sg83
g79
sg76
(lp210
g69
(g90
g71
NtRp211
(dp212
g74
(dp213
g94
g95
ssg83
g207
sg76
(lp214
S'cid'
p215
asbag69
(g90
g71
NtRp216
(dp217
g74
(dp218
g101
g102
ssg83
g207
sg76
(lp219
S':'
asbag69
(g90
g71
NtRp220
(dp221
g74
(dp222
sg83
g207
sg76
(lp223
g69
(g70
g71
NtRp224
(dp225
g74
(dp226
g82
I5
ssg83
g220
sg76
(lp227
S'None'
p228
asbasbasbag69
(g85
g71
NtRp229
(dp230
g74
(dp231
sg83
g79
sg76
(lp232
g69
(g90
g71
NtRp233
(dp234
g74
(dp235
g94
g95
ssg83
g229
sg76
(lp236
S'client'
p237
asbag69
(g90
g71
NtRp238
(dp239
g74
(dp240
g101
g102
ssg83
g229
sg76
(lp241
S':'
asbag69
(g90
g71
NtRp242
(dp243
g74
(dp244
sg83
g229
sg76
(lp245
g69
(g70
g71
NtRp246
(dp247
g74
(dp248
g82
I5
ssg83
g242
sg76
(lp249
S'127.0.0.1'
p250
asbasbasbag69
(g85
g71
NtRp251
(dp252
g74
(dp253
sg83
g79
sg76
(lp254
g69
(g90
g71
NtRp255
(dp256
g74
(dp257
g94
g95
ssg83
g251
sg76
(lp258
S'controller'
p259
asbag69
(g90
g71
NtRp260
(dp261
g74
(dp262
g101
g102
ssg83
g251
sg76
(lp263
S':'
asbag69
(g90
g71
NtRp264
(dp265
g74
(dp266
sg83
g251
sg76
(lp267
g69
(g70
g71
NtRp268
(dp269
g74
(dp270
g82
I5
ssg83
g264
sg76
(lp271
S'appadmin'
p272
asbasbasbag69
(g85
g71
NtRp273
(dp274
g74
(dp275
sg83
g79
sg76
(lp276
g69
(g90
g71
NtRp277
(dp278
g74
(dp279
g94
g95
ssg83
g273
sg76
(lp280
S'cookies'
p281
asbag69
(g90
g71
NtRp282
(dp283
g74
(dp284
g101
g102
ssg83
g273
sg76
(lp285
S':'
asbag69
(g90
g71
NtRp286
(dp287
g74
(dp288
sg83
g273
sg76
(lp289
g69
(g70
g71
NtRp290
(dp291
g74
(dp292
g82
I5
ssg83
g286
sg76
(lp293
g69
(g78
g71
NtRp294
(dp295
g74
(dp296
g82
I4
ssg83
Nsg76
(lp297
g69
(g85
g71
NtRp298
(dp299
g74
(dp300
sg83
g294
sg76
(lp301
g69
(g90
g71
NtRp302
(dp303
g74
(dp304
g94
g95
ssg83
g298
sg76
(lp305
S'session_id_admin'
p306
asbag69
(g90
g71
NtRp307
(dp308
g74
(dp309
g101
g102
ssg83
g298
sg76
(lp310
S':'
asbag69
(g90
g71
NtRp311
(dp312
g74
(dp313
sg83
g298
sg76
(lp314
g69
(g70
g71
NtRp315
(dp316
g74
(dp317
g82
I4
ssg83
g311
sg76
(lp318
S'127.0.0.1-af06f55e-89f0-4ae2-93fd-0ea60909ff15'
p319
ag69
(g78
g71
NtRp320
(dp321
g74
(dp322
g82
I3
ssg83
Nsg76
(lp323
g69
(g85
g71
NtRp324
(dp325
g74
(dp326
sg83
g320
sg76
(lp327
g69
(g90
g71
NtRp328
(dp329
g74
(dp330
g94
g95
ssg83
g324
sg76
(lp331
S'comment'
p332
asbag69
(g90
g71
NtRp333
(dp334
g74
(dp335
g101
g102
ssg83
g324
sg76
(lp336
S':'
asbag69
(g90
g71
NtRp337
(dp338
g74
(dp339
sg83
g324
sg76
(lp340
g69
(g70
g71
NtRp341
(dp342
g74
(dp343
g82
I3
ssg83
g337
sg76
(lp344
S''
asbasbasbag69
(g85
g71
NtRp345
(dp346
g74
(dp347
sg83
g320
sg76
(lp348
g69
(g90
g71
NtRp349
(dp350
g74
(dp351
g94
g95
ssg83
g345
sg76
(lp352
S'domain'
p353
asbag69
(g90
g71
NtRp354
(dp355
g74
(dp356
g101
g102
ssg83
g345
sg76
(lp357
S':'
asbag69
(g90
g71
NtRp358
(dp359
g74
(dp360
sg83
g345
sg76
(lp361
g69
(g70
g71
NtRp362
(dp363
g74
(dp364
g82
I3
ssg83
g358
sg76
(lp365
S''
asbasbasbag69
(g85
g71
NtRp366
(dp367
g74
(dp368
sg83
g320
sg76
(lp369
g69
(g90
g71
NtRp370
(dp371
g74
(dp372
g94
g95
ssg83
g366
sg76
(lp373
S'expires'
p374
asbag69
(g90
g71
NtRp375
(dp376
g74
(dp377
g101
g102
ssg83
g366
sg76
(lp378
S':'
asbag69
(g90
g71
NtRp379
(dp380
g74
(dp381
sg83
g366
sg76
(lp382
g69
(g70
g71
NtRp383
(dp384
g74
(dp385
g82
I3
ssg83
g379
sg76
(lp386
S''
asbasbasbag69
(g85
g71
NtRp387
(dp388
g74
(dp389
sg83
g320
sg76
(lp390
g69
(g90
g71
NtRp391
(dp392
g74
(dp393
g94
g95
ssg83
g387
sg76
(lp394
S'httponly'
p395
asbag69
(g90
g71
NtRp396
(dp397
g74
(dp398
g101
g102
ssg83
g387
sg76
(lp399
S':'
asbag69
(g90
g71
NtRp400
(dp401
g74
(dp402
sg83
g387
sg76
(lp403
g69
(g70
g71
NtRp404
(dp405
g74
(dp406
g82
I3
ssg83
g400
sg76
(lp407
S''
asbasbasbag69
(g85
g71
NtRp408
(dp409
g74
(dp410
sg83
g320
sg76
(lp411
g69
(g90
g71
NtRp412
(dp413
g74
(dp414
g94
g95
ssg83
g408
sg76
(lp415
S'max-age'
p416
asbag69
(g90
g71
NtRp417
(dp418
g74
(dp419
g101
g102
ssg83
g408
sg76
(lp420
S':'
asbag69
(g90
g71
NtRp421
(dp422
g74
(dp423
sg83
g408
sg76
(lp424
g69
(g70
g71
NtRp425
(dp426
g74
(dp427
g82
I3
ssg83
g421
sg76
(lp428
S''
asbasbasbag69
(g85
g71
NtRp429
(dp430
g74
(dp431
sg83
g320
sg76
(lp432
g69
(g90
g71
NtRp433
(dp434
g74
(dp435
g94
g95
ssg83
g429
sg76
(lp436
S'path'
p437
asbag69
(g90
g71
NtRp438
(dp439
g74
(dp440
g101
g102
ssg83
g429
sg76
(lp441
S':'
asbag69
(g90
g71
NtRp442
(dp443
g74
(dp444
sg83
g429
sg76
(lp445
g69
(g70
g71
NtRp446
(dp447
g74
(dp448
g82
I3
ssg83
g442
sg76
(lp449
S''
asbasbasbag69
(g85
g71
NtRp450
(dp451
g74
(dp452
sg83
g320
sg76
(lp453
g69
(g90
g71
NtRp454
(dp455
g74
(dp456
g94
g95
ssg83
g450
sg76
(lp457
S'secure'
p458
asbag69
(g90
g71
NtRp459
(dp460
g74
(dp461
g101
g102
ssg83
g450
sg76
(lp462
S':'
asbag69
(g90
g71
NtRp463
(dp464
g74
(dp465
sg83
g450
sg76
(lp466
g69
(g70
g71
NtRp467
(dp468
g74
(dp469
g82
I3
ssg83
g463
sg76
(lp470
S''
asbasbasbag69
(g85
g71
NtRp471
(dp472
g74
(dp473
sg83
g320
sg76
(lp474
g69
(g90
g71
NtRp475
(dp476
g74
(dp477
g94
g95
ssg83
g471
sg76
(lp478
S'version'
p479
asbag69
(g90
g71
NtRp480
(dp481
g74
(dp482
g101
g102
ssg83
g471
sg76
(lp483
S':'
asbag69
(g90
g71
NtRp484
(dp485
g74
(dp486
sg83
g471
sg76
(lp487
g69
(g70
g71
NtRp488
(dp489
g74
(dp490
g82
I3
ssg83
g484
sg76
(lp491
S''
asbasbasbasbasbasbasbag69
(g85
g71
NtRp492
(dp493
g74
(dp494
sg83
g294
sg76
(lp495
g69
(g90
g71
NtRp496
(dp497
g74
(dp498
g94
g95
ssg83
g492
sg76
(lp499
S'session_id_music'
p500
asbag69
(g90
g71
NtRp501
(dp502
g74
(dp503
g101
g102
ssg83
g492
sg76
(lp504
S':'
asbag69
(g90
g71
NtRp505
(dp506
g74
(dp507
sg83
g492
sg76
(lp508
g69
(g70
g71
NtRp509
(dp510
g74
(dp511
g82
I4
ssg83
g505
sg76
(lp512
S'127.0.0.1-bd5be0ed-4eb6-4bc5-88a9-8d569f9d0604'
p513
ag69
(g78
g71
NtRp514
(dp515
g74
(dp516
g82
I3
ssg83
Nsg76
(lp517
g69
(g85
g71
NtRp518
(dp519
g74
(dp520
sg83
g514
sg76
(lp521
g69
(g90
g71
NtRp522
(dp523
g74
(dp524
g94
g95
ssg83
g518
sg76
(lp525
g332
asbag69
(g90
g71
NtRp526
(dp527
g74
(dp528
g101
g102
ssg83
g518
sg76
(lp529
S':'
asbag69
(g90
g71
NtRp530
(dp531
g74
(dp532
sg83
g518
sg76
(lp533
g69
(g70
g71
NtRp534
(dp535
g74
(dp536
g82
I3
ssg83
g530
sg76
(lp537
S''
asbasbasbag69
(g85
g71
NtRp538
(dp539
g74
(dp540
sg83
g514
sg76
(lp541
g69
(g90
g71
NtRp542
(dp543
g74
(dp544
g94
g95
ssg83
g538
sg76
(lp545
g353
asbag69
(g90
g71
NtRp546
(dp547
g74
(dp548
g101
g102
ssg83
g538
sg76
(lp549
S':'
asbag69
(g90
g71
NtRp550
(dp551
g74
(dp552
sg83
g538
sg76
(lp553
g69
(g70
g71
NtRp554
(dp555
g74
(dp556
g82
I3
ssg83
g550
sg76
(lp557
S''
asbasbasbag69
(g85
g71
NtRp558
(dp559
g74
(dp560
sg83
g514
sg76
(lp561
g69
(g90
g71
NtRp562
(dp563
g74
(dp564
g94
g95
ssg83
g558
sg76
(lp565
g374
asbag69
(g90
g71
NtRp566
(dp567
g74
(dp568
g101
g102
ssg83
g558
sg76
(lp569
S':'
asbag69
(g90
g71
NtRp570
(dp571
g74
(dp572
sg83
g558
sg76
(lp573
g69
(g70
g71
NtRp574
(dp575
g74
(dp576
g82
I3
ssg83
g570
sg76
(lp577
S''
asbasbasbag69
(g85
g71
NtRp578
(dp579
g74
(dp580
sg83
g514
sg76
(lp581
g69
(g90
g71
NtRp582
(dp583
g74
(dp584
g94
g95
ssg83
g578
sg76
(lp585
g395
asbag69
(g90
g71
NtRp586
(dp587
g74
(dp588
g101
g102
ssg83
g578
sg76
(lp589
S':'
asbag69
(g90
g71
NtRp590
(dp591
g74
(dp592
sg83
g578
sg76
(lp593
g69
(g70
g71
NtRp594
(dp595
g74
(dp596
g82
I3
ssg83
g590
sg76
(lp597
S''
asbasbasbag69
(g85
g71
NtRp598
(dp599
g74
(dp600
sg83
g514
sg76
(lp601
g69
(g90
g71
NtRp602
(dp603
g74
(dp604
g94
g95
ssg83
g598
sg76
(lp605
g416
asbag69
(g90
g71
NtRp606
(dp607
g74
(dp608
g101
g102
ssg83
g598
sg76
(lp609
S':'
asbag69
(g90
g71
NtRp610
(dp611
g74
(dp612
sg83
g598
sg76
(lp613
g69
(g70
g71
NtRp614
(dp615
g74
(dp616
g82
I3
ssg83
g610
sg76
(lp617
S''
asbasbasbag69
(g85
g71
NtRp618
(dp619
g74
(dp620
sg83
g514
sg76
(lp621
g69
(g90
g71
NtRp622
(dp623
g74
(dp624
g94
g95
ssg83
g618
sg76
(lp625
g437
asbag69
(g90
g71
NtRp626
(dp627
g74
(dp628
g101
g102
ssg83
g618
sg76
(lp629
S':'
asbag69
(g90
g71
NtRp630
(dp631
g74
(dp632
sg83
g618
sg76
(lp633
g69
(g70
g71
NtRp634
(dp635
g74
(dp636
g82
I3
ssg83
g630
sg76
(lp637
S''
asbasbasbag69
(g85
g71
NtRp638
(dp639
g74
(dp640
sg83
g514
sg76
(lp641
g69
(g90
g71
NtRp642
(dp643
g74
(dp644
g94
g95
ssg83
g638
sg76
(lp645
g458
asbag69
(g90
g71
NtRp646
(dp647
g74
(dp648
g101
g102
ssg83
g638
sg76
(lp649
S':'
asbag69
(g90
g71
NtRp650
(dp651
g74
(dp652
sg83
g638
sg76
(lp653
g69
(g70
g71
NtRp654
(dp655
g74
(dp656
g82
I3
ssg83
g650
sg76
(lp657
S''
asbasbasbag69
(g85
g71
NtRp658
(dp659
g74
(dp660
sg83
g514
sg76
(lp661
g69
(g90
g71
NtRp662
(dp663
g74
(dp664
g94
g95
ssg83
g658
sg76
(lp665
g479
asbag69
(g90
g71
NtRp666
(dp667
g74
(dp668
g101
g102
ssg83
g658
sg76
(lp669
S':'
asbag69
(g90
g71
NtRp670
(dp671
g74
(dp672
sg83
g658
sg76
(lp673
g69
(g70
g71
NtRp674
(dp675
g74
(dp676
g82
I3
ssg83
g670
sg76
(lp677
S''
asbasbasbasbasbasbasbag69
(g85
g71
NtRp678
(dp679
g74
(dp680
sg83
g294
sg76
(lp681
g69
(g90
g71
NtRp682
(dp683
g74
(dp684
g94
g95
ssg83
g678
sg76
(lp685
S'session_id_welcome'
p686
asbag69
(g90
g71
NtRp687
(dp688
g74
(dp689
g101
g102
ssg83
g678
sg76
(lp690
S':'
asbag69
(g90
g71
NtRp691
(dp692
g74
(dp693
sg83
g678
sg76
(lp694
g69
(g70
g71
NtRp695
(dp696
g74
(dp697
g82
I4
ssg83
g691
sg76
(lp698
S'127.0.0.1-7c0c82ac-097f-493c-a515-70410c6bb379'
p699
ag69
(g78
g71
NtRp700
(dp701
g74
(dp702
g82
I3
ssg83
Nsg76
(lp703
g69
(g85
g71
NtRp704
(dp705
g74
(dp706
sg83
g700
sg76
(lp707
g69
(g90
g71
NtRp708
(dp709
g74
(dp710
g94
g95
ssg83
g704
sg76
(lp711
g332
asbag69
(g90
g71
NtRp712
(dp713
g74
(dp714
g101
g102
ssg83
g704
sg76
(lp715
S':'
asbag69
(g90
g71
NtRp716
(dp717
g74
(dp718
sg83
g704
sg76
(lp719
g69
(g70
g71
NtRp720
(dp721
g74
(dp722
g82
I3
ssg83
g716
sg76
(lp723
S''
asbasbasbag69
(g85
g71
NtRp724
(dp725
g74
(dp726
sg83
g700
sg76
(lp727
g69
(g90
g71
NtRp728
(dp729
g74
(dp730
g94
g95
ssg83
g724
sg76
(lp731
g353
asbag69
(g90
g71
NtRp732
(dp733
g74
(dp734
g101
g102
ssg83
g724
sg76
(lp735
S':'
asbag69
(g90
g71
NtRp736
(dp737
g74
(dp738
sg83
g724
sg76
(lp739
g69
(g70
g71
NtRp740
(dp741
g74
(dp742
g82
I3
ssg83
g736
sg76
(lp743
S''
asbasbasbag69
(g85
g71
NtRp744
(dp745
g74
(dp746
sg83
g700
sg76
(lp747
g69
(g90
g71
NtRp748
(dp749
g74
(dp750
g94
g95
ssg83
g744
sg76
(lp751
g374
asbag69
(g90
g71
NtRp752
(dp753
g74
(dp754
g101
g102
ssg83
g744
sg76
(lp755
S':'
asbag69
(g90
g71
NtRp756
(dp757
g74
(dp758
sg83
g744
sg76
(lp759
g69
(g70
g71
NtRp760
(dp761
g74
(dp762
g82
I3
ssg83
g756
sg76
(lp763
S''
asbasbasbag69
(g85
g71
NtRp764
(dp765
g74
(dp766
sg83
g700
sg76
(lp767
g69
(g90
g71
NtRp768
(dp769
g74
(dp770
g94
g95
ssg83
g764
sg76
(lp771
g395
asbag69
(g90
g71
NtRp772
(dp773
g74
(dp774
g101
g102
ssg83
g764
sg76
(lp775
S':'
asbag69
(g90
g71
NtRp776
(dp777
g74
(dp778
sg83
g764
sg76
(lp779
g69
(g70
g71
NtRp780
(dp781
g74
(dp782
g82
I3
ssg83
g776
sg76
(lp783
S''
asbasbasbag69
(g85
g71
NtRp784
(dp785
g74
(dp786
sg83
g700
sg76
(lp787
g69
(g90
g71
NtRp788
(dp789
g74
(dp790
g94
g95
ssg83
g784
sg76
(lp791
g416
asbag69
(g90
g71
NtRp792
(dp793
g74
(dp794
g101
g102
ssg83
g784
sg76
(lp795
S':'
asbag69
(g90
g71
NtRp796
(dp797
g74
(dp798
sg83
g784
sg76
(lp799
g69
(g70
g71
NtRp800
(dp801
g74
(dp802
g82
I3
ssg83
g796
sg76
(lp803
S''
asbasbasbag69
(g85
g71
NtRp804
(dp805
g74
(dp806
sg83
g700
sg76
(lp807
g69
(g90
g71
NtRp808
(dp809
g74
(dp810
g94
g95
ssg83
g804
sg76
(lp811
g437
asbag69
(g90
g71
NtRp812
(dp813
g74
(dp814
g101
g102
ssg83
g804
sg76
(lp815
S':'
asbag69
(g90
g71
NtRp816
(dp817
g74
(dp818
sg83
g804
sg76
(lp819
g69
(g70
g71
NtRp820
(dp821
g74
(dp822
g82
I3
ssg83
g816
sg76
(lp823
S''
asbasbasbag69
(g85
g71
NtRp824
(dp825
g74
(dp826
sg83
g700
sg76
(lp827
g69
(g90
g71
NtRp828
(dp829
g74
(dp830
g94
g95
ssg83
g824
sg76
(lp831
g458
asbag69
(g90
g71
NtRp832
(dp833
g74
(dp834
g101
g102
ssg83
g824
sg76
(lp835
S':'
asbag69
(g90
g71
NtRp836
(dp837
g74
(dp838
sg83
g824
sg76
(lp839
g69
(g70
g71
NtRp840
(dp841
g74
(dp842
g82
I3
ssg83
g836
sg76
(lp843
S''
asbasbasbag69
(g85
g71
NtRp844
(dp845
g74
(dp846
sg83
g700
sg76
(lp847
g69
(g90
g71
NtRp848
(dp849
g74
(dp850
g94
g95
ssg83
g844
sg76
(lp851
g479
asbag69
(g90
g71
NtRp852
(dp853
g74
(dp854
g101
g102
ssg83
g844
sg76
(lp855
S':'
asbag69
(g90
g71
NtRp856
(dp857
g74
(dp858
sg83
g844
sg76
(lp859
g69
(g70
g71
NtRp860
(dp861
g74
(dp862
g82
I3
ssg83
g856
sg76
(lp863
S''
asbasbasbasbasbasbasbasbasbasbasbag69
(g85
g71
NtRp864
(dp865
g74
(dp866
sg83
g79
sg76
(lp867
g69
(g90
g71
NtRp868
(dp869
g74
(dp870
g94
g95
ssg83
g864
sg76
(lp871
S'env'
p872
asbag69
(g90
g71
NtRp873
(dp874
g74
(dp875
g101
g102
ssg83
g864
sg76
(lp876
S':'
asbag69
(g90
g71
NtRp877
(dp878
g74
(dp879
sg83
g864
sg76
(lp880
g69
(g70
g71
NtRp881
(dp882
g74
(dp883
g82
I5
ssg83
g877
sg76
(lp884
g69
(g78
g71
NtRp885
(dp886
g74
(dp887
g82
I4
ssg83
Nsg76
(lp888
g69
(g85
g71
NtRp889
(dp890
g74
(dp891
sg83
g885
sg76
(lp892
g69
(g90
g71
NtRp893
(dp894
g74
(dp895
g94
g95
ssg83
g889
sg76
(lp896
S'app_folders'
p897
asbag69
(g90
g71
NtRp898
(dp899
g74
(dp900
g101
g102
ssg83
g889
sg76
(lp901
S':'
asbag69
(g90
g71
NtRp902
(dp903
g74
(dp904
sg83
g889
sg76
(lp905
g69
(g70
g71
NtRp906
(dp907
g74
(dp908
g82
I4
ssg83
g902
sg76
(lp909
S"set(['/home/gaurav/classwork/WEB_PROGRAMMING/web2py/applications/MUSIC/', '/home/gaurav/classwork/WEB_PROGRAMMING/web2py/applications/admin/', '/home/gaurav/classwork/WEB_PROGRAMMING/web2py/applications/welcome/'])"
p910
asbasbasbag69
(g85
g71
NtRp911
(dp912
g74
(dp913
sg83
g885
sg76
(lp914
g69
(g90
g71
NtRp915
(dp916
g74
(dp917
g94
g95
ssg83
g911
sg76
(lp918
S'applications_parent'
p919
asbag69
(g90
g71
NtRp920
(dp921
g74
(dp922
g101
g102
ssg83
g911
sg76
(lp923
S':'
asbag69
(g90
g71
NtRp924
(dp925
g74
(dp926
sg83
g911
sg76
(lp927
g69
(g70
g71
NtRp928
(dp929
g74
(dp930
g82
I4
ssg83
g924
sg76
(lp931
S'/home/gaurav/classwork/WEB_PROGRAMMING/web2py'
p932
asbasbasbag69
(g85
g71
NtRp933
(dp934
g74
(dp935
sg83
g885
sg76
(lp936
g69
(g90
g71
NtRp937
(dp938
g74
(dp939
g94
g95
ssg83
g933
sg76
(lp940
S'cmd_args'
p941
asbag69
(g90
g71
NtRp942
(dp943
g74
(dp944
g101
g102
ssg83
g933
sg76
(lp945
S':'
asbag69
(g90
g71
NtRp946
(dp947
g74
(dp948
sg83
g933
sg76
(lp949
g69
(g70
g71
NtRp950
(dp951
g74
(dp952
g82
I4
ssg83
g946
sg76
(lp953
g69
(g78
g71
NtRp954
(dp955
g74
(dp956
g82
I3
ssg83
Nsg76
(lp957
sbasbasbasbag69
(g85
g71
NtRp958
(dp959
g74
(dp960
sg83
g885
sg76
(lp961
g69
(g90
g71
NtRp962
(dp963
g74
(dp964
g94
g95
ssg83
g958
sg76
(lp965
S'cmd_options'
p966
asbag69
(g90
g71
NtRp967
(dp968
g74
(dp969
g101
g102
ssg83
g958
sg76
(lp970
S':'
asbag69
(g90
g71
NtRp971
(dp972
g74
(dp973
sg83
g958
sg76
(lp974
g69
(g70
g71
NtRp975
(dp976
g74
(dp977
g82
I4
ssg83
g971
sg76
(lp978
S"<Values at 0x88926ec: {'verbose': False, 'ip': '127.0.0.1', 'with_scheduler': False, 'ips': [], 'shutdown_timeout': 5, 'taskbar': False, 'port': 8000, 'maxthreads': None, 'softcron': False, 'server_name': 'gaurav-Compaq-Presario-C700-Notebook-PC', 'bpython': False, 'nogui': False, 'pid_filename': 'httpserver.pid', 'extcron': False, 'runcron': False, 'run_system_tests': False, 'test': None, 'folder': '/home/gaurav/classwork/WEB_PROGRAMMING/web2py', 'config': '', 'import_models': False, 'winservice': '', 'shell': None, 'run': '', 'log_filename': 'httpserver.log', 'debuglevel': 30, 'args': [''], 'socket_timeout': 5, 'ssl_ca_certificate': None, 'scheduler': None, 'profiler_filename': None, 'ssl_private_key': '', 'scheduler_groups': None, 'password': '<ask>', 'request_queue_size': 5, 'ssl_certificate': '', 'cronjob': False, 'numthreads': None, 'quiet': False, 'interfaces': None, 'minthreads': None, 'timeout': 10, 'plain': False, 'nobanner': False}>"
p979
asbasbasbag69
(g85
g71
NtRp980
(dp981
g74
(dp982
sg83
g885
sg76
(lp983
g69
(g90
g71
NtRp984
(dp985
g74
(dp986
g94
g95
ssg83
g980
sg76
(lp987
S'db_sessions'
p988
asbag69
(g90
g71
NtRp989
(dp990
g74
(dp991
g101
g102
ssg83
g980
sg76
(lp992
S':'
asbag69
(g90
g71
NtRp993
(dp994
g74
(dp995
sg83
g980
sg76
(lp996
g69
(g70
g71
NtRp997
(dp998
g74
(dp999
g82
I4
ssg83
g993
sg76
(lp1000
S'set([])'
p1001
asbasbasbag69
(g85
g71
NtRp1002
(dp1003
g74
(dp1004
sg83
g885
sg76
(lp1005
g69
(g90
g71
NtRp1006
(dp1007
g74
(dp1008
g94
g95
ssg83
g1002
sg76
(lp1009
S'debugging'
p1010
asbag69
(g90
g71
NtRp1011
(dp1012
g74
(dp1013
g101
g102
ssg83
g1002
sg76
(lp1014
S':'
asbag69
(g90
g71
NtRp1015
(dp1016
g74
(dp1017
sg83
g1002
sg76
(lp1018
g69
(g70
g71
NtRp1019
(dp1020
g74
(dp1021
g82
I4
ssg83
g1015
sg76
(lp1022
g112
asbasbasbag69
(g85
g71
NtRp1023
(dp1024
g74
(dp1025
sg83
g885
sg76
(lp1026
g69
(g90
g71
NtRp1027
(dp1028
g74
(dp1029
g94
g95
ssg83
g1023
sg76
(lp1030
S'gluon_parent'
p1031
asbag69
(g90
g71
NtRp1032
(dp1033
g74
(dp1034
g101
g102
ssg83
g1023
sg76
(lp1035
S':'
asbag69
(g90
g71
NtRp1036
(dp1037
g74
(dp1038
sg83
g1023
sg76
(lp1039
g69
(g70
g71
NtRp1040
(dp1041
g74
(dp1042
g82
I4
ssg83
g1036
sg76
(lp1043
S'/home/gaurav/classwork/WEB_PROGRAMMING/web2py'
p1044
asbasbasbag69
(g85
g71
NtRp1045
(dp1046
g74
(dp1047
sg83
g885
sg76
(lp1048
g69
(g90
g71
NtRp1049
(dp1050
g74
(dp1051
g94
g95
ssg83
g1045
sg76
(lp1052
S'http_accept'
p1053
asbag69
(g90
g71
NtRp1054
(dp1055
g74
(dp1056
g101
g102
ssg83
g1045
sg76
(lp1057
S':'
asbag69
(g90
g71
NtRp1058
(dp1059
g74
(dp1060
sg83
g1045
sg76
(lp1061
g69
(g70
g71
NtRp1062
(dp1063
g74
(dp1064
g82
I4
ssg83
g1058
sg76
(lp1065
S'text/html,application/xhtml+xml,application/xml;q=0.9,*/*;q=0.8'
p1066
asbasbasbag69
(g85
g71
NtRp1067
(dp1068
g74
(dp1069
sg83
g885
sg76
(lp1070
g69
(g90
g71
NtRp1071
(dp1072
g74
(dp1073
g94
g95
ssg83
g1067
sg76
(lp1074
S'http_accept_encoding'
p1075
asbag69
(g90
g71
NtRp1076
(dp1077
g74
(dp1078
g101
g102
ssg83
g1067
sg76
(lp1079
S':'
asbag69
(g90
g71
NtRp1080
(dp1081
g74
(dp1082
sg83
g1067
sg76
(lp1083
g69
(g70
g71
NtRp1084
(dp1085
g74
(dp1086
g82
I4
ssg83
g1080
sg76
(lp1087
S'gzip, deflate'
p1088
asbasbasbag69
(g85
g71
NtRp1089
(dp1090
g74
(dp1091
sg83
g885
sg76
(lp1092
g69
(g90
g71
NtRp1093
(dp1094
g74
(dp1095
g94
g95
ssg83
g1089
sg76
(lp1096
S'http_accept_language'
p1097
asbag69
(g90
g71
NtRp1098
(dp1099
g74
(dp1100
g101
g102
ssg83
g1089
sg76
(lp1101
S':'
asbag69
(g90
g71
NtRp1102
(dp1103
g74
(dp1104
sg83
g1089
sg76
(lp1105
g69
(g70
g71
NtRp1106
(dp1107
g74
(dp1108
g82
I4
ssg83
g1102
sg76
(lp1109
S'en-US,en;q=0.5'
p1110
asbasbasbag69
(g85
g71
NtRp1111
(dp1112
g74
(dp1113
sg83
g885
sg76
(lp1114
g69
(g90
g71
NtRp1115
(dp1116
g74
(dp1117
g94
g95
ssg83
g1111
sg76
(lp1118
S'http_connection'
p1119
asbag69
(g90
g71
NtRp1120
(dp1121
g74
(dp1122
g101
g102
ssg83
g1111
sg76
(lp1123
S':'
asbag69
(g90
g71
NtRp1124
(dp1125
g74
(dp1126
sg83
g1111
sg76
(lp1127
g69
(g70
g71
NtRp1128
(dp1129
g74
(dp1130
g82
I4
ssg83
g1124
sg76
(lp1131
S'keep-alive'
p1132
asbasbasbag69
(g85
g71
NtRp1133
(dp1134
g74
(dp1135
sg83
g885
sg76
(lp1136
g69
(g90
g71
NtRp1137
(dp1138
g74
(dp1139
g94
g95
ssg83
g1133
sg76
(lp1140
S'http_cookie'
p1141
asbag69
(g90
g71
NtRp1142
(dp1143
g74
(dp1144
g101
g102
ssg83
g1133
sg76
(lp1145
S':'
asbag69
(g90
g71
NtRp1146
(dp1147
g74
(dp1148
sg83
g1133
sg76
(lp1149
g69
(g70
g71
NtRp1150
(dp1151
g74
(dp1152
g82
I4
ssg83
g1146
sg76
(lp1153
S'session_id_welcome=127.0.0.1-7c0c82ac-097f-493c-a515-70410c6bb379; session_id_admin=127.0.0.1-af06f55e-89f0-4ae2-93fd-0ea60909ff15; session_id_music=127.0.0.1-bd5be0ed-4eb6-4bc5-88a9-8d569f9d0604'
p1154
asbasbasbag69
(g85
g71
NtRp1155
(dp1156
g74
(dp1157
sg83
g885
sg76
(lp1158
g69
(g90
g71
NtRp1159
(dp1160
g74
(dp1161
g94
g95
ssg83
g1155
sg76
(lp1162
S'http_host'
p1163
asbag69
(g90
g71
NtRp1164
(dp1165
g74
(dp1166
g101
g102
ssg83
g1155
sg76
(lp1167
S':'
asbag69
(g90
g71
NtRp1168
(dp1169
g74
(dp1170
sg83
g1155
sg76
(lp1171
g69
(g70
g71
NtRp1172
(dp1173
g74
(dp1174
g82
I4
ssg83
g1168
sg76
(lp1175
S'127.0.0.1:8000'
p1176
asbasbasbag69
(g85
g71
NtRp1177
(dp1178
g74
(dp1179
sg83
g885
sg76
(lp1180
g69
(g90
g71
NtRp1181
(dp1182
g74
(dp1183
g94
g95
ssg83
g1177
sg76
(lp1184
S'http_referer'
p1185
asbag69
(g90
g71
NtRp1186
(dp1187
g74
(dp1188
g101
g102
ssg83
g1177
sg76
(lp1189
S':'
asbag69
(g90
g71
NtRp1190
(dp1191
g74
(dp1192
sg83
g1177
sg76
(lp1193
g69
(g70
g71
NtRp1194
(dp1195
g74
(dp1196
g82
I4
ssg83
g1190
sg76
(lp1197
S'http://127.0.0.1:8000/MUSIC/appadmin/index'
p1198
asbasbasbag69
(g85
g71
NtRp1199
(dp1200
g74
(dp1201
sg83
g885
sg76
(lp1202
g69
(g90
g71
NtRp1203
(dp1204
g74
(dp1205
g94
g95
ssg83
g1199
sg76
(lp1206
S'http_user_agent'
p1207
asbag69
(g90
g71
NtRp1208
(dp1209
g74
(dp1210
g101
g102
ssg83
g1199
sg76
(lp1211
S':'
asbag69
(g90
g71
NtRp1212
(dp1213
g74
(dp1214
sg83
g1199
sg76
(lp1215
g69
(g70
g71
NtRp1216
(dp1217
g74
(dp1218
g82
I4
ssg83
g1212
sg76
(lp1219
S'Mozilla/5.0 (X11; Ubuntu; Linux i686; rv:16.0) Gecko/20100101 Firefox/16.0'
p1220
asbasbasbag69
(g85
g71
NtRp1221
(dp1222
g74
(dp1223
sg83
g885
sg76
(lp1224
g69
(g90
g71
NtRp1225
(dp1226
g74
(dp1227
g94
g95
ssg83
g1221
sg76
(lp1228
S'is_jython'
p1229
asbag69
(g90
g71
NtRp1230
(dp1231
g74
(dp1232
g101
g102
ssg83
g1221
sg76
(lp1233
S':'
asbag69
(g90
g71
NtRp1234
(dp1235
g74
(dp1236
sg83
g1221
sg76
(lp1237
g69
(g70
g71
NtRp1238
(dp1239
g74
(dp1240
g82
I4
ssg83
g1234
sg76
(lp1241
g112
asbasbasbag69
(g85
g71
NtRp1242
(dp1243
g74
(dp1244
sg83
g885
sg76
(lp1245
g69
(g90
g71
NtRp1246
(dp1247
g74
(dp1248
g94
g95
ssg83
g1242
sg76
(lp1249
S'is_pypy'
p1250
asbag69
(g90
g71
NtRp1251
(dp1252
g74
(dp1253
g101
g102
ssg83
g1242
sg76
(lp1254
S':'
asbag69
(g90
g71
NtRp1255
(dp1256
g74
(dp1257
sg83
g1242
sg76
(lp1258
g69
(g70
g71
NtRp1259
(dp1260
g74
(dp1261
g82
I4
ssg83
g1255
sg76
(lp1262
g112
asbasbasbag69
(g85
g71
NtRp1263
(dp1264
g74
(dp1265
sg83
g885
sg76
(lp1266
g69
(g90
g71
NtRp1267
(dp1268
g74
(dp1269
g94
g95
ssg83
g1263
sg76
(lp1270
S'local_hosts'
p1271
asbag69
(g90
g71
NtRp1272
(dp1273
g74
(dp1274
g101
g102
ssg83
g1263
sg76
(lp1275
S':'
asbag69
(g90
g71
NtRp1276
(dp1277
g74
(dp1278
sg83
g1263
sg76
(lp1279
g69
(g70
g71
NtRp1280
(dp1281
g74
(dp1282
g82
I4
ssg83
g1276
sg76
(lp1283
g69
(g78
g71
NtRp1284
(dp1285
g74
(dp1286
g82
I3
ssg83
Nsg76
(lp1287
g69
(g85
g71
NtRp1288
(dp1289
g74
(dp1290
sg83
g1284
sg76
(lp1291
g69
(g90
g71
NtRp1292
(dp1293
g74
(dp1294
sg83
g1288
sg76
(lp1295
g69
(g70
g71
NtRp1296
(dp1297
g74
(dp1298
g82
I3
ssg83
g1292
sg76
(lp1299
S'gaurav-Compaq-Presario-C700-Notebook-PC'
p1300
asbasbasbag69
(g85
g71
NtRp1301
(dp1302
g74
(dp1303
sg83
g1284
sg76
(lp1304
g69
(g90
g71
NtRp1305
(dp1306
g74
(dp1307
sg83
g1301
sg76
(lp1308
g69
(g70
g71
NtRp1309
(dp1310
g74
(dp1311
g82
I3
ssg83
g1305
sg76
(lp1312
S'::1'
p1313
asbasbasbag69
(g85
g71
NtRp1314
(dp1315
g74
(dp1316
sg83
g1284
sg76
(lp1317
g69
(g90
g71
NtRp1318
(dp1319
g74
(dp1320
sg83
g1314
sg76
(lp1321
g69
(g70
g71
NtRp1322
(dp1323
g74
(dp1324
g82
I3
ssg83
g1318
sg76
(lp1325
S'127.0.1.1'
p1326
asbasbasbag69
(g85
g71
NtRp1327
(dp1328
g74
(dp1329
sg83
g1284
sg76
(lp1330
g69
(g90
g71
NtRp1331
(dp1332
g74
(dp1333
sg83
g1327
sg76
(lp1334
g69
(g70
g71
NtRp1335
(dp1336
g74
(dp1337
g82
I3
ssg83
g1331
sg76
(lp1338
S'::ffff:127.0.0.1'
p1339
asbasbasbag69
(g85
g71
NtRp1340
(dp1341
g74
(dp1342
sg83
g1284
sg76
(lp1343
g69
(g90
g71
NtRp1344
(dp1345
g74
(dp1346
sg83
g1340
sg76
(lp1347
g69
(g70
g71
NtRp1348
(dp1349
g74
(dp1350
g82
I3
ssg83
g1344
sg76
(lp1351
S'127.0.0.1'
p1352
asbasbasbasbasbasbasbag69
(g85
g71
NtRp1353
(dp1354
g74
(dp1355
sg83
g885
sg76
(lp1356
g69
(g90
g71
NtRp1357
(dp1358
g74
(dp1359
g94
g95
ssg83
g1353
sg76
(lp1360
S'path_info'
p1361
asbag69
(g90
g71
NtRp1362
(dp1363
g74
(dp1364
g101
g102
ssg83
g1353
sg76
(lp1365
S':'
asbag69
(g90
g71
NtRp1366
(dp1367
g74
(dp1368
sg83
g1353
sg76
(lp1369
g69
(g70
g71
NtRp1370
(dp1371
g74
(dp1372
g82
I4
ssg83
g1366
sg76
(lp1373
S'/MUSIC/appadmin/insert/db/artist'
p1374
asbasbasbag69
(g85
g71
NtRp1375
(dp1376
g74
(dp1377
sg83
g885
sg76
(lp1378
g69
(g90
g71
NtRp1379
(dp1380
g74
(dp1381
g94
g95
ssg83
g1375
sg76
(lp1382
S'query_string'
p1383
asbag69
(g90
g71
NtRp1384
(dp1385
g74
(dp1386
g101
g102
ssg83
g1375
sg76
(lp1387
S':'
asbag69
(g90
g71
NtRp1388
(dp1389
g74
(dp1390
sg83
g1375
sg76
(lp1391
g69
(g70
g71
NtRp1392
(dp1393
g74
(dp1394
g82
I4
ssg83
g1388
sg76
(lp1395
S''
asbasbasbag69
(g85
g71
NtRp1396
(dp1397
g74
(dp1398
sg83
g885
sg76
(lp1399
g69
(g90
g71
NtRp1400
(dp1401
g74
(dp1402
g94
g95
ssg83
g1396
sg76
(lp1403
S'remote_addr'
p1404
asbag69
(g90
g71
NtRp1405
(dp1406
g74
(dp1407
g101
g102
ssg83
g1396
sg76
(lp1408
S':'
asbag69
(g90
g71
NtRp1409
(dp1410
g74
(dp1411
sg83
g1396
sg76
(lp1412
g69
(g70
g71
NtRp1413
(dp1414
g74
(dp1415
g82
I4
ssg83
g1409
sg76
(lp1416
g250
asbasbasbag69
(g85
g71
NtRp1417
(dp1418
g74
(dp1419
sg83
g885
sg76
(lp1420
g69
(g90
g71
NtRp1421
(dp1422
g74
(dp1423
g94
g95
ssg83
g1417
sg76
(lp1424
S'remote_port'
p1425
asbag69
(g90
g71
NtRp1426
(dp1427
g74
(dp1428
g101
g102
ssg83
g1417
sg76
(lp1429
S':'
asbag69
(g90
g71
NtRp1430
(dp1431
g74
(dp1432
sg83
g1417
sg76
(lp1433
g69
(g70
g71
NtRp1434
(dp1435
g74
(dp1436
g82
I4
ssg83
g1430
sg76
(lp1437
S'43435'
p1438
asbasbasbag69
(g85
g71
NtRp1439
(dp1440
g74
(dp1441
sg83
g885
sg76
(lp1442
g69
(g90
g71
NtRp1443
(dp1444
g74
(dp1445
g94
g95
ssg83
g1439
sg76
(lp1446
S'request_method'
p1447
asbag69
(g90
g71
NtRp1448
(dp1449
g74
(dp1450
g101
g102
ssg83
g1439
sg76
(lp1451
S':'
asbag69
(g90
g71
NtRp1452
(dp1453
g74
(dp1454
sg83
g1439
sg76
(lp1455
g69
(g70
g71
NtRp1456
(dp1457
g74
(dp1458
g82
I4
ssg83
g1452
sg76
(lp1459
S'GET'
p1460
asbasbasbag69
(g85
g71
NtRp1461
(dp1462
g74
(dp1463
sg83
g885
sg76
(lp1464
g69
(g90
g71
NtRp1465
(dp1466
g74
(dp1467
g94
g95
ssg83
g1461
sg76
(lp1468
S'request_uri'
p1469
asbag69
(g90
g71
NtRp1470
(dp1471
g74
(dp1472
g101
g102
ssg83
g1461
sg76
(lp1473
S':'
asbag69
(g90
g71
NtRp1474
(dp1475
g74
(dp1476
sg83
g1461
sg76
(lp1477
g69
(g70
g71
NtRp1478
(dp1479
g74
(dp1480
g82
I4
ssg83
g1474
sg76
(lp1481
g1374
asbasbasbag69
(g85
g71
NtRp1482
(dp1483
g74
(dp1484
sg83
g885
sg76
(lp1485
g69
(g90
g71
NtRp1486
(dp1487
g74
(dp1488
g94
g95
ssg83
g1482
sg76
(lp1489
S'script_name'
p1490
asbag69
(g90
g71
NtRp1491
(dp1492
g74
(dp1493
g101
g102
ssg83
g1482
sg76
(lp1494
S':'
asbag69
(g90
g71
NtRp1495
(dp1496
g74
(dp1497
sg83
g1482
sg76
(lp1498
g69
(g70
g71
NtRp1499
(dp1500
g74
(dp1501
g82
I4
ssg83
g1495
sg76
(lp1502
S''
asbasbasbag69
(g85
g71
NtRp1503
(dp1504
g74
(dp1505
sg83
g885
sg76
(lp1506
g69
(g90
g71
NtRp1507
(dp1508
g74
(dp1509
g94
g95
ssg83
g1503
sg76
(lp1510
S'server_name'
p1511
asbag69
(g90
g71
NtRp1512
(dp1513
g74
(dp1514
g101
g102
ssg83
g1503
sg76
(lp1515
S':'
asbag69
(g90
g71
NtRp1516
(dp1517
g74
(dp1518
sg83
g1503
sg76
(lp1519
g69
(g70
g71
NtRp1520
(dp1521
g74
(dp1522
g82
I4
ssg83
g1516
sg76
(lp1523
S'gaurav-Compaq-Presario-C700-Notebook-PC'
p1524
asbasbasbag69
(g85
g71
NtRp1525
(dp1526
g74
(dp1527
sg83
g885
sg76
(lp1528
g69
(g90
g71
NtRp1529
(dp1530
g74
(dp1531
g94
g95
ssg83
g1525
sg76
(lp1532
S'server_port'
p1533
asbag69
(g90
g71
NtRp1534
(dp1535
g74
(dp1536
g101
g102
ssg83
g1525
sg76
(lp1537
S':'
asbag69
(g90
g71
NtRp1538
(dp1539
g74
(dp1540
sg83
g1525
sg76
(lp1541
g69
(g70
g71
NtRp1542
(dp1543
g74
(dp1544
g82
I4
ssg83
g1538
sg76
(lp1545
S'8000'
p1546
asbasbasbag69
(g85
g71
NtRp1547
(dp1548
g74
(dp1549
sg83
g885
sg76
(lp1550
g69
(g90
g71
NtRp1551
(dp1552
g74
(dp1553
g94
g95
ssg83
g1547
sg76
(lp1554
S'server_protocol'
p1555
asbag69
(g90
g71
NtRp1556
(dp1557
g74
(dp1558
g101
g102
ssg83
g1547
sg76
(lp1559
S':'
asbag69
(g90
g71
NtRp1560
(dp1561
g74
(dp1562
sg83
g1547
sg76
(lp1563
g69
(g70
g71
NtRp1564
(dp1565
g74
(dp1566
g82
I4
ssg83
g1560
sg76
(lp1567
S'HTTP/1.1'
p1568
asbasbasbag69
(g85
g71
NtRp1569
(dp1570
g74
(dp1571
sg83
g885
sg76
(lp1572
g69
(g90
g71
NtRp1573
(dp1574
g74
(dp1575
g94
g95
ssg83
g1569
sg76
(lp1576
S'server_software'
p1577
asbag69
(g90
g71
NtRp1578
(dp1579
g74
(dp1580
g101
g102
ssg83
g1569
sg76
(lp1581
S':'
asbag69
(g90
g71
NtRp1582
(dp1583
g74
(dp1584
sg83
g1569
sg76
(lp1585
g69
(g70
g71
NtRp1586
(dp1587
g74
(dp1588
g82
I4
ssg83
g1582
sg76
(lp1589
S'Rocket 1.2.6'
p1590
asbasbasbag69
(g85
g71
NtRp1591
(dp1592
g74
(dp1593
sg83
g885
sg76
(lp1594
g69
(g90
g71
NtRp1595
(dp1596
g74
(dp1597
g94
g95
ssg83
g1591
sg76
(lp1598
S'web2py_path'
p1599
asbag69
(g90
g71
NtRp1600
(dp1601
g74
(dp1602
g101
g102
ssg83
g1591
sg76
(lp1603
S':'
asbag69
(g90
g71
NtRp1604
(dp1605
g74
(dp1606
sg83
g1591
sg76
(lp1607
g69
(g70
g71
NtRp1608
(dp1609
g74
(dp1610
g82
I4
ssg83
g1604
sg76
(lp1611
g932
asbasbasbag69
(g85
g71
NtRp1612
(dp1613
g74
(dp1614
sg83
g885
sg76
(lp1615
g69
(g90
g71
NtRp1616
(dp1617
g74
(dp1618
g94
g95
ssg83
g1612
sg76
(lp1619
S'web2py_version'
p1620
asbag69
(g90
g71
NtRp1621
(dp1622
g74
(dp1623
g101
g102
ssg83
g1612
sg76
(lp1624
S':'
asbag69
(g90
g71
NtRp1625
(dp1626
g74
(dp1627
sg83
g1612
sg76
(lp1628
g69
(g70
g71
NtRp1629
(dp1630
g74
(dp1631
g82
I4
ssg83
g1625
sg76
(lp1632
g69
(g78
g71
NtRp1633
(dp1634
g74
(dp1635
g82
I3
ssg83
Nsg76
(lp1636
g69
(g85
g71
NtRp1637
(dp1638
g74
(dp1639
sg83
g1633
sg76
(lp1640
g69
(g90
g71
NtRp1641
(dp1642
g74
(dp1643
sg83
g1637
sg76
(lp1644
g69
(g70
g71
NtRp1645
(dp1646
g74
(dp1647
g82
I3
ssg83
g1641
sg76
(lp1648
S'2'
asbasbasbag69
(g85
g71
NtRp1649
(dp1650
g74
(dp1651
sg83
g1633
sg76
(lp1652
g69
(g90
g71
NtRp1653
(dp1654
g74
(dp1655
sg83
g1649
sg76
(lp1656
g69
(g70
g71
NtRp1657
(dp1658
g74
(dp1659
g82
I3
ssg83
g1653
sg76
(lp1660
S'3'
asbasbasbag69
(g85
g71
NtRp1661
(dp1662
g74
(dp1663
sg83
g1633
sg76
(lp1664
g69
(g90
g71
NtRp1665
(dp1666
g74
(dp1667
sg83
g1661
sg76
(lp1668
g69
(g70
g71
NtRp1669
(dp1670
g74
(dp1671
g82
I3
ssg83
g1665
sg76
(lp1672
S'2'
asbasbasbag69
(g85
g71
NtRp1673
(dp1674
g74
(dp1675
sg83
g1633
sg76
(lp1676
g69
(g90
g71
NtRp1677
(dp1678
g74
(dp1679
sg83
g1673
sg76
(lp1680
g69
(g70
g71
NtRp1681
(dp1682
g74
(dp1683
g82
I3
ssg83
g1677
sg76
(lp1684
S'datetime.datetime(2012, 12, 17, 15, 3, 30)'
p1685
asbasbasbag69
(g85
g71
NtRp1686
(dp1687
g74
(dp1688
sg83
g1633
sg76
(lp1689
g69
(g90
g71
NtRp1690
(dp1691
g74
(dp1692
sg83
g1686
sg76
(lp1693
g69
(g70
g71
NtRp1694
(dp1695
g74
(dp1696
g82
I3
ssg83
g1690
sg76
(lp1697
S'stable'
p1698
asbasbasbasbasbasbasbag69
(g85
g71
NtRp1699
(dp1700
g74
(dp1701
sg83
g885
sg76
(lp1702
g69
(g90
g71
NtRp1703
(dp1704
g74
(dp1705
g94
g95
ssg83
g1699
sg76
(lp1706
S'wsgi_errors'
p1707
asbag69
(g90
g71
NtRp1708
(dp1709
g74
(dp1710
g101
g102
ssg83
g1699
sg76
(lp1711
S':'
asbag69
(g90
g71
NtRp1712
(dp1713
g74
(dp1714
sg83
g1699
sg76
(lp1715
g69
(g70
g71
NtRp1716
(dp1717
g74
(dp1718
g82
I4
ssg83
g1712
sg76
(lp1719
S"<open file '<stderr>', mode 'w' at 0xb751e0d0>"
p1720
asbasbasbag69
(g85
g71
NtRp1721
(dp1722
g74
(dp1723
sg83
g885
sg76
(lp1724
g69
(g90
g71
NtRp1725
(dp1726
g74
(dp1727
g94
g95
ssg83
g1721
sg76
(lp1728
S'wsgi_file_wrapper'
p1729
asbag69
(g90
g71
NtRp1730
(dp1731
g74
(dp1732
g101
g102
ssg83
g1721
sg76
(lp1733
S':'
asbag69
(g90
g71
NtRp1734
(dp1735
g74
(dp1736
sg83
g1721
sg76
(lp1737
g69
(g70
g71
NtRp1738
(dp1739
g74
(dp1740
g82
I4
ssg83
g1734
sg76
(lp1741
S'<class wsgiref.util.FileWrapper at 0x8844ecc>'
p1742
asbasbasbag69
(g85
g71
NtRp1743
(dp1744
g74
(dp1745
sg83
g885
sg76
(lp1746
g69
(g90
g71
NtRp1747
(dp1748
g74
(dp1749
g94
g95
ssg83
g1743
sg76
(lp1750
S'wsgi_input'
p1751
asbag69
(g90
g71
NtRp1752
(dp1753
g74
(dp1754
g101
g102
ssg83
g1743
sg76
(lp1755
S':'
asbag69
(g90
g71
NtRp1756
(dp1757
g74
(dp1758
sg83
g1743
sg76
(lp1759
g69
(g70
g71
NtRp1760
(dp1761
g74
(dp1762
g82
I4
ssg83
g1756
sg76
(lp1763
S'<socket._fileobject object at 0x8c8e9ec>'
p1764
asbasbasbag69
(g85
g71
NtRp1765
(dp1766
g74
(dp1767
sg83
g885
sg76
(lp1768
g69
(g90
g71
NtRp1769
(dp1770
g74
(dp1771
g94
g95
ssg83
g1765
sg76
(lp1772
S'wsgi_multiprocess'
p1773
asbag69
(g90
g71
NtRp1774
(dp1775
g74
(dp1776
g101
g102
ssg83
g1765
sg76
(lp1777
S':'
asbag69
(g90
g71
NtRp1778
(dp1779
g74
(dp1780
sg83
g1765
sg76
(lp1781
g69
(g70
g71
NtRp1782
(dp1783
g74
(dp1784
g82
I4
ssg83
g1778
sg76
(lp1785
g112
asbasbasbag69
(g85
g71
NtRp1786
(dp1787
g74
(dp1788
sg83
g885
sg76
(lp1789
g69
(g90
g71
NtRp1790
(dp1791
g74
(dp1792
g94
g95
ssg83
g1786
sg76
(lp1793
S'wsgi_multithread'
p1794
asbag69
(g90
g71
NtRp1795
(dp1796
g74
(dp1797
g101
g102
ssg83
g1786
sg76
(lp1798
S':'
asbag69
(g90
g71
NtRp1799
(dp1800
g74
(dp1801
sg83
g1786
sg76
(lp1802
g69
(g70
g71
NtRp1803
(dp1804
g74
(dp1805
g82
I4
ssg83
g1799
sg76
(lp1806
S'True'
p1807
asbasbasbag69
(g85
g71
NtRp1808
(dp1809
g74
(dp1810
sg83
g885
sg76
(lp1811
g69
(g90
g71
NtRp1812
(dp1813
g74
(dp1814
g94
g95
ssg83
g1808
sg76
(lp1815
S'wsgi_run_once'
p1816
asbag69
(g90
g71
NtRp1817
(dp1818
g74
(dp1819
g101
g102
ssg83
g1808
sg76
(lp1820
S':'
asbag69
(g90
g71
NtRp1821
(dp1822
g74
(dp1823
sg83
g1808
sg76
(lp1824
g69
(g70
g71
NtRp1825
(dp1826
g74
(dp1827
g82
I4
ssg83
g1821
sg76
(lp1828
g112
asbasbasbag69
(g85
g71
NtRp1829
(dp1830
g74
(dp1831
sg83
g885
sg76
(lp1832
g69
(g90
g71
NtRp1833
(dp1834
g74
(dp1835
g94
g95
ssg83
g1829
sg76
(lp1836
S'wsgi_url_scheme'
p1837
asbag69
(g90
g71
NtRp1838
(dp1839
g74
(dp1840
g101
g102
ssg83
g1829
sg76
(lp1841
S':'
asbag69
(g90
g71
NtRp1842
(dp1843
g74
(dp1844
sg83
g1829
sg76
(lp1845
g69
(g70
g71
NtRp1846
(dp1847
g74
(dp1848
g82
I4
ssg83
g1842
sg76
(lp1849
S'http'
p1850
asbasbasbag69
(g85
g71
NtRp1851
(dp1852
g74
(dp1853
sg83
g885
sg76
(lp1854
g69
(g90
g71
NtRp1855
(dp1856
g74
(dp1857
g94
g95
ssg83
g1851
sg76
(lp1858
S'wsgi_version'
p1859
asbag69
(g90
g71
NtRp1860
(dp1861
g74
(dp1862
g101
g102
ssg83
g1851
sg76
(lp1863
S':'
asbag69
(g90
g71
NtRp1864
(dp1865
g74
(dp1866
sg83
g1851
sg76
(lp1867
g69
(g70
g71
NtRp1868
(dp1869
g74
(dp1870
g82
I4
ssg83
g1864
sg76
(lp1871
g69
(g78
g71
NtRp1872
(dp1873
g74
(dp1874
g82
I3
ssg83
Nsg76
(lp1875
g69
(g85
g71
NtRp1876
(dp1877
g74
(dp1878
sg83
g1872
sg76
(lp1879
g69
(g90
g71
NtRp1880
(dp1881
g74
(dp1882
sg83
g1876
sg76
(lp1883
g69
(g70
g71
NtRp1884
(dp1885
g74
(dp1886
g82
I3
ssg83
g1880
sg76
(lp1887
S'1'
asbasbasbag69
(g85
g71
NtRp1888
(dp1889
g74
(dp1890
sg83
g1872
sg76
(lp1891
g69
(g90
g71
NtRp1892
(dp1893
g74
(dp1894
sg83
g1888
sg76
(lp1895
g69
(g70
g71
NtRp1896
(dp1897
g74
(dp1898
g82
I3
ssg83
g1892
sg76
(lp1899
S'0'
asbasbasbasbasbasbasbasbasbasbasbag69
(g85
g71
NtRp1900
(dp1901
g74
(dp1902
sg83
g79
sg76
(lp1903
g69
(g90
g71
NtRp1904
(dp1905
g74
(dp1906
g94
g95
ssg83
g1900
sg76
(lp1907
S'extension'
p1908
asbag69
(g90
g71
NtRp1909
(dp1910
g74
(dp1911
g101
g102
ssg83
g1900
sg76
(lp1912
S':'
asbag69
(g90
g71
NtRp1913
(dp1914
g74
(dp1915
sg83
g1900
sg76
(lp1916
g69
(g70
g71
NtRp1917
(dp1918
g74
(dp1919
g82
I5
ssg83
g1913
sg76
(lp1920
S'html'
p1921
asbasbasbag69
(g85
g71
NtRp1922
(dp1923
g74
(dp1924
sg83
g79
sg76
(lp1925
g69
(g90
g71
NtRp1926
(dp1927
g74
(dp1928
g94
g95
ssg83
g1922
sg76
(lp1929
S'folder'
p1930
asbag69
(g90
g71
NtRp1931
(dp1932
g74
(dp1933
g101
g102
ssg83
g1922
sg76
(lp1934
S':'
asbag69
(g90
g71
NtRp1935
(dp1936
g74
(dp1937
sg83
g1922
sg76
(lp1938
g69
(g70
g71
NtRp1939
(dp1940
g74
(dp1941
g82
I5
ssg83
g1935
sg76
(lp1942
S'/home/gaurav/classwork/WEB_PROGRAMMING/web2py/applications/MUSIC/'
p1943
asbasbasbag69
(g85
g71
NtRp1944
(dp1945
g74
(dp1946
sg83
g79
sg76
(lp1947
g69
(g90
g71
NtRp1948
(dp1949
g74
(dp1950
g94
g95
ssg83
g1944
sg76
(lp1951
S'function'
p1952
asbag69
(g90
g71
NtRp1953
(dp1954
g74
(dp1955
g101
g102
ssg83
g1944
sg76
(lp1956
S':'
asbag69
(g90
g71
NtRp1957
(dp1958
g74
(dp1959
sg83
g1944
sg76
(lp1960
g69
(g70
g71
NtRp1961
(dp1962
g74
(dp1963
g82
I5
ssg83
g1957
sg76
(lp1964
S'insert'
p1965
asbasbasbag69
(g85
g71
NtRp1966
(dp1967
g74
(dp1968
sg83
g79
sg76
(lp1969
g69
(g90
g71
NtRp1970
(dp1971
g74
(dp1972
g94
g95
ssg83
g1966
sg76
(lp1973
S'get_vars'
p1974
asbag69
(g90
g71
NtRp1975
(dp1976
g74
(dp1977
g101
g102
ssg83
g1966
sg76
(lp1978
S':'
asbag69
(g90
g71
NtRp1979
(dp1980
g74
(dp1981
sg83
g1966
sg76
(lp1982
g69
(g70
g71
NtRp1983
(dp1984
g74
(dp1985
g82
I5
ssg83
g1979
sg76
(lp1986
g69
(g78
g71
NtRp1987
(dp1988
g74
(dp1989
g82
I4
ssg83
Nsg76
(lp1990
sbasbasbasbag69
(g85
g71
NtRp1991
(dp1992
g74
(dp1993
sg83
g79
sg76
(lp1994
g69
(g90
g71
NtRp1995
(dp1996
g74
(dp1997
g94
g95
ssg83
g1991
sg76
(lp1998
S'global_settings'
p1999
asbag69
(g90
g71
NtRp2000
(dp2001
g74
(dp2002
g101
g102
ssg83
g1991
sg76
(lp2003
S':'
asbag69
(g90
g71
NtRp2004
(dp2005
g74
(dp2006
sg83
g1991
sg76
(lp2007
g69
(g70
g71
NtRp2008
(dp2009
g74
(dp2010
g82
I5
ssg83
g2004
sg76
(lp2011
g69
(g78
g71
NtRp2012
(dp2013
g74
(dp2014
g82
I4
ssg83
Nsg76
(lp2015
g69
(g85
g71
NtRp2016
(dp2017
g74
(dp2018
sg83
g2012
sg76
(lp2019
g69
(g90
g71
NtRp2020
(dp2021
g74
(dp2022
g94
g95
ssg83
g2016
sg76
(lp2023
g897
asbag69
(g90
g71
NtRp2024
(dp2025
g74
(dp2026
g101
g102
ssg83
g2016
sg76
(lp2027
S':'
asbag69
(g90
g71
NtRp2028
(dp2029
g74
(dp2030
sg83
g2016
sg76
(lp2031
g69
(g70
g71
NtRp2032
(dp2033
g74
(dp2034
g82
I4
ssg83
g2028
sg76
(lp2035
S"set(['/home/gaurav/classwork/WEB_PROGRAMMING/web2py/applications/MUSIC/', '/home/gaurav/classwork/WEB_PROGRAMMING/web2py/applications/admin/', '/home/gaurav/classwork/WEB_PROGRAMMING/web2py/applications/welcome/'])"
p2036
asbasbasbag69
(g85
g71
NtRp2037
(dp2038
g74
(dp2039
sg83
g2012
sg76
(lp2040
g69
(g90
g71
NtRp2041
(dp2042
g74
(dp2043
g94
g95
ssg83
g2037
sg76
(lp2044
g919
asbag69
(g90
g71
NtRp2045
(dp2046
g74
(dp2047
g101
g102
ssg83
g2037
sg76
(lp2048
S':'
asbag69
(g90
g71
NtRp2049
(dp2050
g74
(dp2051
sg83
g2037
sg76
(lp2052
g69
(g70
g71
NtRp2053
(dp2054
g74
(dp2055
g82
I4
ssg83
g2049
sg76
(lp2056
g932
asbasbasbag69
(g85
g71
NtRp2057
(dp2058
g74
(dp2059
sg83
g2012
sg76
(lp2060
g69
(g90
g71
NtRp2061
(dp2062
g74
(dp2063
g94
g95
ssg83
g2057
sg76
(lp2064
g941
asbag69
(g90
g71
NtRp2065
(dp2066
g74
(dp2067
g101
g102
ssg83
g2057
sg76
(lp2068
S':'
asbag69
(g90
g71
NtRp2069
(dp2070
g74
(dp2071
sg83
g2057
sg76
(lp2072
g69
(g70
g71
NtRp2073
(dp2074
g74
(dp2075
g82
I4
ssg83
g2069
sg76
(lp2076
g69
(g78
g71
NtRp2077
(dp2078
g74
(dp2079
g82
I3
ssg83
Nsg76
(lp2080
sbasbasbasbag69
(g85
g71
NtRp2081
(dp2082
g74
(dp2083
sg83
g2012
sg76
(lp2084
g69
(g90
g71
NtRp2085
(dp2086
g74
(dp2087
g94
g95
ssg83
g2081
sg76
(lp2088
g966
asbag69
(g90
g71
NtRp2089
(dp2090
g74
(dp2091
g101
g102
ssg83
g2081
sg76
(lp2092
S':'
asbag69
(g90
g71
NtRp2093
(dp2094
g74
(dp2095
sg83
g2081
sg76
(lp2096
g69
(g70
g71
NtRp2097
(dp2098
g74
(dp2099
g82
I4
ssg83
g2093
sg76
(lp2100
S"<Values at 0x88926ec: {'verbose': False, 'ip': '127.0.0.1', 'with_scheduler': False, 'ips': [], 'shutdown_timeout': 5, 'taskbar': False, 'port': 8000, 'maxthreads': None, 'softcron': False, 'server_name': 'gaurav-Compaq-Presario-C700-Notebook-PC', 'bpython': False, 'nogui': False, 'pid_filename': 'httpserver.pid', 'extcron': False, 'runcron': False, 'run_system_tests': False, 'test': None, 'folder': '/home/gaurav/classwork/WEB_PROGRAMMING/web2py', 'config': '', 'import_models': False, 'winservice': '', 'shell': None, 'run': '', 'log_filename': 'httpserver.log', 'debuglevel': 30, 'args': [''], 'socket_timeout': 5, 'ssl_ca_certificate': None, 'scheduler': None, 'profiler_filename': None, 'ssl_private_key': '', 'scheduler_groups': None, 'password': '<ask>', 'request_queue_size': 5, 'ssl_certificate': '', 'cronjob': False, 'numthreads': None, 'quiet': False, 'interfaces': None, 'minthreads': None, 'timeout': 10, 'plain': False, 'nobanner': False}>"
p2101
asbasbasbag69
(g85
g71
NtRp2102
(dp2103
g74
(dp2104
sg83
g2012
sg76
(lp2105
g69
(g90
g71
NtRp2106
(dp2107
g74
(dp2108
g94
g95
ssg83
g2102
sg76
(lp2109
g988
asbag69
(g90
g71
NtRp2110
(dp2111
g74
(dp2112
g101
g102
ssg83
g2102
sg76
(lp2113
S':'
asbag69
(g90
g71
NtRp2114
(dp2115
g74
(dp2116
sg83
g2102
sg76
(lp2117
g69
(g70
g71
NtRp2118
(dp2119
g74
(dp2120
g82
I4
ssg83
g2114
sg76
(lp2121
S'set([])'
p2122
asbasbasbag69
(g85
g71
NtRp2123
(dp2124
g74
(dp2125
sg83
g2012
sg76
(lp2126
g69
(g90
g71
NtRp2127
(dp2128
g74
(dp2129
g94
g95
ssg83
g2123
sg76
(lp2130
g1010
asbag69
(g90
g71
NtRp2131
(dp2132
g74
(dp2133
g101
g102
ssg83
g2123
sg76
(lp2134
S':'
asbag69
(g90
g71
NtRp2135
(dp2136
g74
(dp2137
sg83
g2123
sg76
(lp2138
g69
(g70
g71
NtRp2139
(dp2140
g74
(dp2141
g82
I4
ssg83
g2135
sg76
(lp2142
g112
asbasbasbag69
(g85
g71
NtRp2143
(dp2144
g74
(dp2145
sg83
g2012
sg76
(lp2146
g69
(g90
g71
NtRp2147
(dp2148
g74
(dp2149
g94
g95
ssg83
g2143
sg76
(lp2150
g1031
asbag69
(g90
g71
NtRp2151
(dp2152
g74
(dp2153
g101
g102
ssg83
g2143
sg76
(lp2154
S':'
asbag69
(g90
g71
NtRp2155
(dp2156
g74
(dp2157
sg83
g2143
sg76
(lp2158
g69
(g70
g71
NtRp2159
(dp2160
g74
(dp2161
g82
I4
ssg83
g2155
sg76
(lp2162
g1044
asbasbasbag69
(g85
g71
NtRp2163
(dp2164
g74
(dp2165
sg83
g2012
sg76
(lp2166
g69
(g90
g71
NtRp2167
(dp2168
g74
(dp2169
g94
g95
ssg83
g2163
sg76
(lp2170
g1229
asbag69
(g90
g71
NtRp2171
(dp2172
g74
(dp2173
g101
g102
ssg83
g2163
sg76
(lp2174
S':'
asbag69
(g90
g71
NtRp2175
(dp2176
g74
(dp2177
sg83
g2163
sg76
(lp2178
g69
(g70
g71
NtRp2179
(dp2180
g74
(dp2181
g82
I4
ssg83
g2175
sg76
(lp2182
g112
asbasbasbag69
(g85
g71
NtRp2183
(dp2184
g74
(dp2185
sg83
g2012
sg76
(lp2186
g69
(g90
g71
NtRp2187
(dp2188
g74
(dp2189
g94
g95
ssg83
g2183
sg76
(lp2190
g1250
asbag69
(g90
g71
NtRp2191
(dp2192
g74
(dp2193
g101
g102
ssg83
g2183
sg76
(lp2194
S':'
asbag69
(g90
g71
NtRp2195
(dp2196
g74
(dp2197
sg83
g2183
sg76
(lp2198
g69
(g70
g71
NtRp2199
(dp2200
g74
(dp2201
g82
I4
ssg83
g2195
sg76
(lp2202
g112
asbasbasbag69
(g85
g71
NtRp2203
(dp2204
g74
(dp2205
sg83
g2012
sg76
(lp2206
g69
(g90
g71
NtRp2207
(dp2208
g74
(dp2209
g94
g95
ssg83
g2203
sg76
(lp2210
g1271
asbag69
(g90
g71
NtRp2211
(dp2212
g74
(dp2213
g101
g102
ssg83
g2203
sg76
(lp2214
S':'
asbag69
(g90
g71
NtRp2215
(dp2216
g74
(dp2217
sg83
g2203
sg76
(lp2218
g69
(g70
g71
NtRp2219
(dp2220
g74
(dp2221
g82
I4
ssg83
g2215
sg76
(lp2222
g69
(g78
g71
NtRp2223
(dp2224
g74
(dp2225
g82
I3
ssg83
Nsg76
(lp2226
g69
(g85
g71
NtRp2227
(dp2228
g74
(dp2229
sg83
g2223
sg76
(lp2230
g69
(g90
g71
NtRp2231
(dp2232
g74
(dp2233
sg83
g2227
sg76
(lp2234
g69
(g70
g71
NtRp2235
(dp2236
g74
(dp2237
g82
I3
ssg83
g2231
sg76
(lp2238
g1300
asbasbasbag69
(g85
g71
NtRp2239
(dp2240
g74
(dp2241
sg83
g2223
sg76
(lp2242
g69
(g90
g71
NtRp2243
(dp2244
g74
(dp2245
sg83
g2239
sg76
(lp2246
g69
(g70
g71
NtRp2247
(dp2248
g74
(dp2249
g82
I3
ssg83
g2243
sg76
(lp2250
g1313
asbasbasbag69
(g85
g71
NtRp2251
(dp2252
g74
(dp2253
sg83
g2223
sg76
(lp2254
g69
(g90
g71
NtRp2255
(dp2256
g74
(dp2257
sg83
g2251
sg76
(lp2258
g69
(g70
g71
NtRp2259
(dp2260
g74
(dp2261
g82
I3
ssg83
g2255
sg76
(lp2262
g1326
asbasbasbag69
(g85
g71
NtRp2263
(dp2264
g74
(dp2265
sg83
g2223
sg76
(lp2266
g69
(g90
g71
NtRp2267
(dp2268
g74
(dp2269
sg83
g2263
sg76
(lp2270
g69
(g70
g71
NtRp2271
(dp2272
g74
(dp2273
g82
I3
ssg83
g2267
sg76
(lp2274
g1339
asbasbasbag69
(g85
g71
NtRp2275
(dp2276
g74
(dp2277
sg83
g2223
sg76
(lp2278
g69
(g90
g71
NtRp2279
(dp2280
g74
(dp2281
sg83
g2275
sg76
(lp2282
g69
(g70
g71
NtRp2283
(dp2284
g74
(dp2285
g82
I3
ssg83
g2279
sg76
(lp2286
g1352
asbasbasbasbasbasbasbag69
(g85
g71
NtRp2287
(dp2288
g74
(dp2289
sg83
g2012
sg76
(lp2290
g69
(g90
g71
NtRp2291
(dp2292
g74
(dp2293
g94
g95
ssg83
g2287
sg76
(lp2294
g1620
asbag69
(g90
g71
NtRp2295
(dp2296
g74
(dp2297
g101
g102
ssg83
g2287
sg76
(lp2298
S':'
asbag69
(g90
g71
NtRp2299
(dp2300
g74
(dp2301
sg83
g2287
sg76
(lp2302
g69
(g70
g71
NtRp2303
(dp2304
g74
(dp2305
g82
I4
ssg83
g2299
sg76
(lp2306
g69
(g78
g71
NtRp2307
(dp2308
g74
(dp2309
g82
I3
ssg83
Nsg76
(lp2310
g69
(g85
g71
NtRp2311
(dp2312
g74
(dp2313
sg83
g2307
sg76
(lp2314
g69
(g90
g71
NtRp2315
(dp2316
g74
(dp2317
sg83
g2311
sg76
(lp2318
g69
(g70
g71
NtRp2319
(dp2320
g74
(dp2321
g82
I3
ssg83
g2315
sg76
(lp2322
S'2'
asbasbasbag69
(g85
g71
NtRp2323
(dp2324
g74
(dp2325
sg83
g2307
sg76
(lp2326
g69
(g90
g71
NtRp2327
(dp2328
g74
(dp2329
sg83
g2323
sg76
(lp2330
g69
(g70
g71
NtRp2331
(dp2332
g74
(dp2333
g82
I3
ssg83
g2327
sg76
(lp2334
S'3'
asbasbasbag69
(g85
g71
NtRp2335
(dp2336
g74
(dp2337
sg83
g2307
sg76
(lp2338
g69
(g90
g71
NtRp2339
(dp2340
g74
(dp2341
sg83
g2335
sg76
(lp2342
g69
(g70
g71
NtRp2343
(dp2344
g74
(dp2345
g82
I3
ssg83
g2339
sg76
(lp2346
S'2'
asbasbasbag69
(g85
g71
NtRp2347
(dp2348
g74
(dp2349
sg83
g2307
sg76
(lp2350
g69
(g90
g71
NtRp2351
(dp2352
g74
(dp2353
sg83
g2347
sg76
(lp2354
g69
(g70
g71
NtRp2355
(dp2356
g74
(dp2357
g82
I3
ssg83
g2351
sg76
(lp2358
S'datetime.datetime(2012, 12, 17, 15, 3, 30)'
p2359
asbasbasbag69
(g85
g71
NtRp2360
(dp2361
g74
(dp2362
sg83
g2307
sg76
(lp2363
g69
(g90
g71
NtRp2364
(dp2365
g74
(dp2366
sg83
g2360
sg76
(lp2367
g69
(g70
g71
NtRp2368
(dp2369
g74
(dp2370
g82
I3
ssg83
g2364
sg76
(lp2371
g1698
asbasbasbasbasbasbasbasbasbasbasbag69
(g85
g71
NtRp2372
(dp2373
g74
(dp2374
sg83
g79
sg76
(lp2375
g69
(g90
g71
NtRp2376
(dp2377
g74
(dp2378
g94
g95
ssg83
g2372
sg76
(lp2379
S'is_https'
p2380
asbag69
(g90
g71
NtRp2381
(dp2382
g74
(dp2383
g101
g102
ssg83
g2372
sg76
(lp2384
S':'
asbag69
(g90
g71
NtRp2385
(dp2386
g74
(dp2387
sg83
g2372
sg76
(lp2388
g69
(g70
g71
NtRp2389
(dp2390
g74
(dp2391
g82
I5
ssg83
g2385
sg76
(lp2392
g112
asbasbasbag69
(g85
g71
NtRp2393
(dp2394
g74
(dp2395
sg83
g79
sg76
(lp2396
g69
(g90
g71
NtRp2397
(dp2398
g74
(dp2399
g94
g95
ssg83
g2393
sg76
(lp2400
S'is_local'
p2401
asbag69
(g90
g71
NtRp2402
(dp2403
g74
(dp2404
g101
g102
ssg83
g2393
sg76
(lp2405
S':'
asbag69
(g90
g71
NtRp2406
(dp2407
g74
(dp2408
sg83
g2393
sg76
(lp2409
g69
(g70
g71
NtRp2410
(dp2411
g74
(dp2412
g82
I5
ssg83
g2406
sg76
(lp2413
g1807
asbasbasbag69
(g85
g71
NtRp2414
(dp2415
g74
(dp2416
sg83
g79
sg76
(lp2417
g69
(g90
g71
NtRp2418
(dp2419
g74
(dp2420
g94
g95
ssg83
g2414
sg76
(lp2421
S'is_restful'
p2422
asbag69
(g90
g71
NtRp2423
(dp2424
g74
(dp2425
g101
g102
ssg83
g2414
sg76
(lp2426
S':'
asbag69
(g90
g71
NtRp2427
(dp2428
g74
(dp2429
sg83
g2414
sg76
(lp2430
g69
(g70
g71
NtRp2431
(dp2432
g74
(dp2433
g82
I5
ssg83
g2427
sg76
(lp2434
g112
asbasbasbag69
(g85
g71
NtRp2435
(dp2436
g74
(dp2437
sg83
g79
sg76
(lp2438
g69
(g90
g71
NtRp2439
(dp2440
g74
(dp2441
g94
g95
ssg83
g2435
sg76
(lp2442
S'now'
p2443
asbag69
(g90
g71
NtRp2444
(dp2445
g74
(dp2446
g101
g102
ssg83
g2435
sg76
(lp2447
S':'
asbag69
(g90
g71
NtRp2448
(dp2449
g74
(dp2450
sg83
g2435
sg76
(lp2451
g69
(g70
g71
NtRp2452
(dp2453
g74
(dp2454
g82
I5
ssg83
g2448
sg76
(lp2455
S'datetime.datetime(2013, 3, 9, 16, 18, 30, 148642)'
p2456
asbasbasbag69
(g85
g71
NtRp2457
(dp2458
g74
(dp2459
sg83
g79
sg76
(lp2460
g69
(g90
g71
NtRp2461
(dp2462
g74
(dp2463
g94
g95
ssg83
g2457
sg76
(lp2464
S'post_vars'
p2465
asbag69
(g90
g71
NtRp2466
(dp2467
g74
(dp2468
g101
g102
ssg83
g2457
sg76
(lp2469
S':'
asbag69
(g90
g71
NtRp2470
(dp2471
g74
(dp2472
sg83
g2457
sg76
(lp2473
g69
(g70
g71
NtRp2474
(dp2475
g74
(dp2476
g82
I5
ssg83
g2470
sg76
(lp2477
g69
(g78
g71
NtRp2478
(dp2479
g74
(dp2480
g82
I4
ssg83
Nsg76
(lp2481
sbasbasbasbag69
(g85
g71
NtRp2482
(dp2483
g74
(dp2484
sg83
g79
sg76
(lp2485
g69
(g90
g71
NtRp2486
(dp2487
g74
(dp2488
g94
g95
ssg83
g2482
sg76
(lp2489
S'raw_args'
p2490
asbag69
(g90
g71
NtRp2491
(dp2492
g74
(dp2493
g101
g102
ssg83
g2482
sg76
(lp2494
S':'
asbag69
(g90
g71
NtRp2495
(dp2496
g74
(dp2497
sg83
g2482
sg76
(lp2498
g69
(g70
g71
NtRp2499
(dp2500
g74
(dp2501
g82
I5
ssg83
g2495
sg76
(lp2502
S'db/artist'
p2503
asbasbasbag69
(g85
g71
NtRp2504
(dp2505
g74
(dp2506
sg83
g79
sg76
(lp2507
g69
(g90
g71
NtRp2508
(dp2509
g74
(dp2510
g94
g95
ssg83
g2504
sg76
(lp2511
S'raw_extension'
p2512
asbag69
(g90
g71
NtRp2513
(dp2514
g74
(dp2515
g101
g102
ssg83
g2504
sg76
(lp2516
S':'
asbag69
(g90
g71
NtRp2517
(dp2518
g74
(dp2519
sg83
g2504
sg76
(lp2520
g69
(g70
g71
NtRp2521
(dp2522
g74
(dp2523
g82
I5
ssg83
g2517
sg76
(lp2524
S'None'
p2525
asbasbasbag69
(g85
g71
NtRp2526
(dp2527
g74
(dp2528
sg83
g79
sg76
(lp2529
g69
(g90
g71
NtRp2530
(dp2531
g74
(dp2532
g94
g95
ssg83
g2526
sg76
(lp2533
S'url'
p2534
asbag69
(g90
g71
NtRp2535
(dp2536
g74
(dp2537
g101
g102
ssg83
g2526
sg76
(lp2538
S':'
asbag69
(g90
g71
NtRp2539
(dp2540
g74
(dp2541
sg83
g2526
sg76
(lp2542
g69
(g70
g71
NtRp2543
(dp2544
g74
(dp2545
g82
I5
ssg83
g2539
sg76
(lp2546
g1374
asbasbasbag69
(g85
g71
NtRp2547
(dp2548
g74
(dp2549
sg83
g79
sg76
(lp2550
g69
(g90
g71
NtRp2551
(dp2552
g74
(dp2553
g94
g95
ssg83
g2547
sg76
(lp2554
S'utcnow'
p2555
asbag69
(g90
g71
NtRp2556
(dp2557
g74
(dp2558
g101
g102
ssg83
g2547
sg76
(lp2559
S':'
asbag69
(g90
g71
NtRp2560
(dp2561
g74
(dp2562
sg83
g2547
sg76
(lp2563
g69
(g70
g71
NtRp2564
(dp2565
g74
(dp2566
g82
I5
ssg83
g2560
sg76
(lp2567
S'datetime.datetime(2013, 3, 9, 10, 48, 30, 148702)'
p2568
asbasbasbag69
(g85
g71
NtRp2569
(dp2570
g74
(dp2571
sg83
g79
sg76
(lp2572
g69
(g90
g71
NtRp2573
(dp2574
g74
(dp2575
g94
g95
ssg83
g2569
sg76
(lp2576
S'uuid'
p2577
asbag69
(g90
g71
NtRp2578
(dp2579
g74
(dp2580
g101
g102
ssg83
g2569
sg76
(lp2581
S':'
asbag69
(g90
g71
NtRp2582
(dp2583
g74
(dp2584
sg83
g2569
sg76
(lp2585
g69
(g70
g71
NtRp2586
(dp2587
g74
(dp2588
g82
I5
ssg83
g2582
sg76
(lp2589
S'MUSIC/127.0.0.1.2013-03-09.16-18-30.7b868106-4ed1-4252-b72c-3457e8426019'
p2590
asbasbasbag69
(g85
g71
NtRp2591
(dp2592
g74
(dp2593
sg83
g79
sg76
(lp2594
g69
(g90
g71
NtRp2595
(dp2596
g74
(dp2597
g94
g95
ssg83
g2591
sg76
(lp2598
S'vars'
p2599
asbag69
(g90
g71
NtRp2600
(dp2601
g74
(dp2602
g101
g102
ssg83
g2591
sg76
(lp2603
S':'
asbag69
(g90
g71
NtRp2604
(dp2605
g74
(dp2606
sg83
g2591
sg76
(lp2607
g69
(g70
g71
NtRp2608
(dp2609
g74
(dp2610
g82
I5
ssg83
g2604
sg76
(lp2611
g69
(g78
g71
NtRp2612
(dp2613
g74
(dp2614
g82
I4
ssg83
Nsg76
(lp2615
sbasbasbasbag69
(g85
g71
NtRp2616
(dp2617
g74
(dp2618
sg83
g79
sg76
(lp2619
g69
(g90
g71
NtRp2620
(dp2621
g74
(dp2622
g94
g95
ssg83
g2616
sg76
(lp2623
S'wsgi'
p2624
asbag69
(g90
g71
NtRp2625
(dp2626
g74
(dp2627
g101
g102
ssg83
g2616
sg76
(lp2628
S':'
asbag69
(g90
g71
NtRp2629
(dp2630
g74
(dp2631
sg83
g2616
sg76
(lp2632
g69
(g70
g71
NtRp2633
(dp2634
g74
(dp2635
g82
I5
ssg83
g2629
sg76
(lp2636
g69
(g78
g71
NtRp2637
(dp2638
g74
(dp2639
g82
I4
ssg83
Nsg76
(lp2640
g69
(g85
g71
NtRp2641
(dp2642
g74
(dp2643
sg83
g2637
sg76
(lp2644
g69
(g90
g71
NtRp2645
(dp2646
g74
(dp2647
g94
g95
ssg83
g2641
sg76
(lp2648
S'environ'
p2649
asbag69
(g90
g71
NtRp2650
(dp2651
g74
(dp2652
g101
g102
ssg83
g2641
sg76
(lp2653
S':'
asbag69
(g90
g71
NtRp2654
(dp2655
g74
(dp2656
sg83
g2641
sg76
(lp2657
g69
(g70
g71
NtRp2658
(dp2659
g74
(dp2660
g82
I4
ssg83
g2654
sg76
(lp2661
g69
(g78
g71
NtRp2662
(dp2663
g74
(dp2664
g82
I3
ssg83
Nsg76
(lp2665
g69
(g85
g71
NtRp2666
(dp2667
g74
(dp2668
sg83
g2662
sg76
(lp2669
g69
(g90
g71
NtRp2670
(dp2671
g74
(dp2672
g94
g95
ssg83
g2666
sg76
(lp2673
S'HTTP_ACCEPT'
p2674
asbag69
(g90
g71
NtRp2675
(dp2676
g74
(dp2677
g101
g102
ssg83
g2666
sg76
(lp2678
S':'
asbag69
(g90
g71
NtRp2679
(dp2680
g74
(dp2681
sg83
g2666
sg76
(lp2682
g69
(g70
g71
NtRp2683
(dp2684
g74
(dp2685
g82
I3
ssg83
g2679
sg76
(lp2686
g1066
asbasbasbag69
(g85
g71
NtRp2687
(dp2688
g74
(dp2689
sg83
g2662
sg76
(lp2690
g69
(g90
g71
NtRp2691
(dp2692
g74
(dp2693
g94
g95
ssg83
g2687
sg76
(lp2694
S'HTTP_ACCEPT_ENCODING'
p2695
asbag69
(g90
g71
NtRp2696
(dp2697
g74
(dp2698
g101
g102
ssg83
g2687
sg76
(lp2699
S':'
asbag69
(g90
g71
NtRp2700
(dp2701
g74
(dp2702
sg83
g2687
sg76
(lp2703
g69
(g70
g71
NtRp2704
(dp2705
g74
(dp2706
g82
I3
ssg83
g2700
sg76
(lp2707
g1088
asbasbasbag69
(g85
g71
NtRp2708
(dp2709
g74
(dp2710
sg83
g2662
sg76
(lp2711
g69
(g90
g71
NtRp2712
(dp2713
g74
(dp2714
g94
g95
ssg83
g2708
sg76
(lp2715
S'HTTP_ACCEPT_LANGUAGE'
p2716
asbag69
(g90
g71
NtRp2717
(dp2718
g74
(dp2719
g101
g102
ssg83
g2708
sg76
(lp2720
S':'
asbag69
(g90
g71
NtRp2721
(dp2722
g74
(dp2723
sg83
g2708
sg76
(lp2724
g69
(g70
g71
NtRp2725
(dp2726
g74
(dp2727
g82
I3
ssg83
g2721
sg76
(lp2728
g1110
asbasbasbag69
(g85
g71
NtRp2729
(dp2730
g74
(dp2731
sg83
g2662
sg76
(lp2732
g69
(g90
g71
NtRp2733
(dp2734
g74
(dp2735
g94
g95
ssg83
g2729
sg76
(lp2736
S'HTTP_CONNECTION'
p2737
asbag69
(g90
g71
NtRp2738
(dp2739
g74
(dp2740
g101
g102
ssg83
g2729
sg76
(lp2741
S':'
asbag69
(g90
g71
NtRp2742
(dp2743
g74
(dp2744
sg83
g2729
sg76
(lp2745
g69
(g70
g71
NtRp2746
(dp2747
g74
(dp2748
g82
I3
ssg83
g2742
sg76
(lp2749
g1132
asbasbasbag69
(g85
g71
NtRp2750
(dp2751
g74
(dp2752
sg83
g2662
sg76
(lp2753
g69
(g90
g71
NtRp2754
(dp2755
g74
(dp2756
g94
g95
ssg83
g2750
sg76
(lp2757
S'HTTP_COOKIE'
p2758
asbag69
(g90
g71
NtRp2759
(dp2760
g74
(dp2761
g101
g102
ssg83
g2750
sg76
(lp2762
S':'
asbag69
(g90
g71
NtRp2763
(dp2764
g74
(dp2765
sg83
g2750
sg76
(lp2766
g69
(g70
g71
NtRp2767
(dp2768
g74
(dp2769
g82
I3
ssg83
g2763
sg76
(lp2770
g1154
asbasbasbag69
(g85
g71
NtRp2771
(dp2772
g74
(dp2773
sg83
g2662
sg76
(lp2774
g69
(g90
g71
NtRp2775
(dp2776
g74
(dp2777
g94
g95
ssg83
g2771
sg76
(lp2778
S'HTTP_HOST'
p2779
asbag69
(g90
g71
NtRp2780
(dp2781
g74
(dp2782
g101
g102
ssg83
g2771
sg76
(lp2783
S':'
asbag69
(g90
g71
NtRp2784
(dp2785
g74
(dp2786
sg83
g2771
sg76
(lp2787
g69
(g70
g71
NtRp2788
(dp2789
g74
(dp2790
g82
I3
ssg83
g2784
sg76
(lp2791
g1176
asbasbasbag69
(g85
g71
NtRp2792
(dp2793
g74
(dp2794
sg83
g2662
sg76
(lp2795
g69
(g90
g71
NtRp2796
(dp2797
g74
(dp2798
g94
g95
ssg83
g2792
sg76
(lp2799
S'HTTP_REFERER'
p2800
asbag69
(g90
g71
NtRp2801
(dp2802
g74
(dp2803
g101
g102
ssg83
g2792
sg76
(lp2804
S':'
asbag69
(g90
g71
NtRp2805
(dp2806
g74
(dp2807
sg83
g2792
sg76
(lp2808
g69
(g70
g71
NtRp2809
(dp2810
g74
(dp2811
g82
I3
ssg83
g2805
sg76
(lp2812
g1198
asbasbasbag69
(g85
g71
NtRp2813
(dp2814
g74
(dp2815
sg83
g2662
sg76
(lp2816
g69
(g90
g71
NtRp2817
(dp2818
g74
(dp2819
g94
g95
ssg83
g2813
sg76
(lp2820
S'HTTP_USER_AGENT'
p2821
asbag69
(g90
g71
NtRp2822
(dp2823
g74
(dp2824
g101
g102
ssg83
g2813
sg76
(lp2825
S':'
asbag69
(g90
g71
NtRp2826
(dp2827
g74
(dp2828
sg83
g2813
sg76
(lp2829
g69
(g70
g71
NtRp2830
(dp2831
g74
(dp2832
g82
I3
ssg83
g2826
sg76
(lp2833
g1220
asbasbasbag69
(g85
g71
NtRp2834
(dp2835
g74
(dp2836
sg83
g2662
sg76
(lp2837
g69
(g90
g71
NtRp2838
(dp2839
g74
(dp2840
g94
g95
ssg83
g2834
sg76
(lp2841
S'PATH_INFO'
p2842
asbag69
(g90
g71
NtRp2843
(dp2844
g74
(dp2845
g101
g102
ssg83
g2834
sg76
(lp2846
S':'
asbag69
(g90
g71
NtRp2847
(dp2848
g74
(dp2849
sg83
g2834
sg76
(lp2850
g69
(g70
g71
NtRp2851
(dp2852
g74
(dp2853
g82
I3
ssg83
g2847
sg76
(lp2854
g1374
asbasbasbag69
(g85
g71
NtRp2855
(dp2856
g74
(dp2857
sg83
g2662
sg76
(lp2858
g69
(g90
g71
NtRp2859
(dp2860
g74
(dp2861
g94
g95
ssg83
g2855
sg76
(lp2862
S'QUERY_STRING'
p2863
asbag69
(g90
g71
NtRp2864
(dp2865
g74
(dp2866
g101
g102
ssg83
g2855
sg76
(lp2867
S':'
asbag69
(g90
g71
NtRp2868
(dp2869
g74
(dp2870
sg83
g2855
sg76
(lp2871
g69
(g70
g71
NtRp2872
(dp2873
g74
(dp2874
g82
I3
ssg83
g2868
sg76
(lp2875
S''
asbasbasbag69
(g85
g71
NtRp2876
(dp2877
g74
(dp2878
sg83
g2662
sg76
(lp2879
g69
(g90
g71
NtRp2880
(dp2881
g74
(dp2882
g94
g95
ssg83
g2876
sg76
(lp2883
S'REMOTE_ADDR'
p2884
asbag69
(g90
g71
NtRp2885
(dp2886
g74
(dp2887
g101
g102
ssg83
g2876
sg76
(lp2888
S':'
asbag69
(g90
g71
NtRp2889
(dp2890
g74
(dp2891
sg83
g2876
sg76
(lp2892
g69
(g70
g71
NtRp2893
(dp2894
g74
(dp2895
g82
I3
ssg83
g2889
sg76
(lp2896
g250
asbasbasbag69
(g85
g71
NtRp2897
(dp2898
g74
(dp2899
sg83
g2662
sg76
(lp2900
g69
(g90
g71
NtRp2901
(dp2902
g74
(dp2903
g94
g95
ssg83
g2897
sg76
(lp2904
S'REMOTE_PORT'
p2905
asbag69
(g90
g71
NtRp2906
(dp2907
g74
(dp2908
g101
g102
ssg83
g2897
sg76
(lp2909
S':'
asbag69
(g90
g71
NtRp2910
(dp2911
g74
(dp2912
sg83
g2897
sg76
(lp2913
g69
(g70
g71
NtRp2914
(dp2915
g74
(dp2916
g82
I3
ssg83
g2910
sg76
(lp2917
g1438
asbasbasbag69
(g85
g71
NtRp2918
(dp2919
g74
(dp2920
sg83
g2662
sg76
(lp2921
g69
(g90
g71
NtRp2922
(dp2923
g74
(dp2924
g94
g95
ssg83
g2918
sg76
(lp2925
S'REQUEST_METHOD'
p2926
asbag69
(g90
g71
NtRp2927
(dp2928
g74
(dp2929
g101
g102
ssg83
g2918
sg76
(lp2930
S':'
asbag69
(g90
g71
NtRp2931
(dp2932
g74
(dp2933
sg83
g2918
sg76
(lp2934
g69
(g70
g71
NtRp2935
(dp2936
g74
(dp2937
g82
I3
ssg83
g2931
sg76
(lp2938
g1460
asbasbasbag69
(g85
g71
NtRp2939
(dp2940
g74
(dp2941
sg83
g2662
sg76
(lp2942
g69
(g90
g71
NtRp2943
(dp2944
g74
(dp2945
g94
g95
ssg83
g2939
sg76
(lp2946
S'REQUEST_URI'
p2947
asbag69
(g90
g71
NtRp2948
(dp2949
g74
(dp2950
g101
g102
ssg83
g2939
sg76
(lp2951
S':'
asbag69
(g90
g71
NtRp2952
(dp2953
g74
(dp2954
sg83
g2939
sg76
(lp2955
g69
(g70
g71
NtRp2956
(dp2957
g74
(dp2958
g82
I3
ssg83
g2952
sg76
(lp2959
g1374
asbasbasbag69
(g85
g71
NtRp2960
(dp2961
g74
(dp2962
sg83
g2662
sg76
(lp2963
g69
(g90
g71
NtRp2964
(dp2965
g74
(dp2966
g94
g95
ssg83
g2960
sg76
(lp2967
S'SCRIPT_NAME'
p2968
asbag69
(g90
g71
NtRp2969
(dp2970
g74
(dp2971
g101
g102
ssg83
g2960
sg76
(lp2972
S':'
asbag69
(g90
g71
NtRp2973
(dp2974
g74
(dp2975
sg83
g2960
sg76
(lp2976
g69
(g70
g71
NtRp2977
(dp2978
g74
(dp2979
g82
I3
ssg83
g2973
sg76
(lp2980
S''
asbasbasbag69
(g85
g71
NtRp2981
(dp2982
g74
(dp2983
sg83
g2662
sg76
(lp2984
g69
(g90
g71
NtRp2985
(dp2986
g74
(dp2987
g94
g95
ssg83
g2981
sg76
(lp2988
S'SERVER_NAME'
p2989
asbag69
(g90
g71
NtRp2990
(dp2991
g74
(dp2992
g101
g102
ssg83
g2981
sg76
(lp2993
S':'
asbag69
(g90
g71
NtRp2994
(dp2995
g74
(dp2996
sg83
g2981
sg76
(lp2997
g69
(g70
g71
NtRp2998
(dp2999
g74
(dp3000
g82
I3
ssg83
g2994
sg76
(lp3001
g1524
asbasbasbag69
(g85
g71
NtRp3002
(dp3003
g74
(dp3004
sg83
g2662
sg76
(lp3005
g69
(g90
g71
NtRp3006
(dp3007
g74
(dp3008
g94
g95
ssg83
g3002
sg76
(lp3009
S'SERVER_PORT'
p3010
asbag69
(g90
g71
NtRp3011
(dp3012
g74
(dp3013
g101
g102
ssg83
g3002
sg76
(lp3014
S':'
asbag69
(g90
g71
NtRp3015
(dp3016
g74
(dp3017
sg83
g3002
sg76
(lp3018
g69
(g70
g71
NtRp3019
(dp3020
g74
(dp3021
g82
I3
ssg83
g3015
sg76
(lp3022
g1546
asbasbasbag69
(g85
g71
NtRp3023
(dp3024
g74
(dp3025
sg83
g2662
sg76
(lp3026
g69
(g90
g71
NtRp3027
(dp3028
g74
(dp3029
g94
g95
ssg83
g3023
sg76
(lp3030
S'SERVER_PROTOCOL'
p3031
asbag69
(g90
g71
NtRp3032
(dp3033
g74
(dp3034
g101
g102
ssg83
g3023
sg76
(lp3035
S':'
asbag69
(g90
g71
NtRp3036
(dp3037
g74
(dp3038
sg83
g3023
sg76
(lp3039
g69
(g70
g71
NtRp3040
(dp3041
g74
(dp3042
g82
I3
ssg83
g3036
sg76
(lp3043
g1568
asbasbasbag69
(g85
g71
NtRp3044
(dp3045
g74
(dp3046
sg83
g2662
sg76
(lp3047
g69
(g90
g71
NtRp3048
(dp3049
g74
(dp3050
g94
g95
ssg83
g3044
sg76
(lp3051
S'SERVER_SOFTWARE'
p3052
asbag69
(g90
g71
NtRp3053
(dp3054
g74
(dp3055
g101
g102
ssg83
g3044
sg76
(lp3056
S':'
asbag69
(g90
g71
NtRp3057
(dp3058
g74
(dp3059
sg83
g3044
sg76
(lp3060
g69
(g70
g71
NtRp3061
(dp3062
g74
(dp3063
g82
I3
ssg83
g3057
sg76
(lp3064
g1590
asbasbasbag69
(g85
g71
NtRp3065
(dp3066
g74
(dp3067
sg83
g2662
sg76
(lp3068
g69
(g90
g71
NtRp3069
(dp3070
g74
(dp3071
g94
g95
ssg83
g3065
sg76
(lp3072
S'wsgi.errors'
p3073
asbag69
(g90
g71
NtRp3074
(dp3075
g74
(dp3076
g101
g102
ssg83
g3065
sg76
(lp3077
S':'
asbag69
(g90
g71
NtRp3078
(dp3079
g74
(dp3080
sg83
g3065
sg76
(lp3081
g69
(g70
g71
NtRp3082
(dp3083
g74
(dp3084
g82
I3
ssg83
g3078
sg76
(lp3085
S"<open file '<stderr>', mode 'w' at 0xb751e0d0>"
p3086
asbasbasbag69
(g85
g71
NtRp3087
(dp3088
g74
(dp3089
sg83
g2662
sg76
(lp3090
g69
(g90
g71
NtRp3091
(dp3092
g74
(dp3093
g94
g95
ssg83
g3087
sg76
(lp3094
S'wsgi.file_wrapper'
p3095
asbag69
(g90
g71
NtRp3096
(dp3097
g74
(dp3098
g101
g102
ssg83
g3087
sg76
(lp3099
S':'
asbag69
(g90
g71
NtRp3100
(dp3101
g74
(dp3102
sg83
g3087
sg76
(lp3103
g69
(g70
g71
NtRp3104
(dp3105
g74
(dp3106
g82
I3
ssg83
g3100
sg76
(lp3107
S'<class wsgiref.util.FileWrapper at 0x8844ecc>'
p3108
asbasbasbag69
(g85
g71
NtRp3109
(dp3110
g74
(dp3111
sg83
g2662
sg76
(lp3112
g69
(g90
g71
NtRp3113
(dp3114
g74
(dp3115
g94
g95
ssg83
g3109
sg76
(lp3116
S'wsgi.input'
p3117
asbag69
(g90
g71
NtRp3118
(dp3119
g74
(dp3120
g101
g102
ssg83
g3109
sg76
(lp3121
S':'
asbag69
(g90
g71
NtRp3122
(dp3123
g74
(dp3124
sg83
g3109
sg76
(lp3125
g69
(g70
g71
NtRp3126
(dp3127
g74
(dp3128
g82
I3
ssg83
g3122
sg76
(lp3129
S'<cStringIO.StringO object at 0x8e3e700>'
p3130
asbasbasbag69
(g85
g71
NtRp3131
(dp3132
g74
(dp3133
sg83
g2662
sg76
(lp3134
g69
(g90
g71
NtRp3135
(dp3136
g74
(dp3137
g94
g95
ssg83
g3131
sg76
(lp3138
S'wsgi.multiprocess'
p3139
asbag69
(g90
g71
NtRp3140
(dp3141
g74
(dp3142
g101
g102
ssg83
g3131
sg76
(lp3143
S':'
asbag69
(g90
g71
NtRp3144
(dp3145
g74
(dp3146
sg83
g3131
sg76
(lp3147
g69
(g70
g71
NtRp3148
(dp3149
g74
(dp3150
g82
I3
ssg83
g3144
sg76
(lp3151
g112
asbasbasbag69
(g85
g71
NtRp3152
(dp3153
g74
(dp3154
sg83
g2662
sg76
(lp3155
g69
(g90
g71
NtRp3156
(dp3157
g74
(dp3158
g94
g95
ssg83
g3152
sg76
(lp3159
S'wsgi.multithread'
p3160
asbag69
(g90
g71
NtRp3161
(dp3162
g74
(dp3163
g101
g102
ssg83
g3152
sg76
(lp3164
S':'
asbag69
(g90
g71
NtRp3165
(dp3166
g74
(dp3167
sg83
g3152
sg76
(lp3168
g69
(g70
g71
NtRp3169
(dp3170
g74
(dp3171
g82
I3
ssg83
g3165
sg76
(lp3172
g1807
asbasbasbag69
(g85
g71
NtRp3173
(dp3174
g74
(dp3175
sg83
g2662
sg76
(lp3176
g69
(g90
g71
NtRp3177
(dp3178
g74
(dp3179
g94
g95
ssg83
g3173
sg76
(lp3180
S'wsgi.run_once'
p3181
asbag69
(g90
g71
NtRp3182
(dp3183
g74
(dp3184
g101
g102
ssg83
g3173
sg76
(lp3185
S':'
asbag69
(g90
g71
NtRp3186
(dp3187
g74
(dp3188
sg83
g3173
sg76
(lp3189
g69
(g70
g71
NtRp3190
(dp3191
g74
(dp3192
g82
I3
ssg83
g3186
sg76
(lp3193
g112
asbasbasbag69
(g85
g71
NtRp3194
(dp3195
g74
(dp3196
sg83
g2662
sg76
(lp3197
g69
(g90
g71
NtRp3198
(dp3199
g74
(dp3200
g94
g95
ssg83
g3194
sg76
(lp3201
S'wsgi.url_scheme'
p3202
asbag69
(g90
g71
NtRp3203
(dp3204
g74
(dp3205
g101
g102
ssg83
g3194
sg76
(lp3206
S':'
asbag69
(g90
g71
NtRp3207
(dp3208
g74
(dp3209
sg83
g3194
sg76
(lp3210
g69
(g70
g71
NtRp3211
(dp3212
g74
(dp3213
g82
I3
ssg83
g3207
sg76
(lp3214
g1850
asbasbasbag69
(g85
g71
NtRp3215
(dp3216
g74
(dp3217
sg83
g2662
sg76
(lp3218
g69
(g90
g71
NtRp3219
(dp3220
g74
(dp3221
g94
g95
ssg83
g3215
sg76
(lp3222
S'wsgi.version'
p3223
asbag69
(g90
g71
NtRp3224
(dp3225
g74
(dp3226
g101
g102
ssg83
g3215
sg76
(lp3227
S':'
asbag69
(g90
g71
NtRp3228
(dp3229
g74
(dp3230
sg83
g3215
sg76
(lp3231
g69
(g70
g71
NtRp3232
(dp3233
g74
(dp3234
g82
I3
ssg83
g3228
sg76
(lp3235
S'1'
asbasbasbasbasbasbasbasbasbasbasbasbasbsS'frames'
p3236
(lp3237
(dp3238
S'file'
p3239
S'/home/gaurav/classwork/WEB_PROGRAMMING/web2py/gluon/restricted.py'
p3240
sS'dump'
p3241
(dp3242
S'environment'
p3243
S"{'A': <class 'gluon.html.A'>, 'Auth': <class 'gluon.tools.Auth'>, 'B': <class 'gluon.html.B'>, 'BEAUTIFY': <class 'gluon.html.BEAUTIFY'>, 'BODY': <class 'gluon.html.BODY'>, 'BR': <class 'gluon.html.BR'>, 'BUTTON': <class 'gluon.html.BUTTON'>, 'CAT': <class 'gluon.html.CAT'>, 'CENTER': <class 'gluon.html.CENTER'>, 'CLEANUP': <class 'gluon.validators.CLEANUP'>, ...}"
p3244
sS'ccode'
p3245
S'<code object <module> at 0xae3a00f8, file "/home...web2py/applications/MUSIC/models/db.py", line 12>'
p3246
ssS'lnum'
p3247
I212
sS'lines'
p3248
(dp3249
I207
S'    try:'
p3250
sI208
S'        if isinstance(code, types.CodeType):'
p3251
sI209
S'            ccode = code'
p3252
sI210
S'        else:'
p3253
sI211
S'            ccode = compile2(code, layer)'
p3254
sI212
S'        exec ccode in environment'
p3255
sI213
S'    except HTTP:'
p3256
sI214
S'        raise'
p3257
sI215
S'    except RestrictedError:'
p3258
sI216
S'        # do not encapsulate (obfuscate) the original RestrictedError'
p3259
ssS'call'
p3260
S'(code="# -*- coding: utf-8 -*-\\n\\n#######################...ue),\\n\\t  Field(\'movies\',\'string\',required=True))\\n\\n", environment={\'A\': <class \'gluon.html.A\'>, \'Auth\': <class \'gluon.tools.Auth\'>, \'B\': <class \'gluon.html.B\'>, \'BEAUTIFY\': <class \'gluon.html.BEAUTIFY\'>, \'BODY\': <class \'gluon.html.BODY\'>, \'BR\': <class \'gluon.html.BR\'>, \'BUTTON\': <class \'gluon.html.BUTTON\'>, \'CAT\': <class \'gluon.html.CAT\'>, \'CENTER\': <class \'gluon.html.CENTER\'>, \'CLEANUP\': <class \'gluon.validators.CLEANUP\'>, ...}, layer=\'/home/gaurav/classwork/WEB_PROGRAMMING/web2py/applications/MUSIC/models/db.py\')'
p3261
sS'func'
p3262
S'restricted'
p3263
sa(dp3264
g3239
S'/home/gaurav/classwork/WEB_PROGRAMMING/web2py/applications/MUSIC/models/db.py'
p3265
sg3241
(dp3266
S'Field'
p3267
S"<class 'gluon.dal.Field'>"
p3268
sS'builtinTrue'
p3269
g1807
sS'required'
p3270
S'undefined'
p3271
ssg3247
I105
sg3248
(dp3272
I97
S"\t  Field('director','string',required=True),"
p3273
sI98
S"\t  Field('release_date','date',required=True))"
p3274
sI99
S''
sI100
S"db.define_table('song',"
p3275
sI101
S"\t  Field('names','string',required=True),"
p3276
sI102
S"\t  Field('lengths','string',required=True),"
p3277
sI103
S"\t  Field('singers','string',required=True),"
p3278
sI104
S"\t  Field('composers','string',required=True),"
p3279
sI105
S"\t  Field('movies','string',required=True))"
p3280
sI106
S''
ssg3260
S'()'
p3281
sg3262
S'<module>'
p3282
sa(dp3283
g3239
S'/home/gaurav/classwork/WEB_PROGRAMMING/web2py/gluon/dal.py'
p3284
sg3241
(dp3285
S'fields'
p3286
S'(<gluon.dal.Field object>, <gluon.dal.Field object>, <gluon.dal.Field object>, <gluon.dal.Field object>, <gluon.dal.Field object>)'
p3287
sS'self'
p3288
S'<DAL uri="sqlite://storage.sqlite">'
p3289
sS'args'
p3290
g21
sS'tablename'
p3291
S"'song'"
p3292
sS'table'
p3293
g3271
sS'self.lazy_define_table'
p3294
S'<bound method DAL.lazy_define_table of <DAL uri="sqlite://storage.sqlite">>'
p3295
ssg3247
I7186
sg3248
(dp3296
I7181
S'                    % (tablename,invalid_args))'
p3297
sI7182
S'        if self._lazy_tables and not tablename in self._LAZY_TABLES:'
p3298
sI7183
S'            self._LAZY_TABLES[tablename] = (tablename,fields,args)'
p3299
sI7184
S'            table = None'
p3300
sI7185
S'        else:'
p3301
sI7186
S'            table = self.lazy_define_table(tablename,*fields,**args)'
p3302
sI7187
S'        if not tablename in self.tables:'
p3303
sI7188
S'            self.tables.append(tablename)'
p3304
sI7189
S'        return table'
p3305
sI7190
S''
ssg3260
S'(self=<DAL uri="sqlite://storage.sqlite">, tablename=\'song\', *fields=(<gluon.dal.Field object>, <gluon.dal.Field object>, <gluon.dal.Field object>, <gluon.dal.Field object>, <gluon.dal.Field object>), **args={})'
p3306
sg3262
S'define_table'
p3307
sa(dp3308
g3239
S'/home/gaurav/classwork/WEB_PROGRAMMING/web2py/gluon/dal.py'
p3309
sg3241
(dp3310
S'fields'
p3311
S'(<gluon.dal.Field object>, <gluon.dal.Field object>, <gluon.dal.Field object>, <gluon.dal.Field object>, <gluon.dal.Field object>)'
p3312
sS'self'
p3313
S'<DAL uri="sqlite://storage.sqlite">'
p3314
sS'args'
p3315
g21
sS'tablename'
p3316
S"'song'"
p3317
sS'table_class'
p3318
S"<class 'gluon.dal.Table'>"
p3319
sS'table'
p3320
g3271
ssg3247
I7203
sg3248
(dp3321
I7200
S'            fields = list(fields) + list(common_fields)'
p3322
sI7201
S''
sI7202
S"        table_class = args_get('table_class',Table)"
p3323
sI7203
S'        table = table_class(self, tablename, *fields, **args)'
p3324
sI7204
S'        table._actual = True'
p3325
sI7205
S'        self[tablename] = table'
p3326
sI7206
S'        # must follow above line to handle self references'
p3327
sI7207
S'        table._create_references()'
p3328
sI7198
S'        common_fields = self._common_fields'
p3329
sI7199
S'        if common_fields:'
p3330
ssg3260
S'(self=<DAL uri="sqlite://storage.sqlite">, tablename=\'song\', *fields=(<gluon.dal.Field object>, <gluon.dal.Field object>, <gluon.dal.Field object>, <gluon.dal.Field object>, <gluon.dal.Field object>), **args={})'
p3331
sg3262
S'lazy_define_table'
p3332
sa(dp3333
g3239
S'/home/gaurav/classwork/WEB_PROGRAMMING/web2py/gluon/dal.py'
p3334
sg3241
(dp3335
S'field_name'
p3336
S"'names'"
p3337
sS'db.check_reserved_keyword'
p3338
S'<bound method DAL.check_reserved_keyword of <DAL uri="sqlite://storage.sqlite">>'
p3339
sS'db'
p3340
S'<DAL uri="sqlite://storage.sqlite">'
p3341
ssg3247
I7609
sg3248
(dp3342
I7604
S'        lower_fieldnames = set()'
p3343
sI7605
S"        reserved = dir(Table) + ['fields']"
p3344
sI7606
S'        for field in fields:'
p3345
sI7607
S'            field_name = field.name'
p3346
sI7608
S'            if db and db.check_reserved:'
p3347
sI7609
S'                db.check_reserved_keyword(field_name)'
p3348
sI7610
S'            elif field_name in reserved:'
p3349
sI7611
S'                raise SyntaxError("field name %s not allowed" % field_name)'
p3350
sI7612
S''
sI7613
S'            if field_name.lower() in lower_fieldnames:'
p3351
ssg3260
S'(self=<Table song (id)>, db=<DAL uri="sqlite://storage.sqlite">, tablename=\'song\', *fields=[<gluon.dal.Field object>, <gluon.dal.Field object>, <gluon.dal.Field object>, <gluon.dal.Field object>, <gluon.dal.Field object>, <gluon.dal.Field object>], **args={})'
p3352
sg3262
g24
sa(dp3353
g3239
S'/home/gaurav/classwork/WEB_PROGRAMMING/web2py/gluon/dal.py'
p3354
sg3241
(dp3355
S'backend.upper'
p3356
S'<built-in method upper of str object>'
p3357
sS'name'
p3358
S"'names'"
p3359
sS'backend'
p3360
S"'all'"
p3361
ssg3247
I6930
sg3248
(dp3362
I6925
S"        ['all']"
p3363
sI6926
S'        """'
p3364
sI6927
S'        for backend in self.check_reserved:'
p3365
sI6928
S'            if name.upper() in self.RSK[backend]:'
p3366
sI6929
S'                raise SyntaxError('
p3367
sI6930
S'                    \'invalid table/column name "%s" is a "%s" reserved SQL keyword\' % (name, backend.upper()))'
p3368
sI6931
S''
sI6932
S'    def parse_as_rest(self,patterns,args,vars,queries=None,nested_select=True):'
p3369
sI6933
S'        """'
p3370
sI6934
S'        EXAMPLE:'
p3371
ssg3260
S'(self=<DAL uri="sqlite://storage.sqlite">, name=\'names\')'
p3372
sg3262
S'check_reserved_keyword'
p3373
sasS'pyver'
p3374
S'Python 2.7.3: /usr/bin/python'
p3375
sS'session'
p3376
g69
(g70
g71
NtRp3377
(dp3378
g74
(dp3379
sg76
(lp3380
g69
(g78
g71
NtRp3381
(dp3382
g74
(dp3383
g82
I5
ssg83
Nsg76
(lp3384
g69
(g85
g71
NtRp3385
(dp3386
g74
(dp3387
sg83
g3381
sg76
(lp3388
g69
(g90
g71
NtRp3389
(dp3390
g74
(dp3391
g94
g95
ssg83
g3385
sg76
(lp3392
S'last_orderby'
p3393
asbag69
(g90
g71
NtRp3394
(dp3395
g74
(dp3396
g101
g102
ssg83
g3385
sg76
(lp3397
S':'
asbag69
(g90
g71
NtRp3398
(dp3399
g74
(dp3400
sg83
g3385
sg76
(lp3401
g69
(g70
g71
NtRp3402
(dp3403
g74
(dp3404
g82
I5
ssg83
g3398
sg76
(lp3405
S'None'
p3406
asbasbasbag69
(g85
g71
NtRp3407
(dp3408
g74
(dp3409
sg83
g3381
sg76
(lp3410
g69
(g90
g71
NtRp3411
(dp3412
g74
(dp3413
g94
g95
ssg83
g3407
sg76
(lp3414
S'last_query'
p3415
asbag69
(g90
g71
NtRp3416
(dp3417
g74
(dp3418
g101
g102
ssg83
g3407
sg76
(lp3419
S':'
asbag69
(g90
g71
NtRp3420
(dp3421
g74
(dp3422
sg83
g3407
sg76
(lp3423
g69
(g70
g71
NtRp3424
(dp3425
g74
(dp3426
g82
I5
ssg83
g3420
sg76
(lp3427
S'db.artist.id>0'
p3428
asbasbasbasbasbsS'etype'
p3429
S"<type 'exceptions.SyntaxError'>"
p3430
sS'date'
p3431
S'Sat Mar  9 16:18:30 2013'
p3432
sS'response'
p3433
g69
(g70
g71
NtRp3434
(dp3435
g74
(dp3436
sg76
(lp3437
g69
(g78
g71
NtRp3438
(dp3439
g74
(dp3440
g82
I5
ssg83
Nsg76
(lp3441
g69
(g85
g71
NtRp3442
(dp3443
g74
(dp3444
sg83
g3438
sg76
(lp3445
g69
(g90
g71
NtRp3446
(dp3447
g74
(dp3448
g94
g95
ssg83
g3442
sg76
(lp3449
g193
asbag69
(g90
g71
NtRp3450
(dp3451
g74
(dp3452
g101
g102
ssg83
g3442
sg76
(lp3453
S':'
asbag69
(g90
g71
NtRp3454
(dp3455
g74
(dp3456
sg83
g3442
sg76
(lp3457
g69
(g70
g71
NtRp3458
(dp3459
g74
(dp3460
g82
I5
ssg83
g3454
sg76
(lp3461
S'<cStringIO.StringO object at 0xada15be0>'
p3462
asbasbasbag69
(g85
g71
NtRp3463
(dp3464
g74
(dp3465
sg83
g3438
sg76
(lp3466
g69
(g90
g71
NtRp3467
(dp3468
g74
(dp3469
g94
g95
ssg83
g3463
sg76
(lp3470
g281
asbag69
(g90
g71
NtRp3471
(dp3472
g74
(dp3473
g101
g102
ssg83
g3463
sg76
(lp3474
S':'
asbag69
(g90
g71
NtRp3475
(dp3476
g74
(dp3477
sg83
g3463
sg76
(lp3478
g69
(g70
g71
NtRp3479
(dp3480
g74
(dp3481
g82
I5
ssg83
g3475
sg76
(lp3482
g69
(g78
g71
NtRp3483
(dp3484
g74
(dp3485
g82
I4
ssg83
Nsg76
(lp3486
g69
(g85
g71
NtRp3487
(dp3488
g74
(dp3489
sg83
g3483
sg76
(lp3490
g69
(g90
g71
NtRp3491
(dp3492
g74
(dp3493
g94
g95
ssg83
g3487
sg76
(lp3494
S'session_id_music'
p3495
asbag69
(g90
g71
NtRp3496
(dp3497
g74
(dp3498
g101
g102
ssg83
g3487
sg76
(lp3499
S':'
asbag69
(g90
g71
NtRp3500
(dp3501
g74
(dp3502
sg83
g3487
sg76
(lp3503
g69
(g70
g71
NtRp3504
(dp3505
g74
(dp3506
g82
I4
ssg83
g3500
sg76
(lp3507
g513
ag69
(g78
g71
NtRp3508
(dp3509
g74
(dp3510
g82
I3
ssg83
Nsg76
(lp3511
g69
(g85
g71
NtRp3512
(dp3513
g74
(dp3514
sg83
g3508
sg76
(lp3515
g69
(g90
g71
NtRp3516
(dp3517
g74
(dp3518
g94
g95
ssg83
g3512
sg76
(lp3519
g332
asbag69
(g90
g71
NtRp3520
(dp3521
g74
(dp3522
g101
g102
ssg83
g3512
sg76
(lp3523
S':'
asbag69
(g90
g71
NtRp3524
(dp3525
g74
(dp3526
sg83
g3512
sg76
(lp3527
g69
(g70
g71
NtRp3528
(dp3529
g74
(dp3530
g82
I3
ssg83
g3524
sg76
(lp3531
S''
asbasbasbag69
(g85
g71
NtRp3532
(dp3533
g74
(dp3534
sg83
g3508
sg76
(lp3535
g69
(g90
g71
NtRp3536
(dp3537
g74
(dp3538
g94
g95
ssg83
g3532
sg76
(lp3539
g353
asbag69
(g90
g71
NtRp3540
(dp3541
g74
(dp3542
g101
g102
ssg83
g3532
sg76
(lp3543
S':'
asbag69
(g90
g71
NtRp3544
(dp3545
g74
(dp3546
sg83
g3532
sg76
(lp3547
g69
(g70
g71
NtRp3548
(dp3549
g74
(dp3550
g82
I3
ssg83
g3544
sg76
(lp3551
S''
asbasbasbag69
(g85
g71
NtRp3552
(dp3553
g74
(dp3554
sg83
g3508
sg76
(lp3555
g69
(g90
g71
NtRp3556
(dp3557
g74
(dp3558
g94
g95
ssg83
g3552
sg76
(lp3559
g374
asbag69
(g90
g71
NtRp3560
(dp3561
g74
(dp3562
g101
g102
ssg83
g3552
sg76
(lp3563
S':'
asbag69
(g90
g71
NtRp3564
(dp3565
g74
(dp3566
sg83
g3552
sg76
(lp3567
g69
(g70
g71
NtRp3568
(dp3569
g74
(dp3570
g82
I3
ssg83
g3564
sg76
(lp3571
S''
asbasbasbag69
(g85
g71
NtRp3572
(dp3573
g74
(dp3574
sg83
g3508
sg76
(lp3575
g69
(g90
g71
NtRp3576
(dp3577
g74
(dp3578
g94
g95
ssg83
g3572
sg76
(lp3579
g395
asbag69
(g90
g71
NtRp3580
(dp3581
g74
(dp3582
g101
g102
ssg83
g3572
sg76
(lp3583
S':'
asbag69
(g90
g71
NtRp3584
(dp3585
g74
(dp3586
sg83
g3572
sg76
(lp3587
g69
(g70
g71
NtRp3588
(dp3589
g74
(dp3590
g82
I3
ssg83
g3584
sg76
(lp3591
S''
asbasbasbag69
(g85
g71
NtRp3592
(dp3593
g74
(dp3594
sg83
g3508
sg76
(lp3595
g69
(g90
g71
NtRp3596
(dp3597
g74
(dp3598
g94
g95
ssg83
g3592
sg76
(lp3599
g416
asbag69
(g90
g71
NtRp3600
(dp3601
g74
(dp3602
g101
g102
ssg83
g3592
sg76
(lp3603
S':'
asbag69
(g90
g71
NtRp3604
(dp3605
g74
(dp3606
sg83
g3592
sg76
(lp3607
g69
(g70
g71
NtRp3608
(dp3609
g74
(dp3610
g82
I3
ssg83
g3604
sg76
(lp3611
S''
asbasbasbag69
(g85
g71
NtRp3612
(dp3613
g74
(dp3614
sg83
g3508
sg76
(lp3615
g69
(g90
g71
NtRp3616
(dp3617
g74
(dp3618
g94
g95
ssg83
g3612
sg76
(lp3619
g437
asbag69
(g90
g71
NtRp3620
(dp3621
g74
(dp3622
g101
g102
ssg83
g3612
sg76
(lp3623
S':'
asbag69
(g90
g71
NtRp3624
(dp3625
g74
(dp3626
sg83
g3612
sg76
(lp3627
g69
(g70
g71
NtRp3628
(dp3629
g74
(dp3630
g82
I3
ssg83
g3624
sg76
(lp3631
S'/'
asbasbasbag69
(g85
g71
NtRp3632
(dp3633
g74
(dp3634
sg83
g3508
sg76
(lp3635
g69
(g90
g71
NtRp3636
(dp3637
g74
(dp3638
g94
g95
ssg83
g3632
sg76
(lp3639
g458
asbag69
(g90
g71
NtRp3640
(dp3641
g74
(dp3642
g101
g102
ssg83
g3632
sg76
(lp3643
S':'
asbag69
(g90
g71
NtRp3644
(dp3645
g74
(dp3646
sg83
g3632
sg76
(lp3647
g69
(g70
g71
NtRp3648
(dp3649
g74
(dp3650
g82
I3
ssg83
g3644
sg76
(lp3651
S''
asbasbasbag69
(g85
g71
NtRp3652
(dp3653
g74
(dp3654
sg83
g3508
sg76
(lp3655
g69
(g90
g71
NtRp3656
(dp3657
g74
(dp3658
g94
g95
ssg83
g3652
sg76
(lp3659
g479
asbag69
(g90
g71
NtRp3660
(dp3661
g74
(dp3662
g101
g102
ssg83
g3652
sg76
(lp3663
S':'
asbag69
(g90
g71
NtRp3664
(dp3665
g74
(dp3666
sg83
g3652
sg76
(lp3667
g69
(g70
g71
NtRp3668
(dp3669
g74
(dp3670
g82
I3
ssg83
g3664
sg76
(lp3671
S''
asbasbasbasbasbasbasbasbasbasbasbag69
(g85
g71
NtRp3672
(dp3673
g74
(dp3674
sg83
g3438
sg76
(lp3675
g69
(g90
g71
NtRp3676
(dp3677
g74
(dp3678
g94
g95
ssg83
g3672
sg76
(lp3679
S'delimiters'
p3680
asbag69
(g90
g71
NtRp3681
(dp3682
g74
(dp3683
g101
g102
ssg83
g3672
sg76
(lp3684
S':'
asbag69
(g90
g71
NtRp3685
(dp3686
g74
(dp3687
sg83
g3672
sg76
(lp3688
g69
(g70
g71
NtRp3689
(dp3690
g74
(dp3691
g82
I5
ssg83
g3685
sg76
(lp3692
g69
(g78
g71
NtRp3693
(dp3694
g74
(dp3695
g82
I4
ssg83
Nsg76
(lp3696
g69
(g85
g71
NtRp3697
(dp3698
g74
(dp3699
sg83
g3693
sg76
(lp3700
g69
(g90
g71
NtRp3701
(dp3702
g74
(dp3703
sg83
g3697
sg76
(lp3704
g69
(g70
g71
NtRp3705
(dp3706
g74
(dp3707
g82
I4
ssg83
g3701
sg76
(lp3708
S'{{'
p3709
asbasbasbag69
(g85
g71
NtRp3710
(dp3711
g74
(dp3712
sg83
g3693
sg76
(lp3713
g69
(g90
g71
NtRp3714
(dp3715
g74
(dp3716
sg83
g3710
sg76
(lp3717
g69
(g70
g71
NtRp3718
(dp3719
g74
(dp3720
g82
I4
ssg83
g3714
sg76
(lp3721
S'}}'
p3722
asbasbasbasbasbasbasbag69
(g85
g71
NtRp3723
(dp3724
g74
(dp3725
sg83
g3438
sg76
(lp3726
g69
(g90
g71
NtRp3727
(dp3728
g74
(dp3729
g94
g95
ssg83
g3723
sg76
(lp3730
S'files'
p3731
asbag69
(g90
g71
NtRp3732
(dp3733
g74
(dp3734
g101
g102
ssg83
g3723
sg76
(lp3735
S':'
asbag69
(g90
g71
NtRp3736
(dp3737
g74
(dp3738
sg83
g3723
sg76
(lp3739
g69
(g70
g71
NtRp3740
(dp3741
g74
(dp3742
g82
I5
ssg83
g3736
sg76
(lp3743
g69
(g78
g71
NtRp3744
(dp3745
g74
(dp3746
g82
I4
ssg83
Nsg76
(lp3747
sbasbasbasbag69
(g85
g71
NtRp3748
(dp3749
g74
(dp3750
sg83
g3438
sg76
(lp3751
g69
(g90
g71
NtRp3752
(dp3753
g74
(dp3754
g94
g95
ssg83
g3748
sg76
(lp3755
S'flash'
p3756
asbag69
(g90
g71
NtRp3757
(dp3758
g74
(dp3759
g101
g102
ssg83
g3748
sg76
(lp3760
S':'
asbag69
(g90
g71
NtRp3761
(dp3762
g74
(dp3763
sg83
g3748
sg76
(lp3764
g69
(g70
g71
NtRp3765
(dp3766
g74
(dp3767
g82
I5
ssg83
g3761
sg76
(lp3768
S''
asbasbasbag69
(g85
g71
NtRp3769
(dp3770
g74
(dp3771
sg83
g3438
sg76
(lp3772
g69
(g90
g71
NtRp3773
(dp3774
g74
(dp3775
g94
g95
ssg83
g3769
sg76
(lp3776
S'generic_patterns'
p3777
asbag69
(g90
g71
NtRp3778
(dp3779
g74
(dp3780
g101
g102
ssg83
g3769
sg76
(lp3781
S':'
asbag69
(g90
g71
NtRp3782
(dp3783
g74
(dp3784
sg83
g3769
sg76
(lp3785
g69
(g70
g71
NtRp3786
(dp3787
g74
(dp3788
g82
I5
ssg83
g3782
sg76
(lp3789
g69
(g78
g71
NtRp3790
(dp3791
g74
(dp3792
g82
I4
ssg83
Nsg76
(lp3793
g69
(g85
g71
NtRp3794
(dp3795
g74
(dp3796
sg83
g3790
sg76
(lp3797
g69
(g90
g71
NtRp3798
(dp3799
g74
(dp3800
sg83
g3794
sg76
(lp3801
g69
(g70
g71
NtRp3802
(dp3803
g74
(dp3804
g82
I4
ssg83
g3798
sg76
(lp3805
S'*'
asbasbasbasbasbasbasbag69
(g85
g71
NtRp3806
(dp3807
g74
(dp3808
sg83
g3438
sg76
(lp3809
g69
(g90
g71
NtRp3810
(dp3811
g74
(dp3812
g94
g95
ssg83
g3806
sg76
(lp3813
S'headers'
p3814
asbag69
(g90
g71
NtRp3815
(dp3816
g74
(dp3817
g101
g102
ssg83
g3806
sg76
(lp3818
S':'
asbag69
(g90
g71
NtRp3819
(dp3820
g74
(dp3821
sg83
g3806
sg76
(lp3822
g69
(g70
g71
NtRp3823
(dp3824
g74
(dp3825
g82
I5
ssg83
g3819
sg76
(lp3826
g69
(g78
g71
NtRp3827
(dp3828
g74
(dp3829
g82
I4
ssg83
Nsg76
(lp3830
g69
(g85
g71
NtRp3831
(dp3832
g74
(dp3833
sg83
g3827
sg76
(lp3834
g69
(g90
g71
NtRp3835
(dp3836
g74
(dp3837
g94
g95
ssg83
g3831
sg76
(lp3838
S'X-Powered-By'
p3839
asbag69
(g90
g71
NtRp3840
(dp3841
g74
(dp3842
g101
g102
ssg83
g3831
sg76
(lp3843
S':'
asbag69
(g90
g71
NtRp3844
(dp3845
g74
(dp3846
sg83
g3831
sg76
(lp3847
g69
(g70
g71
NtRp3848
(dp3849
g74
(dp3850
g82
I4
ssg83
g3844
sg76
(lp3851
S'web2py'
p3852
asbasbasbasbasbasbasbag69
(g85
g71
NtRp3853
(dp3854
g74
(dp3855
sg83
g3438
sg76
(lp3856
g69
(g90
g71
NtRp3857
(dp3858
g74
(dp3859
g94
g95
ssg83
g3853
sg76
(lp3860
S'menu'
p3861
asbag69
(g90
g71
NtRp3862
(dp3863
g74
(dp3864
g101
g102
ssg83
g3853
sg76
(lp3865
S':'
asbag69
(g90
g71
NtRp3866
(dp3867
g74
(dp3868
sg83
g3853
sg76
(lp3869
g69
(g70
g71
NtRp3870
(dp3871
g74
(dp3872
g82
I5
ssg83
g3866
sg76
(lp3873
g69
(g78
g71
NtRp3874
(dp3875
g74
(dp3876
g82
I4
ssg83
Nsg76
(lp3877
sbasbasbasbag69
(g85
g71
NtRp3878
(dp3879
g74
(dp3880
sg83
g3438
sg76
(lp3881
g69
(g90
g71
NtRp3882
(dp3883
g74
(dp3884
g94
g95
ssg83
g3878
sg76
(lp3885
S'meta'
p3886
asbag69
(g90
g71
NtRp3887
(dp3888
g74
(dp3889
g101
g102
ssg83
g3878
sg76
(lp3890
S':'
asbag69
(g90
g71
NtRp3891
(dp3892
g74
(dp3893
sg83
g3878
sg76
(lp3894
g69
(g70
g71
NtRp3895
(dp3896
g74
(dp3897
g82
I5
ssg83
g3891
sg76
(lp3898
g69
(g78
g71
NtRp3899
(dp3900
g74
(dp3901
g82
I4
ssg83
Nsg76
(lp3902
sbasbasbasbag69
(g85
g71
NtRp3903
(dp3904
g74
(dp3905
sg83
g3438
sg76
(lp3906
g69
(g90
g71
NtRp3907
(dp3908
g74
(dp3909
g94
g95
ssg83
g3903
sg76
(lp3910
S'models_to_run'
p3911
asbag69
(g90
g71
NtRp3912
(dp3913
g74
(dp3914
g101
g102
ssg83
g3903
sg76
(lp3915
S':'
asbag69
(g90
g71
NtRp3916
(dp3917
g74
(dp3918
sg83
g3903
sg76
(lp3919
g69
(g70
g71
NtRp3920
(dp3921
g74
(dp3922
g82
I5
ssg83
g3916
sg76
(lp3923
g69
(g78
g71
NtRp3924
(dp3925
g74
(dp3926
g82
I4
ssg83
Nsg76
(lp3927
g69
(g85
g71
NtRp3928
(dp3929
g74
(dp3930
sg83
g3924
sg76
(lp3931
g69
(g90
g71
NtRp3932
(dp3933
g74
(dp3934
sg83
g3928
sg76
(lp3935
g69
(g70
g71
NtRp3936
(dp3937
g74
(dp3938
g82
I4
ssg83
g3932
sg76
(lp3939
S'^\\w+\\.py$'
p3940
asbasbasbag69
(g85
g71
NtRp3941
(dp3942
g74
(dp3943
sg83
g3924
sg76
(lp3944
g69
(g90
g71
NtRp3945
(dp3946
g74
(dp3947
sg83
g3941
sg76
(lp3948
g69
(g70
g71
NtRp3949
(dp3950
g74
(dp3951
g82
I4
ssg83
g3945
sg76
(lp3952
S'^appadmin/\\w+\\.py$'
p3953
asbasbasbag69
(g85
g71
NtRp3954
(dp3955
g74
(dp3956
sg83
g3924
sg76
(lp3957
g69
(g90
g71
NtRp3958
(dp3959
g74
(dp3960
sg83
g3954
sg76
(lp3961
g69
(g70
g71
NtRp3962
(dp3963
g74
(dp3964
g82
I4
ssg83
g3958
sg76
(lp3965
S'^appadmin/insert/\\w+\\.py$'
p3966
asbasbasbasbasbasbasbag69
(g85
g71
NtRp3967
(dp3968
g74
(dp3969
sg83
g3438
sg76
(lp3970
g69
(g90
g71
NtRp3971
(dp3972
g74
(dp3973
g94
g95
ssg83
g3967
sg76
(lp3974
S'postprocessing'
p3975
asbag69
(g90
g71
NtRp3976
(dp3977
g74
(dp3978
g101
g102
ssg83
g3967
sg76
(lp3979
S':'
asbag69
(g90
g71
NtRp3980
(dp3981
g74
(dp3982
sg83
g3967
sg76
(lp3983
g69
(g70
g71
NtRp3984
(dp3985
g74
(dp3986
g82
I5
ssg83
g3980
sg76
(lp3987
g69
(g78
g71
NtRp3988
(dp3989
g74
(dp3990
g82
I4
ssg83
Nsg76
(lp3991
sbasbasbasbag69
(g85
g71
NtRp3992
(dp3993
g74
(dp3994
sg83
g3438
sg76
(lp3995
g69
(g90
g71
NtRp3996
(dp3997
g74
(dp3998
g94
g95
ssg83
g3992
sg76
(lp3999
S'session_cookie_expires'
p4000
asbag69
(g90
g71
NtRp4001
(dp4002
g74
(dp4003
g101
g102
ssg83
g3992
sg76
(lp4004
S':'
asbag69
(g90
g71
NtRp4005
(dp4006
g74
(dp4007
sg83
g3992
sg76
(lp4008
g69
(g70
g71
NtRp4009
(dp4010
g74
(dp4011
g82
I5
ssg83
g4005
sg76
(lp4012
S'None'
p4013
asbasbasbag69
(g85
g71
NtRp4014
(dp4015
g74
(dp4016
sg83
g3438
sg76
(lp4017
g69
(g90
g71
NtRp4018
(dp4019
g74
(dp4020
g94
g95
ssg83
g4014
sg76
(lp4021
S'session_data_name'
p4022
asbag69
(g90
g71
NtRp4023
(dp4024
g74
(dp4025
g101
g102
ssg83
g4014
sg76
(lp4026
S':'
asbag69
(g90
g71
NtRp4027
(dp4028
g74
(dp4029
sg83
g4014
sg76
(lp4030
g69
(g70
g71
NtRp4031
(dp4032
g74
(dp4033
g82
I5
ssg83
g4027
sg76
(lp4034
S'session_data_music'
p4035
asbasbasbag69
(g85
g71
NtRp4036
(dp4037
g74
(dp4038
sg83
g3438
sg76
(lp4039
g69
(g90
g71
NtRp4040
(dp4041
g74
(dp4042
g94
g95
ssg83
g4036
sg76
(lp4043
S'session_file'
p4044
asbag69
(g90
g71
NtRp4045
(dp4046
g74
(dp4047
g101
g102
ssg83
g4036
sg76
(lp4048
S':'
asbag69
(g90
g71
NtRp4049
(dp4050
g74
(dp4051
sg83
g4036
sg76
(lp4052
g69
(g70
g71
NtRp4053
(dp4054
g74
(dp4055
g82
I5
ssg83
g4049
sg76
(lp4056
S"<open file '/home/gaurav/classwork/WEB_PROGRAMMING/web2py/applications/MUSIC/sessions/127.0.0.1-bd5be0ed-4eb6-4bc5-88a9-8d569f9d0604', mode 'rb+' at 0x8c8ff40>"
p4057
asbasbasbag69
(g85
g71
NtRp4058
(dp4059
g74
(dp4060
sg83
g3438
sg76
(lp4061
g69
(g90
g71
NtRp4062
(dp4063
g74
(dp4064
g94
g95
ssg83
g4058
sg76
(lp4065
S'session_filename'
p4066
asbag69
(g90
g71
NtRp4067
(dp4068
g74
(dp4069
g101
g102
ssg83
g4058
sg76
(lp4070
S':'
asbag69
(g90
g71
NtRp4071
(dp4072
g74
(dp4073
sg83
g4058
sg76
(lp4074
g69
(g70
g71
NtRp4075
(dp4076
g74
(dp4077
g82
I5
ssg83
g4071
sg76
(lp4078
S'/home/gaurav/classwork/WEB_PROGRAMMING/web2py/applications/MUSIC/sessions/127.0.0.1-bd5be0ed-4eb6-4bc5-88a9-8d569f9d0604'
p4079
asbasbasbag69
(g85
g71
NtRp4080
(dp4081
g74
(dp4082
sg83
g3438
sg76
(lp4083
g69
(g90
g71
NtRp4084
(dp4085
g74
(dp4086
g94
g95
ssg83
g4080
sg76
(lp4087
S'session_id'
p4088
asbag69
(g90
g71
NtRp4089
(dp4090
g74
(dp4091
g101
g102
ssg83
g4080
sg76
(lp4092
S':'
asbag69
(g90
g71
NtRp4093
(dp4094
g74
(dp4095
sg83
g4080
sg76
(lp4096
g69
(g70
g71
NtRp4097
(dp4098
g74
(dp4099
g82
I5
ssg83
g4093
sg76
(lp4100
g513
asbasbasbag69
(g85
g71
NtRp4101
(dp4102
g74
(dp4103
sg83
g3438
sg76
(lp4104
g69
(g90
g71
NtRp4105
(dp4106
g74
(dp4107
g94
g95
ssg83
g4101
sg76
(lp4108
S'session_id_name'
p4109
asbag69
(g90
g71
NtRp4110
(dp4111
g74
(dp4112
g101
g102
ssg83
g4101
sg76
(lp4113
S':'
asbag69
(g90
g71
NtRp4114
(dp4115
g74
(dp4116
sg83
g4101
sg76
(lp4117
g69
(g70
g71
NtRp4118
(dp4119
g74
(dp4120
g82
I5
ssg83
g4114
sg76
(lp4121
g3495
asbasbasbag69
(g85
g71
NtRp4122
(dp4123
g74
(dp4124
sg83
g3438
sg76
(lp4125
g69
(g90
g71
NtRp4126
(dp4127
g74
(dp4128
g94
g95
ssg83
g4122
sg76
(lp4129
S'session_locked'
p4130
asbag69
(g90
g71
NtRp4131
(dp4132
g74
(dp4133
g101
g102
ssg83
g4122
sg76
(lp4134
S':'
asbag69
(g90
g71
NtRp4135
(dp4136
g74
(dp4137
sg83
g4122
sg76
(lp4138
g69
(g70
g71
NtRp4139
(dp4140
g74
(dp4141
g82
I5
ssg83
g4135
sg76
(lp4142
g1807
asbasbasbag69
(g85
g71
NtRp4143
(dp4144
g74
(dp4145
sg83
g3438
sg76
(lp4146
g69
(g90
g71
NtRp4147
(dp4148
g74
(dp4149
g94
g95
ssg83
g4143
sg76
(lp4150
S'session_new'
p4151
asbag69
(g90
g71
NtRp4152
(dp4153
g74
(dp4154
g101
g102
ssg83
g4143
sg76
(lp4155
S':'
asbag69
(g90
g71
NtRp4156
(dp4157
g74
(dp4158
sg83
g4143
sg76
(lp4159
g69
(g70
g71
NtRp4160
(dp4161
g74
(dp4162
g82
I5
ssg83
g4156
sg76
(lp4163
g112
asbasbasbag69
(g85
g71
NtRp4164
(dp4165
g74
(dp4166
sg83
g3438
sg76
(lp4167
g69
(g90
g71
NtRp4168
(dp4169
g74
(dp4170
g94
g95
ssg83
g4164
sg76
(lp4171
S'session_storage_type'
p4172
asbag69
(g90
g71
NtRp4173
(dp4174
g74
(dp4175
g101
g102
ssg83
g4164
sg76
(lp4176
S':'
asbag69
(g90
g71
NtRp4177
(dp4178
g74
(dp4179
sg83
g4164
sg76
(lp4180
g69
(g70
g71
NtRp4181
(dp4182
g74
(dp4183
g82
I5
ssg83
g4177
sg76
(lp4184
g3239
asbasbasbag69
(g85
g71
NtRp4185
(dp4186
g74
(dp4187
sg83
g3438
sg76
(lp4188
g69
(g90
g71
NtRp4189
(dp4190
g74
(dp4191
g94
g95
ssg83
g4185
sg76
(lp4192
S'status'
p4193
asbag69
(g90
g71
NtRp4194
(dp4195
g74
(dp4196
g101
g102
ssg83
g4185
sg76
(lp4197
S':'
asbag69
(g90
g71
NtRp4198
(dp4199
g74
(dp4200
sg83
g4185
sg76
(lp4201
g69
(g70
g71
NtRp4202
(dp4203
g74
(dp4204
g82
I5
ssg83
g4198
sg76
(lp4205
S'200'
p4206
asbasbasbag69
(g85
g71
NtRp4207
(dp4208
g74
(dp4209
sg83
g3438
sg76
(lp4210
g69
(g90
g71
NtRp4211
(dp4212
g74
(dp4213
g94
g95
ssg83
g4207
sg76
(lp4214
S'view'
p4215
asbag69
(g90
g71
NtRp4216
(dp4217
g74
(dp4218
g101
g102
ssg83
g4207
sg76
(lp4219
S':'
asbag69
(g90
g71
NtRp4220
(dp4221
g74
(dp4222
sg83
g4207
sg76
(lp4223
g69
(g70
g71
NtRp4224
(dp4225
g74
(dp4226
g82
I5
ssg83
g4220
sg76
(lp4227
S'appadmin/insert.html'
p4228
asbasbasbasbasbsS'locals'
p4229
(dp4230
S'self'
p4231
S'<DAL uri="sqlite://storage.sqlite">'
p4232
sS'name'
p4233
S"'names'"
p4234
sS'backend'
p4235
S"'all'"
p4236
sssS'traceback'
p4237
S'Traceback (most recent call last):\n  File "/home/gaurav/classwork/WEB_PROGRAMMING/web2py/gluon/restricted.py", line 212, in restricted\n    exec ccode in environment\n  File "/home/gaurav/classwork/WEB_PROGRAMMING/web2py/applications/MUSIC/models/db.py", line 105, in <module>\n    Field(\'movies\',\'string\',required=True))\n  File "/home/gaurav/classwork/WEB_PROGRAMMING/web2py/gluon/dal.py", line 7186, in define_table\n    table = self.lazy_define_table(tablename,*fields,**args)\n  File "/home/gaurav/classwork/WEB_PROGRAMMING/web2py/gluon/dal.py", line 7203, in lazy_define_table\n    table = table_class(self, tablename, *fields, **args)\n  File "/home/gaurav/classwork/WEB_PROGRAMMING/web2py/gluon/dal.py", line 7609, in __init__\n    db.check_reserved_keyword(field_name)\n  File "/home/gaurav/classwork/WEB_PROGRAMMING/web2py/gluon/dal.py", line 6930, in check_reserved_keyword\n    \'invalid table/column name "%s" is a "%s" reserved SQL keyword\' % (name, backend.upper()))\nSyntaxError: invalid table/column name "names" is a "ALL" reserved SQL keyword\n'
p4238
s.