(dp1
S'output'
p2
S"<type 'exceptions.TypeError'> 'Field' object is not callable"
p3
sS'layer'
p4
S'/home/nazrul/web2py/applications/images1/controllers/appadmin.py'
p5
sS'code'
p6
S'# -*- coding: utf-8 -*-\n\n# ##########################################################\n# ## make sure administrator is on localhost\n# ###########################################################\n\nimport os\nimport socket\nimport datetime\nimport copy\nimport gluon.contenttype\nimport gluon.fileutils\n\nresponse.subtitle = \'Database Administration (appadmin)\'\n\n# ## critical --- make a copy of the environment\n\nglobal_env = copy.copy(globals())\nglobal_env[\'datetime\'] = datetime\n\nhttp_host = request.env.http_host.split(\':\')[0]\nremote_addr = request.env.remote_addr\ntry:\n    hosts = (http_host, socket.gethostname(),\n             socket.gethostbyname(http_host),\n             \'::1\', \'127.0.0.1\', \'::ffff:127.0.0.1\')\nexcept:\n    hosts = (http_host, )\n\nif request.env.http_x_forwarded_for or request.is_https:\n    session.secure()\nelif (remote_addr not in hosts) and (remote_addr != "127.0.0.1"):\n    raise HTTP(200, T(\'appadmin is disabled because insecure channel\'))\n\nif (request.application == \'admin\' and not session.authorized) or \\\n        (request.application != \'admin\' and not gluon.fileutils.check_credentials(request)):\n    redirect(URL(\'admin\', \'default\', \'index\',\n                 vars=dict(send=URL(args=request.args, vars=request.vars))))\n\nignore_rw = True\nresponse.view = \'appadmin.html\'\nresponse.menu = [[T(\'design\'), False, URL(\'admin\', \'default\', \'design\',\n                 args=[request.application])], [T(\'db\'), False,\n                 URL(\'index\')], [T(\'state\'), False,\n                 URL(\'state\')], [T(\'cache\'), False,\n                 URL(\'ccache\')]]\n\n# ##########################################################\n# ## auxiliary functions\n# ###########################################################\n\n\ndef get_databases(request):\n    dbs = {}\n    for (key, value) in global_env.items():\n        cond = False\n        try:\n            cond = isinstance(value, GQLDB)\n        except:\n            cond = isinstance(value, SQLDB)\n        if cond:\n            dbs[key] = value\n    return dbs\n\n\ndatabases = get_databases(None)\n\n\ndef eval_in_global_env(text):\n    exec (\'_ret=%s\' % text, {}, global_env)\n    return global_env[\'_ret\']\n\n\ndef get_database(request):\n    if request.args and request.args[0] in databases:\n        return eval_in_global_env(request.args[0])\n    else:\n        session.flash = T(\'invalid request\')\n        redirect(URL(\'index\'))\n\n\ndef get_table(request):\n    db = get_database(request)\n    if len(request.args) > 1 and request.args[1] in db.tables:\n        return (db, request.args[1])\n    else:\n        session.flash = T(\'invalid request\')\n        redirect(URL(\'index\'))\n\n\ndef get_query(request):\n    try:\n        return eval_in_global_env(request.vars.query)\n    except Exception:\n        return None\n\n\ndef query_by_table_type(tablename, db, request=request):\n    keyed = hasattr(db[tablename], \'_primarykey\')\n    if keyed:\n        firstkey = db[tablename][db[tablename]._primarykey[0]]\n        cond = \'>0\'\n        if firstkey.type in [\'string\', \'text\']:\n            cond = \'!=""\'\n        qry = \'%s.%s.%s%s\' % (\n            request.args[0], request.args[1], firstkey.name, cond)\n    else:\n        qry = \'%s.%s.id>0\' % tuple(request.args[:2])\n    return qry\n\n\n# ##########################################################\n# ## list all databases and tables\n# ###########################################################\ndef index():\n    return dict(databases=databases)\n\n\n# ##########################################################\n# ## insert a new record\n# ###########################################################\n\n\ndef insert():\n    (db, table) = get_table(request)\n    form = SQLFORM(db[table], ignore_rw=ignore_rw)\n    if form.accepts(request.vars, session):\n        response.flash = T(\'new record inserted\')\n    return dict(form=form, table=db[table])\n\n\n# ##########################################################\n# ## list all records in table and insert new record\n# ###########################################################\n\n\ndef download():\n    import os\n    db = get_database(request)\n    return response.download(request, db)\n\n\ndef csv():\n    import gluon.contenttype\n    response.headers[\'Content-Type\'] = \\\n        gluon.contenttype.contenttype(\'.csv\')\n    db = get_database(request)\n    query = get_query(request)\n    if not query:\n        return None\n    response.headers[\'Content-disposition\'] = \'attachment; filename=%s_%s.csv\'\\\n        % tuple(request.vars.query.split(\'.\')[:2])\n    return str(db(query, ignore_common_filters=True).select())\n\n\ndef import_csv(table, file):\n    table.import_from_csv_file(file)\n\n\ndef select():\n    import re\n    db = get_database(request)\n    dbname = request.args[0]\n    regex = re.compile(\'(?P<table>\\w+)\\.(?P<field>\\w+)=(?P<value>\\d+)\')\n    if len(request.args) > 1 and hasattr(db[request.args[1]], \'_primarykey\'):\n        regex = re.compile(\'(?P<table>\\w+)\\.(?P<field>\\w+)=(?P<value>.+)\')\n    if request.vars.query:\n        match = regex.match(request.vars.query)\n        if match:\n            request.vars.query = \'%s.%s.%s==%s\' % (request.args[0],\n                                                   match.group(\'table\'), match.group(\'field\'),\n                                                   match.group(\'value\'))\n    else:\n        request.vars.query = session.last_query\n    query = get_query(request)\n    if request.vars.start:\n        start = int(request.vars.start)\n    else:\n        start = 0\n    nrows = 0\n    stop = start + 100\n    table = None\n    rows = []\n    orderby = request.vars.orderby\n    if orderby:\n        orderby = dbname + \'.\' + orderby\n        if orderby == session.last_orderby:\n            if orderby[0] == \'~\':\n                orderby = orderby[1:]\n            else:\n                orderby = \'~\' + orderby\n    session.last_orderby = orderby\n    session.last_query = request.vars.query\n    form = FORM(TABLE(TR(T(\'Query:\'), \'\', INPUT(_style=\'width:400px\',\n                _name=\'query\', _value=request.vars.query or \'\',\n                requires=IS_NOT_EMPTY(\n                    error_message=T("Cannot be empty")))), TR(T(\'Update:\'),\n                INPUT(_name=\'update_check\', _type=\'checkbox\',\n                value=False), INPUT(_style=\'width:400px\',\n                _name=\'update_fields\', _value=request.vars.update_fields\n                                    or \'\')), TR(T(\'Delete:\'), INPUT(_name=\'delete_check\',\n                _class=\'delete\', _type=\'checkbox\', value=False), \'\'),\n                TR(\'\', \'\', INPUT(_type=\'submit\', _value=T(\'submit\')))),\n                _action=URL(r=request, args=request.args))\n\n    tb = None\n    if form.accepts(request.vars, formname=None):\n        regex = re.compile(request.args[0] + \'\\.(?P<table>\\w+)\\..+\')\n        match = regex.match(form.vars.query.strip())\n        if match:\n            table = match.group(\'table\')\n        try:\n            nrows = db(query).count()\n            if form.vars.update_check and form.vars.update_fields:\n                db(query).update(**eval_in_global_env(\'dict(%s)\'\n                                                      % form.vars.update_fields))\n                response.flash = T(\'%s %%{row} updated\', nrows)\n            elif form.vars.delete_check:\n                db(query).delete()\n                response.flash = T(\'%s %%{row} deleted\', nrows)\n            nrows = db(query).count()\n            if orderby:\n                rows = db(query, ignore_common_filters=True).select(limitby=(\n                    start, stop), orderby=eval_in_global_env(orderby))\n            else:\n                rows = db(query, ignore_common_filters=True).select(\n                    limitby=(start, stop))\n        except Exception, e:\n            import traceback\n            tb = traceback.format_exc()\n            (rows, nrows) = ([], 0)\n            response.flash = DIV(T(\'Invalid Query\'), PRE(str(e)))\n    # begin handle upload csv\n    csv_table = table or request.vars.table\n    if csv_table:\n        formcsv = FORM(str(T(\'or import from csv file\')) + " ",\n                       INPUT(_type=\'file\', _name=\'csvfile\'),\n                       INPUT(_type=\'hidden\', _value=csv_table, _name=\'table\'),\n                       INPUT(_type=\'submit\', _value=T(\'import\')))\n    else:\n        formcsv = None\n    if formcsv and formcsv.process().accepted:\n        try:\n            import_csv(db[request.vars.table],\n                       request.vars.csvfile.file)\n            response.flash = T(\'data uploaded\')\n        except Exception, e:\n            response.flash = DIV(T(\'unable to parse csv file\'), PRE(str(e)))\n    # end handle upload csv\n\n    return dict(\n        form=form,\n        table=table,\n        start=start,\n        stop=stop,\n        nrows=nrows,\n        rows=rows,\n        query=request.vars.query,\n        formcsv=formcsv,\n        tb=tb,\n    )\n\n\n# ##########################################################\n# ## edit delete one record\n# ###########################################################\n\n\ndef update():\n    (db, table) = get_table(request)\n    keyed = hasattr(db[table], \'_primarykey\')\n    record = None\n    if keyed:\n        key = [f for f in request.vars if f in db[table]._primarykey]\n        if key:\n            record = db(db[table][key[0]] == request.vars[key[\n                        0]], ignore_common_filters=True).select().first()\n    else:\n        record = db(db[table].id == request.args(\n            2), ignore_common_filters=True).select().first()\n\n    if not record:\n        qry = query_by_table_type(table, db)\n        session.flash = T(\'record does not exist\')\n        redirect(URL(\'select\', args=request.args[:1],\n                     vars=dict(query=qry)))\n\n    if keyed:\n        for k in db[table]._primarykey:\n            db[table][k].writable = False\n\n    form = SQLFORM(\n        db[table], record, deletable=True, delete_label=T(\'Check to delete\'),\n        ignore_rw=ignore_rw and not keyed,\n        linkto=URL(\'select\',\n                   args=request.args[:1]), upload=URL(r=request,\n                                                      f=\'download\', args=request.args[:1]))\n\n    if form.accepts(request.vars, session):\n        session.flash = T(\'done!\')\n        qry = query_by_table_type(table, db)\n        redirect(URL(\'select\', args=request.args[:1],\n                 vars=dict(query=qry)))\n    return dict(form=form, table=db[table])\n\n\n# ##########################################################\n# ## get global variables\n# ###########################################################\n\n\ndef state():\n    return dict()\n\n\ndef ccache():\n    form = FORM(\n        P(TAG.BUTTON(\n            T("Clear CACHE?"), _type="submit", _name="yes", _value="yes")),\n        P(TAG.BUTTON(\n            T("Clear RAM"), _type="submit", _name="ram", _value="ram")),\n        P(TAG.BUTTON(\n            T("Clear DISK"), _type="submit", _name="disk", _value="disk")),\n    )\n\n    if form.accepts(request.vars, session):\n        clear_ram = False\n        clear_disk = False\n        session.flash = ""\n        if request.vars.yes:\n            clear_ram = clear_disk = True\n        if request.vars.ram:\n            clear_ram = True\n        if request.vars.disk:\n            clear_disk = True\n\n        if clear_ram:\n            cache.ram.clear()\n            session.flash += T("Ram Cleared")\n        if clear_disk:\n            cache.disk.clear()\n            session.flash += T("Disk Cleared")\n\n        redirect(URL(r=request))\n\n    try:\n        from guppy import hpy\n        hp = hpy()\n    except ImportError:\n        hp = False\n\n    import shelve\n    import os\n    import copy\n    import time\n    import math\n    from gluon import portalocker\n\n    ram = {\n        \'entries\': 0,\n        \'bytes\': 0,\n        \'objects\': 0,\n        \'hits\': 0,\n        \'misses\': 0,\n        \'ratio\': 0,\n        \'oldest\': time.time(),\n        \'keys\': []\n    }\n    disk = copy.copy(ram)\n    total = copy.copy(ram)\n    disk[\'keys\'] = []\n    total[\'keys\'] = []\n\n    def GetInHMS(seconds):\n        hours = math.floor(seconds / 3600)\n        seconds -= hours * 3600\n        minutes = math.floor(seconds / 60)\n        seconds -= minutes * 60\n        seconds = math.floor(seconds)\n\n        return (hours, minutes, seconds)\n\n    for key, value in cache.ram.storage.items():\n        if isinstance(value, dict):\n            ram[\'hits\'] = value[\'hit_total\'] - value[\'misses\']\n            ram[\'misses\'] = value[\'misses\']\n            try:\n                ram[\'ratio\'] = ram[\'hits\'] * 100 / value[\'hit_total\']\n            except (KeyError, ZeroDivisionError):\n                ram[\'ratio\'] = 0\n        else:\n            if hp:\n                ram[\'bytes\'] += hp.iso(value[1]).size\n                ram[\'objects\'] += hp.iso(value[1]).count\n            ram[\'entries\'] += 1\n            if value[0] < ram[\'oldest\']:\n                ram[\'oldest\'] = value[0]\n            ram[\'keys\'].append((key, GetInHMS(time.time() - value[0])))\n    folder = os.path.join(request.folder,\'cache\')\n    if not os.path.exists(folder):\n        os.mkdir(folder)\n    locker = open(os.path.join(folder, \'cache.lock\'), \'a\')\n    portalocker.lock(locker, portalocker.LOCK_EX)\n    disk_storage = shelve.open(\n        os.path.join(folder, \'cache.shelve\'))\n    try:\n        for key, value in disk_storage.items():\n            if isinstance(value, dict):\n                disk[\'hits\'] = value[\'hit_total\'] - value[\'misses\']\n                disk[\'misses\'] = value[\'misses\']\n                try:\n                    disk[\'ratio\'] = disk[\'hits\'] * 100 / value[\'hit_total\']\n                except (KeyError, ZeroDivisionError):\n                    disk[\'ratio\'] = 0\n            else:\n                if hp:\n                    disk[\'bytes\'] += hp.iso(value[1]).size\n                    disk[\'objects\'] += hp.iso(value[1]).count\n                disk[\'entries\'] += 1\n                if value[0] < disk[\'oldest\']:\n                    disk[\'oldest\'] = value[0]\n                disk[\'keys\'].append((key, GetInHMS(time.time() - value[0])))\n\n    finally:\n        portalocker.unlock(locker)\n        locker.close()\n        disk_storage.close()\n\n    total[\'entries\'] = ram[\'entries\'] + disk[\'entries\']\n    total[\'bytes\'] = ram[\'bytes\'] + disk[\'bytes\']\n    total[\'objects\'] = ram[\'objects\'] + disk[\'objects\']\n    total[\'hits\'] = ram[\'hits\'] + disk[\'hits\']\n    total[\'misses\'] = ram[\'misses\'] + disk[\'misses\']\n    total[\'keys\'] = ram[\'keys\'] + disk[\'keys\']\n    try:\n        total[\'ratio\'] = total[\'hits\'] * 100 / (total[\'hits\'] +\n                                                total[\'misses\'])\n    except (KeyError, ZeroDivisionError):\n        total[\'ratio\'] = 0\n\n    if disk[\'oldest\'] < ram[\'oldest\']:\n        total[\'oldest\'] = disk[\'oldest\']\n    else:\n        total[\'oldest\'] = ram[\'oldest\']\n\n    ram[\'oldest\'] = GetInHMS(time.time() - ram[\'oldest\'])\n    disk[\'oldest\'] = GetInHMS(time.time() - disk[\'oldest\'])\n    total[\'oldest\'] = GetInHMS(time.time() - total[\'oldest\'])\n\n    def key_table(keys):\n        return TABLE(\n            TR(TD(B(T(\'Key\'))), TD(B(T(\'Time in Cache (h:m:s)\')))),\n            *[TR(TD(k[0]), TD(\'%02d:%02d:%02d\' % k[1])) for k in keys],\n            **dict(_class=\'cache-keys\',\n                   _style="border-collapse: separate; border-spacing: .5em;"))\n\n    ram[\'keys\'] = key_table(ram[\'keys\'])\n    disk[\'keys\'] = key_table(disk[\'keys\'])\n    total[\'keys\'] = key_table(total[\'keys\'])\n\n    return dict(form=form, total=total,\n                ram=ram, disk=disk, object_stats=hp != False)\n\nresponse._vars=response._caller(insert)\n'
p7
sS'snapshot'
p8
(dp9
S'exception'
p10
(dp11
S'__hash__'
p12
S"<method-wrapper '__hash__' of exceptions.TypeError object>"
p13
sS'__setattr__'
p14
S"<method-wrapper '__setattr__' of exceptions.TypeError object>"
p15
sS'__reduce_ex__'
p16
S'<built-in method __reduce_ex__ of exceptions.TypeError object>'
p17
sS'__getslice__'
p18
S"<method-wrapper '__getslice__' of exceptions.TypeError object>"
p19
sS'__getitem__'
p20
S"<method-wrapper '__getitem__' of exceptions.TypeError object>"
p21
sS'__setstate__'
p22
S'<built-in method __setstate__ of exceptions.TypeError object>'
p23
sS'__reduce__'
p24
S'<built-in method __reduce__ of exceptions.TypeError object>'
p25
sS'__str__'
p26
S"<method-wrapper '__str__' of exceptions.TypeError object>"
p27
sS'__format__'
p28
S'<built-in method __format__ of exceptions.TypeError object>'
p29
sS'__getattribute__'
p30
S"<method-wrapper '__getattribute__' of exceptions.TypeError object>"
p31
sS'__class__'
p32
S"<type 'exceptions.TypeError'>"
p33
sS'__unicode__'
p34
S'<built-in method __unicode__ of exceptions.TypeError object>'
p35
sS'__delattr__'
p36
S"<method-wrapper '__delattr__' of exceptions.TypeError object>"
p37
sS'__subclasshook__'
p38
S'<built-in method __subclasshook__ of type object>'
p39
sS'__repr__'
p40
S"<method-wrapper '__repr__' of exceptions.TypeError object>"
p41
sS'args'
p42
S'("\'Field\' object is not callable",)'
p43
sS'__dict__'
p44
S'{}'
p45
sS'__sizeof__'
p46
S'<built-in method __sizeof__ of exceptions.TypeError object>'
p47
sS'__doc__'
p48
S"'Inappropriate argument type.'"
p49
sS'__init__'
p50
S"<method-wrapper '__init__' of exceptions.TypeError object>"
p51
sS'__new__'
p52
S'<built-in method __new__ of type object>'
p53
ssS'evalue'
p54
S"'Field' object is not callable"
p55
sS'request'
p56
ccopy_reg
_reconstructor
p57
(cgluon.html
BEAUTIFY
p58
c__builtin__
object
p59
NtRp60
(dp61
S'attributes'
p62
(dp63
sS'components'
p64
(lp65
g57
(cgluon.html
TABLE
p66
g59
NtRp67
(dp68
g62
(dp69
S'level'
p70
I5
ssS'parent'
p71
Nsg64
(lp72
g57
(cgluon.html
TR
p73
g59
NtRp74
(dp75
g62
(dp76
sg71
g67
sg64
(lp77
g57
(cgluon.html
TD
p78
g59
NtRp79
(dp80
g62
(dp81
S'_style'
p82
S'font-weight:bold;vertical-align:top'
p83
ssg71
g74
sg64
(lp84
S'ajax'
p85
asbag57
(g78
g59
NtRp86
(dp87
g62
(dp88
S'_valign'
p89
S'top'
p90
ssg71
g74
sg64
(lp91
S':'
asbag57
(g78
g59
NtRp92
(dp93
g62
(dp94
sg71
g74
sg64
(lp95
g57
(g58
g59
NtRp96
(dp97
g62
(dp98
g70
I5
ssg71
g92
sg64
(lp99
S'False'
p100
asbasbasbag57
(g73
g59
NtRp101
(dp102
g62
(dp103
sg71
g67
sg64
(lp104
g57
(g78
g59
NtRp105
(dp106
g62
(dp107
g82
g83
ssg71
g101
sg64
(lp108
S'application'
p109
asbag57
(g78
g59
NtRp110
(dp111
g62
(dp112
g89
g90
ssg71
g101
sg64
(lp113
S':'
asbag57
(g78
g59
NtRp114
(dp115
g62
(dp116
sg71
g101
sg64
(lp117
g57
(g58
g59
NtRp118
(dp119
g62
(dp120
g70
I5
ssg71
g114
sg64
(lp121
S'images1'
p122
asbasbasbag57
(g73
g59
NtRp123
(dp124
g62
(dp125
sg71
g67
sg64
(lp126
g57
(g78
g59
NtRp127
(dp128
g62
(dp129
g82
g83
ssg71
g123
sg64
(lp130
g42
asbag57
(g78
g59
NtRp131
(dp132
g62
(dp133
g89
g90
ssg71
g123
sg64
(lp134
S':'
asbag57
(g78
g59
NtRp135
(dp136
g62
(dp137
sg71
g123
sg64
(lp138
g57
(g58
g59
NtRp139
(dp140
g62
(dp141
g70
I5
ssg71
g135
sg64
(lp142
g57
(g66
g59
NtRp143
(dp144
g62
(dp145
g70
I4
ssg71
Nsg64
(lp146
g57
(g73
g59
NtRp147
(dp148
g62
(dp149
sg71
g143
sg64
(lp150
g57
(g78
g59
NtRp151
(dp152
g62
(dp153
sg71
g147
sg64
(lp154
g57
(g58
g59
NtRp155
(dp156
g62
(dp157
g70
I4
ssg71
g151
sg64
(lp158
S'db'
p159
asbasbasbag57
(g73
g59
NtRp160
(dp161
g62
(dp162
sg71
g143
sg64
(lp163
g57
(g78
g59
NtRp164
(dp165
g62
(dp166
sg71
g160
sg64
(lp167
g57
(g58
g59
NtRp168
(dp169
g62
(dp170
g70
I4
ssg71
g164
sg64
(lp171
S'comment'
p172
asbasbasbasbasbasbasbag57
(g73
g59
NtRp173
(dp174
g62
(dp175
sg71
g67
sg64
(lp176
g57
(g78
g59
NtRp177
(dp178
g62
(dp179
g82
g83
ssg71
g173
sg64
(lp180
S'body'
p181
asbag57
(g78
g59
NtRp182
(dp183
g62
(dp184
g89
g90
ssg71
g173
sg64
(lp185
S':'
asbag57
(g78
g59
NtRp186
(dp187
g62
(dp188
sg71
g173
sg64
(lp189
g57
(g58
g59
NtRp190
(dp191
g62
(dp192
g70
I5
ssg71
g186
sg64
(lp193
S'<cStringIO.StringO object at 0xae02f900>'
p194
asbasbasbag57
(g73
g59
NtRp195
(dp196
g62
(dp197
sg71
g67
sg64
(lp198
g57
(g78
g59
NtRp199
(dp200
g62
(dp201
g82
g83
ssg71
g195
sg64
(lp202
S'cid'
p203
asbag57
(g78
g59
NtRp204
(dp205
g62
(dp206
g89
g90
ssg71
g195
sg64
(lp207
S':'
asbag57
(g78
g59
NtRp208
(dp209
g62
(dp210
sg71
g195
sg64
(lp211
g57
(g58
g59
NtRp212
(dp213
g62
(dp214
g70
I5
ssg71
g208
sg64
(lp215
S'None'
p216
asbasbasbag57
(g73
g59
NtRp217
(dp218
g62
(dp219
sg71
g67
sg64
(lp220
g57
(g78
g59
NtRp221
(dp222
g62
(dp223
g82
g83
ssg71
g217
sg64
(lp224
S'client'
p225
asbag57
(g78
g59
NtRp226
(dp227
g62
(dp228
g89
g90
ssg71
g217
sg64
(lp229
S':'
asbag57
(g78
g59
NtRp230
(dp231
g62
(dp232
sg71
g217
sg64
(lp233
g57
(g58
g59
NtRp234
(dp235
g62
(dp236
g70
I5
ssg71
g230
sg64
(lp237
S'127.0.0.1'
p238
asbasbasbag57
(g73
g59
NtRp239
(dp240
g62
(dp241
sg71
g67
sg64
(lp242
g57
(g78
g59
NtRp243
(dp244
g62
(dp245
g82
g83
ssg71
g239
sg64
(lp246
S'controller'
p247
asbag57
(g78
g59
NtRp248
(dp249
g62
(dp250
g89
g90
ssg71
g239
sg64
(lp251
S':'
asbag57
(g78
g59
NtRp252
(dp253
g62
(dp254
sg71
g239
sg64
(lp255
g57
(g58
g59
NtRp256
(dp257
g62
(dp258
g70
I5
ssg71
g252
sg64
(lp259
S'appadmin'
p260
asbasbasbag57
(g73
g59
NtRp261
(dp262
g62
(dp263
sg71
g67
sg64
(lp264
g57
(g78
g59
NtRp265
(dp266
g62
(dp267
g82
g83
ssg71
g261
sg64
(lp268
S'cookies'
p269
asbag57
(g78
g59
NtRp270
(dp271
g62
(dp272
g89
g90
ssg71
g261
sg64
(lp273
S':'
asbag57
(g78
g59
NtRp274
(dp275
g62
(dp276
sg71
g261
sg64
(lp277
g57
(g58
g59
NtRp278
(dp279
g62
(dp280
g70
I5
ssg71
g274
sg64
(lp281
g57
(g66
g59
NtRp282
(dp283
g62
(dp284
g70
I4
ssg71
Nsg64
(lp285
g57
(g73
g59
NtRp286
(dp287
g62
(dp288
sg71
g282
sg64
(lp289
g57
(g78
g59
NtRp290
(dp291
g62
(dp292
g82
g83
ssg71
g286
sg64
(lp293
S'session_id_admin'
p294
asbag57
(g78
g59
NtRp295
(dp296
g62
(dp297
g89
g90
ssg71
g286
sg64
(lp298
S':'
asbag57
(g78
g59
NtRp299
(dp300
g62
(dp301
sg71
g286
sg64
(lp302
g57
(g58
g59
NtRp303
(dp304
g62
(dp305
g70
I4
ssg71
g299
sg64
(lp306
S'127.0.0.1-7fd1fc50-6854-40e5-80a2-b26c376ddc1e'
p307
ag57
(g66
g59
NtRp308
(dp309
g62
(dp310
g70
I3
ssg71
Nsg64
(lp311
g57
(g73
g59
NtRp312
(dp313
g62
(dp314
sg71
g308
sg64
(lp315
g57
(g78
g59
NtRp316
(dp317
g62
(dp318
g82
g83
ssg71
g312
sg64
(lp319
S'comment'
p320
asbag57
(g78
g59
NtRp321
(dp322
g62
(dp323
g89
g90
ssg71
g312
sg64
(lp324
S':'
asbag57
(g78
g59
NtRp325
(dp326
g62
(dp327
sg71
g312
sg64
(lp328
g57
(g58
g59
NtRp329
(dp330
g62
(dp331
g70
I3
ssg71
g325
sg64
(lp332
S''
asbasbasbag57
(g73
g59
NtRp333
(dp334
g62
(dp335
sg71
g308
sg64
(lp336
g57
(g78
g59
NtRp337
(dp338
g62
(dp339
g82
g83
ssg71
g333
sg64
(lp340
S'domain'
p341
asbag57
(g78
g59
NtRp342
(dp343
g62
(dp344
g89
g90
ssg71
g333
sg64
(lp345
S':'
asbag57
(g78
g59
NtRp346
(dp347
g62
(dp348
sg71
g333
sg64
(lp349
g57
(g58
g59
NtRp350
(dp351
g62
(dp352
g70
I3
ssg71
g346
sg64
(lp353
S''
asbasbasbag57
(g73
g59
NtRp354
(dp355
g62
(dp356
sg71
g308
sg64
(lp357
g57
(g78
g59
NtRp358
(dp359
g62
(dp360
g82
g83
ssg71
g354
sg64
(lp361
S'expires'
p362
asbag57
(g78
g59
NtRp363
(dp364
g62
(dp365
g89
g90
ssg71
g354
sg64
(lp366
S':'
asbag57
(g78
g59
NtRp367
(dp368
g62
(dp369
sg71
g354
sg64
(lp370
g57
(g58
g59
NtRp371
(dp372
g62
(dp373
g70
I3
ssg71
g367
sg64
(lp374
S''
asbasbasbag57
(g73
g59
NtRp375
(dp376
g62
(dp377
sg71
g308
sg64
(lp378
g57
(g78
g59
NtRp379
(dp380
g62
(dp381
g82
g83
ssg71
g375
sg64
(lp382
S'httponly'
p383
asbag57
(g78
g59
NtRp384
(dp385
g62
(dp386
g89
g90
ssg71
g375
sg64
(lp387
S':'
asbag57
(g78
g59
NtRp388
(dp389
g62
(dp390
sg71
g375
sg64
(lp391
g57
(g58
g59
NtRp392
(dp393
g62
(dp394
g70
I3
ssg71
g388
sg64
(lp395
S''
asbasbasbag57
(g73
g59
NtRp396
(dp397
g62
(dp398
sg71
g308
sg64
(lp399
g57
(g78
g59
NtRp400
(dp401
g62
(dp402
g82
g83
ssg71
g396
sg64
(lp403
S'max-age'
p404
asbag57
(g78
g59
NtRp405
(dp406
g62
(dp407
g89
g90
ssg71
g396
sg64
(lp408
S':'
asbag57
(g78
g59
NtRp409
(dp410
g62
(dp411
sg71
g396
sg64
(lp412
g57
(g58
g59
NtRp413
(dp414
g62
(dp415
g70
I3
ssg71
g409
sg64
(lp416
S''
asbasbasbag57
(g73
g59
NtRp417
(dp418
g62
(dp419
sg71
g308
sg64
(lp420
g57
(g78
g59
NtRp421
(dp422
g62
(dp423
g82
g83
ssg71
g417
sg64
(lp424
S'path'
p425
asbag57
(g78
g59
NtRp426
(dp427
g62
(dp428
g89
g90
ssg71
g417
sg64
(lp429
S':'
asbag57
(g78
g59
NtRp430
(dp431
g62
(dp432
sg71
g417
sg64
(lp433
g57
(g58
g59
NtRp434
(dp435
g62
(dp436
g70
I3
ssg71
g430
sg64
(lp437
S''
asbasbasbag57
(g73
g59
NtRp438
(dp439
g62
(dp440
sg71
g308
sg64
(lp441
g57
(g78
g59
NtRp442
(dp443
g62
(dp444
g82
g83
ssg71
g438
sg64
(lp445
S'secure'
p446
asbag57
(g78
g59
NtRp447
(dp448
g62
(dp449
g89
g90
ssg71
g438
sg64
(lp450
S':'
asbag57
(g78
g59
NtRp451
(dp452
g62
(dp453
sg71
g438
sg64
(lp454
g57
(g58
g59
NtRp455
(dp456
g62
(dp457
g70
I3
ssg71
g451
sg64
(lp458
S''
asbasbasbag57
(g73
g59
NtRp459
(dp460
g62
(dp461
sg71
g308
sg64
(lp462
g57
(g78
g59
NtRp463
(dp464
g62
(dp465
g82
g83
ssg71
g459
sg64
(lp466
S'version'
p467
asbag57
(g78
g59
NtRp468
(dp469
g62
(dp470
g89
g90
ssg71
g459
sg64
(lp471
S':'
asbag57
(g78
g59
NtRp472
(dp473
g62
(dp474
sg71
g459
sg64
(lp475
g57
(g58
g59
NtRp476
(dp477
g62
(dp478
g70
I3
ssg71
g472
sg64
(lp479
S''
asbasbasbasbasbasbasbag57
(g73
g59
NtRp480
(dp481
g62
(dp482
sg71
g282
sg64
(lp483
g57
(g78
g59
NtRp484
(dp485
g62
(dp486
g82
g83
ssg71
g480
sg64
(lp487
S'session_id_images'
p488
asbag57
(g78
g59
NtRp489
(dp490
g62
(dp491
g89
g90
ssg71
g480
sg64
(lp492
S':'
asbag57
(g78
g59
NtRp493
(dp494
g62
(dp495
sg71
g480
sg64
(lp496
g57
(g58
g59
NtRp497
(dp498
g62
(dp499
g70
I4
ssg71
g493
sg64
(lp500
S'127.0.0.1-994cc2db-8e90-4a64-95cf-0a237460fece'
p501
ag57
(g66
g59
NtRp502
(dp503
g62
(dp504
g70
I3
ssg71
Nsg64
(lp505
g57
(g73
g59
NtRp506
(dp507
g62
(dp508
sg71
g502
sg64
(lp509
g57
(g78
g59
NtRp510
(dp511
g62
(dp512
g82
g83
ssg71
g506
sg64
(lp513
g320
asbag57
(g78
g59
NtRp514
(dp515
g62
(dp516
g89
g90
ssg71
g506
sg64
(lp517
S':'
asbag57
(g78
g59
NtRp518
(dp519
g62
(dp520
sg71
g506
sg64
(lp521
g57
(g58
g59
NtRp522
(dp523
g62
(dp524
g70
I3
ssg71
g518
sg64
(lp525
S''
asbasbasbag57
(g73
g59
NtRp526
(dp527
g62
(dp528
sg71
g502
sg64
(lp529
g57
(g78
g59
NtRp530
(dp531
g62
(dp532
g82
g83
ssg71
g526
sg64
(lp533
g341
asbag57
(g78
g59
NtRp534
(dp535
g62
(dp536
g89
g90
ssg71
g526
sg64
(lp537
S':'
asbag57
(g78
g59
NtRp538
(dp539
g62
(dp540
sg71
g526
sg64
(lp541
g57
(g58
g59
NtRp542
(dp543
g62
(dp544
g70
I3
ssg71
g538
sg64
(lp545
S''
asbasbasbag57
(g73
g59
NtRp546
(dp547
g62
(dp548
sg71
g502
sg64
(lp549
g57
(g78
g59
NtRp550
(dp551
g62
(dp552
g82
g83
ssg71
g546
sg64
(lp553
g362
asbag57
(g78
g59
NtRp554
(dp555
g62
(dp556
g89
g90
ssg71
g546
sg64
(lp557
S':'
asbag57
(g78
g59
NtRp558
(dp559
g62
(dp560
sg71
g546
sg64
(lp561
g57
(g58
g59
NtRp562
(dp563
g62
(dp564
g70
I3
ssg71
g558
sg64
(lp565
S''
asbasbasbag57
(g73
g59
NtRp566
(dp567
g62
(dp568
sg71
g502
sg64
(lp569
g57
(g78
g59
NtRp570
(dp571
g62
(dp572
g82
g83
ssg71
g566
sg64
(lp573
g383
asbag57
(g78
g59
NtRp574
(dp575
g62
(dp576
g89
g90
ssg71
g566
sg64
(lp577
S':'
asbag57
(g78
g59
NtRp578
(dp579
g62
(dp580
sg71
g566
sg64
(lp581
g57
(g58
g59
NtRp582
(dp583
g62
(dp584
g70
I3
ssg71
g578
sg64
(lp585
S''
asbasbasbag57
(g73
g59
NtRp586
(dp587
g62
(dp588
sg71
g502
sg64
(lp589
g57
(g78
g59
NtRp590
(dp591
g62
(dp592
g82
g83
ssg71
g586
sg64
(lp593
g404
asbag57
(g78
g59
NtRp594
(dp595
g62
(dp596
g89
g90
ssg71
g586
sg64
(lp597
S':'
asbag57
(g78
g59
NtRp598
(dp599
g62
(dp600
sg71
g586
sg64
(lp601
g57
(g58
g59
NtRp602
(dp603
g62
(dp604
g70
I3
ssg71
g598
sg64
(lp605
S''
asbasbasbag57
(g73
g59
NtRp606
(dp607
g62
(dp608
sg71
g502
sg64
(lp609
g57
(g78
g59
NtRp610
(dp611
g62
(dp612
g82
g83
ssg71
g606
sg64
(lp613
g425
asbag57
(g78
g59
NtRp614
(dp615
g62
(dp616
g89
g90
ssg71
g606
sg64
(lp617
S':'
asbag57
(g78
g59
NtRp618
(dp619
g62
(dp620
sg71
g606
sg64
(lp621
g57
(g58
g59
NtRp622
(dp623
g62
(dp624
g70
I3
ssg71
g618
sg64
(lp625
S''
asbasbasbag57
(g73
g59
NtRp626
(dp627
g62
(dp628
sg71
g502
sg64
(lp629
g57
(g78
g59
NtRp630
(dp631
g62
(dp632
g82
g83
ssg71
g626
sg64
(lp633
g446
asbag57
(g78
g59
NtRp634
(dp635
g62
(dp636
g89
g90
ssg71
g626
sg64
(lp637
S':'
asbag57
(g78
g59
NtRp638
(dp639
g62
(dp640
sg71
g626
sg64
(lp641
g57
(g58
g59
NtRp642
(dp643
g62
(dp644
g70
I3
ssg71
g638
sg64
(lp645
S''
asbasbasbag57
(g73
g59
NtRp646
(dp647
g62
(dp648
sg71
g502
sg64
(lp649
g57
(g78
g59
NtRp650
(dp651
g62
(dp652
g82
g83
ssg71
g646
sg64
(lp653
g467
asbag57
(g78
g59
NtRp654
(dp655
g62
(dp656
g89
g90
ssg71
g646
sg64
(lp657
S':'
asbag57
(g78
g59
NtRp658
(dp659
g62
(dp660
sg71
g646
sg64
(lp661
g57
(g58
g59
NtRp662
(dp663
g62
(dp664
g70
I3
ssg71
g658
sg64
(lp665
S''
asbasbasbasbasbasbasbag57
(g73
g59
NtRp666
(dp667
g62
(dp668
sg71
g282
sg64
(lp669
g57
(g78
g59
NtRp670
(dp671
g62
(dp672
g82
g83
ssg71
g666
sg64
(lp673
S'session_id_images1'
p674
asbag57
(g78
g59
NtRp675
(dp676
g62
(dp677
g89
g90
ssg71
g666
sg64
(lp678
S':'
asbag57
(g78
g59
NtRp679
(dp680
g62
(dp681
sg71
g666
sg64
(lp682
g57
(g58
g59
NtRp683
(dp684
g62
(dp685
g70
I4
ssg71
g679
sg64
(lp686
S'127.0.0.1-118d866d-dae6-4234-beb3-30c3f03727d9'
p687
ag57
(g66
g59
NtRp688
(dp689
g62
(dp690
g70
I3
ssg71
Nsg64
(lp691
g57
(g73
g59
NtRp692
(dp693
g62
(dp694
sg71
g688
sg64
(lp695
g57
(g78
g59
NtRp696
(dp697
g62
(dp698
g82
g83
ssg71
g692
sg64
(lp699
g320
asbag57
(g78
g59
NtRp700
(dp701
g62
(dp702
g89
g90
ssg71
g692
sg64
(lp703
S':'
asbag57
(g78
g59
NtRp704
(dp705
g62
(dp706
sg71
g692
sg64
(lp707
g57
(g58
g59
NtRp708
(dp709
g62
(dp710
g70
I3
ssg71
g704
sg64
(lp711
S''
asbasbasbag57
(g73
g59
NtRp712
(dp713
g62
(dp714
sg71
g688
sg64
(lp715
g57
(g78
g59
NtRp716
(dp717
g62
(dp718
g82
g83
ssg71
g712
sg64
(lp719
g341
asbag57
(g78
g59
NtRp720
(dp721
g62
(dp722
g89
g90
ssg71
g712
sg64
(lp723
S':'
asbag57
(g78
g59
NtRp724
(dp725
g62
(dp726
sg71
g712
sg64
(lp727
g57
(g58
g59
NtRp728
(dp729
g62
(dp730
g70
I3
ssg71
g724
sg64
(lp731
S''
asbasbasbag57
(g73
g59
NtRp732
(dp733
g62
(dp734
sg71
g688
sg64
(lp735
g57
(g78
g59
NtRp736
(dp737
g62
(dp738
g82
g83
ssg71
g732
sg64
(lp739
g362
asbag57
(g78
g59
NtRp740
(dp741
g62
(dp742
g89
g90
ssg71
g732
sg64
(lp743
S':'
asbag57
(g78
g59
NtRp744
(dp745
g62
(dp746
sg71
g732
sg64
(lp747
g57
(g58
g59
NtRp748
(dp749
g62
(dp750
g70
I3
ssg71
g744
sg64
(lp751
S''
asbasbasbag57
(g73
g59
NtRp752
(dp753
g62
(dp754
sg71
g688
sg64
(lp755
g57
(g78
g59
NtRp756
(dp757
g62
(dp758
g82
g83
ssg71
g752
sg64
(lp759
g383
asbag57
(g78
g59
NtRp760
(dp761
g62
(dp762
g89
g90
ssg71
g752
sg64
(lp763
S':'
asbag57
(g78
g59
NtRp764
(dp765
g62
(dp766
sg71
g752
sg64
(lp767
g57
(g58
g59
NtRp768
(dp769
g62
(dp770
g70
I3
ssg71
g764
sg64
(lp771
S''
asbasbasbag57
(g73
g59
NtRp772
(dp773
g62
(dp774
sg71
g688
sg64
(lp775
g57
(g78
g59
NtRp776
(dp777
g62
(dp778
g82
g83
ssg71
g772
sg64
(lp779
g404
asbag57
(g78
g59
NtRp780
(dp781
g62
(dp782
g89
g90
ssg71
g772
sg64
(lp783
S':'
asbag57
(g78
g59
NtRp784
(dp785
g62
(dp786
sg71
g772
sg64
(lp787
g57
(g58
g59
NtRp788
(dp789
g62
(dp790
g70
I3
ssg71
g784
sg64
(lp791
S''
asbasbasbag57
(g73
g59
NtRp792
(dp793
g62
(dp794
sg71
g688
sg64
(lp795
g57
(g78
g59
NtRp796
(dp797
g62
(dp798
g82
g83
ssg71
g792
sg64
(lp799
g425
asbag57
(g78
g59
NtRp800
(dp801
g62
(dp802
g89
g90
ssg71
g792
sg64
(lp803
S':'
asbag57
(g78
g59
NtRp804
(dp805
g62
(dp806
sg71
g792
sg64
(lp807
g57
(g58
g59
NtRp808
(dp809
g62
(dp810
g70
I3
ssg71
g804
sg64
(lp811
S''
asbasbasbag57
(g73
g59
NtRp812
(dp813
g62
(dp814
sg71
g688
sg64
(lp815
g57
(g78
g59
NtRp816
(dp817
g62
(dp818
g82
g83
ssg71
g812
sg64
(lp819
g446
asbag57
(g78
g59
NtRp820
(dp821
g62
(dp822
g89
g90
ssg71
g812
sg64
(lp823
S':'
asbag57
(g78
g59
NtRp824
(dp825
g62
(dp826
sg71
g812
sg64
(lp827
g57
(g58
g59
NtRp828
(dp829
g62
(dp830
g70
I3
ssg71
g824
sg64
(lp831
S''
asbasbasbag57
(g73
g59
NtRp832
(dp833
g62
(dp834
sg71
g688
sg64
(lp835
g57
(g78
g59
NtRp836
(dp837
g62
(dp838
g82
g83
ssg71
g832
sg64
(lp839
g467
asbag57
(g78
g59
NtRp840
(dp841
g62
(dp842
g89
g90
ssg71
g832
sg64
(lp843
S':'
asbag57
(g78
g59
NtRp844
(dp845
g62
(dp846
sg71
g832
sg64
(lp847
g57
(g58
g59
NtRp848
(dp849
g62
(dp850
g70
I3
ssg71
g844
sg64
(lp851
S''
asbasbasbasbasbasbasbag57
(g73
g59
NtRp852
(dp853
g62
(dp854
sg71
g282
sg64
(lp855
g57
(g78
g59
NtRp856
(dp857
g62
(dp858
g82
g83
ssg71
g852
sg64
(lp859
S'session_id_welcome'
p860
asbag57
(g78
g59
NtRp861
(dp862
g62
(dp863
g89
g90
ssg71
g852
sg64
(lp864
S':'
asbag57
(g78
g59
NtRp865
(dp866
g62
(dp867
sg71
g852
sg64
(lp868
g57
(g58
g59
NtRp869
(dp870
g62
(dp871
g70
I4
ssg71
g865
sg64
(lp872
S'127.0.0.1-f0a33357-e6f9-49eb-8a60-3c1e4ecdd133'
p873
ag57
(g66
g59
NtRp874
(dp875
g62
(dp876
g70
I3
ssg71
Nsg64
(lp877
g57
(g73
g59
NtRp878
(dp879
g62
(dp880
sg71
g874
sg64
(lp881
g57
(g78
g59
NtRp882
(dp883
g62
(dp884
g82
g83
ssg71
g878
sg64
(lp885
g320
asbag57
(g78
g59
NtRp886
(dp887
g62
(dp888
g89
g90
ssg71
g878
sg64
(lp889
S':'
asbag57
(g78
g59
NtRp890
(dp891
g62
(dp892
sg71
g878
sg64
(lp893
g57
(g58
g59
NtRp894
(dp895
g62
(dp896
g70
I3
ssg71
g890
sg64
(lp897
S''
asbasbasbag57
(g73
g59
NtRp898
(dp899
g62
(dp900
sg71
g874
sg64
(lp901
g57
(g78
g59
NtRp902
(dp903
g62
(dp904
g82
g83
ssg71
g898
sg64
(lp905
g341
asbag57
(g78
g59
NtRp906
(dp907
g62
(dp908
g89
g90
ssg71
g898
sg64
(lp909
S':'
asbag57
(g78
g59
NtRp910
(dp911
g62
(dp912
sg71
g898
sg64
(lp913
g57
(g58
g59
NtRp914
(dp915
g62
(dp916
g70
I3
ssg71
g910
sg64
(lp917
S''
asbasbasbag57
(g73
g59
NtRp918
(dp919
g62
(dp920
sg71
g874
sg64
(lp921
g57
(g78
g59
NtRp922
(dp923
g62
(dp924
g82
g83
ssg71
g918
sg64
(lp925
g362
asbag57
(g78
g59
NtRp926
(dp927
g62
(dp928
g89
g90
ssg71
g918
sg64
(lp929
S':'
asbag57
(g78
g59
NtRp930
(dp931
g62
(dp932
sg71
g918
sg64
(lp933
g57
(g58
g59
NtRp934
(dp935
g62
(dp936
g70
I3
ssg71
g930
sg64
(lp937
S''
asbasbasbag57
(g73
g59
NtRp938
(dp939
g62
(dp940
sg71
g874
sg64
(lp941
g57
(g78
g59
NtRp942
(dp943
g62
(dp944
g82
g83
ssg71
g938
sg64
(lp945
g383
asbag57
(g78
g59
NtRp946
(dp947
g62
(dp948
g89
g90
ssg71
g938
sg64
(lp949
S':'
asbag57
(g78
g59
NtRp950
(dp951
g62
(dp952
sg71
g938
sg64
(lp953
g57
(g58
g59
NtRp954
(dp955
g62
(dp956
g70
I3
ssg71
g950
sg64
(lp957
S''
asbasbasbag57
(g73
g59
NtRp958
(dp959
g62
(dp960
sg71
g874
sg64
(lp961
g57
(g78
g59
NtRp962
(dp963
g62
(dp964
g82
g83
ssg71
g958
sg64
(lp965
g404
asbag57
(g78
g59
NtRp966
(dp967
g62
(dp968
g89
g90
ssg71
g958
sg64
(lp969
S':'
asbag57
(g78
g59
NtRp970
(dp971
g62
(dp972
sg71
g958
sg64
(lp973
g57
(g58
g59
NtRp974
(dp975
g62
(dp976
g70
I3
ssg71
g970
sg64
(lp977
S''
asbasbasbag57
(g73
g59
NtRp978
(dp979
g62
(dp980
sg71
g874
sg64
(lp981
g57
(g78
g59
NtRp982
(dp983
g62
(dp984
g82
g83
ssg71
g978
sg64
(lp985
g425
asbag57
(g78
g59
NtRp986
(dp987
g62
(dp988
g89
g90
ssg71
g978
sg64
(lp989
S':'
asbag57
(g78
g59
NtRp990
(dp991
g62
(dp992
sg71
g978
sg64
(lp993
g57
(g58
g59
NtRp994
(dp995
g62
(dp996
g70
I3
ssg71
g990
sg64
(lp997
S''
asbasbasbag57
(g73
g59
NtRp998
(dp999
g62
(dp1000
sg71
g874
sg64
(lp1001
g57
(g78
g59
NtRp1002
(dp1003
g62
(dp1004
g82
g83
ssg71
g998
sg64
(lp1005
g446
asbag57
(g78
g59
NtRp1006
(dp1007
g62
(dp1008
g89
g90
ssg71
g998
sg64
(lp1009
S':'
asbag57
(g78
g59
NtRp1010
(dp1011
g62
(dp1012
sg71
g998
sg64
(lp1013
g57
(g58
g59
NtRp1014
(dp1015
g62
(dp1016
g70
I3
ssg71
g1010
sg64
(lp1017
S''
asbasbasbag57
(g73
g59
NtRp1018
(dp1019
g62
(dp1020
sg71
g874
sg64
(lp1021
g57
(g78
g59
NtRp1022
(dp1023
g62
(dp1024
g82
g83
ssg71
g1018
sg64
(lp1025
g467
asbag57
(g78
g59
NtRp1026
(dp1027
g62
(dp1028
g89
g90
ssg71
g1018
sg64
(lp1029
S':'
asbag57
(g78
g59
NtRp1030
(dp1031
g62
(dp1032
sg71
g1018
sg64
(lp1033
g57
(g58
g59
NtRp1034
(dp1035
g62
(dp1036
g70
I3
ssg71
g1030
sg64
(lp1037
S''
asbasbasbasbasbasbasbasbasbasbasbag57
(g73
g59
NtRp1038
(dp1039
g62
(dp1040
sg71
g67
sg64
(lp1041
g57
(g78
g59
NtRp1042
(dp1043
g62
(dp1044
g82
g83
ssg71
g1038
sg64
(lp1045
S'env'
p1046
asbag57
(g78
g59
NtRp1047
(dp1048
g62
(dp1049
g89
g90
ssg71
g1038
sg64
(lp1050
S':'
asbag57
(g78
g59
NtRp1051
(dp1052
g62
(dp1053
sg71
g1038
sg64
(lp1054
g57
(g58
g59
NtRp1055
(dp1056
g62
(dp1057
g70
I5
ssg71
g1051
sg64
(lp1058
g57
(g66
g59
NtRp1059
(dp1060
g62
(dp1061
g70
I4
ssg71
Nsg64
(lp1062
g57
(g73
g59
NtRp1063
(dp1064
g62
(dp1065
sg71
g1059
sg64
(lp1066
g57
(g78
g59
NtRp1067
(dp1068
g62
(dp1069
g82
g83
ssg71
g1063
sg64
(lp1070
S'app_folders'
p1071
asbag57
(g78
g59
NtRp1072
(dp1073
g62
(dp1074
g89
g90
ssg71
g1063
sg64
(lp1075
S':'
asbag57
(g78
g59
NtRp1076
(dp1077
g62
(dp1078
sg71
g1063
sg64
(lp1079
g57
(g58
g59
NtRp1080
(dp1081
g62
(dp1082
g70
I4
ssg71
g1076
sg64
(lp1083
S"set(['/home/nazrul/web2py/applications/welcome/', '/home/nazrul/web2py/applications/images1/', '/home/nazrul/web2py/applications/images/', '/home/nazrul/web2py/applications/admin/'])"
p1084
asbasbasbag57
(g73
g59
NtRp1085
(dp1086
g62
(dp1087
sg71
g1059
sg64
(lp1088
g57
(g78
g59
NtRp1089
(dp1090
g62
(dp1091
g82
g83
ssg71
g1085
sg64
(lp1092
S'applications_parent'
p1093
asbag57
(g78
g59
NtRp1094
(dp1095
g62
(dp1096
g89
g90
ssg71
g1085
sg64
(lp1097
S':'
asbag57
(g78
g59
NtRp1098
(dp1099
g62
(dp1100
sg71
g1085
sg64
(lp1101
g57
(g58
g59
NtRp1102
(dp1103
g62
(dp1104
g70
I4
ssg71
g1098
sg64
(lp1105
S'/home/nazrul/web2py'
p1106
asbasbasbag57
(g73
g59
NtRp1107
(dp1108
g62
(dp1109
sg71
g1059
sg64
(lp1110
g57
(g78
g59
NtRp1111
(dp1112
g62
(dp1113
g82
g83
ssg71
g1107
sg64
(lp1114
S'cmd_args'
p1115
asbag57
(g78
g59
NtRp1116
(dp1117
g62
(dp1118
g89
g90
ssg71
g1107
sg64
(lp1119
S':'
asbag57
(g78
g59
NtRp1120
(dp1121
g62
(dp1122
sg71
g1107
sg64
(lp1123
g57
(g58
g59
NtRp1124
(dp1125
g62
(dp1126
g70
I4
ssg71
g1120
sg64
(lp1127
g57
(g66
g59
NtRp1128
(dp1129
g62
(dp1130
g70
I3
ssg71
Nsg64
(lp1131
sbasbasbasbag57
(g73
g59
NtRp1132
(dp1133
g62
(dp1134
sg71
g1059
sg64
(lp1135
g57
(g78
g59
NtRp1136
(dp1137
g62
(dp1138
g82
g83
ssg71
g1132
sg64
(lp1139
S'cmd_options'
p1140
asbag57
(g78
g59
NtRp1141
(dp1142
g62
(dp1143
g89
g90
ssg71
g1132
sg64
(lp1144
S':'
asbag57
(g78
g59
NtRp1145
(dp1146
g62
(dp1147
sg71
g1132
sg64
(lp1148
g57
(g58
g59
NtRp1149
(dp1150
g62
(dp1151
g70
I4
ssg71
g1145
sg64
(lp1152
S"<Values at 0xa6c3dac: {'verbose': False, 'ip': '127.0.0.1', 'with_scheduler': False, 'ips': [], 'shutdown_timeout': 5, 'taskbar': False, 'port': 8000, 'maxthreads': None, 'softcron': False, 'server_name': 'nazrul-Compaq-Presario-CQ40-Notebook-PC', 'bpython': False, 'nogui': False, 'pid_filename': 'httpserver.pid', 'extcron': False, 'runcron': False, 'run_system_tests': False, 'test': None, 'folder': '/home/nazrul/web2py', 'config': '', 'import_models': False, 'winservice': '', 'shell': None, 'run': '', 'log_filename': 'httpserver.log', 'debuglevel': 30, 'args': [''], 'socket_timeout': 5, 'ssl_ca_certificate': None, 'scheduler': None, 'profiler_filename': None, 'ssl_private_key': '', 'scheduler_groups': None, 'password': '<ask>', 'request_queue_size': 5, 'ssl_certificate': '', 'cronjob': False, 'numthreads': None, 'quiet': False, 'interfaces': None, 'minthreads': None, 'timeout': 10, 'plain': False, 'nobanner': False}>"
p1153
asbasbasbag57
(g73
g59
NtRp1154
(dp1155
g62
(dp1156
sg71
g1059
sg64
(lp1157
g57
(g78
g59
NtRp1158
(dp1159
g62
(dp1160
g82
g83
ssg71
g1154
sg64
(lp1161
S'db_sessions'
p1162
asbag57
(g78
g59
NtRp1163
(dp1164
g62
(dp1165
g89
g90
ssg71
g1154
sg64
(lp1166
S':'
asbag57
(g78
g59
NtRp1167
(dp1168
g62
(dp1169
sg71
g1154
sg64
(lp1170
g57
(g58
g59
NtRp1171
(dp1172
g62
(dp1173
g70
I4
ssg71
g1167
sg64
(lp1174
S'set([])'
p1175
asbasbasbag57
(g73
g59
NtRp1176
(dp1177
g62
(dp1178
sg71
g1059
sg64
(lp1179
g57
(g78
g59
NtRp1180
(dp1181
g62
(dp1182
g82
g83
ssg71
g1176
sg64
(lp1183
S'debugging'
p1184
asbag57
(g78
g59
NtRp1185
(dp1186
g62
(dp1187
g89
g90
ssg71
g1176
sg64
(lp1188
S':'
asbag57
(g78
g59
NtRp1189
(dp1190
g62
(dp1191
sg71
g1176
sg64
(lp1192
g57
(g58
g59
NtRp1193
(dp1194
g62
(dp1195
g70
I4
ssg71
g1189
sg64
(lp1196
g100
asbasbasbag57
(g73
g59
NtRp1197
(dp1198
g62
(dp1199
sg71
g1059
sg64
(lp1200
g57
(g78
g59
NtRp1201
(dp1202
g62
(dp1203
g82
g83
ssg71
g1197
sg64
(lp1204
S'gluon_parent'
p1205
asbag57
(g78
g59
NtRp1206
(dp1207
g62
(dp1208
g89
g90
ssg71
g1197
sg64
(lp1209
S':'
asbag57
(g78
g59
NtRp1210
(dp1211
g62
(dp1212
sg71
g1197
sg64
(lp1213
g57
(g58
g59
NtRp1214
(dp1215
g62
(dp1216
g70
I4
ssg71
g1210
sg64
(lp1217
S'/home/nazrul/web2py'
p1218
asbasbasbag57
(g73
g59
NtRp1219
(dp1220
g62
(dp1221
sg71
g1059
sg64
(lp1222
g57
(g78
g59
NtRp1223
(dp1224
g62
(dp1225
g82
g83
ssg71
g1219
sg64
(lp1226
S'http_accept'
p1227
asbag57
(g78
g59
NtRp1228
(dp1229
g62
(dp1230
g89
g90
ssg71
g1219
sg64
(lp1231
S':'
asbag57
(g78
g59
NtRp1232
(dp1233
g62
(dp1234
sg71
g1219
sg64
(lp1235
g57
(g58
g59
NtRp1236
(dp1237
g62
(dp1238
g70
I4
ssg71
g1232
sg64
(lp1239
S'text/html,application/xhtml+xml,application/xml;q=0.9,*/*;q=0.8'
p1240
asbasbasbag57
(g73
g59
NtRp1241
(dp1242
g62
(dp1243
sg71
g1059
sg64
(lp1244
g57
(g78
g59
NtRp1245
(dp1246
g62
(dp1247
g82
g83
ssg71
g1241
sg64
(lp1248
S'http_accept_encoding'
p1249
asbag57
(g78
g59
NtRp1250
(dp1251
g62
(dp1252
g89
g90
ssg71
g1241
sg64
(lp1253
S':'
asbag57
(g78
g59
NtRp1254
(dp1255
g62
(dp1256
sg71
g1241
sg64
(lp1257
g57
(g58
g59
NtRp1258
(dp1259
g62
(dp1260
g70
I4
ssg71
g1254
sg64
(lp1261
S'gzip, deflate'
p1262
asbasbasbag57
(g73
g59
NtRp1263
(dp1264
g62
(dp1265
sg71
g1059
sg64
(lp1266
g57
(g78
g59
NtRp1267
(dp1268
g62
(dp1269
g82
g83
ssg71
g1263
sg64
(lp1270
S'http_accept_language'
p1271
asbag57
(g78
g59
NtRp1272
(dp1273
g62
(dp1274
g89
g90
ssg71
g1263
sg64
(lp1275
S':'
asbag57
(g78
g59
NtRp1276
(dp1277
g62
(dp1278
sg71
g1263
sg64
(lp1279
g57
(g58
g59
NtRp1280
(dp1281
g62
(dp1282
g70
I4
ssg71
g1276
sg64
(lp1283
S'en-US,en;q=0.5'
p1284
asbasbasbag57
(g73
g59
NtRp1285
(dp1286
g62
(dp1287
sg71
g1059
sg64
(lp1288
g57
(g78
g59
NtRp1289
(dp1290
g62
(dp1291
g82
g83
ssg71
g1285
sg64
(lp1292
S'http_connection'
p1293
asbag57
(g78
g59
NtRp1294
(dp1295
g62
(dp1296
g89
g90
ssg71
g1285
sg64
(lp1297
S':'
asbag57
(g78
g59
NtRp1298
(dp1299
g62
(dp1300
sg71
g1285
sg64
(lp1301
g57
(g58
g59
NtRp1302
(dp1303
g62
(dp1304
g70
I4
ssg71
g1298
sg64
(lp1305
S'keep-alive'
p1306
asbasbasbag57
(g73
g59
NtRp1307
(dp1308
g62
(dp1309
sg71
g1059
sg64
(lp1310
g57
(g78
g59
NtRp1311
(dp1312
g62
(dp1313
g82
g83
ssg71
g1307
sg64
(lp1314
S'http_cookie'
p1315
asbag57
(g78
g59
NtRp1316
(dp1317
g62
(dp1318
g89
g90
ssg71
g1307
sg64
(lp1319
S':'
asbag57
(g78
g59
NtRp1320
(dp1321
g62
(dp1322
sg71
g1307
sg64
(lp1323
g57
(g58
g59
NtRp1324
(dp1325
g62
(dp1326
g70
I4
ssg71
g1320
sg64
(lp1327
S'session_id_welcome=127.0.0.1-f0a33357-e6f9-49eb-8a60-3c1e4ecdd133; session_id_admin=127.0.0.1-7fd1fc50-6854-40e5-80a2-b26c376ddc1e; session_id_images=127.0.0.1-994cc2db-8e90-4a64-95cf-0a237460fece; session_id_images1=127.0.0.1-118d866d-dae6-4234-beb3-30c3f03727d9'
p1328
asbasbasbag57
(g73
g59
NtRp1329
(dp1330
g62
(dp1331
sg71
g1059
sg64
(lp1332
g57
(g78
g59
NtRp1333
(dp1334
g62
(dp1335
g82
g83
ssg71
g1329
sg64
(lp1336
S'http_host'
p1337
asbag57
(g78
g59
NtRp1338
(dp1339
g62
(dp1340
g89
g90
ssg71
g1329
sg64
(lp1341
S':'
asbag57
(g78
g59
NtRp1342
(dp1343
g62
(dp1344
sg71
g1329
sg64
(lp1345
g57
(g58
g59
NtRp1346
(dp1347
g62
(dp1348
g70
I4
ssg71
g1342
sg64
(lp1349
S'127.0.0.1:8000'
p1350
asbasbasbag57
(g73
g59
NtRp1351
(dp1352
g62
(dp1353
sg71
g1059
sg64
(lp1354
g57
(g78
g59
NtRp1355
(dp1356
g62
(dp1357
g82
g83
ssg71
g1351
sg64
(lp1358
S'http_referer'
p1359
asbag57
(g78
g59
NtRp1360
(dp1361
g62
(dp1362
g89
g90
ssg71
g1351
sg64
(lp1363
S':'
asbag57
(g78
g59
NtRp1364
(dp1365
g62
(dp1366
sg71
g1351
sg64
(lp1367
g57
(g58
g59
NtRp1368
(dp1369
g62
(dp1370
g70
I4
ssg71
g1364
sg64
(lp1371
S'http://127.0.0.1:8000/images1/appadmin/index'
p1372
asbasbasbag57
(g73
g59
NtRp1373
(dp1374
g62
(dp1375
sg71
g1059
sg64
(lp1376
g57
(g78
g59
NtRp1377
(dp1378
g62
(dp1379
g82
g83
ssg71
g1373
sg64
(lp1380
S'http_user_agent'
p1381
asbag57
(g78
g59
NtRp1382
(dp1383
g62
(dp1384
g89
g90
ssg71
g1373
sg64
(lp1385
S':'
asbag57
(g78
g59
NtRp1386
(dp1387
g62
(dp1388
sg71
g1373
sg64
(lp1389
g57
(g58
g59
NtRp1390
(dp1391
g62
(dp1392
g70
I4
ssg71
g1386
sg64
(lp1393
S'Mozilla/5.0 (X11; Ubuntu; Linux i686; rv:18.0) Gecko/20100101 Firefox/18.0'
p1394
asbasbasbag57
(g73
g59
NtRp1395
(dp1396
g62
(dp1397
sg71
g1059
sg64
(lp1398
g57
(g78
g59
NtRp1399
(dp1400
g62
(dp1401
g82
g83
ssg71
g1395
sg64
(lp1402
S'is_jython'
p1403
asbag57
(g78
g59
NtRp1404
(dp1405
g62
(dp1406
g89
g90
ssg71
g1395
sg64
(lp1407
S':'
asbag57
(g78
g59
NtRp1408
(dp1409
g62
(dp1410
sg71
g1395
sg64
(lp1411
g57
(g58
g59
NtRp1412
(dp1413
g62
(dp1414
g70
I4
ssg71
g1408
sg64
(lp1415
g100
asbasbasbag57
(g73
g59
NtRp1416
(dp1417
g62
(dp1418
sg71
g1059
sg64
(lp1419
g57
(g78
g59
NtRp1420
(dp1421
g62
(dp1422
g82
g83
ssg71
g1416
sg64
(lp1423
S'is_pypy'
p1424
asbag57
(g78
g59
NtRp1425
(dp1426
g62
(dp1427
g89
g90
ssg71
g1416
sg64
(lp1428
S':'
asbag57
(g78
g59
NtRp1429
(dp1430
g62
(dp1431
sg71
g1416
sg64
(lp1432
g57
(g58
g59
NtRp1433
(dp1434
g62
(dp1435
g70
I4
ssg71
g1429
sg64
(lp1436
g100
asbasbasbag57
(g73
g59
NtRp1437
(dp1438
g62
(dp1439
sg71
g1059
sg64
(lp1440
g57
(g78
g59
NtRp1441
(dp1442
g62
(dp1443
g82
g83
ssg71
g1437
sg64
(lp1444
S'local_hosts'
p1445
asbag57
(g78
g59
NtRp1446
(dp1447
g62
(dp1448
g89
g90
ssg71
g1437
sg64
(lp1449
S':'
asbag57
(g78
g59
NtRp1450
(dp1451
g62
(dp1452
sg71
g1437
sg64
(lp1453
g57
(g58
g59
NtRp1454
(dp1455
g62
(dp1456
g70
I4
ssg71
g1450
sg64
(lp1457
g57
(g66
g59
NtRp1458
(dp1459
g62
(dp1460
g70
I3
ssg71
Nsg64
(lp1461
g57
(g73
g59
NtRp1462
(dp1463
g62
(dp1464
sg71
g1458
sg64
(lp1465
g57
(g78
g59
NtRp1466
(dp1467
g62
(dp1468
sg71
g1462
sg64
(lp1469
g57
(g58
g59
NtRp1470
(dp1471
g62
(dp1472
g70
I3
ssg71
g1466
sg64
(lp1473
S'::1'
p1474
asbasbasbag57
(g73
g59
NtRp1475
(dp1476
g62
(dp1477
sg71
g1458
sg64
(lp1478
g57
(g78
g59
NtRp1479
(dp1480
g62
(dp1481
sg71
g1475
sg64
(lp1482
g57
(g58
g59
NtRp1483
(dp1484
g62
(dp1485
g70
I3
ssg71
g1479
sg64
(lp1486
S'127.0.1.1'
p1487
asbasbasbag57
(g73
g59
NtRp1488
(dp1489
g62
(dp1490
sg71
g1458
sg64
(lp1491
g57
(g78
g59
NtRp1492
(dp1493
g62
(dp1494
sg71
g1488
sg64
(lp1495
g57
(g58
g59
NtRp1496
(dp1497
g62
(dp1498
g70
I3
ssg71
g1492
sg64
(lp1499
S'::ffff:127.0.0.1'
p1500
asbasbasbag57
(g73
g59
NtRp1501
(dp1502
g62
(dp1503
sg71
g1458
sg64
(lp1504
g57
(g78
g59
NtRp1505
(dp1506
g62
(dp1507
sg71
g1501
sg64
(lp1508
g57
(g58
g59
NtRp1509
(dp1510
g62
(dp1511
g70
I3
ssg71
g1505
sg64
(lp1512
S'127.0.0.1'
p1513
asbasbasbag57
(g73
g59
NtRp1514
(dp1515
g62
(dp1516
sg71
g1458
sg64
(lp1517
g57
(g78
g59
NtRp1518
(dp1519
g62
(dp1520
sg71
g1514
sg64
(lp1521
g57
(g58
g59
NtRp1522
(dp1523
g62
(dp1524
g70
I3
ssg71
g1518
sg64
(lp1525
S'nazrul-Compaq-Presario-CQ40-Notebook-PC'
p1526
asbasbasbasbasbasbasbag57
(g73
g59
NtRp1527
(dp1528
g62
(dp1529
sg71
g1059
sg64
(lp1530
g57
(g78
g59
NtRp1531
(dp1532
g62
(dp1533
g82
g83
ssg71
g1527
sg64
(lp1534
S'path_info'
p1535
asbag57
(g78
g59
NtRp1536
(dp1537
g62
(dp1538
g89
g90
ssg71
g1527
sg64
(lp1539
S':'
asbag57
(g78
g59
NtRp1540
(dp1541
g62
(dp1542
sg71
g1527
sg64
(lp1543
g57
(g58
g59
NtRp1544
(dp1545
g62
(dp1546
g70
I4
ssg71
g1540
sg64
(lp1547
S'/images1/appadmin/insert/db/comment'
p1548
asbasbasbag57
(g73
g59
NtRp1549
(dp1550
g62
(dp1551
sg71
g1059
sg64
(lp1552
g57
(g78
g59
NtRp1553
(dp1554
g62
(dp1555
g82
g83
ssg71
g1549
sg64
(lp1556
S'query_string'
p1557
asbag57
(g78
g59
NtRp1558
(dp1559
g62
(dp1560
g89
g90
ssg71
g1549
sg64
(lp1561
S':'
asbag57
(g78
g59
NtRp1562
(dp1563
g62
(dp1564
sg71
g1549
sg64
(lp1565
g57
(g58
g59
NtRp1566
(dp1567
g62
(dp1568
g70
I4
ssg71
g1562
sg64
(lp1569
S''
asbasbasbag57
(g73
g59
NtRp1570
(dp1571
g62
(dp1572
sg71
g1059
sg64
(lp1573
g57
(g78
g59
NtRp1574
(dp1575
g62
(dp1576
g82
g83
ssg71
g1570
sg64
(lp1577
S'remote_addr'
p1578
asbag57
(g78
g59
NtRp1579
(dp1580
g62
(dp1581
g89
g90
ssg71
g1570
sg64
(lp1582
S':'
asbag57
(g78
g59
NtRp1583
(dp1584
g62
(dp1585
sg71
g1570
sg64
(lp1586
g57
(g58
g59
NtRp1587
(dp1588
g62
(dp1589
g70
I4
ssg71
g1583
sg64
(lp1590
g238
asbasbasbag57
(g73
g59
NtRp1591
(dp1592
g62
(dp1593
sg71
g1059
sg64
(lp1594
g57
(g78
g59
NtRp1595
(dp1596
g62
(dp1597
g82
g83
ssg71
g1591
sg64
(lp1598
S'remote_port'
p1599
asbag57
(g78
g59
NtRp1600
(dp1601
g62
(dp1602
g89
g90
ssg71
g1591
sg64
(lp1603
S':'
asbag57
(g78
g59
NtRp1604
(dp1605
g62
(dp1606
sg71
g1591
sg64
(lp1607
g57
(g58
g59
NtRp1608
(dp1609
g62
(dp1610
g70
I4
ssg71
g1604
sg64
(lp1611
S'50540'
p1612
asbasbasbag57
(g73
g59
NtRp1613
(dp1614
g62
(dp1615
sg71
g1059
sg64
(lp1616
g57
(g78
g59
NtRp1617
(dp1618
g62
(dp1619
g82
g83
ssg71
g1613
sg64
(lp1620
S'request_method'
p1621
asbag57
(g78
g59
NtRp1622
(dp1623
g62
(dp1624
g89
g90
ssg71
g1613
sg64
(lp1625
S':'
asbag57
(g78
g59
NtRp1626
(dp1627
g62
(dp1628
sg71
g1613
sg64
(lp1629
g57
(g58
g59
NtRp1630
(dp1631
g62
(dp1632
g70
I4
ssg71
g1626
sg64
(lp1633
S'GET'
p1634
asbasbasbag57
(g73
g59
NtRp1635
(dp1636
g62
(dp1637
sg71
g1059
sg64
(lp1638
g57
(g78
g59
NtRp1639
(dp1640
g62
(dp1641
g82
g83
ssg71
g1635
sg64
(lp1642
S'request_uri'
p1643
asbag57
(g78
g59
NtRp1644
(dp1645
g62
(dp1646
g89
g90
ssg71
g1635
sg64
(lp1647
S':'
asbag57
(g78
g59
NtRp1648
(dp1649
g62
(dp1650
sg71
g1635
sg64
(lp1651
g57
(g58
g59
NtRp1652
(dp1653
g62
(dp1654
g70
I4
ssg71
g1648
sg64
(lp1655
g1548
asbasbasbag57
(g73
g59
NtRp1656
(dp1657
g62
(dp1658
sg71
g1059
sg64
(lp1659
g57
(g78
g59
NtRp1660
(dp1661
g62
(dp1662
g82
g83
ssg71
g1656
sg64
(lp1663
S'script_name'
p1664
asbag57
(g78
g59
NtRp1665
(dp1666
g62
(dp1667
g89
g90
ssg71
g1656
sg64
(lp1668
S':'
asbag57
(g78
g59
NtRp1669
(dp1670
g62
(dp1671
sg71
g1656
sg64
(lp1672
g57
(g58
g59
NtRp1673
(dp1674
g62
(dp1675
g70
I4
ssg71
g1669
sg64
(lp1676
S''
asbasbasbag57
(g73
g59
NtRp1677
(dp1678
g62
(dp1679
sg71
g1059
sg64
(lp1680
g57
(g78
g59
NtRp1681
(dp1682
g62
(dp1683
g82
g83
ssg71
g1677
sg64
(lp1684
S'server_name'
p1685
asbag57
(g78
g59
NtRp1686
(dp1687
g62
(dp1688
g89
g90
ssg71
g1677
sg64
(lp1689
S':'
asbag57
(g78
g59
NtRp1690
(dp1691
g62
(dp1692
sg71
g1677
sg64
(lp1693
g57
(g58
g59
NtRp1694
(dp1695
g62
(dp1696
g70
I4
ssg71
g1690
sg64
(lp1697
S'nazrul-Compaq-Presario-CQ40-Notebook-PC'
p1698
asbasbasbag57
(g73
g59
NtRp1699
(dp1700
g62
(dp1701
sg71
g1059
sg64
(lp1702
g57
(g78
g59
NtRp1703
(dp1704
g62
(dp1705
g82
g83
ssg71
g1699
sg64
(lp1706
S'server_port'
p1707
asbag57
(g78
g59
NtRp1708
(dp1709
g62
(dp1710
g89
g90
ssg71
g1699
sg64
(lp1711
S':'
asbag57
(g78
g59
NtRp1712
(dp1713
g62
(dp1714
sg71
g1699
sg64
(lp1715
g57
(g58
g59
NtRp1716
(dp1717
g62
(dp1718
g70
I4
ssg71
g1712
sg64
(lp1719
S'8000'
p1720
asbasbasbag57
(g73
g59
NtRp1721
(dp1722
g62
(dp1723
sg71
g1059
sg64
(lp1724
g57
(g78
g59
NtRp1725
(dp1726
g62
(dp1727
g82
g83
ssg71
g1721
sg64
(lp1728
S'server_protocol'
p1729
asbag57
(g78
g59
NtRp1730
(dp1731
g62
(dp1732
g89
g90
ssg71
g1721
sg64
(lp1733
S':'
asbag57
(g78
g59
NtRp1734
(dp1735
g62
(dp1736
sg71
g1721
sg64
(lp1737
g57
(g58
g59
NtRp1738
(dp1739
g62
(dp1740
g70
I4
ssg71
g1734
sg64
(lp1741
S'HTTP/1.1'
p1742
asbasbasbag57
(g73
g59
NtRp1743
(dp1744
g62
(dp1745
sg71
g1059
sg64
(lp1746
g57
(g78
g59
NtRp1747
(dp1748
g62
(dp1749
g82
g83
ssg71
g1743
sg64
(lp1750
S'server_software'
p1751
asbag57
(g78
g59
NtRp1752
(dp1753
g62
(dp1754
g89
g90
ssg71
g1743
sg64
(lp1755
S':'
asbag57
(g78
g59
NtRp1756
(dp1757
g62
(dp1758
sg71
g1743
sg64
(lp1759
g57
(g58
g59
NtRp1760
(dp1761
g62
(dp1762
g70
I4
ssg71
g1756
sg64
(lp1763
S'Rocket 1.2.6'
p1764
asbasbasbag57
(g73
g59
NtRp1765
(dp1766
g62
(dp1767
sg71
g1059
sg64
(lp1768
g57
(g78
g59
NtRp1769
(dp1770
g62
(dp1771
g82
g83
ssg71
g1765
sg64
(lp1772
S'web2py_path'
p1773
asbag57
(g78
g59
NtRp1774
(dp1775
g62
(dp1776
g89
g90
ssg71
g1765
sg64
(lp1777
S':'
asbag57
(g78
g59
NtRp1778
(dp1779
g62
(dp1780
sg71
g1765
sg64
(lp1781
g57
(g58
g59
NtRp1782
(dp1783
g62
(dp1784
g70
I4
ssg71
g1778
sg64
(lp1785
g1106
asbasbasbag57
(g73
g59
NtRp1786
(dp1787
g62
(dp1788
sg71
g1059
sg64
(lp1789
g57
(g78
g59
NtRp1790
(dp1791
g62
(dp1792
g82
g83
ssg71
g1786
sg64
(lp1793
S'web2py_version'
p1794
asbag57
(g78
g59
NtRp1795
(dp1796
g62
(dp1797
g89
g90
ssg71
g1786
sg64
(lp1798
S':'
asbag57
(g78
g59
NtRp1799
(dp1800
g62
(dp1801
sg71
g1786
sg64
(lp1802
g57
(g58
g59
NtRp1803
(dp1804
g62
(dp1805
g70
I4
ssg71
g1799
sg64
(lp1806
g57
(g66
g59
NtRp1807
(dp1808
g62
(dp1809
g70
I3
ssg71
Nsg64
(lp1810
g57
(g73
g59
NtRp1811
(dp1812
g62
(dp1813
sg71
g1807
sg64
(lp1814
g57
(g78
g59
NtRp1815
(dp1816
g62
(dp1817
sg71
g1811
sg64
(lp1818
g57
(g58
g59
NtRp1819
(dp1820
g62
(dp1821
g70
I3
ssg71
g1815
sg64
(lp1822
S'2'
asbasbasbag57
(g73
g59
NtRp1823
(dp1824
g62
(dp1825
sg71
g1807
sg64
(lp1826
g57
(g78
g59
NtRp1827
(dp1828
g62
(dp1829
sg71
g1823
sg64
(lp1830
g57
(g58
g59
NtRp1831
(dp1832
g62
(dp1833
g70
I3
ssg71
g1827
sg64
(lp1834
S'3'
asbasbasbag57
(g73
g59
NtRp1835
(dp1836
g62
(dp1837
sg71
g1807
sg64
(lp1838
g57
(g78
g59
NtRp1839
(dp1840
g62
(dp1841
sg71
g1835
sg64
(lp1842
g57
(g58
g59
NtRp1843
(dp1844
g62
(dp1845
g70
I3
ssg71
g1839
sg64
(lp1846
S'2'
asbasbasbag57
(g73
g59
NtRp1847
(dp1848
g62
(dp1849
sg71
g1807
sg64
(lp1850
g57
(g78
g59
NtRp1851
(dp1852
g62
(dp1853
sg71
g1847
sg64
(lp1854
g57
(g58
g59
NtRp1855
(dp1856
g62
(dp1857
g70
I3
ssg71
g1851
sg64
(lp1858
S'datetime.datetime(2012, 12, 17, 15, 3, 30)'
p1859
asbasbasbag57
(g73
g59
NtRp1860
(dp1861
g62
(dp1862
sg71
g1807
sg64
(lp1863
g57
(g78
g59
NtRp1864
(dp1865
g62
(dp1866
sg71
g1860
sg64
(lp1867
g57
(g58
g59
NtRp1868
(dp1869
g62
(dp1870
g70
I3
ssg71
g1864
sg64
(lp1871
S'stable'
p1872
asbasbasbasbasbasbasbag57
(g73
g59
NtRp1873
(dp1874
g62
(dp1875
sg71
g1059
sg64
(lp1876
g57
(g78
g59
NtRp1877
(dp1878
g62
(dp1879
g82
g83
ssg71
g1873
sg64
(lp1880
S'wsgi_errors'
p1881
asbag57
(g78
g59
NtRp1882
(dp1883
g62
(dp1884
g89
g90
ssg71
g1873
sg64
(lp1885
S':'
asbag57
(g78
g59
NtRp1886
(dp1887
g62
(dp1888
sg71
g1873
sg64
(lp1889
g57
(g58
g59
NtRp1890
(dp1891
g62
(dp1892
g70
I4
ssg71
g1886
sg64
(lp1893
S"<open file '<stderr>', mode 'w' at 0xb72cc0d0>"
p1894
asbasbasbag57
(g73
g59
NtRp1895
(dp1896
g62
(dp1897
sg71
g1059
sg64
(lp1898
g57
(g78
g59
NtRp1899
(dp1900
g62
(dp1901
g82
g83
ssg71
g1895
sg64
(lp1902
S'wsgi_file_wrapper'
p1903
asbag57
(g78
g59
NtRp1904
(dp1905
g62
(dp1906
g89
g90
ssg71
g1895
sg64
(lp1907
S':'
asbag57
(g78
g59
NtRp1908
(dp1909
g62
(dp1910
sg71
g1895
sg64
(lp1911
g57
(g58
g59
NtRp1912
(dp1913
g62
(dp1914
g70
I4
ssg71
g1908
sg64
(lp1915
S'<class wsgiref.util.FileWrapper at 0xa68805c>'
p1916
asbasbasbag57
(g73
g59
NtRp1917
(dp1918
g62
(dp1919
sg71
g1059
sg64
(lp1920
g57
(g78
g59
NtRp1921
(dp1922
g62
(dp1923
g82
g83
ssg71
g1917
sg64
(lp1924
S'wsgi_input'
p1925
asbag57
(g78
g59
NtRp1926
(dp1927
g62
(dp1928
g89
g90
ssg71
g1917
sg64
(lp1929
S':'
asbag57
(g78
g59
NtRp1930
(dp1931
g62
(dp1932
sg71
g1917
sg64
(lp1933
g57
(g58
g59
NtRp1934
(dp1935
g62
(dp1936
g70
I4
ssg71
g1930
sg64
(lp1937
S'<socket._fileobject object at 0xadeb7aec>'
p1938
asbasbasbag57
(g73
g59
NtRp1939
(dp1940
g62
(dp1941
sg71
g1059
sg64
(lp1942
g57
(g78
g59
NtRp1943
(dp1944
g62
(dp1945
g82
g83
ssg71
g1939
sg64
(lp1946
S'wsgi_multiprocess'
p1947
asbag57
(g78
g59
NtRp1948
(dp1949
g62
(dp1950
g89
g90
ssg71
g1939
sg64
(lp1951
S':'
asbag57
(g78
g59
NtRp1952
(dp1953
g62
(dp1954
sg71
g1939
sg64
(lp1955
g57
(g58
g59
NtRp1956
(dp1957
g62
(dp1958
g70
I4
ssg71
g1952
sg64
(lp1959
g100
asbasbasbag57
(g73
g59
NtRp1960
(dp1961
g62
(dp1962
sg71
g1059
sg64
(lp1963
g57
(g78
g59
NtRp1964
(dp1965
g62
(dp1966
g82
g83
ssg71
g1960
sg64
(lp1967
S'wsgi_multithread'
p1968
asbag57
(g78
g59
NtRp1969
(dp1970
g62
(dp1971
g89
g90
ssg71
g1960
sg64
(lp1972
S':'
asbag57
(g78
g59
NtRp1973
(dp1974
g62
(dp1975
sg71
g1960
sg64
(lp1976
g57
(g58
g59
NtRp1977
(dp1978
g62
(dp1979
g70
I4
ssg71
g1973
sg64
(lp1980
S'True'
p1981
asbasbasbag57
(g73
g59
NtRp1982
(dp1983
g62
(dp1984
sg71
g1059
sg64
(lp1985
g57
(g78
g59
NtRp1986
(dp1987
g62
(dp1988
g82
g83
ssg71
g1982
sg64
(lp1989
S'wsgi_run_once'
p1990
asbag57
(g78
g59
NtRp1991
(dp1992
g62
(dp1993
g89
g90
ssg71
g1982
sg64
(lp1994
S':'
asbag57
(g78
g59
NtRp1995
(dp1996
g62
(dp1997
sg71
g1982
sg64
(lp1998
g57
(g58
g59
NtRp1999
(dp2000
g62
(dp2001
g70
I4
ssg71
g1995
sg64
(lp2002
g100
asbasbasbag57
(g73
g59
NtRp2003
(dp2004
g62
(dp2005
sg71
g1059
sg64
(lp2006
g57
(g78
g59
NtRp2007
(dp2008
g62
(dp2009
g82
g83
ssg71
g2003
sg64
(lp2010
S'wsgi_url_scheme'
p2011
asbag57
(g78
g59
NtRp2012
(dp2013
g62
(dp2014
g89
g90
ssg71
g2003
sg64
(lp2015
S':'
asbag57
(g78
g59
NtRp2016
(dp2017
g62
(dp2018
sg71
g2003
sg64
(lp2019
g57
(g58
g59
NtRp2020
(dp2021
g62
(dp2022
g70
I4
ssg71
g2016
sg64
(lp2023
S'http'
p2024
asbasbasbag57
(g73
g59
NtRp2025
(dp2026
g62
(dp2027
sg71
g1059
sg64
(lp2028
g57
(g78
g59
NtRp2029
(dp2030
g62
(dp2031
g82
g83
ssg71
g2025
sg64
(lp2032
S'wsgi_version'
p2033
asbag57
(g78
g59
NtRp2034
(dp2035
g62
(dp2036
g89
g90
ssg71
g2025
sg64
(lp2037
S':'
asbag57
(g78
g59
NtRp2038
(dp2039
g62
(dp2040
sg71
g2025
sg64
(lp2041
g57
(g58
g59
NtRp2042
(dp2043
g62
(dp2044
g70
I4
ssg71
g2038
sg64
(lp2045
g57
(g66
g59
NtRp2046
(dp2047
g62
(dp2048
g70
I3
ssg71
Nsg64
(lp2049
g57
(g73
g59
NtRp2050
(dp2051
g62
(dp2052
sg71
g2046
sg64
(lp2053
g57
(g78
g59
NtRp2054
(dp2055
g62
(dp2056
sg71
g2050
sg64
(lp2057
g57
(g58
g59
NtRp2058
(dp2059
g62
(dp2060
g70
I3
ssg71
g2054
sg64
(lp2061
S'1'
asbasbasbag57
(g73
g59
NtRp2062
(dp2063
g62
(dp2064
sg71
g2046
sg64
(lp2065
g57
(g78
g59
NtRp2066
(dp2067
g62
(dp2068
sg71
g2062
sg64
(lp2069
g57
(g58
g59
NtRp2070
(dp2071
g62
(dp2072
g70
I3
ssg71
g2066
sg64
(lp2073
S'0'
asbasbasbasbasbasbasbasbasbasbasbag57
(g73
g59
NtRp2074
(dp2075
g62
(dp2076
sg71
g67
sg64
(lp2077
g57
(g78
g59
NtRp2078
(dp2079
g62
(dp2080
g82
g83
ssg71
g2074
sg64
(lp2081
S'extension'
p2082
asbag57
(g78
g59
NtRp2083
(dp2084
g62
(dp2085
g89
g90
ssg71
g2074
sg64
(lp2086
S':'
asbag57
(g78
g59
NtRp2087
(dp2088
g62
(dp2089
sg71
g2074
sg64
(lp2090
g57
(g58
g59
NtRp2091
(dp2092
g62
(dp2093
g70
I5
ssg71
g2087
sg64
(lp2094
S'html'
p2095
asbasbasbag57
(g73
g59
NtRp2096
(dp2097
g62
(dp2098
sg71
g67
sg64
(lp2099
g57
(g78
g59
NtRp2100
(dp2101
g62
(dp2102
g82
g83
ssg71
g2096
sg64
(lp2103
S'folder'
p2104
asbag57
(g78
g59
NtRp2105
(dp2106
g62
(dp2107
g89
g90
ssg71
g2096
sg64
(lp2108
S':'
asbag57
(g78
g59
NtRp2109
(dp2110
g62
(dp2111
sg71
g2096
sg64
(lp2112
g57
(g58
g59
NtRp2113
(dp2114
g62
(dp2115
g70
I5
ssg71
g2109
sg64
(lp2116
S'/home/nazrul/web2py/applications/images1/'
p2117
asbasbasbag57
(g73
g59
NtRp2118
(dp2119
g62
(dp2120
sg71
g67
sg64
(lp2121
g57
(g78
g59
NtRp2122
(dp2123
g62
(dp2124
g82
g83
ssg71
g2118
sg64
(lp2125
S'function'
p2126
asbag57
(g78
g59
NtRp2127
(dp2128
g62
(dp2129
g89
g90
ssg71
g2118
sg64
(lp2130
S':'
asbag57
(g78
g59
NtRp2131
(dp2132
g62
(dp2133
sg71
g2118
sg64
(lp2134
g57
(g58
g59
NtRp2135
(dp2136
g62
(dp2137
g70
I5
ssg71
g2131
sg64
(lp2138
S'insert'
p2139
asbasbasbag57
(g73
g59
NtRp2140
(dp2141
g62
(dp2142
sg71
g67
sg64
(lp2143
g57
(g78
g59
NtRp2144
(dp2145
g62
(dp2146
g82
g83
ssg71
g2140
sg64
(lp2147
S'get_vars'
p2148
asbag57
(g78
g59
NtRp2149
(dp2150
g62
(dp2151
g89
g90
ssg71
g2140
sg64
(lp2152
S':'
asbag57
(g78
g59
NtRp2153
(dp2154
g62
(dp2155
sg71
g2140
sg64
(lp2156
g57
(g58
g59
NtRp2157
(dp2158
g62
(dp2159
g70
I5
ssg71
g2153
sg64
(lp2160
g57
(g66
g59
NtRp2161
(dp2162
g62
(dp2163
g70
I4
ssg71
Nsg64
(lp2164
sbasbasbasbag57
(g73
g59
NtRp2165
(dp2166
g62
(dp2167
sg71
g67
sg64
(lp2168
g57
(g78
g59
NtRp2169
(dp2170
g62
(dp2171
g82
g83
ssg71
g2165
sg64
(lp2172
S'global_settings'
p2173
asbag57
(g78
g59
NtRp2174
(dp2175
g62
(dp2176
g89
g90
ssg71
g2165
sg64
(lp2177
S':'
asbag57
(g78
g59
NtRp2178
(dp2179
g62
(dp2180
sg71
g2165
sg64
(lp2181
g57
(g58
g59
NtRp2182
(dp2183
g62
(dp2184
g70
I5
ssg71
g2178
sg64
(lp2185
g57
(g66
g59
NtRp2186
(dp2187
g62
(dp2188
g70
I4
ssg71
Nsg64
(lp2189
g57
(g73
g59
NtRp2190
(dp2191
g62
(dp2192
sg71
g2186
sg64
(lp2193
g57
(g78
g59
NtRp2194
(dp2195
g62
(dp2196
g82
g83
ssg71
g2190
sg64
(lp2197
g1071
asbag57
(g78
g59
NtRp2198
(dp2199
g62
(dp2200
g89
g90
ssg71
g2190
sg64
(lp2201
S':'
asbag57
(g78
g59
NtRp2202
(dp2203
g62
(dp2204
sg71
g2190
sg64
(lp2205
g57
(g58
g59
NtRp2206
(dp2207
g62
(dp2208
g70
I4
ssg71
g2202
sg64
(lp2209
S"set(['/home/nazrul/web2py/applications/welcome/', '/home/nazrul/web2py/applications/images1/', '/home/nazrul/web2py/applications/images/', '/home/nazrul/web2py/applications/admin/'])"
p2210
asbasbasbag57
(g73
g59
NtRp2211
(dp2212
g62
(dp2213
sg71
g2186
sg64
(lp2214
g57
(g78
g59
NtRp2215
(dp2216
g62
(dp2217
g82
g83
ssg71
g2211
sg64
(lp2218
g1093
asbag57
(g78
g59
NtRp2219
(dp2220
g62
(dp2221
g89
g90
ssg71
g2211
sg64
(lp2222
S':'
asbag57
(g78
g59
NtRp2223
(dp2224
g62
(dp2225
sg71
g2211
sg64
(lp2226
g57
(g58
g59
NtRp2227
(dp2228
g62
(dp2229
g70
I4
ssg71
g2223
sg64
(lp2230
g1106
asbasbasbag57
(g73
g59
NtRp2231
(dp2232
g62
(dp2233
sg71
g2186
sg64
(lp2234
g57
(g78
g59
NtRp2235
(dp2236
g62
(dp2237
g82
g83
ssg71
g2231
sg64
(lp2238
g1115
asbag57
(g78
g59
NtRp2239
(dp2240
g62
(dp2241
g89
g90
ssg71
g2231
sg64
(lp2242
S':'
asbag57
(g78
g59
NtRp2243
(dp2244
g62
(dp2245
sg71
g2231
sg64
(lp2246
g57
(g58
g59
NtRp2247
(dp2248
g62
(dp2249
g70
I4
ssg71
g2243
sg64
(lp2250
g57
(g66
g59
NtRp2251
(dp2252
g62
(dp2253
g70
I3
ssg71
Nsg64
(lp2254
sbasbasbasbag57
(g73
g59
NtRp2255
(dp2256
g62
(dp2257
sg71
g2186
sg64
(lp2258
g57
(g78
g59
NtRp2259
(dp2260
g62
(dp2261
g82
g83
ssg71
g2255
sg64
(lp2262
g1140
asbag57
(g78
g59
NtRp2263
(dp2264
g62
(dp2265
g89
g90
ssg71
g2255
sg64
(lp2266
S':'
asbag57
(g78
g59
NtRp2267
(dp2268
g62
(dp2269
sg71
g2255
sg64
(lp2270
g57
(g58
g59
NtRp2271
(dp2272
g62
(dp2273
g70
I4
ssg71
g2267
sg64
(lp2274
S"<Values at 0xa6c3dac: {'verbose': False, 'ip': '127.0.0.1', 'with_scheduler': False, 'ips': [], 'shutdown_timeout': 5, 'taskbar': False, 'port': 8000, 'maxthreads': None, 'softcron': False, 'server_name': 'nazrul-Compaq-Presario-CQ40-Notebook-PC', 'bpython': False, 'nogui': False, 'pid_filename': 'httpserver.pid', 'extcron': False, 'runcron': False, 'run_system_tests': False, 'test': None, 'folder': '/home/nazrul/web2py', 'config': '', 'import_models': False, 'winservice': '', 'shell': None, 'run': '', 'log_filename': 'httpserver.log', 'debuglevel': 30, 'args': [''], 'socket_timeout': 5, 'ssl_ca_certificate': None, 'scheduler': None, 'profiler_filename': None, 'ssl_private_key': '', 'scheduler_groups': None, 'password': '<ask>', 'request_queue_size': 5, 'ssl_certificate': '', 'cronjob': False, 'numthreads': None, 'quiet': False, 'interfaces': None, 'minthreads': None, 'timeout': 10, 'plain': False, 'nobanner': False}>"
p2275
asbasbasbag57
(g73
g59
NtRp2276
(dp2277
g62
(dp2278
sg71
g2186
sg64
(lp2279
g57
(g78
g59
NtRp2280
(dp2281
g62
(dp2282
g82
g83
ssg71
g2276
sg64
(lp2283
g1162
asbag57
(g78
g59
NtRp2284
(dp2285
g62
(dp2286
g89
g90
ssg71
g2276
sg64
(lp2287
S':'
asbag57
(g78
g59
NtRp2288
(dp2289
g62
(dp2290
sg71
g2276
sg64
(lp2291
g57
(g58
g59
NtRp2292
(dp2293
g62
(dp2294
g70
I4
ssg71
g2288
sg64
(lp2295
S'set([])'
p2296
asbasbasbag57
(g73
g59
NtRp2297
(dp2298
g62
(dp2299
sg71
g2186
sg64
(lp2300
g57
(g78
g59
NtRp2301
(dp2302
g62
(dp2303
g82
g83
ssg71
g2297
sg64
(lp2304
g1184
asbag57
(g78
g59
NtRp2305
(dp2306
g62
(dp2307
g89
g90
ssg71
g2297
sg64
(lp2308
S':'
asbag57
(g78
g59
NtRp2309
(dp2310
g62
(dp2311
sg71
g2297
sg64
(lp2312
g57
(g58
g59
NtRp2313
(dp2314
g62
(dp2315
g70
I4
ssg71
g2309
sg64
(lp2316
g100
asbasbasbag57
(g73
g59
NtRp2317
(dp2318
g62
(dp2319
sg71
g2186
sg64
(lp2320
g57
(g78
g59
NtRp2321
(dp2322
g62
(dp2323
g82
g83
ssg71
g2317
sg64
(lp2324
g1205
asbag57
(g78
g59
NtRp2325
(dp2326
g62
(dp2327
g89
g90
ssg71
g2317
sg64
(lp2328
S':'
asbag57
(g78
g59
NtRp2329
(dp2330
g62
(dp2331
sg71
g2317
sg64
(lp2332
g57
(g58
g59
NtRp2333
(dp2334
g62
(dp2335
g70
I4
ssg71
g2329
sg64
(lp2336
g1218
asbasbasbag57
(g73
g59
NtRp2337
(dp2338
g62
(dp2339
sg71
g2186
sg64
(lp2340
g57
(g78
g59
NtRp2341
(dp2342
g62
(dp2343
g82
g83
ssg71
g2337
sg64
(lp2344
g1403
asbag57
(g78
g59
NtRp2345
(dp2346
g62
(dp2347
g89
g90
ssg71
g2337
sg64
(lp2348
S':'
asbag57
(g78
g59
NtRp2349
(dp2350
g62
(dp2351
sg71
g2337
sg64
(lp2352
g57
(g58
g59
NtRp2353
(dp2354
g62
(dp2355
g70
I4
ssg71
g2349
sg64
(lp2356
g100
asbasbasbag57
(g73
g59
NtRp2357
(dp2358
g62
(dp2359
sg71
g2186
sg64
(lp2360
g57
(g78
g59
NtRp2361
(dp2362
g62
(dp2363
g82
g83
ssg71
g2357
sg64
(lp2364
g1424
asbag57
(g78
g59
NtRp2365
(dp2366
g62
(dp2367
g89
g90
ssg71
g2357
sg64
(lp2368
S':'
asbag57
(g78
g59
NtRp2369
(dp2370
g62
(dp2371
sg71
g2357
sg64
(lp2372
g57
(g58
g59
NtRp2373
(dp2374
g62
(dp2375
g70
I4
ssg71
g2369
sg64
(lp2376
g100
asbasbasbag57
(g73
g59
NtRp2377
(dp2378
g62
(dp2379
sg71
g2186
sg64
(lp2380
g57
(g78
g59
NtRp2381
(dp2382
g62
(dp2383
g82
g83
ssg71
g2377
sg64
(lp2384
g1445
asbag57
(g78
g59
NtRp2385
(dp2386
g62
(dp2387
g89
g90
ssg71
g2377
sg64
(lp2388
S':'
asbag57
(g78
g59
NtRp2389
(dp2390
g62
(dp2391
sg71
g2377
sg64
(lp2392
g57
(g58
g59
NtRp2393
(dp2394
g62
(dp2395
g70
I4
ssg71
g2389
sg64
(lp2396
g57
(g66
g59
NtRp2397
(dp2398
g62
(dp2399
g70
I3
ssg71
Nsg64
(lp2400
g57
(g73
g59
NtRp2401
(dp2402
g62
(dp2403
sg71
g2397
sg64
(lp2404
g57
(g78
g59
NtRp2405
(dp2406
g62
(dp2407
sg71
g2401
sg64
(lp2408
g57
(g58
g59
NtRp2409
(dp2410
g62
(dp2411
g70
I3
ssg71
g2405
sg64
(lp2412
g1474
asbasbasbag57
(g73
g59
NtRp2413
(dp2414
g62
(dp2415
sg71
g2397
sg64
(lp2416
g57
(g78
g59
NtRp2417
(dp2418
g62
(dp2419
sg71
g2413
sg64
(lp2420
g57
(g58
g59
NtRp2421
(dp2422
g62
(dp2423
g70
I3
ssg71
g2417
sg64
(lp2424
g1487
asbasbasbag57
(g73
g59
NtRp2425
(dp2426
g62
(dp2427
sg71
g2397
sg64
(lp2428
g57
(g78
g59
NtRp2429
(dp2430
g62
(dp2431
sg71
g2425
sg64
(lp2432
g57
(g58
g59
NtRp2433
(dp2434
g62
(dp2435
g70
I3
ssg71
g2429
sg64
(lp2436
g1500
asbasbasbag57
(g73
g59
NtRp2437
(dp2438
g62
(dp2439
sg71
g2397
sg64
(lp2440
g57
(g78
g59
NtRp2441
(dp2442
g62
(dp2443
sg71
g2437
sg64
(lp2444
g57
(g58
g59
NtRp2445
(dp2446
g62
(dp2447
g70
I3
ssg71
g2441
sg64
(lp2448
g1513
asbasbasbag57
(g73
g59
NtRp2449
(dp2450
g62
(dp2451
sg71
g2397
sg64
(lp2452
g57
(g78
g59
NtRp2453
(dp2454
g62
(dp2455
sg71
g2449
sg64
(lp2456
g57
(g58
g59
NtRp2457
(dp2458
g62
(dp2459
g70
I3
ssg71
g2453
sg64
(lp2460
g1526
asbasbasbasbasbasbasbag57
(g73
g59
NtRp2461
(dp2462
g62
(dp2463
sg71
g2186
sg64
(lp2464
g57
(g78
g59
NtRp2465
(dp2466
g62
(dp2467
g82
g83
ssg71
g2461
sg64
(lp2468
g1794
asbag57
(g78
g59
NtRp2469
(dp2470
g62
(dp2471
g89
g90
ssg71
g2461
sg64
(lp2472
S':'
asbag57
(g78
g59
NtRp2473
(dp2474
g62
(dp2475
sg71
g2461
sg64
(lp2476
g57
(g58
g59
NtRp2477
(dp2478
g62
(dp2479
g70
I4
ssg71
g2473
sg64
(lp2480
g57
(g66
g59
NtRp2481
(dp2482
g62
(dp2483
g70
I3
ssg71
Nsg64
(lp2484
g57
(g73
g59
NtRp2485
(dp2486
g62
(dp2487
sg71
g2481
sg64
(lp2488
g57
(g78
g59
NtRp2489
(dp2490
g62
(dp2491
sg71
g2485
sg64
(lp2492
g57
(g58
g59
NtRp2493
(dp2494
g62
(dp2495
g70
I3
ssg71
g2489
sg64
(lp2496
S'2'
asbasbasbag57
(g73
g59
NtRp2497
(dp2498
g62
(dp2499
sg71
g2481
sg64
(lp2500
g57
(g78
g59
NtRp2501
(dp2502
g62
(dp2503
sg71
g2497
sg64
(lp2504
g57
(g58
g59
NtRp2505
(dp2506
g62
(dp2507
g70
I3
ssg71
g2501
sg64
(lp2508
S'3'
asbasbasbag57
(g73
g59
NtRp2509
(dp2510
g62
(dp2511
sg71
g2481
sg64
(lp2512
g57
(g78
g59
NtRp2513
(dp2514
g62
(dp2515
sg71
g2509
sg64
(lp2516
g57
(g58
g59
NtRp2517
(dp2518
g62
(dp2519
g70
I3
ssg71
g2513
sg64
(lp2520
S'2'
asbasbasbag57
(g73
g59
NtRp2521
(dp2522
g62
(dp2523
sg71
g2481
sg64
(lp2524
g57
(g78
g59
NtRp2525
(dp2526
g62
(dp2527
sg71
g2521
sg64
(lp2528
g57
(g58
g59
NtRp2529
(dp2530
g62
(dp2531
g70
I3
ssg71
g2525
sg64
(lp2532
S'datetime.datetime(2012, 12, 17, 15, 3, 30)'
p2533
asbasbasbag57
(g73
g59
NtRp2534
(dp2535
g62
(dp2536
sg71
g2481
sg64
(lp2537
g57
(g78
g59
NtRp2538
(dp2539
g62
(dp2540
sg71
g2534
sg64
(lp2541
g57
(g58
g59
NtRp2542
(dp2543
g62
(dp2544
g70
I3
ssg71
g2538
sg64
(lp2545
g1872
asbasbasbasbasbasbasbasbasbasbasbag57
(g73
g59
NtRp2546
(dp2547
g62
(dp2548
sg71
g67
sg64
(lp2549
g57
(g78
g59
NtRp2550
(dp2551
g62
(dp2552
g82
g83
ssg71
g2546
sg64
(lp2553
S'is_https'
p2554
asbag57
(g78
g59
NtRp2555
(dp2556
g62
(dp2557
g89
g90
ssg71
g2546
sg64
(lp2558
S':'
asbag57
(g78
g59
NtRp2559
(dp2560
g62
(dp2561
sg71
g2546
sg64
(lp2562
g57
(g58
g59
NtRp2563
(dp2564
g62
(dp2565
g70
I5
ssg71
g2559
sg64
(lp2566
g100
asbasbasbag57
(g73
g59
NtRp2567
(dp2568
g62
(dp2569
sg71
g67
sg64
(lp2570
g57
(g78
g59
NtRp2571
(dp2572
g62
(dp2573
g82
g83
ssg71
g2567
sg64
(lp2574
S'is_local'
p2575
asbag57
(g78
g59
NtRp2576
(dp2577
g62
(dp2578
g89
g90
ssg71
g2567
sg64
(lp2579
S':'
asbag57
(g78
g59
NtRp2580
(dp2581
g62
(dp2582
sg71
g2567
sg64
(lp2583
g57
(g58
g59
NtRp2584
(dp2585
g62
(dp2586
g70
I5
ssg71
g2580
sg64
(lp2587
g1981
asbasbasbag57
(g73
g59
NtRp2588
(dp2589
g62
(dp2590
sg71
g67
sg64
(lp2591
g57
(g78
g59
NtRp2592
(dp2593
g62
(dp2594
g82
g83
ssg71
g2588
sg64
(lp2595
S'is_restful'
p2596
asbag57
(g78
g59
NtRp2597
(dp2598
g62
(dp2599
g89
g90
ssg71
g2588
sg64
(lp2600
S':'
asbag57
(g78
g59
NtRp2601
(dp2602
g62
(dp2603
sg71
g2588
sg64
(lp2604
g57
(g58
g59
NtRp2605
(dp2606
g62
(dp2607
g70
I5
ssg71
g2601
sg64
(lp2608
g100
asbasbasbag57
(g73
g59
NtRp2609
(dp2610
g62
(dp2611
sg71
g67
sg64
(lp2612
g57
(g78
g59
NtRp2613
(dp2614
g62
(dp2615
g82
g83
ssg71
g2609
sg64
(lp2616
S'now'
p2617
asbag57
(g78
g59
NtRp2618
(dp2619
g62
(dp2620
g89
g90
ssg71
g2609
sg64
(lp2621
S':'
asbag57
(g78
g59
NtRp2622
(dp2623
g62
(dp2624
sg71
g2609
sg64
(lp2625
g57
(g58
g59
NtRp2626
(dp2627
g62
(dp2628
g70
I5
ssg71
g2622
sg64
(lp2629
S'datetime.datetime(2013, 3, 1, 22, 49, 28, 331323)'
p2630
asbasbasbag57
(g73
g59
NtRp2631
(dp2632
g62
(dp2633
sg71
g67
sg64
(lp2634
g57
(g78
g59
NtRp2635
(dp2636
g62
(dp2637
g82
g83
ssg71
g2631
sg64
(lp2638
S'post_vars'
p2639
asbag57
(g78
g59
NtRp2640
(dp2641
g62
(dp2642
g89
g90
ssg71
g2631
sg64
(lp2643
S':'
asbag57
(g78
g59
NtRp2644
(dp2645
g62
(dp2646
sg71
g2631
sg64
(lp2647
g57
(g58
g59
NtRp2648
(dp2649
g62
(dp2650
g70
I5
ssg71
g2644
sg64
(lp2651
g57
(g66
g59
NtRp2652
(dp2653
g62
(dp2654
g70
I4
ssg71
Nsg64
(lp2655
sbasbasbasbag57
(g73
g59
NtRp2656
(dp2657
g62
(dp2658
sg71
g67
sg64
(lp2659
g57
(g78
g59
NtRp2660
(dp2661
g62
(dp2662
g82
g83
ssg71
g2656
sg64
(lp2663
S'raw_args'
p2664
asbag57
(g78
g59
NtRp2665
(dp2666
g62
(dp2667
g89
g90
ssg71
g2656
sg64
(lp2668
S':'
asbag57
(g78
g59
NtRp2669
(dp2670
g62
(dp2671
sg71
g2656
sg64
(lp2672
g57
(g58
g59
NtRp2673
(dp2674
g62
(dp2675
g70
I5
ssg71
g2669
sg64
(lp2676
S'db/comment'
p2677
asbasbasbag57
(g73
g59
NtRp2678
(dp2679
g62
(dp2680
sg71
g67
sg64
(lp2681
g57
(g78
g59
NtRp2682
(dp2683
g62
(dp2684
g82
g83
ssg71
g2678
sg64
(lp2685
S'raw_extension'
p2686
asbag57
(g78
g59
NtRp2687
(dp2688
g62
(dp2689
g89
g90
ssg71
g2678
sg64
(lp2690
S':'
asbag57
(g78
g59
NtRp2691
(dp2692
g62
(dp2693
sg71
g2678
sg64
(lp2694
g57
(g58
g59
NtRp2695
(dp2696
g62
(dp2697
g70
I5
ssg71
g2691
sg64
(lp2698
S'None'
p2699
asbasbasbag57
(g73
g59
NtRp2700
(dp2701
g62
(dp2702
sg71
g67
sg64
(lp2703
g57
(g78
g59
NtRp2704
(dp2705
g62
(dp2706
g82
g83
ssg71
g2700
sg64
(lp2707
S'url'
p2708
asbag57
(g78
g59
NtRp2709
(dp2710
g62
(dp2711
g89
g90
ssg71
g2700
sg64
(lp2712
S':'
asbag57
(g78
g59
NtRp2713
(dp2714
g62
(dp2715
sg71
g2700
sg64
(lp2716
g57
(g58
g59
NtRp2717
(dp2718
g62
(dp2719
g70
I5
ssg71
g2713
sg64
(lp2720
g1548
asbasbasbag57
(g73
g59
NtRp2721
(dp2722
g62
(dp2723
sg71
g67
sg64
(lp2724
g57
(g78
g59
NtRp2725
(dp2726
g62
(dp2727
g82
g83
ssg71
g2721
sg64
(lp2728
S'utcnow'
p2729
asbag57
(g78
g59
NtRp2730
(dp2731
g62
(dp2732
g89
g90
ssg71
g2721
sg64
(lp2733
S':'
asbag57
(g78
g59
NtRp2734
(dp2735
g62
(dp2736
sg71
g2721
sg64
(lp2737
g57
(g58
g59
NtRp2738
(dp2739
g62
(dp2740
g70
I5
ssg71
g2734
sg64
(lp2741
S'datetime.datetime(2013, 3, 1, 17, 19, 28, 331363)'
p2742
asbasbasbag57
(g73
g59
NtRp2743
(dp2744
g62
(dp2745
sg71
g67
sg64
(lp2746
g57
(g78
g59
NtRp2747
(dp2748
g62
(dp2749
g82
g83
ssg71
g2743
sg64
(lp2750
S'uuid'
p2751
asbag57
(g78
g59
NtRp2752
(dp2753
g62
(dp2754
g89
g90
ssg71
g2743
sg64
(lp2755
S':'
asbag57
(g78
g59
NtRp2756
(dp2757
g62
(dp2758
sg71
g2743
sg64
(lp2759
g57
(g58
g59
NtRp2760
(dp2761
g62
(dp2762
g70
I5
ssg71
g2756
sg64
(lp2763
S'images1/127.0.0.1.2013-03-01.22-49-28.91d3c3a7-36b0-4051-b88f-7a7564fa951d'
p2764
asbasbasbag57
(g73
g59
NtRp2765
(dp2766
g62
(dp2767
sg71
g67
sg64
(lp2768
g57
(g78
g59
NtRp2769
(dp2770
g62
(dp2771
g82
g83
ssg71
g2765
sg64
(lp2772
S'vars'
p2773
asbag57
(g78
g59
NtRp2774
(dp2775
g62
(dp2776
g89
g90
ssg71
g2765
sg64
(lp2777
S':'
asbag57
(g78
g59
NtRp2778
(dp2779
g62
(dp2780
sg71
g2765
sg64
(lp2781
g57
(g58
g59
NtRp2782
(dp2783
g62
(dp2784
g70
I5
ssg71
g2778
sg64
(lp2785
g57
(g66
g59
NtRp2786
(dp2787
g62
(dp2788
g70
I4
ssg71
Nsg64
(lp2789
sbasbasbasbag57
(g73
g59
NtRp2790
(dp2791
g62
(dp2792
sg71
g67
sg64
(lp2793
g57
(g78
g59
NtRp2794
(dp2795
g62
(dp2796
g82
g83
ssg71
g2790
sg64
(lp2797
S'wsgi'
p2798
asbag57
(g78
g59
NtRp2799
(dp2800
g62
(dp2801
g89
g90
ssg71
g2790
sg64
(lp2802
S':'
asbag57
(g78
g59
NtRp2803
(dp2804
g62
(dp2805
sg71
g2790
sg64
(lp2806
g57
(g58
g59
NtRp2807
(dp2808
g62
(dp2809
g70
I5
ssg71
g2803
sg64
(lp2810
g57
(g66
g59
NtRp2811
(dp2812
g62
(dp2813
g70
I4
ssg71
Nsg64
(lp2814
g57
(g73
g59
NtRp2815
(dp2816
g62
(dp2817
sg71
g2811
sg64
(lp2818
g57
(g78
g59
NtRp2819
(dp2820
g62
(dp2821
g82
g83
ssg71
g2815
sg64
(lp2822
S'environ'
p2823
asbag57
(g78
g59
NtRp2824
(dp2825
g62
(dp2826
g89
g90
ssg71
g2815
sg64
(lp2827
S':'
asbag57
(g78
g59
NtRp2828
(dp2829
g62
(dp2830
sg71
g2815
sg64
(lp2831
g57
(g58
g59
NtRp2832
(dp2833
g62
(dp2834
g70
I4
ssg71
g2828
sg64
(lp2835
g57
(g66
g59
NtRp2836
(dp2837
g62
(dp2838
g70
I3
ssg71
Nsg64
(lp2839
g57
(g73
g59
NtRp2840
(dp2841
g62
(dp2842
sg71
g2836
sg64
(lp2843
g57
(g78
g59
NtRp2844
(dp2845
g62
(dp2846
g82
g83
ssg71
g2840
sg64
(lp2847
S'HTTP_ACCEPT'
p2848
asbag57
(g78
g59
NtRp2849
(dp2850
g62
(dp2851
g89
g90
ssg71
g2840
sg64
(lp2852
S':'
asbag57
(g78
g59
NtRp2853
(dp2854
g62
(dp2855
sg71
g2840
sg64
(lp2856
g57
(g58
g59
NtRp2857
(dp2858
g62
(dp2859
g70
I3
ssg71
g2853
sg64
(lp2860
g1240
asbasbasbag57
(g73
g59
NtRp2861
(dp2862
g62
(dp2863
sg71
g2836
sg64
(lp2864
g57
(g78
g59
NtRp2865
(dp2866
g62
(dp2867
g82
g83
ssg71
g2861
sg64
(lp2868
S'HTTP_ACCEPT_ENCODING'
p2869
asbag57
(g78
g59
NtRp2870
(dp2871
g62
(dp2872
g89
g90
ssg71
g2861
sg64
(lp2873
S':'
asbag57
(g78
g59
NtRp2874
(dp2875
g62
(dp2876
sg71
g2861
sg64
(lp2877
g57
(g58
g59
NtRp2878
(dp2879
g62
(dp2880
g70
I3
ssg71
g2874
sg64
(lp2881
g1262
asbasbasbag57
(g73
g59
NtRp2882
(dp2883
g62
(dp2884
sg71
g2836
sg64
(lp2885
g57
(g78
g59
NtRp2886
(dp2887
g62
(dp2888
g82
g83
ssg71
g2882
sg64
(lp2889
S'HTTP_ACCEPT_LANGUAGE'
p2890
asbag57
(g78
g59
NtRp2891
(dp2892
g62
(dp2893
g89
g90
ssg71
g2882
sg64
(lp2894
S':'
asbag57
(g78
g59
NtRp2895
(dp2896
g62
(dp2897
sg71
g2882
sg64
(lp2898
g57
(g58
g59
NtRp2899
(dp2900
g62
(dp2901
g70
I3
ssg71
g2895
sg64
(lp2902
g1284
asbasbasbag57
(g73
g59
NtRp2903
(dp2904
g62
(dp2905
sg71
g2836
sg64
(lp2906
g57
(g78
g59
NtRp2907
(dp2908
g62
(dp2909
g82
g83
ssg71
g2903
sg64
(lp2910
S'HTTP_CONNECTION'
p2911
asbag57
(g78
g59
NtRp2912
(dp2913
g62
(dp2914
g89
g90
ssg71
g2903
sg64
(lp2915
S':'
asbag57
(g78
g59
NtRp2916
(dp2917
g62
(dp2918
sg71
g2903
sg64
(lp2919
g57
(g58
g59
NtRp2920
(dp2921
g62
(dp2922
g70
I3
ssg71
g2916
sg64
(lp2923
g1306
asbasbasbag57
(g73
g59
NtRp2924
(dp2925
g62
(dp2926
sg71
g2836
sg64
(lp2927
g57
(g78
g59
NtRp2928
(dp2929
g62
(dp2930
g82
g83
ssg71
g2924
sg64
(lp2931
S'HTTP_COOKIE'
p2932
asbag57
(g78
g59
NtRp2933
(dp2934
g62
(dp2935
g89
g90
ssg71
g2924
sg64
(lp2936
S':'
asbag57
(g78
g59
NtRp2937
(dp2938
g62
(dp2939
sg71
g2924
sg64
(lp2940
g57
(g58
g59
NtRp2941
(dp2942
g62
(dp2943
g70
I3
ssg71
g2937
sg64
(lp2944
g1328
asbasbasbag57
(g73
g59
NtRp2945
(dp2946
g62
(dp2947
sg71
g2836
sg64
(lp2948
g57
(g78
g59
NtRp2949
(dp2950
g62
(dp2951
g82
g83
ssg71
g2945
sg64
(lp2952
S'HTTP_HOST'
p2953
asbag57
(g78
g59
NtRp2954
(dp2955
g62
(dp2956
g89
g90
ssg71
g2945
sg64
(lp2957
S':'
asbag57
(g78
g59
NtRp2958
(dp2959
g62
(dp2960
sg71
g2945
sg64
(lp2961
g57
(g58
g59
NtRp2962
(dp2963
g62
(dp2964
g70
I3
ssg71
g2958
sg64
(lp2965
g1350
asbasbasbag57
(g73
g59
NtRp2966
(dp2967
g62
(dp2968
sg71
g2836
sg64
(lp2969
g57
(g78
g59
NtRp2970
(dp2971
g62
(dp2972
g82
g83
ssg71
g2966
sg64
(lp2973
S'HTTP_REFERER'
p2974
asbag57
(g78
g59
NtRp2975
(dp2976
g62
(dp2977
g89
g90
ssg71
g2966
sg64
(lp2978
S':'
asbag57
(g78
g59
NtRp2979
(dp2980
g62
(dp2981
sg71
g2966
sg64
(lp2982
g57
(g58
g59
NtRp2983
(dp2984
g62
(dp2985
g70
I3
ssg71
g2979
sg64
(lp2986
g1372
asbasbasbag57
(g73
g59
NtRp2987
(dp2988
g62
(dp2989
sg71
g2836
sg64
(lp2990
g57
(g78
g59
NtRp2991
(dp2992
g62
(dp2993
g82
g83
ssg71
g2987
sg64
(lp2994
S'HTTP_USER_AGENT'
p2995
asbag57
(g78
g59
NtRp2996
(dp2997
g62
(dp2998
g89
g90
ssg71
g2987
sg64
(lp2999
S':'
asbag57
(g78
g59
NtRp3000
(dp3001
g62
(dp3002
sg71
g2987
sg64
(lp3003
g57
(g58
g59
NtRp3004
(dp3005
g62
(dp3006
g70
I3
ssg71
g3000
sg64
(lp3007
g1394
asbasbasbag57
(g73
g59
NtRp3008
(dp3009
g62
(dp3010
sg71
g2836
sg64
(lp3011
g57
(g78
g59
NtRp3012
(dp3013
g62
(dp3014
g82
g83
ssg71
g3008
sg64
(lp3015
S'PATH_INFO'
p3016
asbag57
(g78
g59
NtRp3017
(dp3018
g62
(dp3019
g89
g90
ssg71
g3008
sg64
(lp3020
S':'
asbag57
(g78
g59
NtRp3021
(dp3022
g62
(dp3023
sg71
g3008
sg64
(lp3024
g57
(g58
g59
NtRp3025
(dp3026
g62
(dp3027
g70
I3
ssg71
g3021
sg64
(lp3028
g1548
asbasbasbag57
(g73
g59
NtRp3029
(dp3030
g62
(dp3031
sg71
g2836
sg64
(lp3032
g57
(g78
g59
NtRp3033
(dp3034
g62
(dp3035
g82
g83
ssg71
g3029
sg64
(lp3036
S'QUERY_STRING'
p3037
asbag57
(g78
g59
NtRp3038
(dp3039
g62
(dp3040
g89
g90
ssg71
g3029
sg64
(lp3041
S':'
asbag57
(g78
g59
NtRp3042
(dp3043
g62
(dp3044
sg71
g3029
sg64
(lp3045
g57
(g58
g59
NtRp3046
(dp3047
g62
(dp3048
g70
I3
ssg71
g3042
sg64
(lp3049
S''
asbasbasbag57
(g73
g59
NtRp3050
(dp3051
g62
(dp3052
sg71
g2836
sg64
(lp3053
g57
(g78
g59
NtRp3054
(dp3055
g62
(dp3056
g82
g83
ssg71
g3050
sg64
(lp3057
S'REMOTE_ADDR'
p3058
asbag57
(g78
g59
NtRp3059
(dp3060
g62
(dp3061
g89
g90
ssg71
g3050
sg64
(lp3062
S':'
asbag57
(g78
g59
NtRp3063
(dp3064
g62
(dp3065
sg71
g3050
sg64
(lp3066
g57
(g58
g59
NtRp3067
(dp3068
g62
(dp3069
g70
I3
ssg71
g3063
sg64
(lp3070
g238
asbasbasbag57
(g73
g59
NtRp3071
(dp3072
g62
(dp3073
sg71
g2836
sg64
(lp3074
g57
(g78
g59
NtRp3075
(dp3076
g62
(dp3077
g82
g83
ssg71
g3071
sg64
(lp3078
S'REMOTE_PORT'
p3079
asbag57
(g78
g59
NtRp3080
(dp3081
g62
(dp3082
g89
g90
ssg71
g3071
sg64
(lp3083
S':'
asbag57
(g78
g59
NtRp3084
(dp3085
g62
(dp3086
sg71
g3071
sg64
(lp3087
g57
(g58
g59
NtRp3088
(dp3089
g62
(dp3090
g70
I3
ssg71
g3084
sg64
(lp3091
g1612
asbasbasbag57
(g73
g59
NtRp3092
(dp3093
g62
(dp3094
sg71
g2836
sg64
(lp3095
g57
(g78
g59
NtRp3096
(dp3097
g62
(dp3098
g82
g83
ssg71
g3092
sg64
(lp3099
S'REQUEST_METHOD'
p3100
asbag57
(g78
g59
NtRp3101
(dp3102
g62
(dp3103
g89
g90
ssg71
g3092
sg64
(lp3104
S':'
asbag57
(g78
g59
NtRp3105
(dp3106
g62
(dp3107
sg71
g3092
sg64
(lp3108
g57
(g58
g59
NtRp3109
(dp3110
g62
(dp3111
g70
I3
ssg71
g3105
sg64
(lp3112
g1634
asbasbasbag57
(g73
g59
NtRp3113
(dp3114
g62
(dp3115
sg71
g2836
sg64
(lp3116
g57
(g78
g59
NtRp3117
(dp3118
g62
(dp3119
g82
g83
ssg71
g3113
sg64
(lp3120
S'REQUEST_URI'
p3121
asbag57
(g78
g59
NtRp3122
(dp3123
g62
(dp3124
g89
g90
ssg71
g3113
sg64
(lp3125
S':'
asbag57
(g78
g59
NtRp3126
(dp3127
g62
(dp3128
sg71
g3113
sg64
(lp3129
g57
(g58
g59
NtRp3130
(dp3131
g62
(dp3132
g70
I3
ssg71
g3126
sg64
(lp3133
g1548
asbasbasbag57
(g73
g59
NtRp3134
(dp3135
g62
(dp3136
sg71
g2836
sg64
(lp3137
g57
(g78
g59
NtRp3138
(dp3139
g62
(dp3140
g82
g83
ssg71
g3134
sg64
(lp3141
S'SCRIPT_NAME'
p3142
asbag57
(g78
g59
NtRp3143
(dp3144
g62
(dp3145
g89
g90
ssg71
g3134
sg64
(lp3146
S':'
asbag57
(g78
g59
NtRp3147
(dp3148
g62
(dp3149
sg71
g3134
sg64
(lp3150
g57
(g58
g59
NtRp3151
(dp3152
g62
(dp3153
g70
I3
ssg71
g3147
sg64
(lp3154
S''
asbasbasbag57
(g73
g59
NtRp3155
(dp3156
g62
(dp3157
sg71
g2836
sg64
(lp3158
g57
(g78
g59
NtRp3159
(dp3160
g62
(dp3161
g82
g83
ssg71
g3155
sg64
(lp3162
S'SERVER_NAME'
p3163
asbag57
(g78
g59
NtRp3164
(dp3165
g62
(dp3166
g89
g90
ssg71
g3155
sg64
(lp3167
S':'
asbag57
(g78
g59
NtRp3168
(dp3169
g62
(dp3170
sg71
g3155
sg64
(lp3171
g57
(g58
g59
NtRp3172
(dp3173
g62
(dp3174
g70
I3
ssg71
g3168
sg64
(lp3175
g1698
asbasbasbag57
(g73
g59
NtRp3176
(dp3177
g62
(dp3178
sg71
g2836
sg64
(lp3179
g57
(g78
g59
NtRp3180
(dp3181
g62
(dp3182
g82
g83
ssg71
g3176
sg64
(lp3183
S'SERVER_PORT'
p3184
asbag57
(g78
g59
NtRp3185
(dp3186
g62
(dp3187
g89
g90
ssg71
g3176
sg64
(lp3188
S':'
asbag57
(g78
g59
NtRp3189
(dp3190
g62
(dp3191
sg71
g3176
sg64
(lp3192
g57
(g58
g59
NtRp3193
(dp3194
g62
(dp3195
g70
I3
ssg71
g3189
sg64
(lp3196
g1720
asbasbasbag57
(g73
g59
NtRp3197
(dp3198
g62
(dp3199
sg71
g2836
sg64
(lp3200
g57
(g78
g59
NtRp3201
(dp3202
g62
(dp3203
g82
g83
ssg71
g3197
sg64
(lp3204
S'SERVER_PROTOCOL'
p3205
asbag57
(g78
g59
NtRp3206
(dp3207
g62
(dp3208
g89
g90
ssg71
g3197
sg64
(lp3209
S':'
asbag57
(g78
g59
NtRp3210
(dp3211
g62
(dp3212
sg71
g3197
sg64
(lp3213
g57
(g58
g59
NtRp3214
(dp3215
g62
(dp3216
g70
I3
ssg71
g3210
sg64
(lp3217
g1742
asbasbasbag57
(g73
g59
NtRp3218
(dp3219
g62
(dp3220
sg71
g2836
sg64
(lp3221
g57
(g78
g59
NtRp3222
(dp3223
g62
(dp3224
g82
g83
ssg71
g3218
sg64
(lp3225
S'SERVER_SOFTWARE'
p3226
asbag57
(g78
g59
NtRp3227
(dp3228
g62
(dp3229
g89
g90
ssg71
g3218
sg64
(lp3230
S':'
asbag57
(g78
g59
NtRp3231
(dp3232
g62
(dp3233
sg71
g3218
sg64
(lp3234
g57
(g58
g59
NtRp3235
(dp3236
g62
(dp3237
g70
I3
ssg71
g3231
sg64
(lp3238
g1764
asbasbasbag57
(g73
g59
NtRp3239
(dp3240
g62
(dp3241
sg71
g2836
sg64
(lp3242
g57
(g78
g59
NtRp3243
(dp3244
g62
(dp3245
g82
g83
ssg71
g3239
sg64
(lp3246
S'wsgi.errors'
p3247
asbag57
(g78
g59
NtRp3248
(dp3249
g62
(dp3250
g89
g90
ssg71
g3239
sg64
(lp3251
S':'
asbag57
(g78
g59
NtRp3252
(dp3253
g62
(dp3254
sg71
g3239
sg64
(lp3255
g57
(g58
g59
NtRp3256
(dp3257
g62
(dp3258
g70
I3
ssg71
g3252
sg64
(lp3259
S"<open file '<stderr>', mode 'w' at 0xb72cc0d0>"
p3260
asbasbasbag57
(g73
g59
NtRp3261
(dp3262
g62
(dp3263
sg71
g2836
sg64
(lp3264
g57
(g78
g59
NtRp3265
(dp3266
g62
(dp3267
g82
g83
ssg71
g3261
sg64
(lp3268
S'wsgi.file_wrapper'
p3269
asbag57
(g78
g59
NtRp3270
(dp3271
g62
(dp3272
g89
g90
ssg71
g3261
sg64
(lp3273
S':'
asbag57
(g78
g59
NtRp3274
(dp3275
g62
(dp3276
sg71
g3261
sg64
(lp3277
g57
(g58
g59
NtRp3278
(dp3279
g62
(dp3280
g70
I3
ssg71
g3274
sg64
(lp3281
S'<class wsgiref.util.FileWrapper at 0xa68805c>'
p3282
asbasbasbag57
(g73
g59
NtRp3283
(dp3284
g62
(dp3285
sg71
g2836
sg64
(lp3286
g57
(g78
g59
NtRp3287
(dp3288
g62
(dp3289
g82
g83
ssg71
g3283
sg64
(lp3290
S'wsgi.input'
p3291
asbag57
(g78
g59
NtRp3292
(dp3293
g62
(dp3294
g89
g90
ssg71
g3283
sg64
(lp3295
S':'
asbag57
(g78
g59
NtRp3296
(dp3297
g62
(dp3298
sg71
g3283
sg64
(lp3299
g57
(g58
g59
NtRp3300
(dp3301
g62
(dp3302
g70
I3
ssg71
g3296
sg64
(lp3303
S'<cStringIO.StringO object at 0xae02f900>'
p3304
asbasbasbag57
(g73
g59
NtRp3305
(dp3306
g62
(dp3307
sg71
g2836
sg64
(lp3308
g57
(g78
g59
NtRp3309
(dp3310
g62
(dp3311
g82
g83
ssg71
g3305
sg64
(lp3312
S'wsgi.multiprocess'
p3313
asbag57
(g78
g59
NtRp3314
(dp3315
g62
(dp3316
g89
g90
ssg71
g3305
sg64
(lp3317
S':'
asbag57
(g78
g59
NtRp3318
(dp3319
g62
(dp3320
sg71
g3305
sg64
(lp3321
g57
(g58
g59
NtRp3322
(dp3323
g62
(dp3324
g70
I3
ssg71
g3318
sg64
(lp3325
g100
asbasbasbag57
(g73
g59
NtRp3326
(dp3327
g62
(dp3328
sg71
g2836
sg64
(lp3329
g57
(g78
g59
NtRp3330
(dp3331
g62
(dp3332
g82
g83
ssg71
g3326
sg64
(lp3333
S'wsgi.multithread'
p3334
asbag57
(g78
g59
NtRp3335
(dp3336
g62
(dp3337
g89
g90
ssg71
g3326
sg64
(lp3338
S':'
asbag57
(g78
g59
NtRp3339
(dp3340
g62
(dp3341
sg71
g3326
sg64
(lp3342
g57
(g58
g59
NtRp3343
(dp3344
g62
(dp3345
g70
I3
ssg71
g3339
sg64
(lp3346
g1981
asbasbasbag57
(g73
g59
NtRp3347
(dp3348
g62
(dp3349
sg71
g2836
sg64
(lp3350
g57
(g78
g59
NtRp3351
(dp3352
g62
(dp3353
g82
g83
ssg71
g3347
sg64
(lp3354
S'wsgi.run_once'
p3355
asbag57
(g78
g59
NtRp3356
(dp3357
g62
(dp3358
g89
g90
ssg71
g3347
sg64
(lp3359
S':'
asbag57
(g78
g59
NtRp3360
(dp3361
g62
(dp3362
sg71
g3347
sg64
(lp3363
g57
(g58
g59
NtRp3364
(dp3365
g62
(dp3366
g70
I3
ssg71
g3360
sg64
(lp3367
g100
asbasbasbag57
(g73
g59
NtRp3368
(dp3369
g62
(dp3370
sg71
g2836
sg64
(lp3371
g57
(g78
g59
NtRp3372
(dp3373
g62
(dp3374
g82
g83
ssg71
g3368
sg64
(lp3375
S'wsgi.url_scheme'
p3376
asbag57
(g78
g59
NtRp3377
(dp3378
g62
(dp3379
g89
g90
ssg71
g3368
sg64
(lp3380
S':'
asbag57
(g78
g59
NtRp3381
(dp3382
g62
(dp3383
sg71
g3368
sg64
(lp3384
g57
(g58
g59
NtRp3385
(dp3386
g62
(dp3387
g70
I3
ssg71
g3381
sg64
(lp3388
g2024
asbasbasbag57
(g73
g59
NtRp3389
(dp3390
g62
(dp3391
sg71
g2836
sg64
(lp3392
g57
(g78
g59
NtRp3393
(dp3394
g62
(dp3395
g82
g83
ssg71
g3389
sg64
(lp3396
S'wsgi.version'
p3397
asbag57
(g78
g59
NtRp3398
(dp3399
g62
(dp3400
g89
g90
ssg71
g3389
sg64
(lp3401
S':'
asbag57
(g78
g59
NtRp3402
(dp3403
g62
(dp3404
sg71
g3389
sg64
(lp3405
g57
(g58
g59
NtRp3406
(dp3407
g62
(dp3408
g70
I3
ssg71
g3402
sg64
(lp3409
S'1'
asbasbasbasbasbasbasbasbasbasbasbasbasbsS'frames'
p3410
(lp3411
(dp3412
S'file'
p3413
S'/home/nazrul/web2py/gluon/restricted.py'
p3414
sS'dump'
p3415
(dp3416
S'environment'
p3417
S"{'A': <class 'gluon.html.A'>, 'B': <class 'gluon.html.B'>, 'BEAUTIFY': <class 'gluon.html.BEAUTIFY'>, 'BODY': <class 'gluon.html.BODY'>, 'BR': <class 'gluon.html.BR'>, 'BUTTON': <class 'gluon.html.BUTTON'>, 'CAT': <class 'gluon.html.CAT'>, 'CENTER': <class 'gluon.html.CENTER'>, 'CLEANUP': <class 'gluon.validators.CLEANUP'>, 'CODE': <class 'gluon.html.CODE'>, ...}"
p3418
sS'ccode'
p3419
S'<code object <module> at 0xadc8a968, file "/home...cations/images1/controllers/appadmin.py", line 7>'
p3420
ssS'lnum'
p3421
I212
sS'lines'
p3422
(dp3423
I207
S'    try:'
p3424
sI208
S'        if isinstance(code, types.CodeType):'
p3425
sI209
S'            ccode = code'
p3426
sI210
S'        else:'
p3427
sI211
S'            ccode = compile2(code, layer)'
p3428
sI212
S'        exec ccode in environment'
p3429
sI213
S'    except HTTP:'
p3430
sI214
S'        raise'
p3431
sI215
S'    except RestrictedError:'
p3432
sI216
S'        # do not encapsulate (obfuscate) the original RestrictedError'
p3433
ssS'call'
p3434
S"(code='# -*- coding: utf-8 -*-\\n\\n# #####################... False)\\n\\nresponse._vars=response._caller(insert)\\n', environment={'A': <class 'gluon.html.A'>, 'B': <class 'gluon.html.B'>, 'BEAUTIFY': <class 'gluon.html.BEAUTIFY'>, 'BODY': <class 'gluon.html.BODY'>, 'BR': <class 'gluon.html.BR'>, 'BUTTON': <class 'gluon.html.BUTTON'>, 'CAT': <class 'gluon.html.CAT'>, 'CENTER': <class 'gluon.html.CENTER'>, 'CLEANUP': <class 'gluon.validators.CLEANUP'>, 'CODE': <class 'gluon.html.CODE'>, ...}, layer='/home/nazrul/web2py/applications/images1/controllers/appadmin.py')"
p3435
sS'func'
p3436
S'restricted'
p3437
sa(dp3438
g3413
S'/home/nazrul/web2py/applications/images1/controllers/appadmin.py'
p3439
sg3415
(dp3440
sg3421
I464
sg3422
(dp3441
I453
S"            *[TR(TD(k[0]), TD('%02d:%02d:%02d' % k[1])) for k in keys],"
p3442
sI454
S"            **dict(_class='cache-keys',"
p3443
sI455
S'                   _style="border-collapse: separate; border-spacing: .5em;"))'
p3444
sI456
S''
sI457
S"    ram['keys'] = key_table(ram['keys'])"
p3445
sI458
S"    disk['keys'] = key_table(disk['keys'])"
p3446
sI459
S"    total['keys'] = key_table(total['keys'])"
p3447
sI460
S''
sI461
S'    return dict(form=form, total=total,'
p3448
sI462
S'                ram=ram, disk=disk, object_stats=hp != False)'
p3449
ssg3434
S'()'
p3450
sg3436
S'<module>'
p3451
sa(dp3452
g3413
S'/home/nazrul/web2py/gluon/globals.py'
p3453
sg3415
(dp3454
S'self'
p3455
S'undefined'
p3456
sS'f'
S'<function insert>'
p3457
ssg3421
I193
sg3422
(dp3458
I192
S'        self._vars = None'
p3459
sI193
S'        self._caller = lambda f: f()'
p3460
sI194
S'        self._view_environment = None'
p3461
sI195
S'        self._custom_commit = None'
p3462
sI196
S'        self._custom_rollback = None'
p3463
sI197
S''
sI188
S'        self.menu = []             # used by the default view layout'
p3464
sI189
S'        self.files = []            # used by web2py_ajax.html'
p3465
sI190
S'        self.generic_patterns = []  # patterns to allow generic views'
p3466
sI191
S"        self.delimiters = ('{{', '}}')"
p3467
ssg3434
S'(f=<function insert>)'
p3468
sg3436
S'<lambda>'
p3469
sa(dp3470
g3413
S'/home/nazrul/web2py/applications/images1/controllers/appadmin.py'
p3471
sg3415
(dp3472
S'global SQLFORM'
p3473
S"<class 'gluon.sqlhtml.SQLFORM'>"
p3474
sS'db'
p3475
S'<DAL uri="sqlite://storage.sqlite">'
p3476
sS'global ignore_rw'
p3477
g1981
sS'form'
p3478
g3456
sS'table'
p3479
S"'comment'"
p3480
ssg3421
I126
sg3422
(dp3481
I128
S"        response.flash = T('new record inserted')"
p3482
sI129
S'    return dict(form=form, table=db[table])'
p3483
sI130
S''
sI121
S'# ###########################################################'
p3484
sI122
S''
sI123
S''
sI124
S'def insert():'
p3485
sI125
S'    (db, table) = get_table(request)'
p3486
sI126
S'    form = SQLFORM(db[table], ignore_rw=ignore_rw)'
p3487
sI127
S'    if form.accepts(request.vars, session):'
p3488
ssg3434
S'()'
p3489
sg3436
S'insert'
p3490
sa(dp3491
g3413
S'/home/nazrul/web2py/gluon/sqlhtml.py'
p3492
sg3415
(dp3493
S'default'
p3494
S'None'
p3495
sS'self.widgets.options.widget'
p3496
S"<bound method type.widget of <class 'gluon.sqlhtml.OptionsWidget'>>"
p3497
sS'self'
p3498
S'<gluon.sqlhtml.SQLFORM object>'
p3499
sS'inp'
p3500
g3456
sS'self.widgets'
p3501
S"<Storage {'multiple': <class 'gluon.sqlhtml.Mult...ss 'gluon.sqlhtml.OptionsWidget'>, 'blob': None}>"
p3502
sS'field'
p3503
S'<gluon.dal.Field object>'
p3504
sS'self.widgets.options'
p3505
S"<class 'gluon.sqlhtml.OptionsWidget'>"
p3506
ssg3421
I1072
sg3422
(dp3507
I1067
S"                    inpval = 'checked'"
p3508
sI1068
S'                else:'
p3509
sI1069
S"                    inpval = ''"
p3510
sI1070
S'            elif OptionsWidget.has_options(field):'
p3511
sI1071
S'                if not field.requires.multiple:'
p3512
sI1072
S'                    inp = self.widgets.options.widget(field, default)'
p3513
sI1073
S'                else:'
p3514
sI1074
S'                    inp = self.widgets.multiple.widget(field, default)'
p3515
sI1075
S'                if fieldname in keepopts:'
p3516
sI1076
S"                    inpval = TAG[''](*inp.components)"
p3517
ssg3434
S"(self=<gluon.sqlhtml.SQLFORM object>, table=<Table comment (id,image_id,author,email,body)>, record=None, deletable=False, linkto=None, upload=None, fields=['id', 'image_id', 'author', 'email', 'body'], labels=None, col3={}, submit_button='Submit', delete_label='Check to delete', showid=True, readonly=False, comments=True, keepopts=[], ignore_rw=True, record_id=None, formstyle='table3cols', buttons=['submit'], separator=': ', **attributes={})"
p3518
sg3436
g50
sa(dp3519
g3413
S'/home/nazrul/web2py/gluon/sqlhtml.py'
p3520
sg3415
(dp3521
S'].options'
p3522
g3456
sS'requires'
p3523
S'[<gluon.validators.IS_IN_DB object>]'
p3524
sS'options'
p3525
g3456
ssg3421
I233
sg3422
(dp3526
I228
S'        requires = field.requires'
p3527
sI229
S'        if not isinstance(requires, (list, tuple)):'
p3528
sI230
S'            requires = [requires]'
p3529
sI231
S'        if requires:'
p3530
sI232
S"            if hasattr(requires[0], 'options'):"
p3531
sI233
S'                options = requires[0].options()'
p3532
sI234
S'            else:'
p3533
sI235
S'                raise SyntaxError('
p3534
sI236
S"                    'widget cannot determine options of %s' % field)"
p3535
sI237
S'        opts = [OPTION(v, _value=k) for (k, v) in options]'
p3536
ssg3434
S"(cls=<class 'gluon.sqlhtml.OptionsWidget'>, field=<gluon.dal.Field object>, value=None, **attributes={})"
p3537
sg3436
S'widget'
p3538
sa(dp3539
g3413
S'/home/nazrul/web2py/gluon/validators.py'
p3540
sg3415
(dp3541
S'self'
p3542
S'<gluon.validators.IS_IN_DB object>'
p3543
sS'self.build_set'
p3544
S'<bound method IS_IN_DB.build_set of <gluon.validators.IS_IN_DB object>>'
p3545
ssg3421
I489
sg3422
(dp3546
I484
S'            self.labels = [self.label % dict(r) for r in records]'
p3547
sI485
S'        else:'
p3548
sI486
S'            self.labels = [self.label(r) for r in records]'
p3549
sI487
S''
sI488
S'    def options(self, zero=True):'
p3550
sI489
S'        self.build_set()'
p3551
sI490
S'        items = [(k, self.labels[i]) for (i, k) in enumerate(self.theset)]'
p3552
sI491
S'        if self.sort:'
p3553
sI492
S'            items.sort(options_sorter)'
p3554
sI493
S'        if zero and not self.zero is None and not self.multiple:'
p3555
ssg3434
S'(self=<gluon.validators.IS_IN_DB object>, zero=True)'
p3556
sg3436
S'options'
p3557
sa(dp3558
g3413
S'/home/nazrul/web2py/gluon/validators.py'
p3559
sg3415
(dp3560
S'records'
p3561
S'<Rows (1)>'
p3562
sS'self'
p3563
S'<gluon.validators.IS_IN_DB object>'
p3564
sS'r'
S"<Row {'id': 1, 'file': 'image.file.80680bb653ffc5de.322e6a706567.jpeg', 'title': 'im1'}>"
p3565
sS'self.label'
p3566
S'<gluon.dal.Field object>'
p3567
sS'self.labels'
p3568
g3456
ssg3421
I486
sg3422
(dp3569
I481
S'            records = self.dbset(table).select(table.ALL, **dd)'
p3570
sI482
S'        self.theset = [str(r[self.kfield]) for r in records]'
p3571
sI483
S'        if isinstance(self.label, str):'
p3572
sI484
S'            self.labels = [self.label % dict(r) for r in records]'
p3573
sI485
S'        else:'
p3574
sI486
S'            self.labels = [self.label(r) for r in records]'
p3575
sI487
S''
sI488
S'    def options(self, zero=True):'
p3576
sI489
S'        self.build_set()'
p3577
sI490
S'        items = [(k, self.labels[i]) for (i, k) in enumerate(self.theset)]'
p3578
ssg3434
S'(self=<gluon.validators.IS_IN_DB object>)'
p3579
sg3436
S'build_set'
p3580
sasS'pyver'
p3581
S'Python 2.7.3: /usr/bin/python'
p3582
sS'session'
p3583
g57
(g58
g59
NtRp3584
(dp3585
g62
(dp3586
sg64
(lp3587
g57
(g66
g59
NtRp3588
(dp3589
g62
(dp3590
g70
I5
ssg71
Nsg64
(lp3591
g57
(g73
g59
NtRp3592
(dp3593
g62
(dp3594
sg71
g3588
sg64
(lp3595
g57
(g78
g59
NtRp3596
(dp3597
g62
(dp3598
g82
g83
ssg71
g3592
sg64
(lp3599
S'last_orderby'
p3600
asbag57
(g78
g59
NtRp3601
(dp3602
g62
(dp3603
g89
g90
ssg71
g3592
sg64
(lp3604
S':'
asbag57
(g78
g59
NtRp3605
(dp3606
g62
(dp3607
sg71
g3592
sg64
(lp3608
g57
(g58
g59
NtRp3609
(dp3610
g62
(dp3611
g70
I5
ssg71
g3605
sg64
(lp3612
S'None'
p3613
asbasbasbag57
(g73
g59
NtRp3614
(dp3615
g62
(dp3616
sg71
g3588
sg64
(lp3617
g57
(g78
g59
NtRp3618
(dp3619
g62
(dp3620
g82
g83
ssg71
g3614
sg64
(lp3621
S'last_query'
p3622
asbag57
(g78
g59
NtRp3623
(dp3624
g62
(dp3625
g89
g90
ssg71
g3614
sg64
(lp3626
S':'
asbag57
(g78
g59
NtRp3627
(dp3628
g62
(dp3629
sg71
g3614
sg64
(lp3630
g57
(g58
g59
NtRp3631
(dp3632
g62
(dp3633
g70
I5
ssg71
g3627
sg64
(lp3634
S'db.image.id>0'
p3635
asbasbasbasbasbsS'etype'
p3636
S"<type 'exceptions.TypeError'>"
p3637
sS'date'
p3638
S'Fri Mar  1 22:49:28 2013'
p3639
sS'response'
p3640
g57
(g58
g59
NtRp3641
(dp3642
g62
(dp3643
sg64
(lp3644
g57
(g66
g59
NtRp3645
(dp3646
g62
(dp3647
g70
I5
ssg71
Nsg64
(lp3648
g57
(g73
g59
NtRp3649
(dp3650
g62
(dp3651
sg71
g3645
sg64
(lp3652
g57
(g78
g59
NtRp3653
(dp3654
g62
(dp3655
g82
g83
ssg71
g3649
sg64
(lp3656
g181
asbag57
(g78
g59
NtRp3657
(dp3658
g62
(dp3659
g89
g90
ssg71
g3649
sg64
(lp3660
S':'
asbag57
(g78
g59
NtRp3661
(dp3662
g62
(dp3663
sg71
g3649
sg64
(lp3664
g57
(g58
g59
NtRp3665
(dp3666
g62
(dp3667
g70
I5
ssg71
g3661
sg64
(lp3668
S'<cStringIO.StringO object at 0xadf53d80>'
p3669
asbasbasbag57
(g73
g59
NtRp3670
(dp3671
g62
(dp3672
sg71
g3645
sg64
(lp3673
g57
(g78
g59
NtRp3674
(dp3675
g62
(dp3676
g82
g83
ssg71
g3670
sg64
(lp3677
g269
asbag57
(g78
g59
NtRp3678
(dp3679
g62
(dp3680
g89
g90
ssg71
g3670
sg64
(lp3681
S':'
asbag57
(g78
g59
NtRp3682
(dp3683
g62
(dp3684
sg71
g3670
sg64
(lp3685
g57
(g58
g59
NtRp3686
(dp3687
g62
(dp3688
g70
I5
ssg71
g3682
sg64
(lp3689
g57
(g66
g59
NtRp3690
(dp3691
g62
(dp3692
g70
I4
ssg71
Nsg64
(lp3693
g57
(g73
g59
NtRp3694
(dp3695
g62
(dp3696
sg71
g3690
sg64
(lp3697
g57
(g78
g59
NtRp3698
(dp3699
g62
(dp3700
g82
g83
ssg71
g3694
sg64
(lp3701
S'session_id_images1'
p3702
asbag57
(g78
g59
NtRp3703
(dp3704
g62
(dp3705
g89
g90
ssg71
g3694
sg64
(lp3706
S':'
asbag57
(g78
g59
NtRp3707
(dp3708
g62
(dp3709
sg71
g3694
sg64
(lp3710
g57
(g58
g59
NtRp3711
(dp3712
g62
(dp3713
g70
I4
ssg71
g3707
sg64
(lp3714
g687
ag57
(g66
g59
NtRp3715
(dp3716
g62
(dp3717
g70
I3
ssg71
Nsg64
(lp3718
g57
(g73
g59
NtRp3719
(dp3720
g62
(dp3721
sg71
g3715
sg64
(lp3722
g57
(g78
g59
NtRp3723
(dp3724
g62
(dp3725
g82
g83
ssg71
g3719
sg64
(lp3726
g320
asbag57
(g78
g59
NtRp3727
(dp3728
g62
(dp3729
g89
g90
ssg71
g3719
sg64
(lp3730
S':'
asbag57
(g78
g59
NtRp3731
(dp3732
g62
(dp3733
sg71
g3719
sg64
(lp3734
g57
(g58
g59
NtRp3735
(dp3736
g62
(dp3737
g70
I3
ssg71
g3731
sg64
(lp3738
S''
asbasbasbag57
(g73
g59
NtRp3739
(dp3740
g62
(dp3741
sg71
g3715
sg64
(lp3742
g57
(g78
g59
NtRp3743
(dp3744
g62
(dp3745
g82
g83
ssg71
g3739
sg64
(lp3746
g341
asbag57
(g78
g59
NtRp3747
(dp3748
g62
(dp3749
g89
g90
ssg71
g3739
sg64
(lp3750
S':'
asbag57
(g78
g59
NtRp3751
(dp3752
g62
(dp3753
sg71
g3739
sg64
(lp3754
g57
(g58
g59
NtRp3755
(dp3756
g62
(dp3757
g70
I3
ssg71
g3751
sg64
(lp3758
S''
asbasbasbag57
(g73
g59
NtRp3759
(dp3760
g62
(dp3761
sg71
g3715
sg64
(lp3762
g57
(g78
g59
NtRp3763
(dp3764
g62
(dp3765
g82
g83
ssg71
g3759
sg64
(lp3766
g362
asbag57
(g78
g59
NtRp3767
(dp3768
g62
(dp3769
g89
g90
ssg71
g3759
sg64
(lp3770
S':'
asbag57
(g78
g59
NtRp3771
(dp3772
g62
(dp3773
sg71
g3759
sg64
(lp3774
g57
(g58
g59
NtRp3775
(dp3776
g62
(dp3777
g70
I3
ssg71
g3771
sg64
(lp3778
S''
asbasbasbag57
(g73
g59
NtRp3779
(dp3780
g62
(dp3781
sg71
g3715
sg64
(lp3782
g57
(g78
g59
NtRp3783
(dp3784
g62
(dp3785
g82
g83
ssg71
g3779
sg64
(lp3786
g383
asbag57
(g78
g59
NtRp3787
(dp3788
g62
(dp3789
g89
g90
ssg71
g3779
sg64
(lp3790
S':'
asbag57
(g78
g59
NtRp3791
(dp3792
g62
(dp3793
sg71
g3779
sg64
(lp3794
g57
(g58
g59
NtRp3795
(dp3796
g62
(dp3797
g70
I3
ssg71
g3791
sg64
(lp3798
S''
asbasbasbag57
(g73
g59
NtRp3799
(dp3800
g62
(dp3801
sg71
g3715
sg64
(lp3802
g57
(g78
g59
NtRp3803
(dp3804
g62
(dp3805
g82
g83
ssg71
g3799
sg64
(lp3806
g404
asbag57
(g78
g59
NtRp3807
(dp3808
g62
(dp3809
g89
g90
ssg71
g3799
sg64
(lp3810
S':'
asbag57
(g78
g59
NtRp3811
(dp3812
g62
(dp3813
sg71
g3799
sg64
(lp3814
g57
(g58
g59
NtRp3815
(dp3816
g62
(dp3817
g70
I3
ssg71
g3811
sg64
(lp3818
S''
asbasbasbag57
(g73
g59
NtRp3819
(dp3820
g62
(dp3821
sg71
g3715
sg64
(lp3822
g57
(g78
g59
NtRp3823
(dp3824
g62
(dp3825
g82
g83
ssg71
g3819
sg64
(lp3826
g425
asbag57
(g78
g59
NtRp3827
(dp3828
g62
(dp3829
g89
g90
ssg71
g3819
sg64
(lp3830
S':'
asbag57
(g78
g59
NtRp3831
(dp3832
g62
(dp3833
sg71
g3819
sg64
(lp3834
g57
(g58
g59
NtRp3835
(dp3836
g62
(dp3837
g70
I3
ssg71
g3831
sg64
(lp3838
S'/'
asbasbasbag57
(g73
g59
NtRp3839
(dp3840
g62
(dp3841
sg71
g3715
sg64
(lp3842
g57
(g78
g59
NtRp3843
(dp3844
g62
(dp3845
g82
g83
ssg71
g3839
sg64
(lp3846
g446
asbag57
(g78
g59
NtRp3847
(dp3848
g62
(dp3849
g89
g90
ssg71
g3839
sg64
(lp3850
S':'
asbag57
(g78
g59
NtRp3851
(dp3852
g62
(dp3853
sg71
g3839
sg64
(lp3854
g57
(g58
g59
NtRp3855
(dp3856
g62
(dp3857
g70
I3
ssg71
g3851
sg64
(lp3858
S''
asbasbasbag57
(g73
g59
NtRp3859
(dp3860
g62
(dp3861
sg71
g3715
sg64
(lp3862
g57
(g78
g59
NtRp3863
(dp3864
g62
(dp3865
g82
g83
ssg71
g3859
sg64
(lp3866
g467
asbag57
(g78
g59
NtRp3867
(dp3868
g62
(dp3869
g89
g90
ssg71
g3859
sg64
(lp3870
S':'
asbag57
(g78
g59
NtRp3871
(dp3872
g62
(dp3873
sg71
g3859
sg64
(lp3874
g57
(g58
g59
NtRp3875
(dp3876
g62
(dp3877
g70
I3
ssg71
g3871
sg64
(lp3878
S''
asbasbasbasbasbasbasbasbasbasbasbag57
(g73
g59
NtRp3879
(dp3880
g62
(dp3881
sg71
g3645
sg64
(lp3882
g57
(g78
g59
NtRp3883
(dp3884
g62
(dp3885
g82
g83
ssg71
g3879
sg64
(lp3886
S'delimiters'
p3887
asbag57
(g78
g59
NtRp3888
(dp3889
g62
(dp3890
g89
g90
ssg71
g3879
sg64
(lp3891
S':'
asbag57
(g78
g59
NtRp3892
(dp3893
g62
(dp3894
sg71
g3879
sg64
(lp3895
g57
(g58
g59
NtRp3896
(dp3897
g62
(dp3898
g70
I5
ssg71
g3892
sg64
(lp3899
g57
(g66
g59
NtRp3900
(dp3901
g62
(dp3902
g70
I4
ssg71
Nsg64
(lp3903
g57
(g73
g59
NtRp3904
(dp3905
g62
(dp3906
sg71
g3900
sg64
(lp3907
g57
(g78
g59
NtRp3908
(dp3909
g62
(dp3910
sg71
g3904
sg64
(lp3911
g57
(g58
g59
NtRp3912
(dp3913
g62
(dp3914
g70
I4
ssg71
g3908
sg64
(lp3915
S'{{'
p3916
asbasbasbag57
(g73
g59
NtRp3917
(dp3918
g62
(dp3919
sg71
g3900
sg64
(lp3920
g57
(g78
g59
NtRp3921
(dp3922
g62
(dp3923
sg71
g3917
sg64
(lp3924
g57
(g58
g59
NtRp3925
(dp3926
g62
(dp3927
g70
I4
ssg71
g3921
sg64
(lp3928
S'}}'
p3929
asbasbasbasbasbasbasbag57
(g73
g59
NtRp3930
(dp3931
g62
(dp3932
sg71
g3645
sg64
(lp3933
g57
(g78
g59
NtRp3934
(dp3935
g62
(dp3936
g82
g83
ssg71
g3930
sg64
(lp3937
S'files'
p3938
asbag57
(g78
g59
NtRp3939
(dp3940
g62
(dp3941
g89
g90
ssg71
g3930
sg64
(lp3942
S':'
asbag57
(g78
g59
NtRp3943
(dp3944
g62
(dp3945
sg71
g3930
sg64
(lp3946
g57
(g58
g59
NtRp3947
(dp3948
g62
(dp3949
g70
I5
ssg71
g3943
sg64
(lp3950
g57
(g66
g59
NtRp3951
(dp3952
g62
(dp3953
g70
I4
ssg71
Nsg64
(lp3954
sbasbasbasbag57
(g73
g59
NtRp3955
(dp3956
g62
(dp3957
sg71
g3645
sg64
(lp3958
g57
(g78
g59
NtRp3959
(dp3960
g62
(dp3961
g82
g83
ssg71
g3955
sg64
(lp3962
S'flash'
p3963
asbag57
(g78
g59
NtRp3964
(dp3965
g62
(dp3966
g89
g90
ssg71
g3955
sg64
(lp3967
S':'
asbag57
(g78
g59
NtRp3968
(dp3969
g62
(dp3970
sg71
g3955
sg64
(lp3971
g57
(g58
g59
NtRp3972
(dp3973
g62
(dp3974
g70
I5
ssg71
g3968
sg64
(lp3975
S''
asbasbasbag57
(g73
g59
NtRp3976
(dp3977
g62
(dp3978
sg71
g3645
sg64
(lp3979
g57
(g78
g59
NtRp3980
(dp3981
g62
(dp3982
g82
g83
ssg71
g3976
sg64
(lp3983
S'generic_patterns'
p3984
asbag57
(g78
g59
NtRp3985
(dp3986
g62
(dp3987
g89
g90
ssg71
g3976
sg64
(lp3988
S':'
asbag57
(g78
g59
NtRp3989
(dp3990
g62
(dp3991
sg71
g3976
sg64
(lp3992
g57
(g58
g59
NtRp3993
(dp3994
g62
(dp3995
g70
I5
ssg71
g3989
sg64
(lp3996
g57
(g66
g59
NtRp3997
(dp3998
g62
(dp3999
g70
I4
ssg71
Nsg64
(lp4000
sbasbasbasbag57
(g73
g59
NtRp4001
(dp4002
g62
(dp4003
sg71
g3645
sg64
(lp4004
g57
(g78
g59
NtRp4005
(dp4006
g62
(dp4007
g82
g83
ssg71
g4001
sg64
(lp4008
S'google_analytics_id'
p4009
asbag57
(g78
g59
NtRp4010
(dp4011
g62
(dp4012
g89
g90
ssg71
g4001
sg64
(lp4013
S':'
asbag57
(g78
g59
NtRp4014
(dp4015
g62
(dp4016
sg71
g4001
sg64
(lp4017
g57
(g58
g59
NtRp4018
(dp4019
g62
(dp4020
g70
I5
ssg71
g4014
sg64
(lp4021
S'None'
p4022
asbasbasbag57
(g73
g59
NtRp4023
(dp4024
g62
(dp4025
sg71
g3645
sg64
(lp4026
g57
(g78
g59
NtRp4027
(dp4028
g62
(dp4029
g82
g83
ssg71
g4023
sg64
(lp4030
S'headers'
p4031
asbag57
(g78
g59
NtRp4032
(dp4033
g62
(dp4034
g89
g90
ssg71
g4023
sg64
(lp4035
S':'
asbag57
(g78
g59
NtRp4036
(dp4037
g62
(dp4038
sg71
g4023
sg64
(lp4039
g57
(g58
g59
NtRp4040
(dp4041
g62
(dp4042
g70
I5
ssg71
g4036
sg64
(lp4043
g57
(g66
g59
NtRp4044
(dp4045
g62
(dp4046
g70
I4
ssg71
Nsg64
(lp4047
g57
(g73
g59
NtRp4048
(dp4049
g62
(dp4050
sg71
g4044
sg64
(lp4051
g57
(g78
g59
NtRp4052
(dp4053
g62
(dp4054
g82
g83
ssg71
g4048
sg64
(lp4055
S'X-Powered-By'
p4056
asbag57
(g78
g59
NtRp4057
(dp4058
g62
(dp4059
g89
g90
ssg71
g4048
sg64
(lp4060
S':'
asbag57
(g78
g59
NtRp4061
(dp4062
g62
(dp4063
sg71
g4048
sg64
(lp4064
g57
(g58
g59
NtRp4065
(dp4066
g62
(dp4067
g70
I4
ssg71
g4061
sg64
(lp4068
S'web2py'
p4069
asbasbasbasbasbasbasbag57
(g73
g59
NtRp4070
(dp4071
g62
(dp4072
sg71
g3645
sg64
(lp4073
g57
(g78
g59
NtRp4074
(dp4075
g62
(dp4076
g82
g83
ssg71
g4070
sg64
(lp4077
S'logo'
p4078
asbag57
(g78
g59
NtRp4079
(dp4080
g62
(dp4081
g89
g90
ssg71
g4070
sg64
(lp4082
S':'
asbag57
(g78
g59
NtRp4083
(dp4084
g62
(dp4085
sg71
g4070
sg64
(lp4086
g57
(g58
g59
NtRp4087
(dp4088
g62
(dp4089
g70
I5
ssg71
g4083
sg64
(lp4090
g57
(cgluon.html
A
p4091
g59
NtRp4092
(dp4093
g62
(dp4094
S'_class'
p4095
S'brand'
p4096
sS'_href'
p4097
S'http://www.web2py.com/'
p4098
ssg71
Nsg64
(lp4099
g57
(cgluon.html
B
p4100
g59
NtRp4101
(dp4102
g62
(dp4103
sg71
g4092
sg64
(lp4104
S'web'
p4105
ag57
(cgluon.html
SPAN
p4106
g59
NtRp4107
(dp4108
g62
(dp4109
sg71
g4101
sg64
(lp4110
I2
asbaS'py'
p4111
asbacgluon.html
XML_unpickle
p4112
(S's\r\x00\x00\x00&trade;&nbsp;'
tRp4113
asbasbasbasbag57
(g73
g59
NtRp4114
(dp4115
g62
(dp4116
sg71
g3645
sg64
(lp4117
g57
(g78
g59
NtRp4118
(dp4119
g62
(dp4120
g82
g83
ssg71
g4114
sg64
(lp4121
S'menu'
p4122
asbag57
(g78
g59
NtRp4123
(dp4124
g62
(dp4125
g89
g90
ssg71
g4114
sg64
(lp4126
S':'
asbag57
(g78
g59
NtRp4127
(dp4128
g62
(dp4129
sg71
g4114
sg64
(lp4130
g57
(g58
g59
NtRp4131
(dp4132
g62
(dp4133
g70
I5
ssg71
g4127
sg64
(lp4134
g57
(g66
g59
NtRp4135
(dp4136
g62
(dp4137
g70
I4
ssg71
Nsg64
(lp4138
g57
(g73
g59
NtRp4139
(dp4140
g62
(dp4141
sg71
g4135
sg64
(lp4142
g57
(g78
g59
NtRp4143
(dp4144
g62
(dp4145
sg71
g4139
sg64
(lp4146
g57
(g58
g59
NtRp4147
(dp4148
g62
(dp4149
g70
I4
ssg71
g4143
sg64
(lp4150
g57
(g66
g59
NtRp4151
(dp4152
g62
(dp4153
g70
I3
ssg71
Nsg64
(lp4154
g57
(g73
g59
NtRp4155
(dp4156
g62
(dp4157
sg71
g4151
sg64
(lp4158
g57
(g78
g59
NtRp4159
(dp4160
g62
(dp4161
sg71
g4155
sg64
(lp4162
g57
(g58
g59
NtRp4163
(dp4164
g62
(dp4165
g70
I3
ssg71
g4159
sg64
(lp4166
cgluon.languages
lazyT_unpickle
p4167
(S't\x06\x00\x00\x00design'
tRp4168
asbasbasbag57
(g73
g59
NtRp4169
(dp4170
g62
(dp4171
sg71
g4151
sg64
(lp4172
g57
(g78
g59
NtRp4173
(dp4174
g62
(dp4175
sg71
g4169
sg64
(lp4176
g57
(g58
g59
NtRp4177
(dp4178
g62
(dp4179
g70
I3
ssg71
g4173
sg64
(lp4180
g100
asbasbasbag57
(g73
g59
NtRp4181
(dp4182
g62
(dp4183
sg71
g4151
sg64
(lp4184
g57
(g78
g59
NtRp4185
(dp4186
g62
(dp4187
sg71
g4181
sg64
(lp4188
g57
(g58
g59
NtRp4189
(dp4190
g62
(dp4191
g70
I3
ssg71
g4185
sg64
(lp4192
S'/admin/default/design/images1'
p4193
asbasbasbasbasbasbasbag57
(g73
g59
NtRp4194
(dp4195
g62
(dp4196
sg71
g4135
sg64
(lp4197
g57
(g78
g59
NtRp4198
(dp4199
g62
(dp4200
sg71
g4194
sg64
(lp4201
g57
(g58
g59
NtRp4202
(dp4203
g62
(dp4204
g70
I4
ssg71
g4198
sg64
(lp4205
g57
(g66
g59
NtRp4206
(dp4207
g62
(dp4208
g70
I3
ssg71
Nsg64
(lp4209
g57
(g73
g59
NtRp4210
(dp4211
g62
(dp4212
sg71
g4206
sg64
(lp4213
g57
(g78
g59
NtRp4214
(dp4215
g62
(dp4216
sg71
g4210
sg64
(lp4217
g57
(g58
g59
NtRp4218
(dp4219
g62
(dp4220
g70
I3
ssg71
g4214
sg64
(lp4221
g4167
(S't\x02\x00\x00\x00db'
tRp4222
asbasbasbag57
(g73
g59
NtRp4223
(dp4224
g62
(dp4225
sg71
g4206
sg64
(lp4226
g57
(g78
g59
NtRp4227
(dp4228
g62
(dp4229
sg71
g4223
sg64
(lp4230
g57
(g58
g59
NtRp4231
(dp4232
g62
(dp4233
g70
I3
ssg71
g4227
sg64
(lp4234
g100
asbasbasbag57
(g73
g59
NtRp4235
(dp4236
g62
(dp4237
sg71
g4206
sg64
(lp4238
g57
(g78
g59
NtRp4239
(dp4240
g62
(dp4241
sg71
g4235
sg64
(lp4242
g57
(g58
g59
NtRp4243
(dp4244
g62
(dp4245
g70
I3
ssg71
g4239
sg64
(lp4246
S'/images1/appadmin/index'
p4247
asbasbasbasbasbasbasbag57
(g73
g59
NtRp4248
(dp4249
g62
(dp4250
sg71
g4135
sg64
(lp4251
g57
(g78
g59
NtRp4252
(dp4253
g62
(dp4254
sg71
g4248
sg64
(lp4255
g57
(g58
g59
NtRp4256
(dp4257
g62
(dp4258
g70
I4
ssg71
g4252
sg64
(lp4259
g57
(g66
g59
NtRp4260
(dp4261
g62
(dp4262
g70
I3
ssg71
Nsg64
(lp4263
g57
(g73
g59
NtRp4264
(dp4265
g62
(dp4266
sg71
g4260
sg64
(lp4267
g57
(g78
g59
NtRp4268
(dp4269
g62
(dp4270
sg71
g4264
sg64
(lp4271
g57
(g58
g59
NtRp4272
(dp4273
g62
(dp4274
g70
I3
ssg71
g4268
sg64
(lp4275
g4167
(S't\x05\x00\x00\x00state'
tRp4276
asbasbasbag57
(g73
g59
NtRp4277
(dp4278
g62
(dp4279
sg71
g4260
sg64
(lp4280
g57
(g78
g59
NtRp4281
(dp4282
g62
(dp4283
sg71
g4277
sg64
(lp4284
g57
(g58
g59
NtRp4285
(dp4286
g62
(dp4287
g70
I3
ssg71
g4281
sg64
(lp4288
g100
asbasbasbag57
(g73
g59
NtRp4289
(dp4290
g62
(dp4291
sg71
g4260
sg64
(lp4292
g57
(g78
g59
NtRp4293
(dp4294
g62
(dp4295
sg71
g4289
sg64
(lp4296
g57
(g58
g59
NtRp4297
(dp4298
g62
(dp4299
g70
I3
ssg71
g4293
sg64
(lp4300
S'/images1/appadmin/state'
p4301
asbasbasbasbasbasbasbag57
(g73
g59
NtRp4302
(dp4303
g62
(dp4304
sg71
g4135
sg64
(lp4305
g57
(g78
g59
NtRp4306
(dp4307
g62
(dp4308
sg71
g4302
sg64
(lp4309
g57
(g58
g59
NtRp4310
(dp4311
g62
(dp4312
g70
I4
ssg71
g4306
sg64
(lp4313
g57
(g66
g59
NtRp4314
(dp4315
g62
(dp4316
g70
I3
ssg71
Nsg64
(lp4317
g57
(g73
g59
NtRp4318
(dp4319
g62
(dp4320
sg71
g4314
sg64
(lp4321
g57
(g78
g59
NtRp4322
(dp4323
g62
(dp4324
sg71
g4318
sg64
(lp4325
g57
(g58
g59
NtRp4326
(dp4327
g62
(dp4328
g70
I3
ssg71
g4322
sg64
(lp4329
g4167
(S't\x05\x00\x00\x00cache'
tRp4330
asbasbasbag57
(g73
g59
NtRp4331
(dp4332
g62
(dp4333
sg71
g4314
sg64
(lp4334
g57
(g78
g59
NtRp4335
(dp4336
g62
(dp4337
sg71
g4331
sg64
(lp4338
g57
(g58
g59
NtRp4339
(dp4340
g62
(dp4341
g70
I3
ssg71
g4335
sg64
(lp4342
g100
asbasbasbag57
(g73
g59
NtRp4343
(dp4344
g62
(dp4345
sg71
g4314
sg64
(lp4346
g57
(g78
g59
NtRp4347
(dp4348
g62
(dp4349
sg71
g4343
sg64
(lp4350
g57
(g58
g59
NtRp4351
(dp4352
g62
(dp4353
g70
I3
ssg71
g4347
sg64
(lp4354
S'/images1/appadmin/ccache'
p4355
asbasbasbasbasbasbasbasbasbasbasbag57
(g73
g59
NtRp4356
(dp4357
g62
(dp4358
sg71
g3645
sg64
(lp4359
g57
(g78
g59
NtRp4360
(dp4361
g62
(dp4362
g82
g83
ssg71
g4356
sg64
(lp4363
S'meta'
p4364
asbag57
(g78
g59
NtRp4365
(dp4366
g62
(dp4367
g89
g90
ssg71
g4356
sg64
(lp4368
S':'
asbag57
(g78
g59
NtRp4369
(dp4370
g62
(dp4371
sg71
g4356
sg64
(lp4372
g57
(g58
g59
NtRp4373
(dp4374
g62
(dp4375
g70
I5
ssg71
g4369
sg64
(lp4376
g57
(g66
g59
NtRp4377
(dp4378
g62
(dp4379
g70
I4
ssg71
Nsg64
(lp4380
g57
(g73
g59
NtRp4381
(dp4382
g62
(dp4383
sg71
g4377
sg64
(lp4384
g57
(g78
g59
NtRp4385
(dp4386
g62
(dp4387
g82
g83
ssg71
g4381
sg64
(lp4388
S'author'
p4389
asbag57
(g78
g59
NtRp4390
(dp4391
g62
(dp4392
g89
g90
ssg71
g4381
sg64
(lp4393
S':'
asbag57
(g78
g59
NtRp4394
(dp4395
g62
(dp4396
sg71
g4381
sg64
(lp4397
g57
(g58
g59
NtRp4398
(dp4399
g62
(dp4400
g70
I4
ssg71
g4394
sg64
(lp4401
S'Your Name <you@example.com>'
p4402
asbasbasbag57
(g73
g59
NtRp4403
(dp4404
g62
(dp4405
sg71
g4377
sg64
(lp4406
g57
(g78
g59
NtRp4407
(dp4408
g62
(dp4409
g82
g83
ssg71
g4403
sg64
(lp4410
S'description'
p4411
asbag57
(g78
g59
NtRp4412
(dp4413
g62
(dp4414
g89
g90
ssg71
g4403
sg64
(lp4415
S':'
asbag57
(g78
g59
NtRp4416
(dp4417
g62
(dp4418
sg71
g4403
sg64
(lp4419
g57
(g58
g59
NtRp4420
(dp4421
g62
(dp4422
g70
I4
ssg71
g4416
sg64
(lp4423
S'a cool new app'
p4424
asbasbasbag57
(g73
g59
NtRp4425
(dp4426
g62
(dp4427
sg71
g4377
sg64
(lp4428
g57
(g78
g59
NtRp4429
(dp4430
g62
(dp4431
g82
g83
ssg71
g4425
sg64
(lp4432
S'generator'
p4433
asbag57
(g78
g59
NtRp4434
(dp4435
g62
(dp4436
g89
g90
ssg71
g4425
sg64
(lp4437
S':'
asbag57
(g78
g59
NtRp4438
(dp4439
g62
(dp4440
sg71
g4425
sg64
(lp4441
g57
(g58
g59
NtRp4442
(dp4443
g62
(dp4444
g70
I4
ssg71
g4438
sg64
(lp4445
S'Web2py Web Framework'
p4446
asbasbasbag57
(g73
g59
NtRp4447
(dp4448
g62
(dp4449
sg71
g4377
sg64
(lp4450
g57
(g78
g59
NtRp4451
(dp4452
g62
(dp4453
g82
g83
ssg71
g4447
sg64
(lp4454
S'keywords'
p4455
asbag57
(g78
g59
NtRp4456
(dp4457
g62
(dp4458
g89
g90
ssg71
g4447
sg64
(lp4459
S':'
asbag57
(g78
g59
NtRp4460
(dp4461
g62
(dp4462
sg71
g4447
sg64
(lp4463
g57
(g58
g59
NtRp4464
(dp4465
g62
(dp4466
g70
I4
ssg71
g4460
sg64
(lp4467
S'web2py, python, framework'
p4468
asbasbasbasbasbasbasbag57
(g73
g59
NtRp4469
(dp4470
g62
(dp4471
sg71
g3645
sg64
(lp4472
g57
(g78
g59
NtRp4473
(dp4474
g62
(dp4475
g82
g83
ssg71
g4469
sg64
(lp4476
S'models_to_run'
p4477
asbag57
(g78
g59
NtRp4478
(dp4479
g62
(dp4480
g89
g90
ssg71
g4469
sg64
(lp4481
S':'
asbag57
(g78
g59
NtRp4482
(dp4483
g62
(dp4484
sg71
g4469
sg64
(lp4485
g57
(g58
g59
NtRp4486
(dp4487
g62
(dp4488
g70
I5
ssg71
g4482
sg64
(lp4489
g57
(g66
g59
NtRp4490
(dp4491
g62
(dp4492
g70
I4
ssg71
Nsg64
(lp4493
g57
(g73
g59
NtRp4494
(dp4495
g62
(dp4496
sg71
g4490
sg64
(lp4497
g57
(g78
g59
NtRp4498
(dp4499
g62
(dp4500
sg71
g4494
sg64
(lp4501
g57
(g58
g59
NtRp4502
(dp4503
g62
(dp4504
g70
I4
ssg71
g4498
sg64
(lp4505
S'^\\w+\\.py$'
p4506
asbasbasbag57
(g73
g59
NtRp4507
(dp4508
g62
(dp4509
sg71
g4490
sg64
(lp4510
g57
(g78
g59
NtRp4511
(dp4512
g62
(dp4513
sg71
g4507
sg64
(lp4514
g57
(g58
g59
NtRp4515
(dp4516
g62
(dp4517
g70
I4
ssg71
g4511
sg64
(lp4518
S'^appadmin/\\w+\\.py$'
p4519
asbasbasbag57
(g73
g59
NtRp4520
(dp4521
g62
(dp4522
sg71
g4490
sg64
(lp4523
g57
(g78
g59
NtRp4524
(dp4525
g62
(dp4526
sg71
g4520
sg64
(lp4527
g57
(g58
g59
NtRp4528
(dp4529
g62
(dp4530
g70
I4
ssg71
g4524
sg64
(lp4531
S'^appadmin/insert/\\w+\\.py$'
p4532
asbasbasbasbasbasbasbag57
(g73
g59
NtRp4533
(dp4534
g62
(dp4535
sg71
g3645
sg64
(lp4536
g57
(g78
g59
NtRp4537
(dp4538
g62
(dp4539
g82
g83
ssg71
g4533
sg64
(lp4540
S'postprocessing'
p4541
asbag57
(g78
g59
NtRp4542
(dp4543
g62
(dp4544
g89
g90
ssg71
g4533
sg64
(lp4545
S':'
asbag57
(g78
g59
NtRp4546
(dp4547
g62
(dp4548
sg71
g4533
sg64
(lp4549
g57
(g58
g59
NtRp4550
(dp4551
g62
(dp4552
g70
I5
ssg71
g4546
sg64
(lp4553
g57
(g66
g59
NtRp4554
(dp4555
g62
(dp4556
g70
I4
ssg71
Nsg64
(lp4557
sbasbasbasbag57
(g73
g59
NtRp4558
(dp4559
g62
(dp4560
sg71
g3645
sg64
(lp4561
g57
(g78
g59
NtRp4562
(dp4563
g62
(dp4564
g82
g83
ssg71
g4558
sg64
(lp4565
S'session_cookie_expires'
p4566
asbag57
(g78
g59
NtRp4567
(dp4568
g62
(dp4569
g89
g90
ssg71
g4558
sg64
(lp4570
S':'
asbag57
(g78
g59
NtRp4571
(dp4572
g62
(dp4573
sg71
g4558
sg64
(lp4574
g57
(g58
g59
NtRp4575
(dp4576
g62
(dp4577
g70
I5
ssg71
g4571
sg64
(lp4578
S'None'
p4579
asbasbasbag57
(g73
g59
NtRp4580
(dp4581
g62
(dp4582
sg71
g3645
sg64
(lp4583
g57
(g78
g59
NtRp4584
(dp4585
g62
(dp4586
g82
g83
ssg71
g4580
sg64
(lp4587
S'session_data_name'
p4588
asbag57
(g78
g59
NtRp4589
(dp4590
g62
(dp4591
g89
g90
ssg71
g4580
sg64
(lp4592
S':'
asbag57
(g78
g59
NtRp4593
(dp4594
g62
(dp4595
sg71
g4580
sg64
(lp4596
g57
(g58
g59
NtRp4597
(dp4598
g62
(dp4599
g70
I5
ssg71
g4593
sg64
(lp4600
S'session_data_images1'
p4601
asbasbasbag57
(g73
g59
NtRp4602
(dp4603
g62
(dp4604
sg71
g3645
sg64
(lp4605
g57
(g78
g59
NtRp4606
(dp4607
g62
(dp4608
g82
g83
ssg71
g4602
sg64
(lp4609
S'session_file'
p4610
asbag57
(g78
g59
NtRp4611
(dp4612
g62
(dp4613
g89
g90
ssg71
g4602
sg64
(lp4614
S':'
asbag57
(g78
g59
NtRp4615
(dp4616
g62
(dp4617
sg71
g4602
sg64
(lp4618
g57
(g58
g59
NtRp4619
(dp4620
g62
(dp4621
g70
I5
ssg71
g4615
sg64
(lp4622
S"<open file '/home/nazrul/web2py/applications/images1/sessions/127.0.0.1-118d866d-dae6-4234-beb3-30c3f03727d9', mode 'rb+' at 0xae11e288>"
p4623
asbasbasbag57
(g73
g59
NtRp4624
(dp4625
g62
(dp4626
sg71
g3645
sg64
(lp4627
g57
(g78
g59
NtRp4628
(dp4629
g62
(dp4630
g82
g83
ssg71
g4624
sg64
(lp4631
S'session_filename'
p4632
asbag57
(g78
g59
NtRp4633
(dp4634
g62
(dp4635
g89
g90
ssg71
g4624
sg64
(lp4636
S':'
asbag57
(g78
g59
NtRp4637
(dp4638
g62
(dp4639
sg71
g4624
sg64
(lp4640
g57
(g58
g59
NtRp4641
(dp4642
g62
(dp4643
g70
I5
ssg71
g4637
sg64
(lp4644
S'/home/nazrul/web2py/applications/images1/sessions/127.0.0.1-118d866d-dae6-4234-beb3-30c3f03727d9'
p4645
asbasbasbag57
(g73
g59
NtRp4646
(dp4647
g62
(dp4648
sg71
g3645
sg64
(lp4649
g57
(g78
g59
NtRp4650
(dp4651
g62
(dp4652
g82
g83
ssg71
g4646
sg64
(lp4653
S'session_id'
p4654
asbag57
(g78
g59
NtRp4655
(dp4656
g62
(dp4657
g89
g90
ssg71
g4646
sg64
(lp4658
S':'
asbag57
(g78
g59
NtRp4659
(dp4660
g62
(dp4661
sg71
g4646
sg64
(lp4662
g57
(g58
g59
NtRp4663
(dp4664
g62
(dp4665
g70
I5
ssg71
g4659
sg64
(lp4666
g687
asbasbasbag57
(g73
g59
NtRp4667
(dp4668
g62
(dp4669
sg71
g3645
sg64
(lp4670
g57
(g78
g59
NtRp4671
(dp4672
g62
(dp4673
g82
g83
ssg71
g4667
sg64
(lp4674
S'session_id_name'
p4675
asbag57
(g78
g59
NtRp4676
(dp4677
g62
(dp4678
g89
g90
ssg71
g4667
sg64
(lp4679
S':'
asbag57
(g78
g59
NtRp4680
(dp4681
g62
(dp4682
sg71
g4667
sg64
(lp4683
g57
(g58
g59
NtRp4684
(dp4685
g62
(dp4686
g70
I5
ssg71
g4680
sg64
(lp4687
g3702
asbasbasbag57
(g73
g59
NtRp4688
(dp4689
g62
(dp4690
sg71
g3645
sg64
(lp4691
g57
(g78
g59
NtRp4692
(dp4693
g62
(dp4694
g82
g83
ssg71
g4688
sg64
(lp4695
S'session_locked'
p4696
asbag57
(g78
g59
NtRp4697
(dp4698
g62
(dp4699
g89
g90
ssg71
g4688
sg64
(lp4700
S':'
asbag57
(g78
g59
NtRp4701
(dp4702
g62
(dp4703
sg71
g4688
sg64
(lp4704
g57
(g58
g59
NtRp4705
(dp4706
g62
(dp4707
g70
I5
ssg71
g4701
sg64
(lp4708
g1981
asbasbasbag57
(g73
g59
NtRp4709
(dp4710
g62
(dp4711
sg71
g3645
sg64
(lp4712
g57
(g78
g59
NtRp4713
(dp4714
g62
(dp4715
g82
g83
ssg71
g4709
sg64
(lp4716
S'session_new'
p4717
asbag57
(g78
g59
NtRp4718
(dp4719
g62
(dp4720
g89
g90
ssg71
g4709
sg64
(lp4721
S':'
asbag57
(g78
g59
NtRp4722
(dp4723
g62
(dp4724
sg71
g4709
sg64
(lp4725
g57
(g58
g59
NtRp4726
(dp4727
g62
(dp4728
g70
I5
ssg71
g4722
sg64
(lp4729
g100
asbasbasbag57
(g73
g59
NtRp4730
(dp4731
g62
(dp4732
sg71
g3645
sg64
(lp4733
g57
(g78
g59
NtRp4734
(dp4735
g62
(dp4736
g82
g83
ssg71
g4730
sg64
(lp4737
S'session_storage_type'
p4738
asbag57
(g78
g59
NtRp4739
(dp4740
g62
(dp4741
g89
g90
ssg71
g4730
sg64
(lp4742
S':'
asbag57
(g78
g59
NtRp4743
(dp4744
g62
(dp4745
sg71
g4730
sg64
(lp4746
g57
(g58
g59
NtRp4747
(dp4748
g62
(dp4749
g70
I5
ssg71
g4743
sg64
(lp4750
g3413
asbasbasbag57
(g73
g59
NtRp4751
(dp4752
g62
(dp4753
sg71
g3645
sg64
(lp4754
g57
(g78
g59
NtRp4755
(dp4756
g62
(dp4757
g82
g83
ssg71
g4751
sg64
(lp4758
S'status'
p4759
asbag57
(g78
g59
NtRp4760
(dp4761
g62
(dp4762
g89
g90
ssg71
g4751
sg64
(lp4763
S':'
asbag57
(g78
g59
NtRp4764
(dp4765
g62
(dp4766
sg71
g4751
sg64
(lp4767
g57
(g58
g59
NtRp4768
(dp4769
g62
(dp4770
g70
I5
ssg71
g4764
sg64
(lp4771
S'200'
p4772
asbasbasbag57
(g73
g59
NtRp4773
(dp4774
g62
(dp4775
sg71
g3645
sg64
(lp4776
g57
(g78
g59
NtRp4777
(dp4778
g62
(dp4779
g82
g83
ssg71
g4773
sg64
(lp4780
S'subtitle'
p4781
asbag57
(g78
g59
NtRp4782
(dp4783
g62
(dp4784
g89
g90
ssg71
g4773
sg64
(lp4785
S':'
asbag57
(g78
g59
NtRp4786
(dp4787
g62
(dp4788
sg71
g4773
sg64
(lp4789
g57
(g58
g59
NtRp4790
(dp4791
g62
(dp4792
g70
I5
ssg71
g4786
sg64
(lp4793
S'Database Administration (appadmin)'
p4794
asbasbasbag57
(g73
g59
NtRp4795
(dp4796
g62
(dp4797
sg71
g3645
sg64
(lp4798
g57
(g78
g59
NtRp4799
(dp4800
g62
(dp4801
g82
g83
ssg71
g4795
sg64
(lp4802
S'title'
p4803
asbag57
(g78
g59
NtRp4804
(dp4805
g62
(dp4806
g89
g90
ssg71
g4795
sg64
(lp4807
S':'
asbag57
(g78
g59
NtRp4808
(dp4809
g62
(dp4810
sg71
g4795
sg64
(lp4811
g57
(g58
g59
NtRp4812
(dp4813
g62
(dp4814
g70
I5
ssg71
g4808
sg64
(lp4815
S'Images1'
p4816
asbasbasbag57
(g73
g59
NtRp4817
(dp4818
g62
(dp4819
sg71
g3645
sg64
(lp4820
g57
(g78
g59
NtRp4821
(dp4822
g62
(dp4823
g82
g83
ssg71
g4817
sg64
(lp4824
S'view'
p4825
asbag57
(g78
g59
NtRp4826
(dp4827
g62
(dp4828
g89
g90
ssg71
g4817
sg64
(lp4829
S':'
asbag57
(g78
g59
NtRp4830
(dp4831
g62
(dp4832
sg71
g4817
sg64
(lp4833
g57
(g58
g59
NtRp4834
(dp4835
g62
(dp4836
g70
I5
ssg71
g4830
sg64
(lp4837
S'appadmin.html'
p4838
asbasbasbasbasbsS'locals'
p4839
(dp4840
S'orderby'
p4841
S'<gluon.dal.Expression object>'
p4842
sS'f'
S'<gluon.dal.Field object>'
p4843
sS'distinct'
p4844
S'None'
p4845
sS'fields'
p4846
S'[<gluon.dal.Field object>, <gluon.dal.Field object>, <gluon.dal.Field object>]'
p4847
sS'dd'
p4848
S"{'cache': None, 'cacheable': True, 'distinct': None, 'groupby': None, 'orderby': <gluon.dal.Expression object>}"
p4849
sS'groupby'
p4850
S'None'
p4851
sS'records'
p4852
S'<Rows (1)>'
p4853
sS'r'
S"<Row {'id': 1, 'file': 'image.file.80680bb653ffc5de.322e6a706567.jpeg', 'title': 'im1'}>"
p4854
sS'table'
p4855
S'<Table image (id,title,file)>'
p4856
sS'self'
p4857
S'<gluon.validators.IS_IN_DB object>'
p4858
sssS'traceback'
p4859
S'Traceback (most recent call last):\n  File "/home/nazrul/web2py/gluon/restricted.py", line 212, in restricted\n    exec ccode in environment\n  File "/home/nazrul/web2py/applications/images1/controllers/appadmin.py", line 464, in <module>\n  File "/home/nazrul/web2py/gluon/globals.py", line 193, in <lambda>\n    self._caller = lambda f: f()\n  File "/home/nazrul/web2py/applications/images1/controllers/appadmin.py", line 126, in insert\n    form = SQLFORM(db[table], ignore_rw=ignore_rw)\n  File "/home/nazrul/web2py/gluon/sqlhtml.py", line 1072, in __init__\n    inp = self.widgets.options.widget(field, default)\n  File "/home/nazrul/web2py/gluon/sqlhtml.py", line 233, in widget\n    options = requires[0].options()\n  File "/home/nazrul/web2py/gluon/validators.py", line 489, in options\n    self.build_set()\n  File "/home/nazrul/web2py/gluon/validators.py", line 486, in build_set\n    self.labels = [self.label(r) for r in records]\nTypeError: \'Field\' object is not callable\n'
p4860
s.