(dp1
S'output'
p2
S"<type 'exceptions.SyntaxError'> invalid syntax (db.py, line 5)"
p3
sS'layer'
p4
S'/home/nazrul/web2py/applications/images1/models/db.py'
p5
sS'code'
p6
S'db=DAL("sqlite://storage.sqlite")\ndb.define_table(\'image\',\n\t\t\t\tdb.Field(\'title\',\'string\',unique=True),\n\t\t\t\tdb.Field(\'file\', \'upload\'),\n\t\t\t\tformat=\'%(title)s\'))\ndb.define_table(\'comment\',\n\t\t\t\tdb.Field(\'image_id\',db.image),\n\t\t\t\tdb.Field(\'author\',\'string\'),\n\t\t\t\tdb.Field(\'email\',\'string\'),\n\t\t\t\tdb.Field(\'body\',\'text\'))\ndb.comment.image_id.requires=IS_IN_DB(db,db.image.id,db.\'%(title)s\')\ndb.comment.author.requires=IS_NOT_EMPTY()\ndb.comment.email.requires=IS_EMAIL()\ndb.comment.body.requires=IS_NOT_EMPTY()\ndb.comment.image_id.writable=db.comment.image_id.readable=False\n'
p7
sS'snapshot'
p8
(dp9
S'exception'
p10
(dp11
S'__getslice__'
p12
S"<method-wrapper '__getslice__' of exceptions.SyntaxError object>"
p13
sS'text'
p14
S'"\\t\\t\\t\\tformat=\'%(title)s\'))\\n"'
p15
sS'__str__'
p16
S"<method-wrapper '__str__' of exceptions.SyntaxError object>"
p17
sS'__reduce__'
p18
S'<built-in method __reduce__ of exceptions.SyntaxError object>'
p19
sS'__dict__'
p20
S'{}'
p21
sS'__sizeof__'
p22
S'<built-in method __sizeof__ of exceptions.SyntaxError object>'
p23
sS'__init__'
p24
S"<method-wrapper '__init__' of exceptions.SyntaxError object>"
p25
sS'__setattr__'
p26
S"<method-wrapper '__setattr__' of exceptions.SyntaxError object>"
p27
sS'__reduce_ex__'
p28
S'<built-in method __reduce_ex__ of exceptions.SyntaxError object>'
p29
sS'__new__'
p30
S'<built-in method __new__ of type object>'
p31
sS'__format__'
p32
S'<built-in method __format__ of exceptions.SyntaxError object>'
p33
sS'__class__'
p34
S"<type 'exceptions.SyntaxError'>"
p35
sS'filename'
p36
S"'/home/nazrul/web2py/applications/images1/models/db.py'"
p37
sS'lineno'
p38
S'5'
sS'msg'
p39
S"'invalid syntax'"
p40
sS'__doc__'
p41
S"'Invalid syntax.'"
p42
sS'__getitem__'
p43
S"<method-wrapper '__getitem__' of exceptions.SyntaxError object>"
p44
sS'__setstate__'
p45
S'<built-in method __setstate__ of exceptions.SyntaxError object>'
p46
sS'__getattribute__'
p47
S"<method-wrapper '__getattribute__' of exceptions.SyntaxError object>"
p48
sS'print_file_and_line'
p49
S'None'
p50
sS'args'
p51
S'(\'invalid syntax\', (\'/home/nazrul/web2py/applications/images1/models/db.py\', 5, 24, "\\t\\t\\t\\tformat=\'%(title)s\'))\\n"))'
p52
sS'__subclasshook__'
p53
S'<built-in method __subclasshook__ of type object>'
p54
sS'offset'
p55
S'24'
p56
sS'__unicode__'
p57
S'<built-in method __unicode__ of exceptions.SyntaxError object>'
p58
sS'__delattr__'
p59
S"<method-wrapper '__delattr__' of exceptions.SyntaxError object>"
p60
sS'__repr__'
p61
S"<method-wrapper '__repr__' of exceptions.SyntaxError object>"
p62
sS'__hash__'
p63
S"<method-wrapper '__hash__' of exceptions.SyntaxError object>"
p64
ssS'evalue'
p65
S'invalid syntax (db.py, line 5)'
p66
sS'request'
p67
ccopy_reg
_reconstructor
p68
(cgluon.html
BEAUTIFY
p69
c__builtin__
object
p70
NtRp71
(dp72
S'attributes'
p73
(dp74
sS'components'
p75
(lp76
g68
(cgluon.html
TABLE
p77
g70
NtRp78
(dp79
g73
(dp80
S'level'
p81
I5
ssS'parent'
p82
Nsg75
(lp83
g68
(cgluon.html
TR
p84
g70
NtRp85
(dp86
g73
(dp87
sg82
g78
sg75
(lp88
g68
(cgluon.html
TD
p89
g70
NtRp90
(dp91
g73
(dp92
S'_style'
p93
S'font-weight:bold;vertical-align:top'
p94
ssg82
g85
sg75
(lp95
S'ajax'
p96
asbag68
(g89
g70
NtRp97
(dp98
g73
(dp99
S'_valign'
p100
S'top'
p101
ssg82
g85
sg75
(lp102
S':'
asbag68
(g89
g70
NtRp103
(dp104
g73
(dp105
sg82
g85
sg75
(lp106
g68
(g69
g70
NtRp107
(dp108
g73
(dp109
g81
I5
ssg82
g103
sg75
(lp110
S'False'
p111
asbasbasbag68
(g84
g70
NtRp112
(dp113
g73
(dp114
sg82
g78
sg75
(lp115
g68
(g89
g70
NtRp116
(dp117
g73
(dp118
g93
g94
ssg82
g112
sg75
(lp119
S'application'
p120
asbag68
(g89
g70
NtRp121
(dp122
g73
(dp123
g100
g101
ssg82
g112
sg75
(lp124
S':'
asbag68
(g89
g70
NtRp125
(dp126
g73
(dp127
sg82
g112
sg75
(lp128
g68
(g69
g70
NtRp129
(dp130
g73
(dp131
g81
I5
ssg82
g125
sg75
(lp132
S'images1'
p133
asbasbasbag68
(g84
g70
NtRp134
(dp135
g73
(dp136
sg82
g78
sg75
(lp137
g68
(g89
g70
NtRp138
(dp139
g73
(dp140
g93
g94
ssg82
g134
sg75
(lp141
g51
asbag68
(g89
g70
NtRp142
(dp143
g73
(dp144
g100
g101
ssg82
g134
sg75
(lp145
S':'
asbag68
(g89
g70
NtRp146
(dp147
g73
(dp148
sg82
g134
sg75
(lp149
g68
(g69
g70
NtRp150
(dp151
g73
(dp152
g81
I5
ssg82
g146
sg75
(lp153
g68
(g77
g70
NtRp154
(dp155
g73
(dp156
g81
I4
ssg82
Nsg75
(lp157
sbasbasbasbag68
(g84
g70
NtRp158
(dp159
g73
(dp160
sg82
g78
sg75
(lp161
g68
(g89
g70
NtRp162
(dp163
g73
(dp164
g93
g94
ssg82
g158
sg75
(lp165
S'body'
p166
asbag68
(g89
g70
NtRp167
(dp168
g73
(dp169
g100
g101
ssg82
g158
sg75
(lp170
S':'
asbag68
(g89
g70
NtRp171
(dp172
g73
(dp173
sg82
g158
sg75
(lp174
g68
(g69
g70
NtRp175
(dp176
g73
(dp177
g81
I5
ssg82
g171
sg75
(lp178
S'<cStringIO.StringO object at 0xae431300>'
p179
asbasbasbag68
(g84
g70
NtRp180
(dp181
g73
(dp182
sg82
g78
sg75
(lp183
g68
(g89
g70
NtRp184
(dp185
g73
(dp186
g93
g94
ssg82
g180
sg75
(lp187
S'cid'
p188
asbag68
(g89
g70
NtRp189
(dp190
g73
(dp191
g100
g101
ssg82
g180
sg75
(lp192
S':'
asbag68
(g89
g70
NtRp193
(dp194
g73
(dp195
sg82
g180
sg75
(lp196
g68
(g69
g70
NtRp197
(dp198
g73
(dp199
g81
I5
ssg82
g193
sg75
(lp200
S'None'
p201
asbasbasbag68
(g84
g70
NtRp202
(dp203
g73
(dp204
sg82
g78
sg75
(lp205
g68
(g89
g70
NtRp206
(dp207
g73
(dp208
g93
g94
ssg82
g202
sg75
(lp209
S'client'
p210
asbag68
(g89
g70
NtRp211
(dp212
g73
(dp213
g100
g101
ssg82
g202
sg75
(lp214
S':'
asbag68
(g89
g70
NtRp215
(dp216
g73
(dp217
sg82
g202
sg75
(lp218
g68
(g69
g70
NtRp219
(dp220
g73
(dp221
g81
I5
ssg82
g215
sg75
(lp222
S'127.0.0.1'
p223
asbasbasbag68
(g84
g70
NtRp224
(dp225
g73
(dp226
sg82
g78
sg75
(lp227
g68
(g89
g70
NtRp228
(dp229
g73
(dp230
g93
g94
ssg82
g224
sg75
(lp231
S'controller'
p232
asbag68
(g89
g70
NtRp233
(dp234
g73
(dp235
g100
g101
ssg82
g224
sg75
(lp236
S':'
asbag68
(g89
g70
NtRp237
(dp238
g73
(dp239
sg82
g224
sg75
(lp240
g68
(g69
g70
NtRp241
(dp242
g73
(dp243
g81
I5
ssg82
g237
sg75
(lp244
S'appadmin'
p245
asbasbasbag68
(g84
g70
NtRp246
(dp247
g73
(dp248
sg82
g78
sg75
(lp249
g68
(g89
g70
NtRp250
(dp251
g73
(dp252
g93
g94
ssg82
g246
sg75
(lp253
S'cookies'
p254
asbag68
(g89
g70
NtRp255
(dp256
g73
(dp257
g100
g101
ssg82
g246
sg75
(lp258
S':'
asbag68
(g89
g70
NtRp259
(dp260
g73
(dp261
sg82
g246
sg75
(lp262
g68
(g69
g70
NtRp263
(dp264
g73
(dp265
g81
I5
ssg82
g259
sg75
(lp266
g68
(g77
g70
NtRp267
(dp268
g73
(dp269
g81
I4
ssg82
Nsg75
(lp270
g68
(g84
g70
NtRp271
(dp272
g73
(dp273
sg82
g267
sg75
(lp274
g68
(g89
g70
NtRp275
(dp276
g73
(dp277
g93
g94
ssg82
g271
sg75
(lp278
S'session_id_admin'
p279
asbag68
(g89
g70
NtRp280
(dp281
g73
(dp282
g100
g101
ssg82
g271
sg75
(lp283
S':'
asbag68
(g89
g70
NtRp284
(dp285
g73
(dp286
sg82
g271
sg75
(lp287
g68
(g69
g70
NtRp288
(dp289
g73
(dp290
g81
I4
ssg82
g284
sg75
(lp291
S'127.0.0.1-7fd1fc50-6854-40e5-80a2-b26c376ddc1e'
p292
ag68
(g77
g70
NtRp293
(dp294
g73
(dp295
g81
I3
ssg82
Nsg75
(lp296
g68
(g84
g70
NtRp297
(dp298
g73
(dp299
sg82
g293
sg75
(lp300
g68
(g89
g70
NtRp301
(dp302
g73
(dp303
g93
g94
ssg82
g297
sg75
(lp304
S'comment'
p305
asbag68
(g89
g70
NtRp306
(dp307
g73
(dp308
g100
g101
ssg82
g297
sg75
(lp309
S':'
asbag68
(g89
g70
NtRp310
(dp311
g73
(dp312
sg82
g297
sg75
(lp313
g68
(g69
g70
NtRp314
(dp315
g73
(dp316
g81
I3
ssg82
g310
sg75
(lp317
S''
asbasbasbag68
(g84
g70
NtRp318
(dp319
g73
(dp320
sg82
g293
sg75
(lp321
g68
(g89
g70
NtRp322
(dp323
g73
(dp324
g93
g94
ssg82
g318
sg75
(lp325
S'domain'
p326
asbag68
(g89
g70
NtRp327
(dp328
g73
(dp329
g100
g101
ssg82
g318
sg75
(lp330
S':'
asbag68
(g89
g70
NtRp331
(dp332
g73
(dp333
sg82
g318
sg75
(lp334
g68
(g69
g70
NtRp335
(dp336
g73
(dp337
g81
I3
ssg82
g331
sg75
(lp338
S''
asbasbasbag68
(g84
g70
NtRp339
(dp340
g73
(dp341
sg82
g293
sg75
(lp342
g68
(g89
g70
NtRp343
(dp344
g73
(dp345
g93
g94
ssg82
g339
sg75
(lp346
S'expires'
p347
asbag68
(g89
g70
NtRp348
(dp349
g73
(dp350
g100
g101
ssg82
g339
sg75
(lp351
S':'
asbag68
(g89
g70
NtRp352
(dp353
g73
(dp354
sg82
g339
sg75
(lp355
g68
(g69
g70
NtRp356
(dp357
g73
(dp358
g81
I3
ssg82
g352
sg75
(lp359
S''
asbasbasbag68
(g84
g70
NtRp360
(dp361
g73
(dp362
sg82
g293
sg75
(lp363
g68
(g89
g70
NtRp364
(dp365
g73
(dp366
g93
g94
ssg82
g360
sg75
(lp367
S'httponly'
p368
asbag68
(g89
g70
NtRp369
(dp370
g73
(dp371
g100
g101
ssg82
g360
sg75
(lp372
S':'
asbag68
(g89
g70
NtRp373
(dp374
g73
(dp375
sg82
g360
sg75
(lp376
g68
(g69
g70
NtRp377
(dp378
g73
(dp379
g81
I3
ssg82
g373
sg75
(lp380
S''
asbasbasbag68
(g84
g70
NtRp381
(dp382
g73
(dp383
sg82
g293
sg75
(lp384
g68
(g89
g70
NtRp385
(dp386
g73
(dp387
g93
g94
ssg82
g381
sg75
(lp388
S'max-age'
p389
asbag68
(g89
g70
NtRp390
(dp391
g73
(dp392
g100
g101
ssg82
g381
sg75
(lp393
S':'
asbag68
(g89
g70
NtRp394
(dp395
g73
(dp396
sg82
g381
sg75
(lp397
g68
(g69
g70
NtRp398
(dp399
g73
(dp400
g81
I3
ssg82
g394
sg75
(lp401
S''
asbasbasbag68
(g84
g70
NtRp402
(dp403
g73
(dp404
sg82
g293
sg75
(lp405
g68
(g89
g70
NtRp406
(dp407
g73
(dp408
g93
g94
ssg82
g402
sg75
(lp409
S'path'
p410
asbag68
(g89
g70
NtRp411
(dp412
g73
(dp413
g100
g101
ssg82
g402
sg75
(lp414
S':'
asbag68
(g89
g70
NtRp415
(dp416
g73
(dp417
sg82
g402
sg75
(lp418
g68
(g69
g70
NtRp419
(dp420
g73
(dp421
g81
I3
ssg82
g415
sg75
(lp422
S''
asbasbasbag68
(g84
g70
NtRp423
(dp424
g73
(dp425
sg82
g293
sg75
(lp426
g68
(g89
g70
NtRp427
(dp428
g73
(dp429
g93
g94
ssg82
g423
sg75
(lp430
S'secure'
p431
asbag68
(g89
g70
NtRp432
(dp433
g73
(dp434
g100
g101
ssg82
g423
sg75
(lp435
S':'
asbag68
(g89
g70
NtRp436
(dp437
g73
(dp438
sg82
g423
sg75
(lp439
g68
(g69
g70
NtRp440
(dp441
g73
(dp442
g81
I3
ssg82
g436
sg75
(lp443
S''
asbasbasbag68
(g84
g70
NtRp444
(dp445
g73
(dp446
sg82
g293
sg75
(lp447
g68
(g89
g70
NtRp448
(dp449
g73
(dp450
g93
g94
ssg82
g444
sg75
(lp451
S'version'
p452
asbag68
(g89
g70
NtRp453
(dp454
g73
(dp455
g100
g101
ssg82
g444
sg75
(lp456
S':'
asbag68
(g89
g70
NtRp457
(dp458
g73
(dp459
sg82
g444
sg75
(lp460
g68
(g69
g70
NtRp461
(dp462
g73
(dp463
g81
I3
ssg82
g457
sg75
(lp464
S''
asbasbasbasbasbasbasbag68
(g84
g70
NtRp465
(dp466
g73
(dp467
sg82
g267
sg75
(lp468
g68
(g89
g70
NtRp469
(dp470
g73
(dp471
g93
g94
ssg82
g465
sg75
(lp472
S'session_id_images'
p473
asbag68
(g89
g70
NtRp474
(dp475
g73
(dp476
g100
g101
ssg82
g465
sg75
(lp477
S':'
asbag68
(g89
g70
NtRp478
(dp479
g73
(dp480
sg82
g465
sg75
(lp481
g68
(g69
g70
NtRp482
(dp483
g73
(dp484
g81
I4
ssg82
g478
sg75
(lp485
S'127.0.0.1-994cc2db-8e90-4a64-95cf-0a237460fece'
p486
ag68
(g77
g70
NtRp487
(dp488
g73
(dp489
g81
I3
ssg82
Nsg75
(lp490
g68
(g84
g70
NtRp491
(dp492
g73
(dp493
sg82
g487
sg75
(lp494
g68
(g89
g70
NtRp495
(dp496
g73
(dp497
g93
g94
ssg82
g491
sg75
(lp498
g305
asbag68
(g89
g70
NtRp499
(dp500
g73
(dp501
g100
g101
ssg82
g491
sg75
(lp502
S':'
asbag68
(g89
g70
NtRp503
(dp504
g73
(dp505
sg82
g491
sg75
(lp506
g68
(g69
g70
NtRp507
(dp508
g73
(dp509
g81
I3
ssg82
g503
sg75
(lp510
S''
asbasbasbag68
(g84
g70
NtRp511
(dp512
g73
(dp513
sg82
g487
sg75
(lp514
g68
(g89
g70
NtRp515
(dp516
g73
(dp517
g93
g94
ssg82
g511
sg75
(lp518
g326
asbag68
(g89
g70
NtRp519
(dp520
g73
(dp521
g100
g101
ssg82
g511
sg75
(lp522
S':'
asbag68
(g89
g70
NtRp523
(dp524
g73
(dp525
sg82
g511
sg75
(lp526
g68
(g69
g70
NtRp527
(dp528
g73
(dp529
g81
I3
ssg82
g523
sg75
(lp530
S''
asbasbasbag68
(g84
g70
NtRp531
(dp532
g73
(dp533
sg82
g487
sg75
(lp534
g68
(g89
g70
NtRp535
(dp536
g73
(dp537
g93
g94
ssg82
g531
sg75
(lp538
g347
asbag68
(g89
g70
NtRp539
(dp540
g73
(dp541
g100
g101
ssg82
g531
sg75
(lp542
S':'
asbag68
(g89
g70
NtRp543
(dp544
g73
(dp545
sg82
g531
sg75
(lp546
g68
(g69
g70
NtRp547
(dp548
g73
(dp549
g81
I3
ssg82
g543
sg75
(lp550
S''
asbasbasbag68
(g84
g70
NtRp551
(dp552
g73
(dp553
sg82
g487
sg75
(lp554
g68
(g89
g70
NtRp555
(dp556
g73
(dp557
g93
g94
ssg82
g551
sg75
(lp558
g368
asbag68
(g89
g70
NtRp559
(dp560
g73
(dp561
g100
g101
ssg82
g551
sg75
(lp562
S':'
asbag68
(g89
g70
NtRp563
(dp564
g73
(dp565
sg82
g551
sg75
(lp566
g68
(g69
g70
NtRp567
(dp568
g73
(dp569
g81
I3
ssg82
g563
sg75
(lp570
S''
asbasbasbag68
(g84
g70
NtRp571
(dp572
g73
(dp573
sg82
g487
sg75
(lp574
g68
(g89
g70
NtRp575
(dp576
g73
(dp577
g93
g94
ssg82
g571
sg75
(lp578
g389
asbag68
(g89
g70
NtRp579
(dp580
g73
(dp581
g100
g101
ssg82
g571
sg75
(lp582
S':'
asbag68
(g89
g70
NtRp583
(dp584
g73
(dp585
sg82
g571
sg75
(lp586
g68
(g69
g70
NtRp587
(dp588
g73
(dp589
g81
I3
ssg82
g583
sg75
(lp590
S''
asbasbasbag68
(g84
g70
NtRp591
(dp592
g73
(dp593
sg82
g487
sg75
(lp594
g68
(g89
g70
NtRp595
(dp596
g73
(dp597
g93
g94
ssg82
g591
sg75
(lp598
g410
asbag68
(g89
g70
NtRp599
(dp600
g73
(dp601
g100
g101
ssg82
g591
sg75
(lp602
S':'
asbag68
(g89
g70
NtRp603
(dp604
g73
(dp605
sg82
g591
sg75
(lp606
g68
(g69
g70
NtRp607
(dp608
g73
(dp609
g81
I3
ssg82
g603
sg75
(lp610
S''
asbasbasbag68
(g84
g70
NtRp611
(dp612
g73
(dp613
sg82
g487
sg75
(lp614
g68
(g89
g70
NtRp615
(dp616
g73
(dp617
g93
g94
ssg82
g611
sg75
(lp618
g431
asbag68
(g89
g70
NtRp619
(dp620
g73
(dp621
g100
g101
ssg82
g611
sg75
(lp622
S':'
asbag68
(g89
g70
NtRp623
(dp624
g73
(dp625
sg82
g611
sg75
(lp626
g68
(g69
g70
NtRp627
(dp628
g73
(dp629
g81
I3
ssg82
g623
sg75
(lp630
S''
asbasbasbag68
(g84
g70
NtRp631
(dp632
g73
(dp633
sg82
g487
sg75
(lp634
g68
(g89
g70
NtRp635
(dp636
g73
(dp637
g93
g94
ssg82
g631
sg75
(lp638
g452
asbag68
(g89
g70
NtRp639
(dp640
g73
(dp641
g100
g101
ssg82
g631
sg75
(lp642
S':'
asbag68
(g89
g70
NtRp643
(dp644
g73
(dp645
sg82
g631
sg75
(lp646
g68
(g69
g70
NtRp647
(dp648
g73
(dp649
g81
I3
ssg82
g643
sg75
(lp650
S''
asbasbasbasbasbasbasbag68
(g84
g70
NtRp651
(dp652
g73
(dp653
sg82
g267
sg75
(lp654
g68
(g89
g70
NtRp655
(dp656
g73
(dp657
g93
g94
ssg82
g651
sg75
(lp658
S'session_id_images1'
p659
asbag68
(g89
g70
NtRp660
(dp661
g73
(dp662
g100
g101
ssg82
g651
sg75
(lp663
S':'
asbag68
(g89
g70
NtRp664
(dp665
g73
(dp666
sg82
g651
sg75
(lp667
g68
(g69
g70
NtRp668
(dp669
g73
(dp670
g81
I4
ssg82
g664
sg75
(lp671
S'127.0.0.1-118d866d-dae6-4234-beb3-30c3f03727d9'
p672
ag68
(g77
g70
NtRp673
(dp674
g73
(dp675
g81
I3
ssg82
Nsg75
(lp676
g68
(g84
g70
NtRp677
(dp678
g73
(dp679
sg82
g673
sg75
(lp680
g68
(g89
g70
NtRp681
(dp682
g73
(dp683
g93
g94
ssg82
g677
sg75
(lp684
g305
asbag68
(g89
g70
NtRp685
(dp686
g73
(dp687
g100
g101
ssg82
g677
sg75
(lp688
S':'
asbag68
(g89
g70
NtRp689
(dp690
g73
(dp691
sg82
g677
sg75
(lp692
g68
(g69
g70
NtRp693
(dp694
g73
(dp695
g81
I3
ssg82
g689
sg75
(lp696
S''
asbasbasbag68
(g84
g70
NtRp697
(dp698
g73
(dp699
sg82
g673
sg75
(lp700
g68
(g89
g70
NtRp701
(dp702
g73
(dp703
g93
g94
ssg82
g697
sg75
(lp704
g326
asbag68
(g89
g70
NtRp705
(dp706
g73
(dp707
g100
g101
ssg82
g697
sg75
(lp708
S':'
asbag68
(g89
g70
NtRp709
(dp710
g73
(dp711
sg82
g697
sg75
(lp712
g68
(g69
g70
NtRp713
(dp714
g73
(dp715
g81
I3
ssg82
g709
sg75
(lp716
S''
asbasbasbag68
(g84
g70
NtRp717
(dp718
g73
(dp719
sg82
g673
sg75
(lp720
g68
(g89
g70
NtRp721
(dp722
g73
(dp723
g93
g94
ssg82
g717
sg75
(lp724
g347
asbag68
(g89
g70
NtRp725
(dp726
g73
(dp727
g100
g101
ssg82
g717
sg75
(lp728
S':'
asbag68
(g89
g70
NtRp729
(dp730
g73
(dp731
sg82
g717
sg75
(lp732
g68
(g69
g70
NtRp733
(dp734
g73
(dp735
g81
I3
ssg82
g729
sg75
(lp736
S''
asbasbasbag68
(g84
g70
NtRp737
(dp738
g73
(dp739
sg82
g673
sg75
(lp740
g68
(g89
g70
NtRp741
(dp742
g73
(dp743
g93
g94
ssg82
g737
sg75
(lp744
g368
asbag68
(g89
g70
NtRp745
(dp746
g73
(dp747
g100
g101
ssg82
g737
sg75
(lp748
S':'
asbag68
(g89
g70
NtRp749
(dp750
g73
(dp751
sg82
g737
sg75
(lp752
g68
(g69
g70
NtRp753
(dp754
g73
(dp755
g81
I3
ssg82
g749
sg75
(lp756
S''
asbasbasbag68
(g84
g70
NtRp757
(dp758
g73
(dp759
sg82
g673
sg75
(lp760
g68
(g89
g70
NtRp761
(dp762
g73
(dp763
g93
g94
ssg82
g757
sg75
(lp764
g389
asbag68
(g89
g70
NtRp765
(dp766
g73
(dp767
g100
g101
ssg82
g757
sg75
(lp768
S':'
asbag68
(g89
g70
NtRp769
(dp770
g73
(dp771
sg82
g757
sg75
(lp772
g68
(g69
g70
NtRp773
(dp774
g73
(dp775
g81
I3
ssg82
g769
sg75
(lp776
S''
asbasbasbag68
(g84
g70
NtRp777
(dp778
g73
(dp779
sg82
g673
sg75
(lp780
g68
(g89
g70
NtRp781
(dp782
g73
(dp783
g93
g94
ssg82
g777
sg75
(lp784
g410
asbag68
(g89
g70
NtRp785
(dp786
g73
(dp787
g100
g101
ssg82
g777
sg75
(lp788
S':'
asbag68
(g89
g70
NtRp789
(dp790
g73
(dp791
sg82
g777
sg75
(lp792
g68
(g69
g70
NtRp793
(dp794
g73
(dp795
g81
I3
ssg82
g789
sg75
(lp796
S''
asbasbasbag68
(g84
g70
NtRp797
(dp798
g73
(dp799
sg82
g673
sg75
(lp800
g68
(g89
g70
NtRp801
(dp802
g73
(dp803
g93
g94
ssg82
g797
sg75
(lp804
g431
asbag68
(g89
g70
NtRp805
(dp806
g73
(dp807
g100
g101
ssg82
g797
sg75
(lp808
S':'
asbag68
(g89
g70
NtRp809
(dp810
g73
(dp811
sg82
g797
sg75
(lp812
g68
(g69
g70
NtRp813
(dp814
g73
(dp815
g81
I3
ssg82
g809
sg75
(lp816
S''
asbasbasbag68
(g84
g70
NtRp817
(dp818
g73
(dp819
sg82
g673
sg75
(lp820
g68
(g89
g70
NtRp821
(dp822
g73
(dp823
g93
g94
ssg82
g817
sg75
(lp824
g452
asbag68
(g89
g70
NtRp825
(dp826
g73
(dp827
g100
g101
ssg82
g817
sg75
(lp828
S':'
asbag68
(g89
g70
NtRp829
(dp830
g73
(dp831
sg82
g817
sg75
(lp832
g68
(g69
g70
NtRp833
(dp834
g73
(dp835
g81
I3
ssg82
g829
sg75
(lp836
S''
asbasbasbasbasbasbasbag68
(g84
g70
NtRp837
(dp838
g73
(dp839
sg82
g267
sg75
(lp840
g68
(g89
g70
NtRp841
(dp842
g73
(dp843
g93
g94
ssg82
g837
sg75
(lp844
S'session_id_welcome'
p845
asbag68
(g89
g70
NtRp846
(dp847
g73
(dp848
g100
g101
ssg82
g837
sg75
(lp849
S':'
asbag68
(g89
g70
NtRp850
(dp851
g73
(dp852
sg82
g837
sg75
(lp853
g68
(g69
g70
NtRp854
(dp855
g73
(dp856
g81
I4
ssg82
g850
sg75
(lp857
S'127.0.0.1-f0a33357-e6f9-49eb-8a60-3c1e4ecdd133'
p858
ag68
(g77
g70
NtRp859
(dp860
g73
(dp861
g81
I3
ssg82
Nsg75
(lp862
g68
(g84
g70
NtRp863
(dp864
g73
(dp865
sg82
g859
sg75
(lp866
g68
(g89
g70
NtRp867
(dp868
g73
(dp869
g93
g94
ssg82
g863
sg75
(lp870
g305
asbag68
(g89
g70
NtRp871
(dp872
g73
(dp873
g100
g101
ssg82
g863
sg75
(lp874
S':'
asbag68
(g89
g70
NtRp875
(dp876
g73
(dp877
sg82
g863
sg75
(lp878
g68
(g69
g70
NtRp879
(dp880
g73
(dp881
g81
I3
ssg82
g875
sg75
(lp882
S''
asbasbasbag68
(g84
g70
NtRp883
(dp884
g73
(dp885
sg82
g859
sg75
(lp886
g68
(g89
g70
NtRp887
(dp888
g73
(dp889
g93
g94
ssg82
g883
sg75
(lp890
g326
asbag68
(g89
g70
NtRp891
(dp892
g73
(dp893
g100
g101
ssg82
g883
sg75
(lp894
S':'
asbag68
(g89
g70
NtRp895
(dp896
g73
(dp897
sg82
g883
sg75
(lp898
g68
(g69
g70
NtRp899
(dp900
g73
(dp901
g81
I3
ssg82
g895
sg75
(lp902
S''
asbasbasbag68
(g84
g70
NtRp903
(dp904
g73
(dp905
sg82
g859
sg75
(lp906
g68
(g89
g70
NtRp907
(dp908
g73
(dp909
g93
g94
ssg82
g903
sg75
(lp910
g347
asbag68
(g89
g70
NtRp911
(dp912
g73
(dp913
g100
g101
ssg82
g903
sg75
(lp914
S':'
asbag68
(g89
g70
NtRp915
(dp916
g73
(dp917
sg82
g903
sg75
(lp918
g68
(g69
g70
NtRp919
(dp920
g73
(dp921
g81
I3
ssg82
g915
sg75
(lp922
S''
asbasbasbag68
(g84
g70
NtRp923
(dp924
g73
(dp925
sg82
g859
sg75
(lp926
g68
(g89
g70
NtRp927
(dp928
g73
(dp929
g93
g94
ssg82
g923
sg75
(lp930
g368
asbag68
(g89
g70
NtRp931
(dp932
g73
(dp933
g100
g101
ssg82
g923
sg75
(lp934
S':'
asbag68
(g89
g70
NtRp935
(dp936
g73
(dp937
sg82
g923
sg75
(lp938
g68
(g69
g70
NtRp939
(dp940
g73
(dp941
g81
I3
ssg82
g935
sg75
(lp942
S''
asbasbasbag68
(g84
g70
NtRp943
(dp944
g73
(dp945
sg82
g859
sg75
(lp946
g68
(g89
g70
NtRp947
(dp948
g73
(dp949
g93
g94
ssg82
g943
sg75
(lp950
g389
asbag68
(g89
g70
NtRp951
(dp952
g73
(dp953
g100
g101
ssg82
g943
sg75
(lp954
S':'
asbag68
(g89
g70
NtRp955
(dp956
g73
(dp957
sg82
g943
sg75
(lp958
g68
(g69
g70
NtRp959
(dp960
g73
(dp961
g81
I3
ssg82
g955
sg75
(lp962
S''
asbasbasbag68
(g84
g70
NtRp963
(dp964
g73
(dp965
sg82
g859
sg75
(lp966
g68
(g89
g70
NtRp967
(dp968
g73
(dp969
g93
g94
ssg82
g963
sg75
(lp970
g410
asbag68
(g89
g70
NtRp971
(dp972
g73
(dp973
g100
g101
ssg82
g963
sg75
(lp974
S':'
asbag68
(g89
g70
NtRp975
(dp976
g73
(dp977
sg82
g963
sg75
(lp978
g68
(g69
g70
NtRp979
(dp980
g73
(dp981
g81
I3
ssg82
g975
sg75
(lp982
S''
asbasbasbag68
(g84
g70
NtRp983
(dp984
g73
(dp985
sg82
g859
sg75
(lp986
g68
(g89
g70
NtRp987
(dp988
g73
(dp989
g93
g94
ssg82
g983
sg75
(lp990
g431
asbag68
(g89
g70
NtRp991
(dp992
g73
(dp993
g100
g101
ssg82
g983
sg75
(lp994
S':'
asbag68
(g89
g70
NtRp995
(dp996
g73
(dp997
sg82
g983
sg75
(lp998
g68
(g69
g70
NtRp999
(dp1000
g73
(dp1001
g81
I3
ssg82
g995
sg75
(lp1002
S''
asbasbasbag68
(g84
g70
NtRp1003
(dp1004
g73
(dp1005
sg82
g859
sg75
(lp1006
g68
(g89
g70
NtRp1007
(dp1008
g73
(dp1009
g93
g94
ssg82
g1003
sg75
(lp1010
g452
asbag68
(g89
g70
NtRp1011
(dp1012
g73
(dp1013
g100
g101
ssg82
g1003
sg75
(lp1014
S':'
asbag68
(g89
g70
NtRp1015
(dp1016
g73
(dp1017
sg82
g1003
sg75
(lp1018
g68
(g69
g70
NtRp1019
(dp1020
g73
(dp1021
g81
I3
ssg82
g1015
sg75
(lp1022
S''
asbasbasbasbasbasbasbasbasbasbasbag68
(g84
g70
NtRp1023
(dp1024
g73
(dp1025
sg82
g78
sg75
(lp1026
g68
(g89
g70
NtRp1027
(dp1028
g73
(dp1029
g93
g94
ssg82
g1023
sg75
(lp1030
S'env'
p1031
asbag68
(g89
g70
NtRp1032
(dp1033
g73
(dp1034
g100
g101
ssg82
g1023
sg75
(lp1035
S':'
asbag68
(g89
g70
NtRp1036
(dp1037
g73
(dp1038
sg82
g1023
sg75
(lp1039
g68
(g69
g70
NtRp1040
(dp1041
g73
(dp1042
g81
I5
ssg82
g1036
sg75
(lp1043
g68
(g77
g70
NtRp1044
(dp1045
g73
(dp1046
g81
I4
ssg82
Nsg75
(lp1047
g68
(g84
g70
NtRp1048
(dp1049
g73
(dp1050
sg82
g1044
sg75
(lp1051
g68
(g89
g70
NtRp1052
(dp1053
g73
(dp1054
g93
g94
ssg82
g1048
sg75
(lp1055
S'app_folders'
p1056
asbag68
(g89
g70
NtRp1057
(dp1058
g73
(dp1059
g100
g101
ssg82
g1048
sg75
(lp1060
S':'
asbag68
(g89
g70
NtRp1061
(dp1062
g73
(dp1063
sg82
g1048
sg75
(lp1064
g68
(g69
g70
NtRp1065
(dp1066
g73
(dp1067
g81
I4
ssg82
g1061
sg75
(lp1068
S"set(['/home/nazrul/web2py/applications/welcome/', '/home/nazrul/web2py/applications/images1/', '/home/nazrul/web2py/applications/images/', '/home/nazrul/web2py/applications/admin/'])"
p1069
asbasbasbag68
(g84
g70
NtRp1070
(dp1071
g73
(dp1072
sg82
g1044
sg75
(lp1073
g68
(g89
g70
NtRp1074
(dp1075
g73
(dp1076
g93
g94
ssg82
g1070
sg75
(lp1077
S'applications_parent'
p1078
asbag68
(g89
g70
NtRp1079
(dp1080
g73
(dp1081
g100
g101
ssg82
g1070
sg75
(lp1082
S':'
asbag68
(g89
g70
NtRp1083
(dp1084
g73
(dp1085
sg82
g1070
sg75
(lp1086
g68
(g69
g70
NtRp1087
(dp1088
g73
(dp1089
g81
I4
ssg82
g1083
sg75
(lp1090
S'/home/nazrul/web2py'
p1091
asbasbasbag68
(g84
g70
NtRp1092
(dp1093
g73
(dp1094
sg82
g1044
sg75
(lp1095
g68
(g89
g70
NtRp1096
(dp1097
g73
(dp1098
g93
g94
ssg82
g1092
sg75
(lp1099
S'cmd_args'
p1100
asbag68
(g89
g70
NtRp1101
(dp1102
g73
(dp1103
g100
g101
ssg82
g1092
sg75
(lp1104
S':'
asbag68
(g89
g70
NtRp1105
(dp1106
g73
(dp1107
sg82
g1092
sg75
(lp1108
g68
(g69
g70
NtRp1109
(dp1110
g73
(dp1111
g81
I4
ssg82
g1105
sg75
(lp1112
g68
(g77
g70
NtRp1113
(dp1114
g73
(dp1115
g81
I3
ssg82
Nsg75
(lp1116
sbasbasbasbag68
(g84
g70
NtRp1117
(dp1118
g73
(dp1119
sg82
g1044
sg75
(lp1120
g68
(g89
g70
NtRp1121
(dp1122
g73
(dp1123
g93
g94
ssg82
g1117
sg75
(lp1124
S'cmd_options'
p1125
asbag68
(g89
g70
NtRp1126
(dp1127
g73
(dp1128
g100
g101
ssg82
g1117
sg75
(lp1129
S':'
asbag68
(g89
g70
NtRp1130
(dp1131
g73
(dp1132
sg82
g1117
sg75
(lp1133
g68
(g69
g70
NtRp1134
(dp1135
g73
(dp1136
g81
I4
ssg82
g1130
sg75
(lp1137
S"<Values at 0xa6c3dac: {'verbose': False, 'ip': '127.0.0.1', 'with_scheduler': False, 'ips': [], 'shutdown_timeout': 5, 'taskbar': False, 'port': 8000, 'maxthreads': None, 'softcron': False, 'server_name': 'nazrul-Compaq-Presario-CQ40-Notebook-PC', 'bpython': False, 'nogui': False, 'pid_filename': 'httpserver.pid', 'extcron': False, 'runcron': False, 'run_system_tests': False, 'test': None, 'folder': '/home/nazrul/web2py', 'config': '', 'import_models': False, 'winservice': '', 'shell': None, 'run': '', 'log_filename': 'httpserver.log', 'debuglevel': 30, 'args': [''], 'socket_timeout': 5, 'ssl_ca_certificate': None, 'scheduler': None, 'profiler_filename': None, 'ssl_private_key': '', 'scheduler_groups': None, 'password': '<ask>', 'request_queue_size': 5, 'ssl_certificate': '', 'cronjob': False, 'numthreads': None, 'quiet': False, 'interfaces': None, 'minthreads': None, 'timeout': 10, 'plain': False, 'nobanner': False}>"
p1138
asbasbasbag68
(g84
g70
NtRp1139
(dp1140
g73
(dp1141
sg82
g1044
sg75
(lp1142
g68
(g89
g70
NtRp1143
(dp1144
g73
(dp1145
g93
g94
ssg82
g1139
sg75
(lp1146
S'db_sessions'
p1147
asbag68
(g89
g70
NtRp1148
(dp1149
g73
(dp1150
g100
g101
ssg82
g1139
sg75
(lp1151
S':'
asbag68
(g89
g70
NtRp1152
(dp1153
g73
(dp1154
sg82
g1139
sg75
(lp1155
g68
(g69
g70
NtRp1156
(dp1157
g73
(dp1158
g81
I4
ssg82
g1152
sg75
(lp1159
S'set([])'
p1160
asbasbasbag68
(g84
g70
NtRp1161
(dp1162
g73
(dp1163
sg82
g1044
sg75
(lp1164
g68
(g89
g70
NtRp1165
(dp1166
g73
(dp1167
g93
g94
ssg82
g1161
sg75
(lp1168
S'debugging'
p1169
asbag68
(g89
g70
NtRp1170
(dp1171
g73
(dp1172
g100
g101
ssg82
g1161
sg75
(lp1173
S':'
asbag68
(g89
g70
NtRp1174
(dp1175
g73
(dp1176
sg82
g1161
sg75
(lp1177
g68
(g69
g70
NtRp1178
(dp1179
g73
(dp1180
g81
I4
ssg82
g1174
sg75
(lp1181
g111
asbasbasbag68
(g84
g70
NtRp1182
(dp1183
g73
(dp1184
sg82
g1044
sg75
(lp1185
g68
(g89
g70
NtRp1186
(dp1187
g73
(dp1188
g93
g94
ssg82
g1182
sg75
(lp1189
S'gluon_parent'
p1190
asbag68
(g89
g70
NtRp1191
(dp1192
g73
(dp1193
g100
g101
ssg82
g1182
sg75
(lp1194
S':'
asbag68
(g89
g70
NtRp1195
(dp1196
g73
(dp1197
sg82
g1182
sg75
(lp1198
g68
(g69
g70
NtRp1199
(dp1200
g73
(dp1201
g81
I4
ssg82
g1195
sg75
(lp1202
S'/home/nazrul/web2py'
p1203
asbasbasbag68
(g84
g70
NtRp1204
(dp1205
g73
(dp1206
sg82
g1044
sg75
(lp1207
g68
(g89
g70
NtRp1208
(dp1209
g73
(dp1210
g93
g94
ssg82
g1204
sg75
(lp1211
S'http_accept'
p1212
asbag68
(g89
g70
NtRp1213
(dp1214
g73
(dp1215
g100
g101
ssg82
g1204
sg75
(lp1216
S':'
asbag68
(g89
g70
NtRp1217
(dp1218
g73
(dp1219
sg82
g1204
sg75
(lp1220
g68
(g69
g70
NtRp1221
(dp1222
g73
(dp1223
g81
I4
ssg82
g1217
sg75
(lp1224
S'text/html,application/xhtml+xml,application/xml;q=0.9,*/*;q=0.8'
p1225
asbasbasbag68
(g84
g70
NtRp1226
(dp1227
g73
(dp1228
sg82
g1044
sg75
(lp1229
g68
(g89
g70
NtRp1230
(dp1231
g73
(dp1232
g93
g94
ssg82
g1226
sg75
(lp1233
S'http_accept_encoding'
p1234
asbag68
(g89
g70
NtRp1235
(dp1236
g73
(dp1237
g100
g101
ssg82
g1226
sg75
(lp1238
S':'
asbag68
(g89
g70
NtRp1239
(dp1240
g73
(dp1241
sg82
g1226
sg75
(lp1242
g68
(g69
g70
NtRp1243
(dp1244
g73
(dp1245
g81
I4
ssg82
g1239
sg75
(lp1246
S'gzip, deflate'
p1247
asbasbasbag68
(g84
g70
NtRp1248
(dp1249
g73
(dp1250
sg82
g1044
sg75
(lp1251
g68
(g89
g70
NtRp1252
(dp1253
g73
(dp1254
g93
g94
ssg82
g1248
sg75
(lp1255
S'http_accept_language'
p1256
asbag68
(g89
g70
NtRp1257
(dp1258
g73
(dp1259
g100
g101
ssg82
g1248
sg75
(lp1260
S':'
asbag68
(g89
g70
NtRp1261
(dp1262
g73
(dp1263
sg82
g1248
sg75
(lp1264
g68
(g69
g70
NtRp1265
(dp1266
g73
(dp1267
g81
I4
ssg82
g1261
sg75
(lp1268
S'en-US,en;q=0.5'
p1269
asbasbasbag68
(g84
g70
NtRp1270
(dp1271
g73
(dp1272
sg82
g1044
sg75
(lp1273
g68
(g89
g70
NtRp1274
(dp1275
g73
(dp1276
g93
g94
ssg82
g1270
sg75
(lp1277
S'http_cache_control'
p1278
asbag68
(g89
g70
NtRp1279
(dp1280
g73
(dp1281
g100
g101
ssg82
g1270
sg75
(lp1282
S':'
asbag68
(g89
g70
NtRp1283
(dp1284
g73
(dp1285
sg82
g1270
sg75
(lp1286
g68
(g69
g70
NtRp1287
(dp1288
g73
(dp1289
g81
I4
ssg82
g1283
sg75
(lp1290
S'max-age=0'
p1291
asbasbasbag68
(g84
g70
NtRp1292
(dp1293
g73
(dp1294
sg82
g1044
sg75
(lp1295
g68
(g89
g70
NtRp1296
(dp1297
g73
(dp1298
g93
g94
ssg82
g1292
sg75
(lp1299
S'http_connection'
p1300
asbag68
(g89
g70
NtRp1301
(dp1302
g73
(dp1303
g100
g101
ssg82
g1292
sg75
(lp1304
S':'
asbag68
(g89
g70
NtRp1305
(dp1306
g73
(dp1307
sg82
g1292
sg75
(lp1308
g68
(g69
g70
NtRp1309
(dp1310
g73
(dp1311
g81
I4
ssg82
g1305
sg75
(lp1312
S'keep-alive'
p1313
asbasbasbag68
(g84
g70
NtRp1314
(dp1315
g73
(dp1316
sg82
g1044
sg75
(lp1317
g68
(g89
g70
NtRp1318
(dp1319
g73
(dp1320
g93
g94
ssg82
g1314
sg75
(lp1321
S'http_cookie'
p1322
asbag68
(g89
g70
NtRp1323
(dp1324
g73
(dp1325
g100
g101
ssg82
g1314
sg75
(lp1326
S':'
asbag68
(g89
g70
NtRp1327
(dp1328
g73
(dp1329
sg82
g1314
sg75
(lp1330
g68
(g69
g70
NtRp1331
(dp1332
g73
(dp1333
g81
I4
ssg82
g1327
sg75
(lp1334
S'session_id_welcome=127.0.0.1-f0a33357-e6f9-49eb-8a60-3c1e4ecdd133; session_id_admin=127.0.0.1-7fd1fc50-6854-40e5-80a2-b26c376ddc1e; session_id_images=127.0.0.1-994cc2db-8e90-4a64-95cf-0a237460fece; session_id_images1=127.0.0.1-118d866d-dae6-4234-beb3-30c3f03727d9'
p1335
asbasbasbag68
(g84
g70
NtRp1336
(dp1337
g73
(dp1338
sg82
g1044
sg75
(lp1339
g68
(g89
g70
NtRp1340
(dp1341
g73
(dp1342
g93
g94
ssg82
g1336
sg75
(lp1343
S'http_host'
p1344
asbag68
(g89
g70
NtRp1345
(dp1346
g73
(dp1347
g100
g101
ssg82
g1336
sg75
(lp1348
S':'
asbag68
(g89
g70
NtRp1349
(dp1350
g73
(dp1351
sg82
g1336
sg75
(lp1352
g68
(g69
g70
NtRp1353
(dp1354
g73
(dp1355
g81
I4
ssg82
g1349
sg75
(lp1356
S'127.0.0.1:8000'
p1357
asbasbasbag68
(g84
g70
NtRp1358
(dp1359
g73
(dp1360
sg82
g1044
sg75
(lp1361
g68
(g89
g70
NtRp1362
(dp1363
g73
(dp1364
g93
g94
ssg82
g1358
sg75
(lp1365
S'http_referer'
p1366
asbag68
(g89
g70
NtRp1367
(dp1368
g73
(dp1369
g100
g101
ssg82
g1358
sg75
(lp1370
S':'
asbag68
(g89
g70
NtRp1371
(dp1372
g73
(dp1373
sg82
g1358
sg75
(lp1374
g68
(g69
g70
NtRp1375
(dp1376
g73
(dp1377
g81
I4
ssg82
g1371
sg75
(lp1378
S'http://127.0.0.1:8000/admin/default/design/images1'
p1379
asbasbasbag68
(g84
g70
NtRp1380
(dp1381
g73
(dp1382
sg82
g1044
sg75
(lp1383
g68
(g89
g70
NtRp1384
(dp1385
g73
(dp1386
g93
g94
ssg82
g1380
sg75
(lp1387
S'http_user_agent'
p1388
asbag68
(g89
g70
NtRp1389
(dp1390
g73
(dp1391
g100
g101
ssg82
g1380
sg75
(lp1392
S':'
asbag68
(g89
g70
NtRp1393
(dp1394
g73
(dp1395
sg82
g1380
sg75
(lp1396
g68
(g69
g70
NtRp1397
(dp1398
g73
(dp1399
g81
I4
ssg82
g1393
sg75
(lp1400
S'Mozilla/5.0 (X11; Ubuntu; Linux i686; rv:18.0) Gecko/20100101 Firefox/18.0'
p1401
asbasbasbag68
(g84
g70
NtRp1402
(dp1403
g73
(dp1404
sg82
g1044
sg75
(lp1405
g68
(g89
g70
NtRp1406
(dp1407
g73
(dp1408
g93
g94
ssg82
g1402
sg75
(lp1409
S'is_jython'
p1410
asbag68
(g89
g70
NtRp1411
(dp1412
g73
(dp1413
g100
g101
ssg82
g1402
sg75
(lp1414
S':'
asbag68
(g89
g70
NtRp1415
(dp1416
g73
(dp1417
sg82
g1402
sg75
(lp1418
g68
(g69
g70
NtRp1419
(dp1420
g73
(dp1421
g81
I4
ssg82
g1415
sg75
(lp1422
g111
asbasbasbag68
(g84
g70
NtRp1423
(dp1424
g73
(dp1425
sg82
g1044
sg75
(lp1426
g68
(g89
g70
NtRp1427
(dp1428
g73
(dp1429
g93
g94
ssg82
g1423
sg75
(lp1430
S'is_pypy'
p1431
asbag68
(g89
g70
NtRp1432
(dp1433
g73
(dp1434
g100
g101
ssg82
g1423
sg75
(lp1435
S':'
asbag68
(g89
g70
NtRp1436
(dp1437
g73
(dp1438
sg82
g1423
sg75
(lp1439
g68
(g69
g70
NtRp1440
(dp1441
g73
(dp1442
g81
I4
ssg82
g1436
sg75
(lp1443
g111
asbasbasbag68
(g84
g70
NtRp1444
(dp1445
g73
(dp1446
sg82
g1044
sg75
(lp1447
g68
(g89
g70
NtRp1448
(dp1449
g73
(dp1450
g93
g94
ssg82
g1444
sg75
(lp1451
S'local_hosts'
p1452
asbag68
(g89
g70
NtRp1453
(dp1454
g73
(dp1455
g100
g101
ssg82
g1444
sg75
(lp1456
S':'
asbag68
(g89
g70
NtRp1457
(dp1458
g73
(dp1459
sg82
g1444
sg75
(lp1460
g68
(g69
g70
NtRp1461
(dp1462
g73
(dp1463
g81
I4
ssg82
g1457
sg75
(lp1464
g68
(g77
g70
NtRp1465
(dp1466
g73
(dp1467
g81
I3
ssg82
Nsg75
(lp1468
g68
(g84
g70
NtRp1469
(dp1470
g73
(dp1471
sg82
g1465
sg75
(lp1472
g68
(g89
g70
NtRp1473
(dp1474
g73
(dp1475
sg82
g1469
sg75
(lp1476
g68
(g69
g70
NtRp1477
(dp1478
g73
(dp1479
g81
I3
ssg82
g1473
sg75
(lp1480
S'::1'
p1481
asbasbasbag68
(g84
g70
NtRp1482
(dp1483
g73
(dp1484
sg82
g1465
sg75
(lp1485
g68
(g89
g70
NtRp1486
(dp1487
g73
(dp1488
sg82
g1482
sg75
(lp1489
g68
(g69
g70
NtRp1490
(dp1491
g73
(dp1492
g81
I3
ssg82
g1486
sg75
(lp1493
S'127.0.1.1'
p1494
asbasbasbag68
(g84
g70
NtRp1495
(dp1496
g73
(dp1497
sg82
g1465
sg75
(lp1498
g68
(g89
g70
NtRp1499
(dp1500
g73
(dp1501
sg82
g1495
sg75
(lp1502
g68
(g69
g70
NtRp1503
(dp1504
g73
(dp1505
g81
I3
ssg82
g1499
sg75
(lp1506
S'::ffff:127.0.0.1'
p1507
asbasbasbag68
(g84
g70
NtRp1508
(dp1509
g73
(dp1510
sg82
g1465
sg75
(lp1511
g68
(g89
g70
NtRp1512
(dp1513
g73
(dp1514
sg82
g1508
sg75
(lp1515
g68
(g69
g70
NtRp1516
(dp1517
g73
(dp1518
g81
I3
ssg82
g1512
sg75
(lp1519
S'127.0.0.1'
p1520
asbasbasbag68
(g84
g70
NtRp1521
(dp1522
g73
(dp1523
sg82
g1465
sg75
(lp1524
g68
(g89
g70
NtRp1525
(dp1526
g73
(dp1527
sg82
g1521
sg75
(lp1528
g68
(g69
g70
NtRp1529
(dp1530
g73
(dp1531
g81
I3
ssg82
g1525
sg75
(lp1532
S'nazrul-Compaq-Presario-CQ40-Notebook-PC'
p1533
asbasbasbasbasbasbasbag68
(g84
g70
NtRp1534
(dp1535
g73
(dp1536
sg82
g1044
sg75
(lp1537
g68
(g89
g70
NtRp1538
(dp1539
g73
(dp1540
g93
g94
ssg82
g1534
sg75
(lp1541
S'path_info'
p1542
asbag68
(g89
g70
NtRp1543
(dp1544
g73
(dp1545
g100
g101
ssg82
g1534
sg75
(lp1546
S':'
asbag68
(g89
g70
NtRp1547
(dp1548
g73
(dp1549
sg82
g1534
sg75
(lp1550
g68
(g69
g70
NtRp1551
(dp1552
g73
(dp1553
g81
I4
ssg82
g1547
sg75
(lp1554
S'/images1/appadmin/index'
p1555
asbasbasbag68
(g84
g70
NtRp1556
(dp1557
g73
(dp1558
sg82
g1044
sg75
(lp1559
g68
(g89
g70
NtRp1560
(dp1561
g73
(dp1562
g93
g94
ssg82
g1556
sg75
(lp1563
S'query_string'
p1564
asbag68
(g89
g70
NtRp1565
(dp1566
g73
(dp1567
g100
g101
ssg82
g1556
sg75
(lp1568
S':'
asbag68
(g89
g70
NtRp1569
(dp1570
g73
(dp1571
sg82
g1556
sg75
(lp1572
g68
(g69
g70
NtRp1573
(dp1574
g73
(dp1575
g81
I4
ssg82
g1569
sg75
(lp1576
S''
asbasbasbag68
(g84
g70
NtRp1577
(dp1578
g73
(dp1579
sg82
g1044
sg75
(lp1580
g68
(g89
g70
NtRp1581
(dp1582
g73
(dp1583
g93
g94
ssg82
g1577
sg75
(lp1584
S'remote_addr'
p1585
asbag68
(g89
g70
NtRp1586
(dp1587
g73
(dp1588
g100
g101
ssg82
g1577
sg75
(lp1589
S':'
asbag68
(g89
g70
NtRp1590
(dp1591
g73
(dp1592
sg82
g1577
sg75
(lp1593
g68
(g69
g70
NtRp1594
(dp1595
g73
(dp1596
g81
I4
ssg82
g1590
sg75
(lp1597
g223
asbasbasbag68
(g84
g70
NtRp1598
(dp1599
g73
(dp1600
sg82
g1044
sg75
(lp1601
g68
(g89
g70
NtRp1602
(dp1603
g73
(dp1604
g93
g94
ssg82
g1598
sg75
(lp1605
S'remote_port'
p1606
asbag68
(g89
g70
NtRp1607
(dp1608
g73
(dp1609
g100
g101
ssg82
g1598
sg75
(lp1610
S':'
asbag68
(g89
g70
NtRp1611
(dp1612
g73
(dp1613
sg82
g1598
sg75
(lp1614
g68
(g69
g70
NtRp1615
(dp1616
g73
(dp1617
g81
I4
ssg82
g1611
sg75
(lp1618
S'50549'
p1619
asbasbasbag68
(g84
g70
NtRp1620
(dp1621
g73
(dp1622
sg82
g1044
sg75
(lp1623
g68
(g89
g70
NtRp1624
(dp1625
g73
(dp1626
g93
g94
ssg82
g1620
sg75
(lp1627
S'request_method'
p1628
asbag68
(g89
g70
NtRp1629
(dp1630
g73
(dp1631
g100
g101
ssg82
g1620
sg75
(lp1632
S':'
asbag68
(g89
g70
NtRp1633
(dp1634
g73
(dp1635
sg82
g1620
sg75
(lp1636
g68
(g69
g70
NtRp1637
(dp1638
g73
(dp1639
g81
I4
ssg82
g1633
sg75
(lp1640
S'GET'
p1641
asbasbasbag68
(g84
g70
NtRp1642
(dp1643
g73
(dp1644
sg82
g1044
sg75
(lp1645
g68
(g89
g70
NtRp1646
(dp1647
g73
(dp1648
g93
g94
ssg82
g1642
sg75
(lp1649
S'request_uri'
p1650
asbag68
(g89
g70
NtRp1651
(dp1652
g73
(dp1653
g100
g101
ssg82
g1642
sg75
(lp1654
S':'
asbag68
(g89
g70
NtRp1655
(dp1656
g73
(dp1657
sg82
g1642
sg75
(lp1658
g68
(g69
g70
NtRp1659
(dp1660
g73
(dp1661
g81
I4
ssg82
g1655
sg75
(lp1662
g1555
asbasbasbag68
(g84
g70
NtRp1663
(dp1664
g73
(dp1665
sg82
g1044
sg75
(lp1666
g68
(g89
g70
NtRp1667
(dp1668
g73
(dp1669
g93
g94
ssg82
g1663
sg75
(lp1670
S'script_name'
p1671
asbag68
(g89
g70
NtRp1672
(dp1673
g73
(dp1674
g100
g101
ssg82
g1663
sg75
(lp1675
S':'
asbag68
(g89
g70
NtRp1676
(dp1677
g73
(dp1678
sg82
g1663
sg75
(lp1679
g68
(g69
g70
NtRp1680
(dp1681
g73
(dp1682
g81
I4
ssg82
g1676
sg75
(lp1683
S''
asbasbasbag68
(g84
g70
NtRp1684
(dp1685
g73
(dp1686
sg82
g1044
sg75
(lp1687
g68
(g89
g70
NtRp1688
(dp1689
g73
(dp1690
g93
g94
ssg82
g1684
sg75
(lp1691
S'server_name'
p1692
asbag68
(g89
g70
NtRp1693
(dp1694
g73
(dp1695
g100
g101
ssg82
g1684
sg75
(lp1696
S':'
asbag68
(g89
g70
NtRp1697
(dp1698
g73
(dp1699
sg82
g1684
sg75
(lp1700
g68
(g69
g70
NtRp1701
(dp1702
g73
(dp1703
g81
I4
ssg82
g1697
sg75
(lp1704
S'nazrul-Compaq-Presario-CQ40-Notebook-PC'
p1705
asbasbasbag68
(g84
g70
NtRp1706
(dp1707
g73
(dp1708
sg82
g1044
sg75
(lp1709
g68
(g89
g70
NtRp1710
(dp1711
g73
(dp1712
g93
g94
ssg82
g1706
sg75
(lp1713
S'server_port'
p1714
asbag68
(g89
g70
NtRp1715
(dp1716
g73
(dp1717
g100
g101
ssg82
g1706
sg75
(lp1718
S':'
asbag68
(g89
g70
NtRp1719
(dp1720
g73
(dp1721
sg82
g1706
sg75
(lp1722
g68
(g69
g70
NtRp1723
(dp1724
g73
(dp1725
g81
I4
ssg82
g1719
sg75
(lp1726
S'8000'
p1727
asbasbasbag68
(g84
g70
NtRp1728
(dp1729
g73
(dp1730
sg82
g1044
sg75
(lp1731
g68
(g89
g70
NtRp1732
(dp1733
g73
(dp1734
g93
g94
ssg82
g1728
sg75
(lp1735
S'server_protocol'
p1736
asbag68
(g89
g70
NtRp1737
(dp1738
g73
(dp1739
g100
g101
ssg82
g1728
sg75
(lp1740
S':'
asbag68
(g89
g70
NtRp1741
(dp1742
g73
(dp1743
sg82
g1728
sg75
(lp1744
g68
(g69
g70
NtRp1745
(dp1746
g73
(dp1747
g81
I4
ssg82
g1741
sg75
(lp1748
S'HTTP/1.1'
p1749
asbasbasbag68
(g84
g70
NtRp1750
(dp1751
g73
(dp1752
sg82
g1044
sg75
(lp1753
g68
(g89
g70
NtRp1754
(dp1755
g73
(dp1756
g93
g94
ssg82
g1750
sg75
(lp1757
S'server_software'
p1758
asbag68
(g89
g70
NtRp1759
(dp1760
g73
(dp1761
g100
g101
ssg82
g1750
sg75
(lp1762
S':'
asbag68
(g89
g70
NtRp1763
(dp1764
g73
(dp1765
sg82
g1750
sg75
(lp1766
g68
(g69
g70
NtRp1767
(dp1768
g73
(dp1769
g81
I4
ssg82
g1763
sg75
(lp1770
S'Rocket 1.2.6'
p1771
asbasbasbag68
(g84
g70
NtRp1772
(dp1773
g73
(dp1774
sg82
g1044
sg75
(lp1775
g68
(g89
g70
NtRp1776
(dp1777
g73
(dp1778
g93
g94
ssg82
g1772
sg75
(lp1779
S'web2py_path'
p1780
asbag68
(g89
g70
NtRp1781
(dp1782
g73
(dp1783
g100
g101
ssg82
g1772
sg75
(lp1784
S':'
asbag68
(g89
g70
NtRp1785
(dp1786
g73
(dp1787
sg82
g1772
sg75
(lp1788
g68
(g69
g70
NtRp1789
(dp1790
g73
(dp1791
g81
I4
ssg82
g1785
sg75
(lp1792
g1091
asbasbasbag68
(g84
g70
NtRp1793
(dp1794
g73
(dp1795
sg82
g1044
sg75
(lp1796
g68
(g89
g70
NtRp1797
(dp1798
g73
(dp1799
g93
g94
ssg82
g1793
sg75
(lp1800
S'web2py_version'
p1801
asbag68
(g89
g70
NtRp1802
(dp1803
g73
(dp1804
g100
g101
ssg82
g1793
sg75
(lp1805
S':'
asbag68
(g89
g70
NtRp1806
(dp1807
g73
(dp1808
sg82
g1793
sg75
(lp1809
g68
(g69
g70
NtRp1810
(dp1811
g73
(dp1812
g81
I4
ssg82
g1806
sg75
(lp1813
g68
(g77
g70
NtRp1814
(dp1815
g73
(dp1816
g81
I3
ssg82
Nsg75
(lp1817
g68
(g84
g70
NtRp1818
(dp1819
g73
(dp1820
sg82
g1814
sg75
(lp1821
g68
(g89
g70
NtRp1822
(dp1823
g73
(dp1824
sg82
g1818
sg75
(lp1825
g68
(g69
g70
NtRp1826
(dp1827
g73
(dp1828
g81
I3
ssg82
g1822
sg75
(lp1829
S'2'
asbasbasbag68
(g84
g70
NtRp1830
(dp1831
g73
(dp1832
sg82
g1814
sg75
(lp1833
g68
(g89
g70
NtRp1834
(dp1835
g73
(dp1836
sg82
g1830
sg75
(lp1837
g68
(g69
g70
NtRp1838
(dp1839
g73
(dp1840
g81
I3
ssg82
g1834
sg75
(lp1841
S'3'
asbasbasbag68
(g84
g70
NtRp1842
(dp1843
g73
(dp1844
sg82
g1814
sg75
(lp1845
g68
(g89
g70
NtRp1846
(dp1847
g73
(dp1848
sg82
g1842
sg75
(lp1849
g68
(g69
g70
NtRp1850
(dp1851
g73
(dp1852
g81
I3
ssg82
g1846
sg75
(lp1853
S'2'
asbasbasbag68
(g84
g70
NtRp1854
(dp1855
g73
(dp1856
sg82
g1814
sg75
(lp1857
g68
(g89
g70
NtRp1858
(dp1859
g73
(dp1860
sg82
g1854
sg75
(lp1861
g68
(g69
g70
NtRp1862
(dp1863
g73
(dp1864
g81
I3
ssg82
g1858
sg75
(lp1865
S'datetime.datetime(2012, 12, 17, 15, 3, 30)'
p1866
asbasbasbag68
(g84
g70
NtRp1867
(dp1868
g73
(dp1869
sg82
g1814
sg75
(lp1870
g68
(g89
g70
NtRp1871
(dp1872
g73
(dp1873
sg82
g1867
sg75
(lp1874
g68
(g69
g70
NtRp1875
(dp1876
g73
(dp1877
g81
I3
ssg82
g1871
sg75
(lp1878
S'stable'
p1879
asbasbasbasbasbasbasbag68
(g84
g70
NtRp1880
(dp1881
g73
(dp1882
sg82
g1044
sg75
(lp1883
g68
(g89
g70
NtRp1884
(dp1885
g73
(dp1886
g93
g94
ssg82
g1880
sg75
(lp1887
S'wsgi_errors'
p1888
asbag68
(g89
g70
NtRp1889
(dp1890
g73
(dp1891
g100
g101
ssg82
g1880
sg75
(lp1892
S':'
asbag68
(g89
g70
NtRp1893
(dp1894
g73
(dp1895
sg82
g1880
sg75
(lp1896
g68
(g69
g70
NtRp1897
(dp1898
g73
(dp1899
g81
I4
ssg82
g1893
sg75
(lp1900
S"<open file '<stderr>', mode 'w' at 0xb72cc0d0>"
p1901
asbasbasbag68
(g84
g70
NtRp1902
(dp1903
g73
(dp1904
sg82
g1044
sg75
(lp1905
g68
(g89
g70
NtRp1906
(dp1907
g73
(dp1908
g93
g94
ssg82
g1902
sg75
(lp1909
S'wsgi_file_wrapper'
p1910
asbag68
(g89
g70
NtRp1911
(dp1912
g73
(dp1913
g100
g101
ssg82
g1902
sg75
(lp1914
S':'
asbag68
(g89
g70
NtRp1915
(dp1916
g73
(dp1917
sg82
g1902
sg75
(lp1918
g68
(g69
g70
NtRp1919
(dp1920
g73
(dp1921
g81
I4
ssg82
g1915
sg75
(lp1922
S'<class wsgiref.util.FileWrapper at 0xa68805c>'
p1923
asbasbasbag68
(g84
g70
NtRp1924
(dp1925
g73
(dp1926
sg82
g1044
sg75
(lp1927
g68
(g89
g70
NtRp1928
(dp1929
g73
(dp1930
g93
g94
ssg82
g1924
sg75
(lp1931
S'wsgi_input'
p1932
asbag68
(g89
g70
NtRp1933
(dp1934
g73
(dp1935
g100
g101
ssg82
g1924
sg75
(lp1936
S':'
asbag68
(g89
g70
NtRp1937
(dp1938
g73
(dp1939
sg82
g1924
sg75
(lp1940
g68
(g69
g70
NtRp1941
(dp1942
g73
(dp1943
g81
I4
ssg82
g1937
sg75
(lp1944
S'<socket._fileobject object at 0xadc9156c>'
p1945
asbasbasbag68
(g84
g70
NtRp1946
(dp1947
g73
(dp1948
sg82
g1044
sg75
(lp1949
g68
(g89
g70
NtRp1950
(dp1951
g73
(dp1952
g93
g94
ssg82
g1946
sg75
(lp1953
S'wsgi_multiprocess'
p1954
asbag68
(g89
g70
NtRp1955
(dp1956
g73
(dp1957
g100
g101
ssg82
g1946
sg75
(lp1958
S':'
asbag68
(g89
g70
NtRp1959
(dp1960
g73
(dp1961
sg82
g1946
sg75
(lp1962
g68
(g69
g70
NtRp1963
(dp1964
g73
(dp1965
g81
I4
ssg82
g1959
sg75
(lp1966
g111
asbasbasbag68
(g84
g70
NtRp1967
(dp1968
g73
(dp1969
sg82
g1044
sg75
(lp1970
g68
(g89
g70
NtRp1971
(dp1972
g73
(dp1973
g93
g94
ssg82
g1967
sg75
(lp1974
S'wsgi_multithread'
p1975
asbag68
(g89
g70
NtRp1976
(dp1977
g73
(dp1978
g100
g101
ssg82
g1967
sg75
(lp1979
S':'
asbag68
(g89
g70
NtRp1980
(dp1981
g73
(dp1982
sg82
g1967
sg75
(lp1983
g68
(g69
g70
NtRp1984
(dp1985
g73
(dp1986
g81
I4
ssg82
g1980
sg75
(lp1987
S'True'
p1988
asbasbasbag68
(g84
g70
NtRp1989
(dp1990
g73
(dp1991
sg82
g1044
sg75
(lp1992
g68
(g89
g70
NtRp1993
(dp1994
g73
(dp1995
g93
g94
ssg82
g1989
sg75
(lp1996
S'wsgi_run_once'
p1997
asbag68
(g89
g70
NtRp1998
(dp1999
g73
(dp2000
g100
g101
ssg82
g1989
sg75
(lp2001
S':'
asbag68
(g89
g70
NtRp2002
(dp2003
g73
(dp2004
sg82
g1989
sg75
(lp2005
g68
(g69
g70
NtRp2006
(dp2007
g73
(dp2008
g81
I4
ssg82
g2002
sg75
(lp2009
g111
asbasbasbag68
(g84
g70
NtRp2010
(dp2011
g73
(dp2012
sg82
g1044
sg75
(lp2013
g68
(g89
g70
NtRp2014
(dp2015
g73
(dp2016
g93
g94
ssg82
g2010
sg75
(lp2017
S'wsgi_url_scheme'
p2018
asbag68
(g89
g70
NtRp2019
(dp2020
g73
(dp2021
g100
g101
ssg82
g2010
sg75
(lp2022
S':'
asbag68
(g89
g70
NtRp2023
(dp2024
g73
(dp2025
sg82
g2010
sg75
(lp2026
g68
(g69
g70
NtRp2027
(dp2028
g73
(dp2029
g81
I4
ssg82
g2023
sg75
(lp2030
S'http'
p2031
asbasbasbag68
(g84
g70
NtRp2032
(dp2033
g73
(dp2034
sg82
g1044
sg75
(lp2035
g68
(g89
g70
NtRp2036
(dp2037
g73
(dp2038
g93
g94
ssg82
g2032
sg75
(lp2039
S'wsgi_version'
p2040
asbag68
(g89
g70
NtRp2041
(dp2042
g73
(dp2043
g100
g101
ssg82
g2032
sg75
(lp2044
S':'
asbag68
(g89
g70
NtRp2045
(dp2046
g73
(dp2047
sg82
g2032
sg75
(lp2048
g68
(g69
g70
NtRp2049
(dp2050
g73
(dp2051
g81
I4
ssg82
g2045
sg75
(lp2052
g68
(g77
g70
NtRp2053
(dp2054
g73
(dp2055
g81
I3
ssg82
Nsg75
(lp2056
g68
(g84
g70
NtRp2057
(dp2058
g73
(dp2059
sg82
g2053
sg75
(lp2060
g68
(g89
g70
NtRp2061
(dp2062
g73
(dp2063
sg82
g2057
sg75
(lp2064
g68
(g69
g70
NtRp2065
(dp2066
g73
(dp2067
g81
I3
ssg82
g2061
sg75
(lp2068
S'1'
asbasbasbag68
(g84
g70
NtRp2069
(dp2070
g73
(dp2071
sg82
g2053
sg75
(lp2072
g68
(g89
g70
NtRp2073
(dp2074
g73
(dp2075
sg82
g2069
sg75
(lp2076
g68
(g69
g70
NtRp2077
(dp2078
g73
(dp2079
g81
I3
ssg82
g2073
sg75
(lp2080
S'0'
asbasbasbasbasbasbasbasbasbasbasbag68
(g84
g70
NtRp2081
(dp2082
g73
(dp2083
sg82
g78
sg75
(lp2084
g68
(g89
g70
NtRp2085
(dp2086
g73
(dp2087
g93
g94
ssg82
g2081
sg75
(lp2088
S'extension'
p2089
asbag68
(g89
g70
NtRp2090
(dp2091
g73
(dp2092
g100
g101
ssg82
g2081
sg75
(lp2093
S':'
asbag68
(g89
g70
NtRp2094
(dp2095
g73
(dp2096
sg82
g2081
sg75
(lp2097
g68
(g69
g70
NtRp2098
(dp2099
g73
(dp2100
g81
I5
ssg82
g2094
sg75
(lp2101
S'html'
p2102
asbasbasbag68
(g84
g70
NtRp2103
(dp2104
g73
(dp2105
sg82
g78
sg75
(lp2106
g68
(g89
g70
NtRp2107
(dp2108
g73
(dp2109
g93
g94
ssg82
g2103
sg75
(lp2110
S'folder'
p2111
asbag68
(g89
g70
NtRp2112
(dp2113
g73
(dp2114
g100
g101
ssg82
g2103
sg75
(lp2115
S':'
asbag68
(g89
g70
NtRp2116
(dp2117
g73
(dp2118
sg82
g2103
sg75
(lp2119
g68
(g69
g70
NtRp2120
(dp2121
g73
(dp2122
g81
I5
ssg82
g2116
sg75
(lp2123
S'/home/nazrul/web2py/applications/images1/'
p2124
asbasbasbag68
(g84
g70
NtRp2125
(dp2126
g73
(dp2127
sg82
g78
sg75
(lp2128
g68
(g89
g70
NtRp2129
(dp2130
g73
(dp2131
g93
g94
ssg82
g2125
sg75
(lp2132
S'function'
p2133
asbag68
(g89
g70
NtRp2134
(dp2135
g73
(dp2136
g100
g101
ssg82
g2125
sg75
(lp2137
S':'
asbag68
(g89
g70
NtRp2138
(dp2139
g73
(dp2140
sg82
g2125
sg75
(lp2141
g68
(g69
g70
NtRp2142
(dp2143
g73
(dp2144
g81
I5
ssg82
g2138
sg75
(lp2145
S'index'
p2146
asbasbasbag68
(g84
g70
NtRp2147
(dp2148
g73
(dp2149
sg82
g78
sg75
(lp2150
g68
(g89
g70
NtRp2151
(dp2152
g73
(dp2153
g93
g94
ssg82
g2147
sg75
(lp2154
S'get_vars'
p2155
asbag68
(g89
g70
NtRp2156
(dp2157
g73
(dp2158
g100
g101
ssg82
g2147
sg75
(lp2159
S':'
asbag68
(g89
g70
NtRp2160
(dp2161
g73
(dp2162
sg82
g2147
sg75
(lp2163
g68
(g69
g70
NtRp2164
(dp2165
g73
(dp2166
g81
I5
ssg82
g2160
sg75
(lp2167
g68
(g77
g70
NtRp2168
(dp2169
g73
(dp2170
g81
I4
ssg82
Nsg75
(lp2171
sbasbasbasbag68
(g84
g70
NtRp2172
(dp2173
g73
(dp2174
sg82
g78
sg75
(lp2175
g68
(g89
g70
NtRp2176
(dp2177
g73
(dp2178
g93
g94
ssg82
g2172
sg75
(lp2179
S'global_settings'
p2180
asbag68
(g89
g70
NtRp2181
(dp2182
g73
(dp2183
g100
g101
ssg82
g2172
sg75
(lp2184
S':'
asbag68
(g89
g70
NtRp2185
(dp2186
g73
(dp2187
sg82
g2172
sg75
(lp2188
g68
(g69
g70
NtRp2189
(dp2190
g73
(dp2191
g81
I5
ssg82
g2185
sg75
(lp2192
g68
(g77
g70
NtRp2193
(dp2194
g73
(dp2195
g81
I4
ssg82
Nsg75
(lp2196
g68
(g84
g70
NtRp2197
(dp2198
g73
(dp2199
sg82
g2193
sg75
(lp2200
g68
(g89
g70
NtRp2201
(dp2202
g73
(dp2203
g93
g94
ssg82
g2197
sg75
(lp2204
g1056
asbag68
(g89
g70
NtRp2205
(dp2206
g73
(dp2207
g100
g101
ssg82
g2197
sg75
(lp2208
S':'
asbag68
(g89
g70
NtRp2209
(dp2210
g73
(dp2211
sg82
g2197
sg75
(lp2212
g68
(g69
g70
NtRp2213
(dp2214
g73
(dp2215
g81
I4
ssg82
g2209
sg75
(lp2216
S"set(['/home/nazrul/web2py/applications/welcome/', '/home/nazrul/web2py/applications/images1/', '/home/nazrul/web2py/applications/images/', '/home/nazrul/web2py/applications/admin/'])"
p2217
asbasbasbag68
(g84
g70
NtRp2218
(dp2219
g73
(dp2220
sg82
g2193
sg75
(lp2221
g68
(g89
g70
NtRp2222
(dp2223
g73
(dp2224
g93
g94
ssg82
g2218
sg75
(lp2225
g1078
asbag68
(g89
g70
NtRp2226
(dp2227
g73
(dp2228
g100
g101
ssg82
g2218
sg75
(lp2229
S':'
asbag68
(g89
g70
NtRp2230
(dp2231
g73
(dp2232
sg82
g2218
sg75
(lp2233
g68
(g69
g70
NtRp2234
(dp2235
g73
(dp2236
g81
I4
ssg82
g2230
sg75
(lp2237
g1091
asbasbasbag68
(g84
g70
NtRp2238
(dp2239
g73
(dp2240
sg82
g2193
sg75
(lp2241
g68
(g89
g70
NtRp2242
(dp2243
g73
(dp2244
g93
g94
ssg82
g2238
sg75
(lp2245
g1100
asbag68
(g89
g70
NtRp2246
(dp2247
g73
(dp2248
g100
g101
ssg82
g2238
sg75
(lp2249
S':'
asbag68
(g89
g70
NtRp2250
(dp2251
g73
(dp2252
sg82
g2238
sg75
(lp2253
g68
(g69
g70
NtRp2254
(dp2255
g73
(dp2256
g81
I4
ssg82
g2250
sg75
(lp2257
g68
(g77
g70
NtRp2258
(dp2259
g73
(dp2260
g81
I3
ssg82
Nsg75
(lp2261
sbasbasbasbag68
(g84
g70
NtRp2262
(dp2263
g73
(dp2264
sg82
g2193
sg75
(lp2265
g68
(g89
g70
NtRp2266
(dp2267
g73
(dp2268
g93
g94
ssg82
g2262
sg75
(lp2269
g1125
asbag68
(g89
g70
NtRp2270
(dp2271
g73
(dp2272
g100
g101
ssg82
g2262
sg75
(lp2273
S':'
asbag68
(g89
g70
NtRp2274
(dp2275
g73
(dp2276
sg82
g2262
sg75
(lp2277
g68
(g69
g70
NtRp2278
(dp2279
g73
(dp2280
g81
I4
ssg82
g2274
sg75
(lp2281
S"<Values at 0xa6c3dac: {'verbose': False, 'ip': '127.0.0.1', 'with_scheduler': False, 'ips': [], 'shutdown_timeout': 5, 'taskbar': False, 'port': 8000, 'maxthreads': None, 'softcron': False, 'server_name': 'nazrul-Compaq-Presario-CQ40-Notebook-PC', 'bpython': False, 'nogui': False, 'pid_filename': 'httpserver.pid', 'extcron': False, 'runcron': False, 'run_system_tests': False, 'test': None, 'folder': '/home/nazrul/web2py', 'config': '', 'import_models': False, 'winservice': '', 'shell': None, 'run': '', 'log_filename': 'httpserver.log', 'debuglevel': 30, 'args': [''], 'socket_timeout': 5, 'ssl_ca_certificate': None, 'scheduler': None, 'profiler_filename': None, 'ssl_private_key': '', 'scheduler_groups': None, 'password': '<ask>', 'request_queue_size': 5, 'ssl_certificate': '', 'cronjob': False, 'numthreads': None, 'quiet': False, 'interfaces': None, 'minthreads': None, 'timeout': 10, 'plain': False, 'nobanner': False}>"
p2282
asbasbasbag68
(g84
g70
NtRp2283
(dp2284
g73
(dp2285
sg82
g2193
sg75
(lp2286
g68
(g89
g70
NtRp2287
(dp2288
g73
(dp2289
g93
g94
ssg82
g2283
sg75
(lp2290
g1147
asbag68
(g89
g70
NtRp2291
(dp2292
g73
(dp2293
g100
g101
ssg82
g2283
sg75
(lp2294
S':'
asbag68
(g89
g70
NtRp2295
(dp2296
g73
(dp2297
sg82
g2283
sg75
(lp2298
g68
(g69
g70
NtRp2299
(dp2300
g73
(dp2301
g81
I4
ssg82
g2295
sg75
(lp2302
S'set([])'
p2303
asbasbasbag68
(g84
g70
NtRp2304
(dp2305
g73
(dp2306
sg82
g2193
sg75
(lp2307
g68
(g89
g70
NtRp2308
(dp2309
g73
(dp2310
g93
g94
ssg82
g2304
sg75
(lp2311
g1169
asbag68
(g89
g70
NtRp2312
(dp2313
g73
(dp2314
g100
g101
ssg82
g2304
sg75
(lp2315
S':'
asbag68
(g89
g70
NtRp2316
(dp2317
g73
(dp2318
sg82
g2304
sg75
(lp2319
g68
(g69
g70
NtRp2320
(dp2321
g73
(dp2322
g81
I4
ssg82
g2316
sg75
(lp2323
g111
asbasbasbag68
(g84
g70
NtRp2324
(dp2325
g73
(dp2326
sg82
g2193
sg75
(lp2327
g68
(g89
g70
NtRp2328
(dp2329
g73
(dp2330
g93
g94
ssg82
g2324
sg75
(lp2331
g1190
asbag68
(g89
g70
NtRp2332
(dp2333
g73
(dp2334
g100
g101
ssg82
g2324
sg75
(lp2335
S':'
asbag68
(g89
g70
NtRp2336
(dp2337
g73
(dp2338
sg82
g2324
sg75
(lp2339
g68
(g69
g70
NtRp2340
(dp2341
g73
(dp2342
g81
I4
ssg82
g2336
sg75
(lp2343
g1203
asbasbasbag68
(g84
g70
NtRp2344
(dp2345
g73
(dp2346
sg82
g2193
sg75
(lp2347
g68
(g89
g70
NtRp2348
(dp2349
g73
(dp2350
g93
g94
ssg82
g2344
sg75
(lp2351
g1410
asbag68
(g89
g70
NtRp2352
(dp2353
g73
(dp2354
g100
g101
ssg82
g2344
sg75
(lp2355
S':'
asbag68
(g89
g70
NtRp2356
(dp2357
g73
(dp2358
sg82
g2344
sg75
(lp2359
g68
(g69
g70
NtRp2360
(dp2361
g73
(dp2362
g81
I4
ssg82
g2356
sg75
(lp2363
g111
asbasbasbag68
(g84
g70
NtRp2364
(dp2365
g73
(dp2366
sg82
g2193
sg75
(lp2367
g68
(g89
g70
NtRp2368
(dp2369
g73
(dp2370
g93
g94
ssg82
g2364
sg75
(lp2371
g1431
asbag68
(g89
g70
NtRp2372
(dp2373
g73
(dp2374
g100
g101
ssg82
g2364
sg75
(lp2375
S':'
asbag68
(g89
g70
NtRp2376
(dp2377
g73
(dp2378
sg82
g2364
sg75
(lp2379
g68
(g69
g70
NtRp2380
(dp2381
g73
(dp2382
g81
I4
ssg82
g2376
sg75
(lp2383
g111
asbasbasbag68
(g84
g70
NtRp2384
(dp2385
g73
(dp2386
sg82
g2193
sg75
(lp2387
g68
(g89
g70
NtRp2388
(dp2389
g73
(dp2390
g93
g94
ssg82
g2384
sg75
(lp2391
g1452
asbag68
(g89
g70
NtRp2392
(dp2393
g73
(dp2394
g100
g101
ssg82
g2384
sg75
(lp2395
S':'
asbag68
(g89
g70
NtRp2396
(dp2397
g73
(dp2398
sg82
g2384
sg75
(lp2399
g68
(g69
g70
NtRp2400
(dp2401
g73
(dp2402
g81
I4
ssg82
g2396
sg75
(lp2403
g68
(g77
g70
NtRp2404
(dp2405
g73
(dp2406
g81
I3
ssg82
Nsg75
(lp2407
g68
(g84
g70
NtRp2408
(dp2409
g73
(dp2410
sg82
g2404
sg75
(lp2411
g68
(g89
g70
NtRp2412
(dp2413
g73
(dp2414
sg82
g2408
sg75
(lp2415
g68
(g69
g70
NtRp2416
(dp2417
g73
(dp2418
g81
I3
ssg82
g2412
sg75
(lp2419
g1481
asbasbasbag68
(g84
g70
NtRp2420
(dp2421
g73
(dp2422
sg82
g2404
sg75
(lp2423
g68
(g89
g70
NtRp2424
(dp2425
g73
(dp2426
sg82
g2420
sg75
(lp2427
g68
(g69
g70
NtRp2428
(dp2429
g73
(dp2430
g81
I3
ssg82
g2424
sg75
(lp2431
g1494
asbasbasbag68
(g84
g70
NtRp2432
(dp2433
g73
(dp2434
sg82
g2404
sg75
(lp2435
g68
(g89
g70
NtRp2436
(dp2437
g73
(dp2438
sg82
g2432
sg75
(lp2439
g68
(g69
g70
NtRp2440
(dp2441
g73
(dp2442
g81
I3
ssg82
g2436
sg75
(lp2443
g1507
asbasbasbag68
(g84
g70
NtRp2444
(dp2445
g73
(dp2446
sg82
g2404
sg75
(lp2447
g68
(g89
g70
NtRp2448
(dp2449
g73
(dp2450
sg82
g2444
sg75
(lp2451
g68
(g69
g70
NtRp2452
(dp2453
g73
(dp2454
g81
I3
ssg82
g2448
sg75
(lp2455
g1520
asbasbasbag68
(g84
g70
NtRp2456
(dp2457
g73
(dp2458
sg82
g2404
sg75
(lp2459
g68
(g89
g70
NtRp2460
(dp2461
g73
(dp2462
sg82
g2456
sg75
(lp2463
g68
(g69
g70
NtRp2464
(dp2465
g73
(dp2466
g81
I3
ssg82
g2460
sg75
(lp2467
g1533
asbasbasbasbasbasbasbag68
(g84
g70
NtRp2468
(dp2469
g73
(dp2470
sg82
g2193
sg75
(lp2471
g68
(g89
g70
NtRp2472
(dp2473
g73
(dp2474
g93
g94
ssg82
g2468
sg75
(lp2475
g1801
asbag68
(g89
g70
NtRp2476
(dp2477
g73
(dp2478
g100
g101
ssg82
g2468
sg75
(lp2479
S':'
asbag68
(g89
g70
NtRp2480
(dp2481
g73
(dp2482
sg82
g2468
sg75
(lp2483
g68
(g69
g70
NtRp2484
(dp2485
g73
(dp2486
g81
I4
ssg82
g2480
sg75
(lp2487
g68
(g77
g70
NtRp2488
(dp2489
g73
(dp2490
g81
I3
ssg82
Nsg75
(lp2491
g68
(g84
g70
NtRp2492
(dp2493
g73
(dp2494
sg82
g2488
sg75
(lp2495
g68
(g89
g70
NtRp2496
(dp2497
g73
(dp2498
sg82
g2492
sg75
(lp2499
g68
(g69
g70
NtRp2500
(dp2501
g73
(dp2502
g81
I3
ssg82
g2496
sg75
(lp2503
S'2'
asbasbasbag68
(g84
g70
NtRp2504
(dp2505
g73
(dp2506
sg82
g2488
sg75
(lp2507
g68
(g89
g70
NtRp2508
(dp2509
g73
(dp2510
sg82
g2504
sg75
(lp2511
g68
(g69
g70
NtRp2512
(dp2513
g73
(dp2514
g81
I3
ssg82
g2508
sg75
(lp2515
S'3'
asbasbasbag68
(g84
g70
NtRp2516
(dp2517
g73
(dp2518
sg82
g2488
sg75
(lp2519
g68
(g89
g70
NtRp2520
(dp2521
g73
(dp2522
sg82
g2516
sg75
(lp2523
g68
(g69
g70
NtRp2524
(dp2525
g73
(dp2526
g81
I3
ssg82
g2520
sg75
(lp2527
S'2'
asbasbasbag68
(g84
g70
NtRp2528
(dp2529
g73
(dp2530
sg82
g2488
sg75
(lp2531
g68
(g89
g70
NtRp2532
(dp2533
g73
(dp2534
sg82
g2528
sg75
(lp2535
g68
(g69
g70
NtRp2536
(dp2537
g73
(dp2538
g81
I3
ssg82
g2532
sg75
(lp2539
S'datetime.datetime(2012, 12, 17, 15, 3, 30)'
p2540
asbasbasbag68
(g84
g70
NtRp2541
(dp2542
g73
(dp2543
sg82
g2488
sg75
(lp2544
g68
(g89
g70
NtRp2545
(dp2546
g73
(dp2547
sg82
g2541
sg75
(lp2548
g68
(g69
g70
NtRp2549
(dp2550
g73
(dp2551
g81
I3
ssg82
g2545
sg75
(lp2552
g1879
asbasbasbasbasbasbasbasbasbasbasbag68
(g84
g70
NtRp2553
(dp2554
g73
(dp2555
sg82
g78
sg75
(lp2556
g68
(g89
g70
NtRp2557
(dp2558
g73
(dp2559
g93
g94
ssg82
g2553
sg75
(lp2560
S'is_https'
p2561
asbag68
(g89
g70
NtRp2562
(dp2563
g73
(dp2564
g100
g101
ssg82
g2553
sg75
(lp2565
S':'
asbag68
(g89
g70
NtRp2566
(dp2567
g73
(dp2568
sg82
g2553
sg75
(lp2569
g68
(g69
g70
NtRp2570
(dp2571
g73
(dp2572
g81
I5
ssg82
g2566
sg75
(lp2573
g111
asbasbasbag68
(g84
g70
NtRp2574
(dp2575
g73
(dp2576
sg82
g78
sg75
(lp2577
g68
(g89
g70
NtRp2578
(dp2579
g73
(dp2580
g93
g94
ssg82
g2574
sg75
(lp2581
S'is_local'
p2582
asbag68
(g89
g70
NtRp2583
(dp2584
g73
(dp2585
g100
g101
ssg82
g2574
sg75
(lp2586
S':'
asbag68
(g89
g70
NtRp2587
(dp2588
g73
(dp2589
sg82
g2574
sg75
(lp2590
g68
(g69
g70
NtRp2591
(dp2592
g73
(dp2593
g81
I5
ssg82
g2587
sg75
(lp2594
g1988
asbasbasbag68
(g84
g70
NtRp2595
(dp2596
g73
(dp2597
sg82
g78
sg75
(lp2598
g68
(g89
g70
NtRp2599
(dp2600
g73
(dp2601
g93
g94
ssg82
g2595
sg75
(lp2602
S'is_restful'
p2603
asbag68
(g89
g70
NtRp2604
(dp2605
g73
(dp2606
g100
g101
ssg82
g2595
sg75
(lp2607
S':'
asbag68
(g89
g70
NtRp2608
(dp2609
g73
(dp2610
sg82
g2595
sg75
(lp2611
g68
(g69
g70
NtRp2612
(dp2613
g73
(dp2614
g81
I5
ssg82
g2608
sg75
(lp2615
g111
asbasbasbag68
(g84
g70
NtRp2616
(dp2617
g73
(dp2618
sg82
g78
sg75
(lp2619
g68
(g89
g70
NtRp2620
(dp2621
g73
(dp2622
g93
g94
ssg82
g2616
sg75
(lp2623
S'now'
p2624
asbag68
(g89
g70
NtRp2625
(dp2626
g73
(dp2627
g100
g101
ssg82
g2616
sg75
(lp2628
S':'
asbag68
(g89
g70
NtRp2629
(dp2630
g73
(dp2631
sg82
g2616
sg75
(lp2632
g68
(g69
g70
NtRp2633
(dp2634
g73
(dp2635
g81
I5
ssg82
g2629
sg75
(lp2636
S'datetime.datetime(2013, 3, 1, 22, 55, 44, 753654)'
p2637
asbasbasbag68
(g84
g70
NtRp2638
(dp2639
g73
(dp2640
sg82
g78
sg75
(lp2641
g68
(g89
g70
NtRp2642
(dp2643
g73
(dp2644
g93
g94
ssg82
g2638
sg75
(lp2645
S'post_vars'
p2646
asbag68
(g89
g70
NtRp2647
(dp2648
g73
(dp2649
g100
g101
ssg82
g2638
sg75
(lp2650
S':'
asbag68
(g89
g70
NtRp2651
(dp2652
g73
(dp2653
sg82
g2638
sg75
(lp2654
g68
(g69
g70
NtRp2655
(dp2656
g73
(dp2657
g81
I5
ssg82
g2651
sg75
(lp2658
g68
(g77
g70
NtRp2659
(dp2660
g73
(dp2661
g81
I4
ssg82
Nsg75
(lp2662
sbasbasbasbag68
(g84
g70
NtRp2663
(dp2664
g73
(dp2665
sg82
g78
sg75
(lp2666
g68
(g89
g70
NtRp2667
(dp2668
g73
(dp2669
g93
g94
ssg82
g2663
sg75
(lp2670
S'raw_args'
p2671
asbag68
(g89
g70
NtRp2672
(dp2673
g73
(dp2674
g100
g101
ssg82
g2663
sg75
(lp2675
S':'
asbag68
(g89
g70
NtRp2676
(dp2677
g73
(dp2678
sg82
g2663
sg75
(lp2679
g68
(g69
g70
NtRp2680
(dp2681
g73
(dp2682
g81
I5
ssg82
g2676
sg75
(lp2683
S''
asbasbasbag68
(g84
g70
NtRp2684
(dp2685
g73
(dp2686
sg82
g78
sg75
(lp2687
g68
(g89
g70
NtRp2688
(dp2689
g73
(dp2690
g93
g94
ssg82
g2684
sg75
(lp2691
S'raw_extension'
p2692
asbag68
(g89
g70
NtRp2693
(dp2694
g73
(dp2695
g100
g101
ssg82
g2684
sg75
(lp2696
S':'
asbag68
(g89
g70
NtRp2697
(dp2698
g73
(dp2699
sg82
g2684
sg75
(lp2700
g68
(g69
g70
NtRp2701
(dp2702
g73
(dp2703
g81
I5
ssg82
g2697
sg75
(lp2704
S'None'
p2705
asbasbasbag68
(g84
g70
NtRp2706
(dp2707
g73
(dp2708
sg82
g78
sg75
(lp2709
g68
(g89
g70
NtRp2710
(dp2711
g73
(dp2712
g93
g94
ssg82
g2706
sg75
(lp2713
S'url'
p2714
asbag68
(g89
g70
NtRp2715
(dp2716
g73
(dp2717
g100
g101
ssg82
g2706
sg75
(lp2718
S':'
asbag68
(g89
g70
NtRp2719
(dp2720
g73
(dp2721
sg82
g2706
sg75
(lp2722
g68
(g69
g70
NtRp2723
(dp2724
g73
(dp2725
g81
I5
ssg82
g2719
sg75
(lp2726
g1555
asbasbasbag68
(g84
g70
NtRp2727
(dp2728
g73
(dp2729
sg82
g78
sg75
(lp2730
g68
(g89
g70
NtRp2731
(dp2732
g73
(dp2733
g93
g94
ssg82
g2727
sg75
(lp2734
S'utcnow'
p2735
asbag68
(g89
g70
NtRp2736
(dp2737
g73
(dp2738
g100
g101
ssg82
g2727
sg75
(lp2739
S':'
asbag68
(g89
g70
NtRp2740
(dp2741
g73
(dp2742
sg82
g2727
sg75
(lp2743
g68
(g69
g70
NtRp2744
(dp2745
g73
(dp2746
g81
I5
ssg82
g2740
sg75
(lp2747
S'datetime.datetime(2013, 3, 1, 17, 25, 44, 753694)'
p2748
asbasbasbag68
(g84
g70
NtRp2749
(dp2750
g73
(dp2751
sg82
g78
sg75
(lp2752
g68
(g89
g70
NtRp2753
(dp2754
g73
(dp2755
g93
g94
ssg82
g2749
sg75
(lp2756
S'uuid'
p2757
asbag68
(g89
g70
NtRp2758
(dp2759
g73
(dp2760
g100
g101
ssg82
g2749
sg75
(lp2761
S':'
asbag68
(g89
g70
NtRp2762
(dp2763
g73
(dp2764
sg82
g2749
sg75
(lp2765
g68
(g69
g70
NtRp2766
(dp2767
g73
(dp2768
g81
I5
ssg82
g2762
sg75
(lp2769
S'images1/127.0.0.1.2013-03-01.22-55-44.3f921bbb-4ce4-415d-9e5b-0030a5c0a89d'
p2770
asbasbasbag68
(g84
g70
NtRp2771
(dp2772
g73
(dp2773
sg82
g78
sg75
(lp2774
g68
(g89
g70
NtRp2775
(dp2776
g73
(dp2777
g93
g94
ssg82
g2771
sg75
(lp2778
S'vars'
p2779
asbag68
(g89
g70
NtRp2780
(dp2781
g73
(dp2782
g100
g101
ssg82
g2771
sg75
(lp2783
S':'
asbag68
(g89
g70
NtRp2784
(dp2785
g73
(dp2786
sg82
g2771
sg75
(lp2787
g68
(g69
g70
NtRp2788
(dp2789
g73
(dp2790
g81
I5
ssg82
g2784
sg75
(lp2791
g68
(g77
g70
NtRp2792
(dp2793
g73
(dp2794
g81
I4
ssg82
Nsg75
(lp2795
sbasbasbasbag68
(g84
g70
NtRp2796
(dp2797
g73
(dp2798
sg82
g78
sg75
(lp2799
g68
(g89
g70
NtRp2800
(dp2801
g73
(dp2802
g93
g94
ssg82
g2796
sg75
(lp2803
S'wsgi'
p2804
asbag68
(g89
g70
NtRp2805
(dp2806
g73
(dp2807
g100
g101
ssg82
g2796
sg75
(lp2808
S':'
asbag68
(g89
g70
NtRp2809
(dp2810
g73
(dp2811
sg82
g2796
sg75
(lp2812
g68
(g69
g70
NtRp2813
(dp2814
g73
(dp2815
g81
I5
ssg82
g2809
sg75
(lp2816
g68
(g77
g70
NtRp2817
(dp2818
g73
(dp2819
g81
I4
ssg82
Nsg75
(lp2820
g68
(g84
g70
NtRp2821
(dp2822
g73
(dp2823
sg82
g2817
sg75
(lp2824
g68
(g89
g70
NtRp2825
(dp2826
g73
(dp2827
g93
g94
ssg82
g2821
sg75
(lp2828
S'environ'
p2829
asbag68
(g89
g70
NtRp2830
(dp2831
g73
(dp2832
g100
g101
ssg82
g2821
sg75
(lp2833
S':'
asbag68
(g89
g70
NtRp2834
(dp2835
g73
(dp2836
sg82
g2821
sg75
(lp2837
g68
(g69
g70
NtRp2838
(dp2839
g73
(dp2840
g81
I4
ssg82
g2834
sg75
(lp2841
g68
(g77
g70
NtRp2842
(dp2843
g73
(dp2844
g81
I3
ssg82
Nsg75
(lp2845
g68
(g84
g70
NtRp2846
(dp2847
g73
(dp2848
sg82
g2842
sg75
(lp2849
g68
(g89
g70
NtRp2850
(dp2851
g73
(dp2852
g93
g94
ssg82
g2846
sg75
(lp2853
S'HTTP_ACCEPT'
p2854
asbag68
(g89
g70
NtRp2855
(dp2856
g73
(dp2857
g100
g101
ssg82
g2846
sg75
(lp2858
S':'
asbag68
(g89
g70
NtRp2859
(dp2860
g73
(dp2861
sg82
g2846
sg75
(lp2862
g68
(g69
g70
NtRp2863
(dp2864
g73
(dp2865
g81
I3
ssg82
g2859
sg75
(lp2866
g1225
asbasbasbag68
(g84
g70
NtRp2867
(dp2868
g73
(dp2869
sg82
g2842
sg75
(lp2870
g68
(g89
g70
NtRp2871
(dp2872
g73
(dp2873
g93
g94
ssg82
g2867
sg75
(lp2874
S'HTTP_ACCEPT_ENCODING'
p2875
asbag68
(g89
g70
NtRp2876
(dp2877
g73
(dp2878
g100
g101
ssg82
g2867
sg75
(lp2879
S':'
asbag68
(g89
g70
NtRp2880
(dp2881
g73
(dp2882
sg82
g2867
sg75
(lp2883
g68
(g69
g70
NtRp2884
(dp2885
g73
(dp2886
g81
I3
ssg82
g2880
sg75
(lp2887
g1247
asbasbasbag68
(g84
g70
NtRp2888
(dp2889
g73
(dp2890
sg82
g2842
sg75
(lp2891
g68
(g89
g70
NtRp2892
(dp2893
g73
(dp2894
g93
g94
ssg82
g2888
sg75
(lp2895
S'HTTP_ACCEPT_LANGUAGE'
p2896
asbag68
(g89
g70
NtRp2897
(dp2898
g73
(dp2899
g100
g101
ssg82
g2888
sg75
(lp2900
S':'
asbag68
(g89
g70
NtRp2901
(dp2902
g73
(dp2903
sg82
g2888
sg75
(lp2904
g68
(g69
g70
NtRp2905
(dp2906
g73
(dp2907
g81
I3
ssg82
g2901
sg75
(lp2908
g1269
asbasbasbag68
(g84
g70
NtRp2909
(dp2910
g73
(dp2911
sg82
g2842
sg75
(lp2912
g68
(g89
g70
NtRp2913
(dp2914
g73
(dp2915
g93
g94
ssg82
g2909
sg75
(lp2916
S'HTTP_CACHE_CONTROL'
p2917
asbag68
(g89
g70
NtRp2918
(dp2919
g73
(dp2920
g100
g101
ssg82
g2909
sg75
(lp2921
S':'
asbag68
(g89
g70
NtRp2922
(dp2923
g73
(dp2924
sg82
g2909
sg75
(lp2925
g68
(g69
g70
NtRp2926
(dp2927
g73
(dp2928
g81
I3
ssg82
g2922
sg75
(lp2929
g1291
asbasbasbag68
(g84
g70
NtRp2930
(dp2931
g73
(dp2932
sg82
g2842
sg75
(lp2933
g68
(g89
g70
NtRp2934
(dp2935
g73
(dp2936
g93
g94
ssg82
g2930
sg75
(lp2937
S'HTTP_CONNECTION'
p2938
asbag68
(g89
g70
NtRp2939
(dp2940
g73
(dp2941
g100
g101
ssg82
g2930
sg75
(lp2942
S':'
asbag68
(g89
g70
NtRp2943
(dp2944
g73
(dp2945
sg82
g2930
sg75
(lp2946
g68
(g69
g70
NtRp2947
(dp2948
g73
(dp2949
g81
I3
ssg82
g2943
sg75
(lp2950
g1313
asbasbasbag68
(g84
g70
NtRp2951
(dp2952
g73
(dp2953
sg82
g2842
sg75
(lp2954
g68
(g89
g70
NtRp2955
(dp2956
g73
(dp2957
g93
g94
ssg82
g2951
sg75
(lp2958
S'HTTP_COOKIE'
p2959
asbag68
(g89
g70
NtRp2960
(dp2961
g73
(dp2962
g100
g101
ssg82
g2951
sg75
(lp2963
S':'
asbag68
(g89
g70
NtRp2964
(dp2965
g73
(dp2966
sg82
g2951
sg75
(lp2967
g68
(g69
g70
NtRp2968
(dp2969
g73
(dp2970
g81
I3
ssg82
g2964
sg75
(lp2971
g1335
asbasbasbag68
(g84
g70
NtRp2972
(dp2973
g73
(dp2974
sg82
g2842
sg75
(lp2975
g68
(g89
g70
NtRp2976
(dp2977
g73
(dp2978
g93
g94
ssg82
g2972
sg75
(lp2979
S'HTTP_HOST'
p2980
asbag68
(g89
g70
NtRp2981
(dp2982
g73
(dp2983
g100
g101
ssg82
g2972
sg75
(lp2984
S':'
asbag68
(g89
g70
NtRp2985
(dp2986
g73
(dp2987
sg82
g2972
sg75
(lp2988
g68
(g69
g70
NtRp2989
(dp2990
g73
(dp2991
g81
I3
ssg82
g2985
sg75
(lp2992
g1357
asbasbasbag68
(g84
g70
NtRp2993
(dp2994
g73
(dp2995
sg82
g2842
sg75
(lp2996
g68
(g89
g70
NtRp2997
(dp2998
g73
(dp2999
g93
g94
ssg82
g2993
sg75
(lp3000
S'HTTP_REFERER'
p3001
asbag68
(g89
g70
NtRp3002
(dp3003
g73
(dp3004
g100
g101
ssg82
g2993
sg75
(lp3005
S':'
asbag68
(g89
g70
NtRp3006
(dp3007
g73
(dp3008
sg82
g2993
sg75
(lp3009
g68
(g69
g70
NtRp3010
(dp3011
g73
(dp3012
g81
I3
ssg82
g3006
sg75
(lp3013
g1379
asbasbasbag68
(g84
g70
NtRp3014
(dp3015
g73
(dp3016
sg82
g2842
sg75
(lp3017
g68
(g89
g70
NtRp3018
(dp3019
g73
(dp3020
g93
g94
ssg82
g3014
sg75
(lp3021
S'HTTP_USER_AGENT'
p3022
asbag68
(g89
g70
NtRp3023
(dp3024
g73
(dp3025
g100
g101
ssg82
g3014
sg75
(lp3026
S':'
asbag68
(g89
g70
NtRp3027
(dp3028
g73
(dp3029
sg82
g3014
sg75
(lp3030
g68
(g69
g70
NtRp3031
(dp3032
g73
(dp3033
g81
I3
ssg82
g3027
sg75
(lp3034
g1401
asbasbasbag68
(g84
g70
NtRp3035
(dp3036
g73
(dp3037
sg82
g2842
sg75
(lp3038
g68
(g89
g70
NtRp3039
(dp3040
g73
(dp3041
g93
g94
ssg82
g3035
sg75
(lp3042
S'PATH_INFO'
p3043
asbag68
(g89
g70
NtRp3044
(dp3045
g73
(dp3046
g100
g101
ssg82
g3035
sg75
(lp3047
S':'
asbag68
(g89
g70
NtRp3048
(dp3049
g73
(dp3050
sg82
g3035
sg75
(lp3051
g68
(g69
g70
NtRp3052
(dp3053
g73
(dp3054
g81
I3
ssg82
g3048
sg75
(lp3055
g1555
asbasbasbag68
(g84
g70
NtRp3056
(dp3057
g73
(dp3058
sg82
g2842
sg75
(lp3059
g68
(g89
g70
NtRp3060
(dp3061
g73
(dp3062
g93
g94
ssg82
g3056
sg75
(lp3063
S'QUERY_STRING'
p3064
asbag68
(g89
g70
NtRp3065
(dp3066
g73
(dp3067
g100
g101
ssg82
g3056
sg75
(lp3068
S':'
asbag68
(g89
g70
NtRp3069
(dp3070
g73
(dp3071
sg82
g3056
sg75
(lp3072
g68
(g69
g70
NtRp3073
(dp3074
g73
(dp3075
g81
I3
ssg82
g3069
sg75
(lp3076
S''
asbasbasbag68
(g84
g70
NtRp3077
(dp3078
g73
(dp3079
sg82
g2842
sg75
(lp3080
g68
(g89
g70
NtRp3081
(dp3082
g73
(dp3083
g93
g94
ssg82
g3077
sg75
(lp3084
S'REMOTE_ADDR'
p3085
asbag68
(g89
g70
NtRp3086
(dp3087
g73
(dp3088
g100
g101
ssg82
g3077
sg75
(lp3089
S':'
asbag68
(g89
g70
NtRp3090
(dp3091
g73
(dp3092
sg82
g3077
sg75
(lp3093
g68
(g69
g70
NtRp3094
(dp3095
g73
(dp3096
g81
I3
ssg82
g3090
sg75
(lp3097
g223
asbasbasbag68
(g84
g70
NtRp3098
(dp3099
g73
(dp3100
sg82
g2842
sg75
(lp3101
g68
(g89
g70
NtRp3102
(dp3103
g73
(dp3104
g93
g94
ssg82
g3098
sg75
(lp3105
S'REMOTE_PORT'
p3106
asbag68
(g89
g70
NtRp3107
(dp3108
g73
(dp3109
g100
g101
ssg82
g3098
sg75
(lp3110
S':'
asbag68
(g89
g70
NtRp3111
(dp3112
g73
(dp3113
sg82
g3098
sg75
(lp3114
g68
(g69
g70
NtRp3115
(dp3116
g73
(dp3117
g81
I3
ssg82
g3111
sg75
(lp3118
g1619
asbasbasbag68
(g84
g70
NtRp3119
(dp3120
g73
(dp3121
sg82
g2842
sg75
(lp3122
g68
(g89
g70
NtRp3123
(dp3124
g73
(dp3125
g93
g94
ssg82
g3119
sg75
(lp3126
S'REQUEST_METHOD'
p3127
asbag68
(g89
g70
NtRp3128
(dp3129
g73
(dp3130
g100
g101
ssg82
g3119
sg75
(lp3131
S':'
asbag68
(g89
g70
NtRp3132
(dp3133
g73
(dp3134
sg82
g3119
sg75
(lp3135
g68
(g69
g70
NtRp3136
(dp3137
g73
(dp3138
g81
I3
ssg82
g3132
sg75
(lp3139
g1641
asbasbasbag68
(g84
g70
NtRp3140
(dp3141
g73
(dp3142
sg82
g2842
sg75
(lp3143
g68
(g89
g70
NtRp3144
(dp3145
g73
(dp3146
g93
g94
ssg82
g3140
sg75
(lp3147
S'REQUEST_URI'
p3148
asbag68
(g89
g70
NtRp3149
(dp3150
g73
(dp3151
g100
g101
ssg82
g3140
sg75
(lp3152
S':'
asbag68
(g89
g70
NtRp3153
(dp3154
g73
(dp3155
sg82
g3140
sg75
(lp3156
g68
(g69
g70
NtRp3157
(dp3158
g73
(dp3159
g81
I3
ssg82
g3153
sg75
(lp3160
g1555
asbasbasbag68
(g84
g70
NtRp3161
(dp3162
g73
(dp3163
sg82
g2842
sg75
(lp3164
g68
(g89
g70
NtRp3165
(dp3166
g73
(dp3167
g93
g94
ssg82
g3161
sg75
(lp3168
S'SCRIPT_NAME'
p3169
asbag68
(g89
g70
NtRp3170
(dp3171
g73
(dp3172
g100
g101
ssg82
g3161
sg75
(lp3173
S':'
asbag68
(g89
g70
NtRp3174
(dp3175
g73
(dp3176
sg82
g3161
sg75
(lp3177
g68
(g69
g70
NtRp3178
(dp3179
g73
(dp3180
g81
I3
ssg82
g3174
sg75
(lp3181
S''
asbasbasbag68
(g84
g70
NtRp3182
(dp3183
g73
(dp3184
sg82
g2842
sg75
(lp3185
g68
(g89
g70
NtRp3186
(dp3187
g73
(dp3188
g93
g94
ssg82
g3182
sg75
(lp3189
S'SERVER_NAME'
p3190
asbag68
(g89
g70
NtRp3191
(dp3192
g73
(dp3193
g100
g101
ssg82
g3182
sg75
(lp3194
S':'
asbag68
(g89
g70
NtRp3195
(dp3196
g73
(dp3197
sg82
g3182
sg75
(lp3198
g68
(g69
g70
NtRp3199
(dp3200
g73
(dp3201
g81
I3
ssg82
g3195
sg75
(lp3202
g1705
asbasbasbag68
(g84
g70
NtRp3203
(dp3204
g73
(dp3205
sg82
g2842
sg75
(lp3206
g68
(g89
g70
NtRp3207
(dp3208
g73
(dp3209
g93
g94
ssg82
g3203
sg75
(lp3210
S'SERVER_PORT'
p3211
asbag68
(g89
g70
NtRp3212
(dp3213
g73
(dp3214
g100
g101
ssg82
g3203
sg75
(lp3215
S':'
asbag68
(g89
g70
NtRp3216
(dp3217
g73
(dp3218
sg82
g3203
sg75
(lp3219
g68
(g69
g70
NtRp3220
(dp3221
g73
(dp3222
g81
I3
ssg82
g3216
sg75
(lp3223
g1727
asbasbasbag68
(g84
g70
NtRp3224
(dp3225
g73
(dp3226
sg82
g2842
sg75
(lp3227
g68
(g89
g70
NtRp3228
(dp3229
g73
(dp3230
g93
g94
ssg82
g3224
sg75
(lp3231
S'SERVER_PROTOCOL'
p3232
asbag68
(g89
g70
NtRp3233
(dp3234
g73
(dp3235
g100
g101
ssg82
g3224
sg75
(lp3236
S':'
asbag68
(g89
g70
NtRp3237
(dp3238
g73
(dp3239
sg82
g3224
sg75
(lp3240
g68
(g69
g70
NtRp3241
(dp3242
g73
(dp3243
g81
I3
ssg82
g3237
sg75
(lp3244
g1749
asbasbasbag68
(g84
g70
NtRp3245
(dp3246
g73
(dp3247
sg82
g2842
sg75
(lp3248
g68
(g89
g70
NtRp3249
(dp3250
g73
(dp3251
g93
g94
ssg82
g3245
sg75
(lp3252
S'SERVER_SOFTWARE'
p3253
asbag68
(g89
g70
NtRp3254
(dp3255
g73
(dp3256
g100
g101
ssg82
g3245
sg75
(lp3257
S':'
asbag68
(g89
g70
NtRp3258
(dp3259
g73
(dp3260
sg82
g3245
sg75
(lp3261
g68
(g69
g70
NtRp3262
(dp3263
g73
(dp3264
g81
I3
ssg82
g3258
sg75
(lp3265
g1771
asbasbasbag68
(g84
g70
NtRp3266
(dp3267
g73
(dp3268
sg82
g2842
sg75
(lp3269
g68
(g89
g70
NtRp3270
(dp3271
g73
(dp3272
g93
g94
ssg82
g3266
sg75
(lp3273
S'wsgi.errors'
p3274
asbag68
(g89
g70
NtRp3275
(dp3276
g73
(dp3277
g100
g101
ssg82
g3266
sg75
(lp3278
S':'
asbag68
(g89
g70
NtRp3279
(dp3280
g73
(dp3281
sg82
g3266
sg75
(lp3282
g68
(g69
g70
NtRp3283
(dp3284
g73
(dp3285
g81
I3
ssg82
g3279
sg75
(lp3286
S"<open file '<stderr>', mode 'w' at 0xb72cc0d0>"
p3287
asbasbasbag68
(g84
g70
NtRp3288
(dp3289
g73
(dp3290
sg82
g2842
sg75
(lp3291
g68
(g89
g70
NtRp3292
(dp3293
g73
(dp3294
g93
g94
ssg82
g3288
sg75
(lp3295
S'wsgi.file_wrapper'
p3296
asbag68
(g89
g70
NtRp3297
(dp3298
g73
(dp3299
g100
g101
ssg82
g3288
sg75
(lp3300
S':'
asbag68
(g89
g70
NtRp3301
(dp3302
g73
(dp3303
sg82
g3288
sg75
(lp3304
g68
(g69
g70
NtRp3305
(dp3306
g73
(dp3307
g81
I3
ssg82
g3301
sg75
(lp3308
S'<class wsgiref.util.FileWrapper at 0xa68805c>'
p3309
asbasbasbag68
(g84
g70
NtRp3310
(dp3311
g73
(dp3312
sg82
g2842
sg75
(lp3313
g68
(g89
g70
NtRp3314
(dp3315
g73
(dp3316
g93
g94
ssg82
g3310
sg75
(lp3317
S'wsgi.input'
p3318
asbag68
(g89
g70
NtRp3319
(dp3320
g73
(dp3321
g100
g101
ssg82
g3310
sg75
(lp3322
S':'
asbag68
(g89
g70
NtRp3323
(dp3324
g73
(dp3325
sg82
g3310
sg75
(lp3326
g68
(g69
g70
NtRp3327
(dp3328
g73
(dp3329
g81
I3
ssg82
g3323
sg75
(lp3330
S'<cStringIO.StringO object at 0xae431300>'
p3331
asbasbasbag68
(g84
g70
NtRp3332
(dp3333
g73
(dp3334
sg82
g2842
sg75
(lp3335
g68
(g89
g70
NtRp3336
(dp3337
g73
(dp3338
g93
g94
ssg82
g3332
sg75
(lp3339
S'wsgi.multiprocess'
p3340
asbag68
(g89
g70
NtRp3341
(dp3342
g73
(dp3343
g100
g101
ssg82
g3332
sg75
(lp3344
S':'
asbag68
(g89
g70
NtRp3345
(dp3346
g73
(dp3347
sg82
g3332
sg75
(lp3348
g68
(g69
g70
NtRp3349
(dp3350
g73
(dp3351
g81
I3
ssg82
g3345
sg75
(lp3352
g111
asbasbasbag68
(g84
g70
NtRp3353
(dp3354
g73
(dp3355
sg82
g2842
sg75
(lp3356
g68
(g89
g70
NtRp3357
(dp3358
g73
(dp3359
g93
g94
ssg82
g3353
sg75
(lp3360
S'wsgi.multithread'
p3361
asbag68
(g89
g70
NtRp3362
(dp3363
g73
(dp3364
g100
g101
ssg82
g3353
sg75
(lp3365
S':'
asbag68
(g89
g70
NtRp3366
(dp3367
g73
(dp3368
sg82
g3353
sg75
(lp3369
g68
(g69
g70
NtRp3370
(dp3371
g73
(dp3372
g81
I3
ssg82
g3366
sg75
(lp3373
g1988
asbasbasbag68
(g84
g70
NtRp3374
(dp3375
g73
(dp3376
sg82
g2842
sg75
(lp3377
g68
(g89
g70
NtRp3378
(dp3379
g73
(dp3380
g93
g94
ssg82
g3374
sg75
(lp3381
S'wsgi.run_once'
p3382
asbag68
(g89
g70
NtRp3383
(dp3384
g73
(dp3385
g100
g101
ssg82
g3374
sg75
(lp3386
S':'
asbag68
(g89
g70
NtRp3387
(dp3388
g73
(dp3389
sg82
g3374
sg75
(lp3390
g68
(g69
g70
NtRp3391
(dp3392
g73
(dp3393
g81
I3
ssg82
g3387
sg75
(lp3394
g111
asbasbasbag68
(g84
g70
NtRp3395
(dp3396
g73
(dp3397
sg82
g2842
sg75
(lp3398
g68
(g89
g70
NtRp3399
(dp3400
g73
(dp3401
g93
g94
ssg82
g3395
sg75
(lp3402
S'wsgi.url_scheme'
p3403
asbag68
(g89
g70
NtRp3404
(dp3405
g73
(dp3406
g100
g101
ssg82
g3395
sg75
(lp3407
S':'
asbag68
(g89
g70
NtRp3408
(dp3409
g73
(dp3410
sg82
g3395
sg75
(lp3411
g68
(g69
g70
NtRp3412
(dp3413
g73
(dp3414
g81
I3
ssg82
g3408
sg75
(lp3415
g2031
asbasbasbag68
(g84
g70
NtRp3416
(dp3417
g73
(dp3418
sg82
g2842
sg75
(lp3419
g68
(g89
g70
NtRp3420
(dp3421
g73
(dp3422
g93
g94
ssg82
g3416
sg75
(lp3423
S'wsgi.version'
p3424
asbag68
(g89
g70
NtRp3425
(dp3426
g73
(dp3427
g100
g101
ssg82
g3416
sg75
(lp3428
S':'
asbag68
(g89
g70
NtRp3429
(dp3430
g73
(dp3431
sg82
g3416
sg75
(lp3432
g68
(g69
g70
NtRp3433
(dp3434
g73
(dp3435
g81
I3
ssg82
g3429
sg75
(lp3436
S'1'
asbasbasbasbasbasbasbasbasbasbasbasbasbsS'frames'
p3437
(lp3438
(dp3439
S'file'
p3440
S'/home/nazrul/web2py/gluon/restricted.py'
p3441
sS'dump'
p3442
(dp3443
S'code'
p3444
S'\'db=DAL("sqlite://storage.sqlite")\\ndb.define_tabl...e_id.writable=db.comment.image_id.readable=False\\n\''
p3445
sS'layer'
p3446
S"'/home/nazrul/web2py/applications/images1/models/db.py'"
p3447
sS'global compile2'
p3448
S'<function compile2>'
p3449
sS'ccode'
p3450
S'undefined'
p3451
ssS'lnum'
p3452
I211
sS'lines'
p3453
(dp3454
I206
S"    environment['__name__'] = '__restricted__'"
p3455
sI207
S'    try:'
p3456
sI208
S'        if isinstance(code, types.CodeType):'
p3457
sI209
S'            ccode = code'
p3458
sI210
S'        else:'
p3459
sI211
S'            ccode = compile2(code, layer)'
p3460
sI212
S'        exec ccode in environment'
p3461
sI213
S'    except HTTP:'
p3462
sI214
S'        raise'
p3463
sI215
S'    except RestrictedError:'
p3464
ssS'call'
p3465
S'(code=\'db=DAL("sqlite://storage.sqlite")\\ndb.define_tabl...e_id.writable=db.comment.image_id.readable=False\\n\', environment={\'A\': <class \'gluon.html.A\'>, \'B\': <class \'gluon.html.B\'>, \'BEAUTIFY\': <class \'gluon.html.BEAUTIFY\'>, \'BODY\': <class \'gluon.html.BODY\'>, \'BR\': <class \'gluon.html.BR\'>, \'BUTTON\': <class \'gluon.html.BUTTON\'>, \'CAT\': <class \'gluon.html.CAT\'>, \'CENTER\': <class \'gluon.html.CENTER\'>, \'CLEANUP\': <class \'gluon.validators.CLEANUP\'>, \'CODE\': <class \'gluon.html.CODE\'>, ...}, layer=\'/home/nazrul/web2py/applications/images1/models/db.py\')'
p3466
sS'func'
p3467
S'restricted'
p3468
sa(dp3469
g3440
S'/home/nazrul/web2py/gluon/restricted.py'
p3470
sg3442
(dp3471
S'builtincompile'
p3472
S'<built-in function compile>'
p3473
sS'code'
p3474
S'\'db=DAL("sqlite://storage.sqlite")\\ndb.define_tabl...e_id.writable=db.comment.image_id.readable=False\\n\''
p3475
sS'code.rstrip'
p3476
S'<built-in method rstrip of str object>'
p3477
sS').replace'
p3478
g3451
sS'layer'
p3479
S"'/home/nazrul/web2py/applications/images1/models/db.py'"
p3480
ssg3452
I194
sg3453
(dp3481
I192
S"    The +'\\n' is necessary else compile fails when code ends in a comment."
p3482
sI193
S'    """'
p3483
sI194
S"    return compile(code.rstrip().replace('\\r\\n', '\\n') + '\\n', layer, 'exec')"
p3484
sI195
S''
sI196
S''
sI197
S"def restricted(code, environment=None, layer='Unknown'):"
p3485
sI198
S'    """'
p3486
sI189
S''
sI190
S'def compile2(code, layer):'
p3487
sI191
S'    """'
p3488
ssg3465
S'(code=\'db=DAL("sqlite://storage.sqlite")\\ndb.define_tabl...e_id.writable=db.comment.image_id.readable=False\\n\', layer=\'/home/nazrul/web2py/applications/images1/models/db.py\')'
p3489
sg3467
S'compile2'
p3490
sasS'pyver'
p3491
S'Python 2.7.3: /usr/bin/python'
p3492
sS'session'
p3493
g68
(g69
g70
NtRp3494
(dp3495
g73
(dp3496
sg75
(lp3497
g68
(g77
g70
NtRp3498
(dp3499
g73
(dp3500
g81
I5
ssg82
Nsg75
(lp3501
g68
(g84
g70
NtRp3502
(dp3503
g73
(dp3504
sg82
g3498
sg75
(lp3505
g68
(g89
g70
NtRp3506
(dp3507
g73
(dp3508
g93
g94
ssg82
g3502
sg75
(lp3509
S'last_orderby'
p3510
asbag68
(g89
g70
NtRp3511
(dp3512
g73
(dp3513
g100
g101
ssg82
g3502
sg75
(lp3514
S':'
asbag68
(g89
g70
NtRp3515
(dp3516
g73
(dp3517
sg82
g3502
sg75
(lp3518
g68
(g69
g70
NtRp3519
(dp3520
g73
(dp3521
g81
I5
ssg82
g3515
sg75
(lp3522
S'None'
p3523
asbasbasbag68
(g84
g70
NtRp3524
(dp3525
g73
(dp3526
sg82
g3498
sg75
(lp3527
g68
(g89
g70
NtRp3528
(dp3529
g73
(dp3530
g93
g94
ssg82
g3524
sg75
(lp3531
S'last_query'
p3532
asbag68
(g89
g70
NtRp3533
(dp3534
g73
(dp3535
g100
g101
ssg82
g3524
sg75
(lp3536
S':'
asbag68
(g89
g70
NtRp3537
(dp3538
g73
(dp3539
sg82
g3524
sg75
(lp3540
g68
(g69
g70
NtRp3541
(dp3542
g73
(dp3543
g81
I5
ssg82
g3537
sg75
(lp3544
S'db.image.id>0'
p3545
asbasbasbasbasbsS'etype'
p3546
S"<type 'exceptions.SyntaxError'>"
p3547
sS'date'
p3548
S'Fri Mar  1 22:55:44 2013'
p3549
sS'response'
p3550
g68
(g69
g70
NtRp3551
(dp3552
g73
(dp3553
sg75
(lp3554
g68
(g77
g70
NtRp3555
(dp3556
g73
(dp3557
g81
I5
ssg82
Nsg75
(lp3558
g68
(g84
g70
NtRp3559
(dp3560
g73
(dp3561
sg82
g3555
sg75
(lp3562
g68
(g89
g70
NtRp3563
(dp3564
g73
(dp3565
g93
g94
ssg82
g3559
sg75
(lp3566
g166
asbag68
(g89
g70
NtRp3567
(dp3568
g73
(dp3569
g100
g101
ssg82
g3559
sg75
(lp3570
S':'
asbag68
(g89
g70
NtRp3571
(dp3572
g73
(dp3573
sg82
g3559
sg75
(lp3574
g68
(g69
g70
NtRp3575
(dp3576
g73
(dp3577
g81
I5
ssg82
g3571
sg75
(lp3578
S'<cStringIO.StringO object at 0xaba1f80>'
p3579
asbasbasbag68
(g84
g70
NtRp3580
(dp3581
g73
(dp3582
sg82
g3555
sg75
(lp3583
g68
(g89
g70
NtRp3584
(dp3585
g73
(dp3586
g93
g94
ssg82
g3580
sg75
(lp3587
g254
asbag68
(g89
g70
NtRp3588
(dp3589
g73
(dp3590
g100
g101
ssg82
g3580
sg75
(lp3591
S':'
asbag68
(g89
g70
NtRp3592
(dp3593
g73
(dp3594
sg82
g3580
sg75
(lp3595
g68
(g69
g70
NtRp3596
(dp3597
g73
(dp3598
g81
I5
ssg82
g3592
sg75
(lp3599
g68
(g77
g70
NtRp3600
(dp3601
g73
(dp3602
g81
I4
ssg82
Nsg75
(lp3603
g68
(g84
g70
NtRp3604
(dp3605
g73
(dp3606
sg82
g3600
sg75
(lp3607
g68
(g89
g70
NtRp3608
(dp3609
g73
(dp3610
g93
g94
ssg82
g3604
sg75
(lp3611
S'session_id_images1'
p3612
asbag68
(g89
g70
NtRp3613
(dp3614
g73
(dp3615
g100
g101
ssg82
g3604
sg75
(lp3616
S':'
asbag68
(g89
g70
NtRp3617
(dp3618
g73
(dp3619
sg82
g3604
sg75
(lp3620
g68
(g69
g70
NtRp3621
(dp3622
g73
(dp3623
g81
I4
ssg82
g3617
sg75
(lp3624
g672
ag68
(g77
g70
NtRp3625
(dp3626
g73
(dp3627
g81
I3
ssg82
Nsg75
(lp3628
g68
(g84
g70
NtRp3629
(dp3630
g73
(dp3631
sg82
g3625
sg75
(lp3632
g68
(g89
g70
NtRp3633
(dp3634
g73
(dp3635
g93
g94
ssg82
g3629
sg75
(lp3636
g305
asbag68
(g89
g70
NtRp3637
(dp3638
g73
(dp3639
g100
g101
ssg82
g3629
sg75
(lp3640
S':'
asbag68
(g89
g70
NtRp3641
(dp3642
g73
(dp3643
sg82
g3629
sg75
(lp3644
g68
(g69
g70
NtRp3645
(dp3646
g73
(dp3647
g81
I3
ssg82
g3641
sg75
(lp3648
S''
asbasbasbag68
(g84
g70
NtRp3649
(dp3650
g73
(dp3651
sg82
g3625
sg75
(lp3652
g68
(g89
g70
NtRp3653
(dp3654
g73
(dp3655
g93
g94
ssg82
g3649
sg75
(lp3656
g326
asbag68
(g89
g70
NtRp3657
(dp3658
g73
(dp3659
g100
g101
ssg82
g3649
sg75
(lp3660
S':'
asbag68
(g89
g70
NtRp3661
(dp3662
g73
(dp3663
sg82
g3649
sg75
(lp3664
g68
(g69
g70
NtRp3665
(dp3666
g73
(dp3667
g81
I3
ssg82
g3661
sg75
(lp3668
S''
asbasbasbag68
(g84
g70
NtRp3669
(dp3670
g73
(dp3671
sg82
g3625
sg75
(lp3672
g68
(g89
g70
NtRp3673
(dp3674
g73
(dp3675
g93
g94
ssg82
g3669
sg75
(lp3676
g347
asbag68
(g89
g70
NtRp3677
(dp3678
g73
(dp3679
g100
g101
ssg82
g3669
sg75
(lp3680
S':'
asbag68
(g89
g70
NtRp3681
(dp3682
g73
(dp3683
sg82
g3669
sg75
(lp3684
g68
(g69
g70
NtRp3685
(dp3686
g73
(dp3687
g81
I3
ssg82
g3681
sg75
(lp3688
S''
asbasbasbag68
(g84
g70
NtRp3689
(dp3690
g73
(dp3691
sg82
g3625
sg75
(lp3692
g68
(g89
g70
NtRp3693
(dp3694
g73
(dp3695
g93
g94
ssg82
g3689
sg75
(lp3696
g368
asbag68
(g89
g70
NtRp3697
(dp3698
g73
(dp3699
g100
g101
ssg82
g3689
sg75
(lp3700
S':'
asbag68
(g89
g70
NtRp3701
(dp3702
g73
(dp3703
sg82
g3689
sg75
(lp3704
g68
(g69
g70
NtRp3705
(dp3706
g73
(dp3707
g81
I3
ssg82
g3701
sg75
(lp3708
S''
asbasbasbag68
(g84
g70
NtRp3709
(dp3710
g73
(dp3711
sg82
g3625
sg75
(lp3712
g68
(g89
g70
NtRp3713
(dp3714
g73
(dp3715
g93
g94
ssg82
g3709
sg75
(lp3716
g389
asbag68
(g89
g70
NtRp3717
(dp3718
g73
(dp3719
g100
g101
ssg82
g3709
sg75
(lp3720
S':'
asbag68
(g89
g70
NtRp3721
(dp3722
g73
(dp3723
sg82
g3709
sg75
(lp3724
g68
(g69
g70
NtRp3725
(dp3726
g73
(dp3727
g81
I3
ssg82
g3721
sg75
(lp3728
S''
asbasbasbag68
(g84
g70
NtRp3729
(dp3730
g73
(dp3731
sg82
g3625
sg75
(lp3732
g68
(g89
g70
NtRp3733
(dp3734
g73
(dp3735
g93
g94
ssg82
g3729
sg75
(lp3736
g410
asbag68
(g89
g70
NtRp3737
(dp3738
g73
(dp3739
g100
g101
ssg82
g3729
sg75
(lp3740
S':'
asbag68
(g89
g70
NtRp3741
(dp3742
g73
(dp3743
sg82
g3729
sg75
(lp3744
g68
(g69
g70
NtRp3745
(dp3746
g73
(dp3747
g81
I3
ssg82
g3741
sg75
(lp3748
S'/'
asbasbasbag68
(g84
g70
NtRp3749
(dp3750
g73
(dp3751
sg82
g3625
sg75
(lp3752
g68
(g89
g70
NtRp3753
(dp3754
g73
(dp3755
g93
g94
ssg82
g3749
sg75
(lp3756
g431
asbag68
(g89
g70
NtRp3757
(dp3758
g73
(dp3759
g100
g101
ssg82
g3749
sg75
(lp3760
S':'
asbag68
(g89
g70
NtRp3761
(dp3762
g73
(dp3763
sg82
g3749
sg75
(lp3764
g68
(g69
g70
NtRp3765
(dp3766
g73
(dp3767
g81
I3
ssg82
g3761
sg75
(lp3768
S''
asbasbasbag68
(g84
g70
NtRp3769
(dp3770
g73
(dp3771
sg82
g3625
sg75
(lp3772
g68
(g89
g70
NtRp3773
(dp3774
g73
(dp3775
g93
g94
ssg82
g3769
sg75
(lp3776
g452
asbag68
(g89
g70
NtRp3777
(dp3778
g73
(dp3779
g100
g101
ssg82
g3769
sg75
(lp3780
S':'
asbag68
(g89
g70
NtRp3781
(dp3782
g73
(dp3783
sg82
g3769
sg75
(lp3784
g68
(g69
g70
NtRp3785
(dp3786
g73
(dp3787
g81
I3
ssg82
g3781
sg75
(lp3788
S''
asbasbasbasbasbasbasbasbasbasbasbag68
(g84
g70
NtRp3789
(dp3790
g73
(dp3791
sg82
g3555
sg75
(lp3792
g68
(g89
g70
NtRp3793
(dp3794
g73
(dp3795
g93
g94
ssg82
g3789
sg75
(lp3796
S'delimiters'
p3797
asbag68
(g89
g70
NtRp3798
(dp3799
g73
(dp3800
g100
g101
ssg82
g3789
sg75
(lp3801
S':'
asbag68
(g89
g70
NtRp3802
(dp3803
g73
(dp3804
sg82
g3789
sg75
(lp3805
g68
(g69
g70
NtRp3806
(dp3807
g73
(dp3808
g81
I5
ssg82
g3802
sg75
(lp3809
g68
(g77
g70
NtRp3810
(dp3811
g73
(dp3812
g81
I4
ssg82
Nsg75
(lp3813
g68
(g84
g70
NtRp3814
(dp3815
g73
(dp3816
sg82
g3810
sg75
(lp3817
g68
(g89
g70
NtRp3818
(dp3819
g73
(dp3820
sg82
g3814
sg75
(lp3821
g68
(g69
g70
NtRp3822
(dp3823
g73
(dp3824
g81
I4
ssg82
g3818
sg75
(lp3825
S'{{'
p3826
asbasbasbag68
(g84
g70
NtRp3827
(dp3828
g73
(dp3829
sg82
g3810
sg75
(lp3830
g68
(g89
g70
NtRp3831
(dp3832
g73
(dp3833
sg82
g3827
sg75
(lp3834
g68
(g69
g70
NtRp3835
(dp3836
g73
(dp3837
g81
I4
ssg82
g3831
sg75
(lp3838
S'}}'
p3839
asbasbasbasbasbasbasbag68
(g84
g70
NtRp3840
(dp3841
g73
(dp3842
sg82
g3555
sg75
(lp3843
g68
(g89
g70
NtRp3844
(dp3845
g73
(dp3846
g93
g94
ssg82
g3840
sg75
(lp3847
S'files'
p3848
asbag68
(g89
g70
NtRp3849
(dp3850
g73
(dp3851
g100
g101
ssg82
g3840
sg75
(lp3852
S':'
asbag68
(g89
g70
NtRp3853
(dp3854
g73
(dp3855
sg82
g3840
sg75
(lp3856
g68
(g69
g70
NtRp3857
(dp3858
g73
(dp3859
g81
I5
ssg82
g3853
sg75
(lp3860
g68
(g77
g70
NtRp3861
(dp3862
g73
(dp3863
g81
I4
ssg82
Nsg75
(lp3864
sbasbasbasbag68
(g84
g70
NtRp3865
(dp3866
g73
(dp3867
sg82
g3555
sg75
(lp3868
g68
(g89
g70
NtRp3869
(dp3870
g73
(dp3871
g93
g94
ssg82
g3865
sg75
(lp3872
S'flash'
p3873
asbag68
(g89
g70
NtRp3874
(dp3875
g73
(dp3876
g100
g101
ssg82
g3865
sg75
(lp3877
S':'
asbag68
(g89
g70
NtRp3878
(dp3879
g73
(dp3880
sg82
g3865
sg75
(lp3881
g68
(g69
g70
NtRp3882
(dp3883
g73
(dp3884
g81
I5
ssg82
g3878
sg75
(lp3885
S''
asbasbasbag68
(g84
g70
NtRp3886
(dp3887
g73
(dp3888
sg82
g3555
sg75
(lp3889
g68
(g89
g70
NtRp3890
(dp3891
g73
(dp3892
g93
g94
ssg82
g3886
sg75
(lp3893
S'generic_patterns'
p3894
asbag68
(g89
g70
NtRp3895
(dp3896
g73
(dp3897
g100
g101
ssg82
g3886
sg75
(lp3898
S':'
asbag68
(g89
g70
NtRp3899
(dp3900
g73
(dp3901
sg82
g3886
sg75
(lp3902
g68
(g69
g70
NtRp3903
(dp3904
g73
(dp3905
g81
I5
ssg82
g3899
sg75
(lp3906
g68
(g77
g70
NtRp3907
(dp3908
g73
(dp3909
g81
I4
ssg82
Nsg75
(lp3910
sbasbasbasbag68
(g84
g70
NtRp3911
(dp3912
g73
(dp3913
sg82
g3555
sg75
(lp3914
g68
(g89
g70
NtRp3915
(dp3916
g73
(dp3917
g93
g94
ssg82
g3911
sg75
(lp3918
S'headers'
p3919
asbag68
(g89
g70
NtRp3920
(dp3921
g73
(dp3922
g100
g101
ssg82
g3911
sg75
(lp3923
S':'
asbag68
(g89
g70
NtRp3924
(dp3925
g73
(dp3926
sg82
g3911
sg75
(lp3927
g68
(g69
g70
NtRp3928
(dp3929
g73
(dp3930
g81
I5
ssg82
g3924
sg75
(lp3931
g68
(g77
g70
NtRp3932
(dp3933
g73
(dp3934
g81
I4
ssg82
Nsg75
(lp3935
g68
(g84
g70
NtRp3936
(dp3937
g73
(dp3938
sg82
g3932
sg75
(lp3939
g68
(g89
g70
NtRp3940
(dp3941
g73
(dp3942
g93
g94
ssg82
g3936
sg75
(lp3943
S'X-Powered-By'
p3944
asbag68
(g89
g70
NtRp3945
(dp3946
g73
(dp3947
g100
g101
ssg82
g3936
sg75
(lp3948
S':'
asbag68
(g89
g70
NtRp3949
(dp3950
g73
(dp3951
sg82
g3936
sg75
(lp3952
g68
(g69
g70
NtRp3953
(dp3954
g73
(dp3955
g81
I4
ssg82
g3949
sg75
(lp3956
S'web2py'
p3957
asbasbasbasbasbasbasbag68
(g84
g70
NtRp3958
(dp3959
g73
(dp3960
sg82
g3555
sg75
(lp3961
g68
(g89
g70
NtRp3962
(dp3963
g73
(dp3964
g93
g94
ssg82
g3958
sg75
(lp3965
S'menu'
p3966
asbag68
(g89
g70
NtRp3967
(dp3968
g73
(dp3969
g100
g101
ssg82
g3958
sg75
(lp3970
S':'
asbag68
(g89
g70
NtRp3971
(dp3972
g73
(dp3973
sg82
g3958
sg75
(lp3974
g68
(g69
g70
NtRp3975
(dp3976
g73
(dp3977
g81
I5
ssg82
g3971
sg75
(lp3978
g68
(g77
g70
NtRp3979
(dp3980
g73
(dp3981
g81
I4
ssg82
Nsg75
(lp3982
sbasbasbasbag68
(g84
g70
NtRp3983
(dp3984
g73
(dp3985
sg82
g3555
sg75
(lp3986
g68
(g89
g70
NtRp3987
(dp3988
g73
(dp3989
g93
g94
ssg82
g3983
sg75
(lp3990
S'meta'
p3991
asbag68
(g89
g70
NtRp3992
(dp3993
g73
(dp3994
g100
g101
ssg82
g3983
sg75
(lp3995
S':'
asbag68
(g89
g70
NtRp3996
(dp3997
g73
(dp3998
sg82
g3983
sg75
(lp3999
g68
(g69
g70
NtRp4000
(dp4001
g73
(dp4002
g81
I5
ssg82
g3996
sg75
(lp4003
g68
(g77
g70
NtRp4004
(dp4005
g73
(dp4006
g81
I4
ssg82
Nsg75
(lp4007
sbasbasbasbag68
(g84
g70
NtRp4008
(dp4009
g73
(dp4010
sg82
g3555
sg75
(lp4011
g68
(g89
g70
NtRp4012
(dp4013
g73
(dp4014
g93
g94
ssg82
g4008
sg75
(lp4015
S'models_to_run'
p4016
asbag68
(g89
g70
NtRp4017
(dp4018
g73
(dp4019
g100
g101
ssg82
g4008
sg75
(lp4020
S':'
asbag68
(g89
g70
NtRp4021
(dp4022
g73
(dp4023
sg82
g4008
sg75
(lp4024
g68
(g69
g70
NtRp4025
(dp4026
g73
(dp4027
g81
I5
ssg82
g4021
sg75
(lp4028
g68
(g77
g70
NtRp4029
(dp4030
g73
(dp4031
g81
I4
ssg82
Nsg75
(lp4032
g68
(g84
g70
NtRp4033
(dp4034
g73
(dp4035
sg82
g4029
sg75
(lp4036
g68
(g89
g70
NtRp4037
(dp4038
g73
(dp4039
sg82
g4033
sg75
(lp4040
g68
(g69
g70
NtRp4041
(dp4042
g73
(dp4043
g81
I4
ssg82
g4037
sg75
(lp4044
S'^\\w+\\.py$'
p4045
asbasbasbag68
(g84
g70
NtRp4046
(dp4047
g73
(dp4048
sg82
g4029
sg75
(lp4049
g68
(g89
g70
NtRp4050
(dp4051
g73
(dp4052
sg82
g4046
sg75
(lp4053
g68
(g69
g70
NtRp4054
(dp4055
g73
(dp4056
g81
I4
ssg82
g4050
sg75
(lp4057
S'^appadmin/\\w+\\.py$'
p4058
asbasbasbag68
(g84
g70
NtRp4059
(dp4060
g73
(dp4061
sg82
g4029
sg75
(lp4062
g68
(g89
g70
NtRp4063
(dp4064
g73
(dp4065
sg82
g4059
sg75
(lp4066
g68
(g69
g70
NtRp4067
(dp4068
g73
(dp4069
g81
I4
ssg82
g4063
sg75
(lp4070
S'^appadmin/index/\\w+\\.py$'
p4071
asbasbasbasbasbasbasbag68
(g84
g70
NtRp4072
(dp4073
g73
(dp4074
sg82
g3555
sg75
(lp4075
g68
(g89
g70
NtRp4076
(dp4077
g73
(dp4078
g93
g94
ssg82
g4072
sg75
(lp4079
S'postprocessing'
p4080
asbag68
(g89
g70
NtRp4081
(dp4082
g73
(dp4083
g100
g101
ssg82
g4072
sg75
(lp4084
S':'
asbag68
(g89
g70
NtRp4085
(dp4086
g73
(dp4087
sg82
g4072
sg75
(lp4088
g68
(g69
g70
NtRp4089
(dp4090
g73
(dp4091
g81
I5
ssg82
g4085
sg75
(lp4092
g68
(g77
g70
NtRp4093
(dp4094
g73
(dp4095
g81
I4
ssg82
Nsg75
(lp4096
sbasbasbasbag68
(g84
g70
NtRp4097
(dp4098
g73
(dp4099
sg82
g3555
sg75
(lp4100
g68
(g89
g70
NtRp4101
(dp4102
g73
(dp4103
g93
g94
ssg82
g4097
sg75
(lp4104
S'session_cookie_expires'
p4105
asbag68
(g89
g70
NtRp4106
(dp4107
g73
(dp4108
g100
g101
ssg82
g4097
sg75
(lp4109
S':'
asbag68
(g89
g70
NtRp4110
(dp4111
g73
(dp4112
sg82
g4097
sg75
(lp4113
g68
(g69
g70
NtRp4114
(dp4115
g73
(dp4116
g81
I5
ssg82
g4110
sg75
(lp4117
S'None'
p4118
asbasbasbag68
(g84
g70
NtRp4119
(dp4120
g73
(dp4121
sg82
g3555
sg75
(lp4122
g68
(g89
g70
NtRp4123
(dp4124
g73
(dp4125
g93
g94
ssg82
g4119
sg75
(lp4126
S'session_data_name'
p4127
asbag68
(g89
g70
NtRp4128
(dp4129
g73
(dp4130
g100
g101
ssg82
g4119
sg75
(lp4131
S':'
asbag68
(g89
g70
NtRp4132
(dp4133
g73
(dp4134
sg82
g4119
sg75
(lp4135
g68
(g69
g70
NtRp4136
(dp4137
g73
(dp4138
g81
I5
ssg82
g4132
sg75
(lp4139
S'session_data_images1'
p4140
asbasbasbag68
(g84
g70
NtRp4141
(dp4142
g73
(dp4143
sg82
g3555
sg75
(lp4144
g68
(g89
g70
NtRp4145
(dp4146
g73
(dp4147
g93
g94
ssg82
g4141
sg75
(lp4148
S'session_file'
p4149
asbag68
(g89
g70
NtRp4150
(dp4151
g73
(dp4152
g100
g101
ssg82
g4141
sg75
(lp4153
S':'
asbag68
(g89
g70
NtRp4154
(dp4155
g73
(dp4156
sg82
g4141
sg75
(lp4157
g68
(g69
g70
NtRp4158
(dp4159
g73
(dp4160
g81
I5
ssg82
g4154
sg75
(lp4161
S"<open file '/home/nazrul/web2py/applications/images1/sessions/127.0.0.1-118d866d-dae6-4234-beb3-30c3f03727d9', mode 'rb+' at 0xadc2e338>"
p4162
asbasbasbag68
(g84
g70
NtRp4163
(dp4164
g73
(dp4165
sg82
g3555
sg75
(lp4166
g68
(g89
g70
NtRp4167
(dp4168
g73
(dp4169
g93
g94
ssg82
g4163
sg75
(lp4170
S'session_filename'
p4171
asbag68
(g89
g70
NtRp4172
(dp4173
g73
(dp4174
g100
g101
ssg82
g4163
sg75
(lp4175
S':'
asbag68
(g89
g70
NtRp4176
(dp4177
g73
(dp4178
sg82
g4163
sg75
(lp4179
g68
(g69
g70
NtRp4180
(dp4181
g73
(dp4182
g81
I5
ssg82
g4176
sg75
(lp4183
S'/home/nazrul/web2py/applications/images1/sessions/127.0.0.1-118d866d-dae6-4234-beb3-30c3f03727d9'
p4184
asbasbasbag68
(g84
g70
NtRp4185
(dp4186
g73
(dp4187
sg82
g3555
sg75
(lp4188
g68
(g89
g70
NtRp4189
(dp4190
g73
(dp4191
g93
g94
ssg82
g4185
sg75
(lp4192
S'session_id'
p4193
asbag68
(g89
g70
NtRp4194
(dp4195
g73
(dp4196
g100
g101
ssg82
g4185
sg75
(lp4197
S':'
asbag68
(g89
g70
NtRp4198
(dp4199
g73
(dp4200
sg82
g4185
sg75
(lp4201
g68
(g69
g70
NtRp4202
(dp4203
g73
(dp4204
g81
I5
ssg82
g4198
sg75
(lp4205
g672
asbasbasbag68
(g84
g70
NtRp4206
(dp4207
g73
(dp4208
sg82
g3555
sg75
(lp4209
g68
(g89
g70
NtRp4210
(dp4211
g73
(dp4212
g93
g94
ssg82
g4206
sg75
(lp4213
S'session_id_name'
p4214
asbag68
(g89
g70
NtRp4215
(dp4216
g73
(dp4217
g100
g101
ssg82
g4206
sg75
(lp4218
S':'
asbag68
(g89
g70
NtRp4219
(dp4220
g73
(dp4221
sg82
g4206
sg75
(lp4222
g68
(g69
g70
NtRp4223
(dp4224
g73
(dp4225
g81
I5
ssg82
g4219
sg75
(lp4226
g3612
asbasbasbag68
(g84
g70
NtRp4227
(dp4228
g73
(dp4229
sg82
g3555
sg75
(lp4230
g68
(g89
g70
NtRp4231
(dp4232
g73
(dp4233
g93
g94
ssg82
g4227
sg75
(lp4234
S'session_locked'
p4235
asbag68
(g89
g70
NtRp4236
(dp4237
g73
(dp4238
g100
g101
ssg82
g4227
sg75
(lp4239
S':'
asbag68
(g89
g70
NtRp4240
(dp4241
g73
(dp4242
sg82
g4227
sg75
(lp4243
g68
(g69
g70
NtRp4244
(dp4245
g73
(dp4246
g81
I5
ssg82
g4240
sg75
(lp4247
g1988
asbasbasbag68
(g84
g70
NtRp4248
(dp4249
g73
(dp4250
sg82
g3555
sg75
(lp4251
g68
(g89
g70
NtRp4252
(dp4253
g73
(dp4254
g93
g94
ssg82
g4248
sg75
(lp4255
S'session_new'
p4256
asbag68
(g89
g70
NtRp4257
(dp4258
g73
(dp4259
g100
g101
ssg82
g4248
sg75
(lp4260
S':'
asbag68
(g89
g70
NtRp4261
(dp4262
g73
(dp4263
sg82
g4248
sg75
(lp4264
g68
(g69
g70
NtRp4265
(dp4266
g73
(dp4267
g81
I5
ssg82
g4261
sg75
(lp4268
g111
asbasbasbag68
(g84
g70
NtRp4269
(dp4270
g73
(dp4271
sg82
g3555
sg75
(lp4272
g68
(g89
g70
NtRp4273
(dp4274
g73
(dp4275
g93
g94
ssg82
g4269
sg75
(lp4276
S'session_storage_type'
p4277
asbag68
(g89
g70
NtRp4278
(dp4279
g73
(dp4280
g100
g101
ssg82
g4269
sg75
(lp4281
S':'
asbag68
(g89
g70
NtRp4282
(dp4283
g73
(dp4284
sg82
g4269
sg75
(lp4285
g68
(g69
g70
NtRp4286
(dp4287
g73
(dp4288
g81
I5
ssg82
g4282
sg75
(lp4289
g3440
asbasbasbag68
(g84
g70
NtRp4290
(dp4291
g73
(dp4292
sg82
g3555
sg75
(lp4293
g68
(g89
g70
NtRp4294
(dp4295
g73
(dp4296
g93
g94
ssg82
g4290
sg75
(lp4297
S'status'
p4298
asbag68
(g89
g70
NtRp4299
(dp4300
g73
(dp4301
g100
g101
ssg82
g4290
sg75
(lp4302
S':'
asbag68
(g89
g70
NtRp4303
(dp4304
g73
(dp4305
sg82
g4290
sg75
(lp4306
g68
(g69
g70
NtRp4307
(dp4308
g73
(dp4309
g81
I5
ssg82
g4303
sg75
(lp4310
S'200'
p4311
asbasbasbag68
(g84
g70
NtRp4312
(dp4313
g73
(dp4314
sg82
g3555
sg75
(lp4315
g68
(g89
g70
NtRp4316
(dp4317
g73
(dp4318
g93
g94
ssg82
g4312
sg75
(lp4319
S'view'
p4320
asbag68
(g89
g70
NtRp4321
(dp4322
g73
(dp4323
g100
g101
ssg82
g4312
sg75
(lp4324
S':'
asbag68
(g89
g70
NtRp4325
(dp4326
g73
(dp4327
sg82
g4312
sg75
(lp4328
g68
(g69
g70
NtRp4329
(dp4330
g73
(dp4331
g81
I5
ssg82
g4325
sg75
(lp4332
S'appadmin/index.html'
p4333
asbasbasbasbasbsS'locals'
p4334
(dp4335
g4
S"'/home/nazrul/web2py/applications/images1/models/db.py'"
p4336
sg6
S'\'db=DAL("sqlite://storage.sqlite")\\ndb.define_tabl...e_id.writable=db.comment.image_id.readable=False\\n\''
p4337
sssS'traceback'
p4338
S'Traceback (most recent call last):\n  File "/home/nazrul/web2py/gluon/restricted.py", line 211, in restricted\n    ccode = compile2(code, layer)\n  File "/home/nazrul/web2py/gluon/restricted.py", line 194, in compile2\n    return compile(code.rstrip().replace(\'\\r\\n\', \'\\n\') + \'\\n\', layer, \'exec\')\n  File "/home/nazrul/web2py/applications/images1/models/db.py", line 5\n    format=\'%(title)s\'))\n                       ^\nSyntaxError: invalid syntax\n'
p4339
s.