(dp1
S'output'
p2
S'<type \'exceptions.SyntaxError\'> invalid table/column name "length" is a "ALL" reserved SQL keyword'
p3
sS'layer'
p4
S'/home/gaurav/classwork/WEB_PROGRAMMING/web2py/applications/MUSIC/models/db.py'
p5
sS'code'
p6
S"# -*- coding: utf-8 -*-\n\n#########################################################################\n## This scaffolding model makes your app work on Google App Engine too\n## File is released under public domain and you can use without limitations\n#########################################################################\n\n## if SSL/HTTPS is properly configured and you want all HTTP requests to\n## be redirected to HTTPS, uncomment the line below:\n# request.requires_https()\n\nif not request.env.web2py_runtime_gae:\n    ## if NOT running on Google App Engine use SQLite or other DB\n    db = DAL('sqlite://storage.sqlite',pool_size=1,check_reserved=['all'])\nelse:\n    ## connect to Google BigTable (optional 'google:datastore://namespace')\n    db = DAL('google:datastore')\n    ## store sessions and tickets there\n    session.connect(request, response, db=db)\n    ## or store session in Memcache, Redis, etc.\n    ## from gluon.contrib.memdb import MEMDB\n    ## from google.appengine.api.memcache import Client\n    ## session.connect(request, response, db = MEMDB(Client()))\n\n## by default give a view/generic.extension to all actions from localhost\n## none otherwise. a pattern can be 'controller/function.extension'\nresponse.generic_patterns = ['*'] if request.is_local else []\n## (optional) optimize handling of static files\n# response.optimize_css = 'concat,minify,inline'\n# response.optimize_js = 'concat,minify,inline'\n\n#########################################################################\n## Here is sample code if you need for\n## - email capabilities\n## - authentication (registration, login, logout, ... )\n## - authorization (role based authorization)\n## - services (xml, csv, json, xmlrpc, jsonrpc, amf, rss)\n## - old style crud actions\n## (more options discussed in gluon/tools.py)\n#########################################################################\n\nfrom gluon.tools import Auth, Crud, Service, PluginManager, prettydate\nauth = Auth(db)\ncrud, service, plugins = Crud(db), Service(), PluginManager()\n\n## create all tables needed by auth if not custom tables\nauth.define_tables(username=False, signature=False)\n\n## configure email\nmail = auth.settings.mailer\nmail.settings.server = 'logging' or 'smtp.gmail.com:587'\nmail.settings.sender = 'you@gmail.com'\nmail.settings.login = 'username:password'\n\n## configure auth policy\nauth.settings.registration_requires_verification = False\nauth.settings.registration_requires_approval = False\nauth.settings.reset_password_requires_verification = True\n\n## if you need to use OpenID, Facebook, MySpace, Twitter, Linkedin, etc.\n## register with janrain.com, write your domain:api_key in private/janrain.key\nfrom gluon.contrib.login_methods.rpx_account import use_janrain\nuse_janrain(auth, filename='private/janrain.key')\n\n#########################################################################\n## Define your tables below (or better in another model file) for example\n##\n## >>> db.define_table('mytable',Field('myfield','string'))\n##\n## Fields can be 'string','text','password','integer','double','boolean'\n##       'date','time','datetime','blob','upload', 'reference TABLENAME'\n## There is an implicit 'id integer autoincrement' field\n## Consult manual for more options, validators, etc.\n##\n## More API examples for controllers:\n##\n## >>> db.mytable.insert(myfield='value')\n## >>> rows=db(db.mytable.myfield=='value').select(db.mytable.ALL)\n## >>> for row in rows: print row.id, row.myfield\n#########################################################################\n\n## after defining tables, uncomment below to enable auditing\n# auth.enable_record_versioning(db)\n\n\n\n\n\ndb.define_table('artist',\n\t  Field('actors','string'),\n\t  Field('directors','string'),\n\t  Field('singers','string'))\n\ndb.define_table('movie',\n\t  Field('name','string',required=True),\n\t  Field('hero',db.artist,required=True,requires=IS_IN_DB(db,'artist.id','artist.actors')),\n\t  Field('director','string',required=True),\n\t  Field('release_date','date',required=True))\n\ndb.define_table('song',\n\t  Field('name','string',required=True),\n\t  Field('length','string',required=True),\n\t  Field('singer','string',required=True),\n\t  Field('composer','string',required=True),\n\t  Field('movie','string',required=True),\n\t  Field('singing_actor','string',required=True))\n\n"
p7
sS'snapshot'
p8
(dp9
S'exception'
p10
(dp11
S'__getslice__'
p12
S"<method-wrapper '__getslice__' of exceptions.SyntaxError object>"
p13
sS'text'
p14
S'None'
p15
sS'__str__'
p16
S"<method-wrapper '__str__' of exceptions.SyntaxError object>"
p17
sS'__reduce__'
p18
S'<built-in method __reduce__ of exceptions.SyntaxError object>'
p19
sS'__dict__'
p20
S'{}'
p21
sS'__sizeof__'
p22
S'<built-in method __sizeof__ of exceptions.SyntaxError object>'
p23
sS'__init__'
p24
S"<method-wrapper '__init__' of exceptions.SyntaxError object>"
p25
sS'__setattr__'
p26
S"<method-wrapper '__setattr__' of exceptions.SyntaxError object>"
p27
sS'__reduce_ex__'
p28
S'<built-in method __reduce_ex__ of exceptions.SyntaxError object>'
p29
sS'__new__'
p30
S'<built-in method __new__ of type object>'
p31
sS'__format__'
p32
S'<built-in method __format__ of exceptions.SyntaxError object>'
p33
sS'__class__'
p34
S"<type 'exceptions.SyntaxError'>"
p35
sS'filename'
p36
S'None'
p37
sS'lineno'
p38
S'None'
p39
sS'msg'
p40
S'\'invalid table/column name "length" is a "ALL" reserved SQL keyword\''
p41
sS'__doc__'
p42
S"'Invalid syntax.'"
p43
sS'__getitem__'
p44
S"<method-wrapper '__getitem__' of exceptions.SyntaxError object>"
p45
sS'__setstate__'
p46
S'<built-in method __setstate__ of exceptions.SyntaxError object>'
p47
sS'__getattribute__'
p48
S"<method-wrapper '__getattribute__' of exceptions.SyntaxError object>"
p49
sS'print_file_and_line'
p50
S'None'
p51
sS'args'
p52
S'(\'invalid table/column name "length" is a "ALL" reserved SQL keyword\',)'
p53
sS'__subclasshook__'
p54
S'<built-in method __subclasshook__ of type object>'
p55
sS'offset'
p56
S'None'
p57
sS'__unicode__'
p58
S'<built-in method __unicode__ of exceptions.SyntaxError object>'
p59
sS'__delattr__'
p60
S"<method-wrapper '__delattr__' of exceptions.SyntaxError object>"
p61
sS'__repr__'
p62
S"<method-wrapper '__repr__' of exceptions.SyntaxError object>"
p63
sS'__hash__'
p64
S"<method-wrapper '__hash__' of exceptions.SyntaxError object>"
p65
ssS'evalue'
p66
S'invalid table/column name "length" is a "ALL" reserved SQL keyword'
p67
sS'request'
p68
ccopy_reg
_reconstructor
p69
(cgluon.html
BEAUTIFY
p70
c__builtin__
object
p71
NtRp72
(dp73
S'attributes'
p74
(dp75
sS'components'
p76
(lp77
g69
(cgluon.html
TABLE
p78
g71
NtRp79
(dp80
g74
(dp81
S'level'
p82
I5
ssS'parent'
p83
Nsg76
(lp84
g69
(cgluon.html
TR
p85
g71
NtRp86
(dp87
g74
(dp88
sg83
g79
sg76
(lp89
g69
(cgluon.html
TD
p90
g71
NtRp91
(dp92
g74
(dp93
S'_style'
p94
S'font-weight:bold;vertical-align:top'
p95
ssg83
g86
sg76
(lp96
S'ajax'
p97
asbag69
(g90
g71
NtRp98
(dp99
g74
(dp100
S'_valign'
p101
S'top'
p102
ssg83
g86
sg76
(lp103
S':'
asbag69
(g90
g71
NtRp104
(dp105
g74
(dp106
sg83
g86
sg76
(lp107
g69
(g70
g71
NtRp108
(dp109
g74
(dp110
g82
I5
ssg83
g104
sg76
(lp111
S'False'
p112
asbasbasbag69
(g85
g71
NtRp113
(dp114
g74
(dp115
sg83
g79
sg76
(lp116
g69
(g90
g71
NtRp117
(dp118
g74
(dp119
g94
g95
ssg83
g113
sg76
(lp120
S'application'
p121
asbag69
(g90
g71
NtRp122
(dp123
g74
(dp124
g101
g102
ssg83
g113
sg76
(lp125
S':'
asbag69
(g90
g71
NtRp126
(dp127
g74
(dp128
sg83
g113
sg76
(lp129
g69
(g70
g71
NtRp130
(dp131
g74
(dp132
g82
I5
ssg83
g126
sg76
(lp133
S'MUSIC'
p134
asbasbasbag69
(g85
g71
NtRp135
(dp136
g74
(dp137
sg83
g79
sg76
(lp138
g69
(g90
g71
NtRp139
(dp140
g74
(dp141
g94
g95
ssg83
g135
sg76
(lp142
g52
asbag69
(g90
g71
NtRp143
(dp144
g74
(dp145
g101
g102
ssg83
g135
sg76
(lp146
S':'
asbag69
(g90
g71
NtRp147
(dp148
g74
(dp149
sg83
g135
sg76
(lp150
g69
(g70
g71
NtRp151
(dp152
g74
(dp153
g82
I5
ssg83
g147
sg76
(lp154
g69
(g78
g71
NtRp155
(dp156
g74
(dp157
g82
I4
ssg83
Nsg76
(lp158
g69
(g85
g71
NtRp159
(dp160
g74
(dp161
sg83
g155
sg76
(lp162
g69
(g90
g71
NtRp163
(dp164
g74
(dp165
sg83
g159
sg76
(lp166
g69
(g70
g71
NtRp167
(dp168
g74
(dp169
g82
I4
ssg83
g163
sg76
(lp170
S'db'
p171
asbasbasbag69
(g85
g71
NtRp172
(dp173
g74
(dp174
sg83
g155
sg76
(lp175
g69
(g90
g71
NtRp176
(dp177
g74
(dp178
sg83
g172
sg76
(lp179
g69
(g70
g71
NtRp180
(dp181
g74
(dp182
g82
I4
ssg83
g176
sg76
(lp183
S'movie'
p184
asbasbasbasbasbasbasbag69
(g85
g71
NtRp185
(dp186
g74
(dp187
sg83
g79
sg76
(lp188
g69
(g90
g71
NtRp189
(dp190
g74
(dp191
g94
g95
ssg83
g185
sg76
(lp192
S'body'
p193
asbag69
(g90
g71
NtRp194
(dp195
g74
(dp196
g101
g102
ssg83
g185
sg76
(lp197
S':'
asbag69
(g90
g71
NtRp198
(dp199
g74
(dp200
sg83
g185
sg76
(lp201
g69
(g70
g71
NtRp202
(dp203
g74
(dp204
g82
I5
ssg83
g198
sg76
(lp205
S'<cStringIO.StringO object at 0xae2a11e0>'
p206
asbasbasbag69
(g85
g71
NtRp207
(dp208
g74
(dp209
sg83
g79
sg76
(lp210
g69
(g90
g71
NtRp211
(dp212
g74
(dp213
g94
g95
ssg83
g207
sg76
(lp214
S'cid'
p215
asbag69
(g90
g71
NtRp216
(dp217
g74
(dp218
g101
g102
ssg83
g207
sg76
(lp219
S':'
asbag69
(g90
g71
NtRp220
(dp221
g74
(dp222
sg83
g207
sg76
(lp223
g69
(g70
g71
NtRp224
(dp225
g74
(dp226
g82
I5
ssg83
g220
sg76
(lp227
S'None'
p228
asbasbasbag69
(g85
g71
NtRp229
(dp230
g74
(dp231
sg83
g79
sg76
(lp232
g69
(g90
g71
NtRp233
(dp234
g74
(dp235
g94
g95
ssg83
g229
sg76
(lp236
S'client'
p237
asbag69
(g90
g71
NtRp238
(dp239
g74
(dp240
g101
g102
ssg83
g229
sg76
(lp241
S':'
asbag69
(g90
g71
NtRp242
(dp243
g74
(dp244
sg83
g229
sg76
(lp245
g69
(g70
g71
NtRp246
(dp247
g74
(dp248
g82
I5
ssg83
g242
sg76
(lp249
S'127.0.0.1'
p250
asbasbasbag69
(g85
g71
NtRp251
(dp252
g74
(dp253
sg83
g79
sg76
(lp254
g69
(g90
g71
NtRp255
(dp256
g74
(dp257
g94
g95
ssg83
g251
sg76
(lp258
S'controller'
p259
asbag69
(g90
g71
NtRp260
(dp261
g74
(dp262
g101
g102
ssg83
g251
sg76
(lp263
S':'
asbag69
(g90
g71
NtRp264
(dp265
g74
(dp266
sg83
g251
sg76
(lp267
g69
(g70
g71
NtRp268
(dp269
g74
(dp270
g82
I5
ssg83
g264
sg76
(lp271
S'appadmin'
p272
asbasbasbag69
(g85
g71
NtRp273
(dp274
g74
(dp275
sg83
g79
sg76
(lp276
g69
(g90
g71
NtRp277
(dp278
g74
(dp279
g94
g95
ssg83
g273
sg76
(lp280
S'cookies'
p281
asbag69
(g90
g71
NtRp282
(dp283
g74
(dp284
g101
g102
ssg83
g273
sg76
(lp285
S':'
asbag69
(g90
g71
NtRp286
(dp287
g74
(dp288
sg83
g273
sg76
(lp289
g69
(g70
g71
NtRp290
(dp291
g74
(dp292
g82
I5
ssg83
g286
sg76
(lp293
g69
(g78
g71
NtRp294
(dp295
g74
(dp296
g82
I4
ssg83
Nsg76
(lp297
g69
(g85
g71
NtRp298
(dp299
g74
(dp300
sg83
g294
sg76
(lp301
g69
(g90
g71
NtRp302
(dp303
g74
(dp304
g94
g95
ssg83
g298
sg76
(lp305
S'session_id_admin'
p306
asbag69
(g90
g71
NtRp307
(dp308
g74
(dp309
g101
g102
ssg83
g298
sg76
(lp310
S':'
asbag69
(g90
g71
NtRp311
(dp312
g74
(dp313
sg83
g298
sg76
(lp314
g69
(g70
g71
NtRp315
(dp316
g74
(dp317
g82
I4
ssg83
g311
sg76
(lp318
S'127.0.0.1-af06f55e-89f0-4ae2-93fd-0ea60909ff15'
p319
ag69
(g78
g71
NtRp320
(dp321
g74
(dp322
g82
I3
ssg83
Nsg76
(lp323
g69
(g85
g71
NtRp324
(dp325
g74
(dp326
sg83
g320
sg76
(lp327
g69
(g90
g71
NtRp328
(dp329
g74
(dp330
g94
g95
ssg83
g324
sg76
(lp331
S'comment'
p332
asbag69
(g90
g71
NtRp333
(dp334
g74
(dp335
g101
g102
ssg83
g324
sg76
(lp336
S':'
asbag69
(g90
g71
NtRp337
(dp338
g74
(dp339
sg83
g324
sg76
(lp340
g69
(g70
g71
NtRp341
(dp342
g74
(dp343
g82
I3
ssg83
g337
sg76
(lp344
S''
asbasbasbag69
(g85
g71
NtRp345
(dp346
g74
(dp347
sg83
g320
sg76
(lp348
g69
(g90
g71
NtRp349
(dp350
g74
(dp351
g94
g95
ssg83
g345
sg76
(lp352
S'domain'
p353
asbag69
(g90
g71
NtRp354
(dp355
g74
(dp356
g101
g102
ssg83
g345
sg76
(lp357
S':'
asbag69
(g90
g71
NtRp358
(dp359
g74
(dp360
sg83
g345
sg76
(lp361
g69
(g70
g71
NtRp362
(dp363
g74
(dp364
g82
I3
ssg83
g358
sg76
(lp365
S''
asbasbasbag69
(g85
g71
NtRp366
(dp367
g74
(dp368
sg83
g320
sg76
(lp369
g69
(g90
g71
NtRp370
(dp371
g74
(dp372
g94
g95
ssg83
g366
sg76
(lp373
S'expires'
p374
asbag69
(g90
g71
NtRp375
(dp376
g74
(dp377
g101
g102
ssg83
g366
sg76
(lp378
S':'
asbag69
(g90
g71
NtRp379
(dp380
g74
(dp381
sg83
g366
sg76
(lp382
g69
(g70
g71
NtRp383
(dp384
g74
(dp385
g82
I3
ssg83
g379
sg76
(lp386
S''
asbasbasbag69
(g85
g71
NtRp387
(dp388
g74
(dp389
sg83
g320
sg76
(lp390
g69
(g90
g71
NtRp391
(dp392
g74
(dp393
g94
g95
ssg83
g387
sg76
(lp394
S'httponly'
p395
asbag69
(g90
g71
NtRp396
(dp397
g74
(dp398
g101
g102
ssg83
g387
sg76
(lp399
S':'
asbag69
(g90
g71
NtRp400
(dp401
g74
(dp402
sg83
g387
sg76
(lp403
g69
(g70
g71
NtRp404
(dp405
g74
(dp406
g82
I3
ssg83
g400
sg76
(lp407
S''
asbasbasbag69
(g85
g71
NtRp408
(dp409
g74
(dp410
sg83
g320
sg76
(lp411
g69
(g90
g71
NtRp412
(dp413
g74
(dp414
g94
g95
ssg83
g408
sg76
(lp415
S'max-age'
p416
asbag69
(g90
g71
NtRp417
(dp418
g74
(dp419
g101
g102
ssg83
g408
sg76
(lp420
S':'
asbag69
(g90
g71
NtRp421
(dp422
g74
(dp423
sg83
g408
sg76
(lp424
g69
(g70
g71
NtRp425
(dp426
g74
(dp427
g82
I3
ssg83
g421
sg76
(lp428
S''
asbasbasbag69
(g85
g71
NtRp429
(dp430
g74
(dp431
sg83
g320
sg76
(lp432
g69
(g90
g71
NtRp433
(dp434
g74
(dp435
g94
g95
ssg83
g429
sg76
(lp436
S'path'
p437
asbag69
(g90
g71
NtRp438
(dp439
g74
(dp440
g101
g102
ssg83
g429
sg76
(lp441
S':'
asbag69
(g90
g71
NtRp442
(dp443
g74
(dp444
sg83
g429
sg76
(lp445
g69
(g70
g71
NtRp446
(dp447
g74
(dp448
g82
I3
ssg83
g442
sg76
(lp449
S''
asbasbasbag69
(g85
g71
NtRp450
(dp451
g74
(dp452
sg83
g320
sg76
(lp453
g69
(g90
g71
NtRp454
(dp455
g74
(dp456
g94
g95
ssg83
g450
sg76
(lp457
S'secure'
p458
asbag69
(g90
g71
NtRp459
(dp460
g74
(dp461
g101
g102
ssg83
g450
sg76
(lp462
S':'
asbag69
(g90
g71
NtRp463
(dp464
g74
(dp465
sg83
g450
sg76
(lp466
g69
(g70
g71
NtRp467
(dp468
g74
(dp469
g82
I3
ssg83
g463
sg76
(lp470
S''
asbasbasbag69
(g85
g71
NtRp471
(dp472
g74
(dp473
sg83
g320
sg76
(lp474
g69
(g90
g71
NtRp475
(dp476
g74
(dp477
g94
g95
ssg83
g471
sg76
(lp478
S'version'
p479
asbag69
(g90
g71
NtRp480
(dp481
g74
(dp482
g101
g102
ssg83
g471
sg76
(lp483
S':'
asbag69
(g90
g71
NtRp484
(dp485
g74
(dp486
sg83
g471
sg76
(lp487
g69
(g70
g71
NtRp488
(dp489
g74
(dp490
g82
I3
ssg83
g484
sg76
(lp491
S''
asbasbasbasbasbasbasbag69
(g85
g71
NtRp492
(dp493
g74
(dp494
sg83
g294
sg76
(lp495
g69
(g90
g71
NtRp496
(dp497
g74
(dp498
g94
g95
ssg83
g492
sg76
(lp499
S'session_id_music'
p500
asbag69
(g90
g71
NtRp501
(dp502
g74
(dp503
g101
g102
ssg83
g492
sg76
(lp504
S':'
asbag69
(g90
g71
NtRp505
(dp506
g74
(dp507
sg83
g492
sg76
(lp508
g69
(g70
g71
NtRp509
(dp510
g74
(dp511
g82
I4
ssg83
g505
sg76
(lp512
S'127.0.0.1-bd5be0ed-4eb6-4bc5-88a9-8d569f9d0604'
p513
ag69
(g78
g71
NtRp514
(dp515
g74
(dp516
g82
I3
ssg83
Nsg76
(lp517
g69
(g85
g71
NtRp518
(dp519
g74
(dp520
sg83
g514
sg76
(lp521
g69
(g90
g71
NtRp522
(dp523
g74
(dp524
g94
g95
ssg83
g518
sg76
(lp525
g332
asbag69
(g90
g71
NtRp526
(dp527
g74
(dp528
g101
g102
ssg83
g518
sg76
(lp529
S':'
asbag69
(g90
g71
NtRp530
(dp531
g74
(dp532
sg83
g518
sg76
(lp533
g69
(g70
g71
NtRp534
(dp535
g74
(dp536
g82
I3
ssg83
g530
sg76
(lp537
S''
asbasbasbag69
(g85
g71
NtRp538
(dp539
g74
(dp540
sg83
g514
sg76
(lp541
g69
(g90
g71
NtRp542
(dp543
g74
(dp544
g94
g95
ssg83
g538
sg76
(lp545
g353
asbag69
(g90
g71
NtRp546
(dp547
g74
(dp548
g101
g102
ssg83
g538
sg76
(lp549
S':'
asbag69
(g90
g71
NtRp550
(dp551
g74
(dp552
sg83
g538
sg76
(lp553
g69
(g70
g71
NtRp554
(dp555
g74
(dp556
g82
I3
ssg83
g550
sg76
(lp557
S''
asbasbasbag69
(g85
g71
NtRp558
(dp559
g74
(dp560
sg83
g514
sg76
(lp561
g69
(g90
g71
NtRp562
(dp563
g74
(dp564
g94
g95
ssg83
g558
sg76
(lp565
g374
asbag69
(g90
g71
NtRp566
(dp567
g74
(dp568
g101
g102
ssg83
g558
sg76
(lp569
S':'
asbag69
(g90
g71
NtRp570
(dp571
g74
(dp572
sg83
g558
sg76
(lp573
g69
(g70
g71
NtRp574
(dp575
g74
(dp576
g82
I3
ssg83
g570
sg76
(lp577
S''
asbasbasbag69
(g85
g71
NtRp578
(dp579
g74
(dp580
sg83
g514
sg76
(lp581
g69
(g90
g71
NtRp582
(dp583
g74
(dp584
g94
g95
ssg83
g578
sg76
(lp585
g395
asbag69
(g90
g71
NtRp586
(dp587
g74
(dp588
g101
g102
ssg83
g578
sg76
(lp589
S':'
asbag69
(g90
g71
NtRp590
(dp591
g74
(dp592
sg83
g578
sg76
(lp593
g69
(g70
g71
NtRp594
(dp595
g74
(dp596
g82
I3
ssg83
g590
sg76
(lp597
S''
asbasbasbag69
(g85
g71
NtRp598
(dp599
g74
(dp600
sg83
g514
sg76
(lp601
g69
(g90
g71
NtRp602
(dp603
g74
(dp604
g94
g95
ssg83
g598
sg76
(lp605
g416
asbag69
(g90
g71
NtRp606
(dp607
g74
(dp608
g101
g102
ssg83
g598
sg76
(lp609
S':'
asbag69
(g90
g71
NtRp610
(dp611
g74
(dp612
sg83
g598
sg76
(lp613
g69
(g70
g71
NtRp614
(dp615
g74
(dp616
g82
I3
ssg83
g610
sg76
(lp617
S''
asbasbasbag69
(g85
g71
NtRp618
(dp619
g74
(dp620
sg83
g514
sg76
(lp621
g69
(g90
g71
NtRp622
(dp623
g74
(dp624
g94
g95
ssg83
g618
sg76
(lp625
g437
asbag69
(g90
g71
NtRp626
(dp627
g74
(dp628
g101
g102
ssg83
g618
sg76
(lp629
S':'
asbag69
(g90
g71
NtRp630
(dp631
g74
(dp632
sg83
g618
sg76
(lp633
g69
(g70
g71
NtRp634
(dp635
g74
(dp636
g82
I3
ssg83
g630
sg76
(lp637
S''
asbasbasbag69
(g85
g71
NtRp638
(dp639
g74
(dp640
sg83
g514
sg76
(lp641
g69
(g90
g71
NtRp642
(dp643
g74
(dp644
g94
g95
ssg83
g638
sg76
(lp645
g458
asbag69
(g90
g71
NtRp646
(dp647
g74
(dp648
g101
g102
ssg83
g638
sg76
(lp649
S':'
asbag69
(g90
g71
NtRp650
(dp651
g74
(dp652
sg83
g638
sg76
(lp653
g69
(g70
g71
NtRp654
(dp655
g74
(dp656
g82
I3
ssg83
g650
sg76
(lp657
S''
asbasbasbag69
(g85
g71
NtRp658
(dp659
g74
(dp660
sg83
g514
sg76
(lp661
g69
(g90
g71
NtRp662
(dp663
g74
(dp664
g94
g95
ssg83
g658
sg76
(lp665
g479
asbag69
(g90
g71
NtRp666
(dp667
g74
(dp668
g101
g102
ssg83
g658
sg76
(lp669
S':'
asbag69
(g90
g71
NtRp670
(dp671
g74
(dp672
sg83
g658
sg76
(lp673
g69
(g70
g71
NtRp674
(dp675
g74
(dp676
g82
I3
ssg83
g670
sg76
(lp677
S''
asbasbasbasbasbasbasbag69
(g85
g71
NtRp678
(dp679
g74
(dp680
sg83
g294
sg76
(lp681
g69
(g90
g71
NtRp682
(dp683
g74
(dp684
g94
g95
ssg83
g678
sg76
(lp685
S'session_id_welcome'
p686
asbag69
(g90
g71
NtRp687
(dp688
g74
(dp689
g101
g102
ssg83
g678
sg76
(lp690
S':'
asbag69
(g90
g71
NtRp691
(dp692
g74
(dp693
sg83
g678
sg76
(lp694
g69
(g70
g71
NtRp695
(dp696
g74
(dp697
g82
I4
ssg83
g691
sg76
(lp698
S'127.0.0.1-7c0c82ac-097f-493c-a515-70410c6bb379'
p699
ag69
(g78
g71
NtRp700
(dp701
g74
(dp702
g82
I3
ssg83
Nsg76
(lp703
g69
(g85
g71
NtRp704
(dp705
g74
(dp706
sg83
g700
sg76
(lp707
g69
(g90
g71
NtRp708
(dp709
g74
(dp710
g94
g95
ssg83
g704
sg76
(lp711
g332
asbag69
(g90
g71
NtRp712
(dp713
g74
(dp714
g101
g102
ssg83
g704
sg76
(lp715
S':'
asbag69
(g90
g71
NtRp716
(dp717
g74
(dp718
sg83
g704
sg76
(lp719
g69
(g70
g71
NtRp720
(dp721
g74
(dp722
g82
I3
ssg83
g716
sg76
(lp723
S''
asbasbasbag69
(g85
g71
NtRp724
(dp725
g74
(dp726
sg83
g700
sg76
(lp727
g69
(g90
g71
NtRp728
(dp729
g74
(dp730
g94
g95
ssg83
g724
sg76
(lp731
g353
asbag69
(g90
g71
NtRp732
(dp733
g74
(dp734
g101
g102
ssg83
g724
sg76
(lp735
S':'
asbag69
(g90
g71
NtRp736
(dp737
g74
(dp738
sg83
g724
sg76
(lp739
g69
(g70
g71
NtRp740
(dp741
g74
(dp742
g82
I3
ssg83
g736
sg76
(lp743
S''
asbasbasbag69
(g85
g71
NtRp744
(dp745
g74
(dp746
sg83
g700
sg76
(lp747
g69
(g90
g71
NtRp748
(dp749
g74
(dp750
g94
g95
ssg83
g744
sg76
(lp751
g374
asbag69
(g90
g71
NtRp752
(dp753
g74
(dp754
g101
g102
ssg83
g744
sg76
(lp755
S':'
asbag69
(g90
g71
NtRp756
(dp757
g74
(dp758
sg83
g744
sg76
(lp759
g69
(g70
g71
NtRp760
(dp761
g74
(dp762
g82
I3
ssg83
g756
sg76
(lp763
S''
asbasbasbag69
(g85
g71
NtRp764
(dp765
g74
(dp766
sg83
g700
sg76
(lp767
g69
(g90
g71
NtRp768
(dp769
g74
(dp770
g94
g95
ssg83
g764
sg76
(lp771
g395
asbag69
(g90
g71
NtRp772
(dp773
g74
(dp774
g101
g102
ssg83
g764
sg76
(lp775
S':'
asbag69
(g90
g71
NtRp776
(dp777
g74
(dp778
sg83
g764
sg76
(lp779
g69
(g70
g71
NtRp780
(dp781
g74
(dp782
g82
I3
ssg83
g776
sg76
(lp783
S''
asbasbasbag69
(g85
g71
NtRp784
(dp785
g74
(dp786
sg83
g700
sg76
(lp787
g69
(g90
g71
NtRp788
(dp789
g74
(dp790
g94
g95
ssg83
g784
sg76
(lp791
g416
asbag69
(g90
g71
NtRp792
(dp793
g74
(dp794
g101
g102
ssg83
g784
sg76
(lp795
S':'
asbag69
(g90
g71
NtRp796
(dp797
g74
(dp798
sg83
g784
sg76
(lp799
g69
(g70
g71
NtRp800
(dp801
g74
(dp802
g82
I3
ssg83
g796
sg76
(lp803
S''
asbasbasbag69
(g85
g71
NtRp804
(dp805
g74
(dp806
sg83
g700
sg76
(lp807
g69
(g90
g71
NtRp808
(dp809
g74
(dp810
g94
g95
ssg83
g804
sg76
(lp811
g437
asbag69
(g90
g71
NtRp812
(dp813
g74
(dp814
g101
g102
ssg83
g804
sg76
(lp815
S':'
asbag69
(g90
g71
NtRp816
(dp817
g74
(dp818
sg83
g804
sg76
(lp819
g69
(g70
g71
NtRp820
(dp821
g74
(dp822
g82
I3
ssg83
g816
sg76
(lp823
S''
asbasbasbag69
(g85
g71
NtRp824
(dp825
g74
(dp826
sg83
g700
sg76
(lp827
g69
(g90
g71
NtRp828
(dp829
g74
(dp830
g94
g95
ssg83
g824
sg76
(lp831
g458
asbag69
(g90
g71
NtRp832
(dp833
g74
(dp834
g101
g102
ssg83
g824
sg76
(lp835
S':'
asbag69
(g90
g71
NtRp836
(dp837
g74
(dp838
sg83
g824
sg76
(lp839
g69
(g70
g71
NtRp840
(dp841
g74
(dp842
g82
I3
ssg83
g836
sg76
(lp843
S''
asbasbasbag69
(g85
g71
NtRp844
(dp845
g74
(dp846
sg83
g700
sg76
(lp847
g69
(g90
g71
NtRp848
(dp849
g74
(dp850
g94
g95
ssg83
g844
sg76
(lp851
g479
asbag69
(g90
g71
NtRp852
(dp853
g74
(dp854
g101
g102
ssg83
g844
sg76
(lp855
S':'
asbag69
(g90
g71
NtRp856
(dp857
g74
(dp858
sg83
g844
sg76
(lp859
g69
(g70
g71
NtRp860
(dp861
g74
(dp862
g82
I3
ssg83
g856
sg76
(lp863
S''
asbasbasbasbasbasbasbasbasbasbasbag69
(g85
g71
NtRp864
(dp865
g74
(dp866
sg83
g79
sg76
(lp867
g69
(g90
g71
NtRp868
(dp869
g74
(dp870
g94
g95
ssg83
g864
sg76
(lp871
S'env'
p872
asbag69
(g90
g71
NtRp873
(dp874
g74
(dp875
g101
g102
ssg83
g864
sg76
(lp876
S':'
asbag69
(g90
g71
NtRp877
(dp878
g74
(dp879
sg83
g864
sg76
(lp880
g69
(g70
g71
NtRp881
(dp882
g74
(dp883
g82
I5
ssg83
g877
sg76
(lp884
g69
(g78
g71
NtRp885
(dp886
g74
(dp887
g82
I4
ssg83
Nsg76
(lp888
g69
(g85
g71
NtRp889
(dp890
g74
(dp891
sg83
g885
sg76
(lp892
g69
(g90
g71
NtRp893
(dp894
g74
(dp895
g94
g95
ssg83
g889
sg76
(lp896
S'app_folders'
p897
asbag69
(g90
g71
NtRp898
(dp899
g74
(dp900
g101
g102
ssg83
g889
sg76
(lp901
S':'
asbag69
(g90
g71
NtRp902
(dp903
g74
(dp904
sg83
g889
sg76
(lp905
g69
(g70
g71
NtRp906
(dp907
g74
(dp908
g82
I4
ssg83
g902
sg76
(lp909
S"set(['/home/gaurav/classwork/WEB_PROGRAMMING/web2py/applications/MUSIC/', '/home/gaurav/classwork/WEB_PROGRAMMING/web2py/applications/admin/', '/home/gaurav/classwork/WEB_PROGRAMMING/web2py/applications/welcome/'])"
p910
asbasbasbag69
(g85
g71
NtRp911
(dp912
g74
(dp913
sg83
g885
sg76
(lp914
g69
(g90
g71
NtRp915
(dp916
g74
(dp917
g94
g95
ssg83
g911
sg76
(lp918
S'applications_parent'
p919
asbag69
(g90
g71
NtRp920
(dp921
g74
(dp922
g101
g102
ssg83
g911
sg76
(lp923
S':'
asbag69
(g90
g71
NtRp924
(dp925
g74
(dp926
sg83
g911
sg76
(lp927
g69
(g70
g71
NtRp928
(dp929
g74
(dp930
g82
I4
ssg83
g924
sg76
(lp931
S'/home/gaurav/classwork/WEB_PROGRAMMING/web2py'
p932
asbasbasbag69
(g85
g71
NtRp933
(dp934
g74
(dp935
sg83
g885
sg76
(lp936
g69
(g90
g71
NtRp937
(dp938
g74
(dp939
g94
g95
ssg83
g933
sg76
(lp940
S'cmd_args'
p941
asbag69
(g90
g71
NtRp942
(dp943
g74
(dp944
g101
g102
ssg83
g933
sg76
(lp945
S':'
asbag69
(g90
g71
NtRp946
(dp947
g74
(dp948
sg83
g933
sg76
(lp949
g69
(g70
g71
NtRp950
(dp951
g74
(dp952
g82
I4
ssg83
g946
sg76
(lp953
g69
(g78
g71
NtRp954
(dp955
g74
(dp956
g82
I3
ssg83
Nsg76
(lp957
sbasbasbasbag69
(g85
g71
NtRp958
(dp959
g74
(dp960
sg83
g885
sg76
(lp961
g69
(g90
g71
NtRp962
(dp963
g74
(dp964
g94
g95
ssg83
g958
sg76
(lp965
S'cmd_options'
p966
asbag69
(g90
g71
NtRp967
(dp968
g74
(dp969
g101
g102
ssg83
g958
sg76
(lp970
S':'
asbag69
(g90
g71
NtRp971
(dp972
g74
(dp973
sg83
g958
sg76
(lp974
g69
(g70
g71
NtRp975
(dp976
g74
(dp977
g82
I4
ssg83
g971
sg76
(lp978
S"<Values at 0x88926ec: {'verbose': False, 'ip': '127.0.0.1', 'with_scheduler': False, 'ips': [], 'shutdown_timeout': 5, 'taskbar': False, 'port': 8000, 'maxthreads': None, 'softcron': False, 'server_name': 'gaurav-Compaq-Presario-C700-Notebook-PC', 'bpython': False, 'nogui': False, 'pid_filename': 'httpserver.pid', 'extcron': False, 'runcron': False, 'run_system_tests': False, 'test': None, 'folder': '/home/gaurav/classwork/WEB_PROGRAMMING/web2py', 'config': '', 'import_models': False, 'winservice': '', 'shell': None, 'run': '', 'log_filename': 'httpserver.log', 'debuglevel': 30, 'args': [''], 'socket_timeout': 5, 'ssl_ca_certificate': None, 'scheduler': None, 'profiler_filename': None, 'ssl_private_key': '', 'scheduler_groups': None, 'password': '<ask>', 'request_queue_size': 5, 'ssl_certificate': '', 'cronjob': False, 'numthreads': None, 'quiet': False, 'interfaces': None, 'minthreads': None, 'timeout': 10, 'plain': False, 'nobanner': False}>"
p979
asbasbasbag69
(g85
g71
NtRp980
(dp981
g74
(dp982
sg83
g885
sg76
(lp983
g69
(g90
g71
NtRp984
(dp985
g74
(dp986
g94
g95
ssg83
g980
sg76
(lp987
S'db_sessions'
p988
asbag69
(g90
g71
NtRp989
(dp990
g74
(dp991
g101
g102
ssg83
g980
sg76
(lp992
S':'
asbag69
(g90
g71
NtRp993
(dp994
g74
(dp995
sg83
g980
sg76
(lp996
g69
(g70
g71
NtRp997
(dp998
g74
(dp999
g82
I4
ssg83
g993
sg76
(lp1000
S'set([])'
p1001
asbasbasbag69
(g85
g71
NtRp1002
(dp1003
g74
(dp1004
sg83
g885
sg76
(lp1005
g69
(g90
g71
NtRp1006
(dp1007
g74
(dp1008
g94
g95
ssg83
g1002
sg76
(lp1009
S'debugging'
p1010
asbag69
(g90
g71
NtRp1011
(dp1012
g74
(dp1013
g101
g102
ssg83
g1002
sg76
(lp1014
S':'
asbag69
(g90
g71
NtRp1015
(dp1016
g74
(dp1017
sg83
g1002
sg76
(lp1018
g69
(g70
g71
NtRp1019
(dp1020
g74
(dp1021
g82
I4
ssg83
g1015
sg76
(lp1022
g112
asbasbasbag69
(g85
g71
NtRp1023
(dp1024
g74
(dp1025
sg83
g885
sg76
(lp1026
g69
(g90
g71
NtRp1027
(dp1028
g74
(dp1029
g94
g95
ssg83
g1023
sg76
(lp1030
S'gluon_parent'
p1031
asbag69
(g90
g71
NtRp1032
(dp1033
g74
(dp1034
g101
g102
ssg83
g1023
sg76
(lp1035
S':'
asbag69
(g90
g71
NtRp1036
(dp1037
g74
(dp1038
sg83
g1023
sg76
(lp1039
g69
(g70
g71
NtRp1040
(dp1041
g74
(dp1042
g82
I4
ssg83
g1036
sg76
(lp1043
S'/home/gaurav/classwork/WEB_PROGRAMMING/web2py'
p1044
asbasbasbag69
(g85
g71
NtRp1045
(dp1046
g74
(dp1047
sg83
g885
sg76
(lp1048
g69
(g90
g71
NtRp1049
(dp1050
g74
(dp1051
g94
g95
ssg83
g1045
sg76
(lp1052
S'http_accept'
p1053
asbag69
(g90
g71
NtRp1054
(dp1055
g74
(dp1056
g101
g102
ssg83
g1045
sg76
(lp1057
S':'
asbag69
(g90
g71
NtRp1058
(dp1059
g74
(dp1060
sg83
g1045
sg76
(lp1061
g69
(g70
g71
NtRp1062
(dp1063
g74
(dp1064
g82
I4
ssg83
g1058
sg76
(lp1065
S'text/html,application/xhtml+xml,application/xml;q=0.9,*/*;q=0.8'
p1066
asbasbasbag69
(g85
g71
NtRp1067
(dp1068
g74
(dp1069
sg83
g885
sg76
(lp1070
g69
(g90
g71
NtRp1071
(dp1072
g74
(dp1073
g94
g95
ssg83
g1067
sg76
(lp1074
S'http_accept_encoding'
p1075
asbag69
(g90
g71
NtRp1076
(dp1077
g74
(dp1078
g101
g102
ssg83
g1067
sg76
(lp1079
S':'
asbag69
(g90
g71
NtRp1080
(dp1081
g74
(dp1082
sg83
g1067
sg76
(lp1083
g69
(g70
g71
NtRp1084
(dp1085
g74
(dp1086
g82
I4
ssg83
g1080
sg76
(lp1087
S'gzip, deflate'
p1088
asbasbasbag69
(g85
g71
NtRp1089
(dp1090
g74
(dp1091
sg83
g885
sg76
(lp1092
g69
(g90
g71
NtRp1093
(dp1094
g74
(dp1095
g94
g95
ssg83
g1089
sg76
(lp1096
S'http_accept_language'
p1097
asbag69
(g90
g71
NtRp1098
(dp1099
g74
(dp1100
g101
g102
ssg83
g1089
sg76
(lp1101
S':'
asbag69
(g90
g71
NtRp1102
(dp1103
g74
(dp1104
sg83
g1089
sg76
(lp1105
g69
(g70
g71
NtRp1106
(dp1107
g74
(dp1108
g82
I4
ssg83
g1102
sg76
(lp1109
S'en-US,en;q=0.5'
p1110
asbasbasbag69
(g85
g71
NtRp1111
(dp1112
g74
(dp1113
sg83
g885
sg76
(lp1114
g69
(g90
g71
NtRp1115
(dp1116
g74
(dp1117
g94
g95
ssg83
g1111
sg76
(lp1118
S'http_cache_control'
p1119
asbag69
(g90
g71
NtRp1120
(dp1121
g74
(dp1122
g101
g102
ssg83
g1111
sg76
(lp1123
S':'
asbag69
(g90
g71
NtRp1124
(dp1125
g74
(dp1126
sg83
g1111
sg76
(lp1127
g69
(g70
g71
NtRp1128
(dp1129
g74
(dp1130
g82
I4
ssg83
g1124
sg76
(lp1131
S'max-age=0'
p1132
asbasbasbag69
(g85
g71
NtRp1133
(dp1134
g74
(dp1135
sg83
g885
sg76
(lp1136
g69
(g90
g71
NtRp1137
(dp1138
g74
(dp1139
g94
g95
ssg83
g1133
sg76
(lp1140
S'http_connection'
p1141
asbag69
(g90
g71
NtRp1142
(dp1143
g74
(dp1144
g101
g102
ssg83
g1133
sg76
(lp1145
S':'
asbag69
(g90
g71
NtRp1146
(dp1147
g74
(dp1148
sg83
g1133
sg76
(lp1149
g69
(g70
g71
NtRp1150
(dp1151
g74
(dp1152
g82
I4
ssg83
g1146
sg76
(lp1153
S'keep-alive'
p1154
asbasbasbag69
(g85
g71
NtRp1155
(dp1156
g74
(dp1157
sg83
g885
sg76
(lp1158
g69
(g90
g71
NtRp1159
(dp1160
g74
(dp1161
g94
g95
ssg83
g1155
sg76
(lp1162
S'http_cookie'
p1163
asbag69
(g90
g71
NtRp1164
(dp1165
g74
(dp1166
g101
g102
ssg83
g1155
sg76
(lp1167
S':'
asbag69
(g90
g71
NtRp1168
(dp1169
g74
(dp1170
sg83
g1155
sg76
(lp1171
g69
(g70
g71
NtRp1172
(dp1173
g74
(dp1174
g82
I4
ssg83
g1168
sg76
(lp1175
S'session_id_welcome=127.0.0.1-7c0c82ac-097f-493c-a515-70410c6bb379; session_id_admin=127.0.0.1-af06f55e-89f0-4ae2-93fd-0ea60909ff15; session_id_music=127.0.0.1-bd5be0ed-4eb6-4bc5-88a9-8d569f9d0604'
p1176
asbasbasbag69
(g85
g71
NtRp1177
(dp1178
g74
(dp1179
sg83
g885
sg76
(lp1180
g69
(g90
g71
NtRp1181
(dp1182
g74
(dp1183
g94
g95
ssg83
g1177
sg76
(lp1184
S'http_host'
p1185
asbag69
(g90
g71
NtRp1186
(dp1187
g74
(dp1188
g101
g102
ssg83
g1177
sg76
(lp1189
S':'
asbag69
(g90
g71
NtRp1190
(dp1191
g74
(dp1192
sg83
g1177
sg76
(lp1193
g69
(g70
g71
NtRp1194
(dp1195
g74
(dp1196
g82
I4
ssg83
g1190
sg76
(lp1197
S'127.0.0.1:8000'
p1198
asbasbasbag69
(g85
g71
NtRp1199
(dp1200
g74
(dp1201
sg83
g885
sg76
(lp1202
g69
(g90
g71
NtRp1203
(dp1204
g74
(dp1205
g94
g95
ssg83
g1199
sg76
(lp1206
S'http_referer'
p1207
asbag69
(g90
g71
NtRp1208
(dp1209
g74
(dp1210
g101
g102
ssg83
g1199
sg76
(lp1211
S':'
asbag69
(g90
g71
NtRp1212
(dp1213
g74
(dp1214
sg83
g1199
sg76
(lp1215
g69
(g70
g71
NtRp1216
(dp1217
g74
(dp1218
g82
I4
ssg83
g1212
sg76
(lp1219
S'http://127.0.0.1:8000/MUSIC/appadmin/'
p1220
asbasbasbag69
(g85
g71
NtRp1221
(dp1222
g74
(dp1223
sg83
g885
sg76
(lp1224
g69
(g90
g71
NtRp1225
(dp1226
g74
(dp1227
g94
g95
ssg83
g1221
sg76
(lp1228
S'http_user_agent'
p1229
asbag69
(g90
g71
NtRp1230
(dp1231
g74
(dp1232
g101
g102
ssg83
g1221
sg76
(lp1233
S':'
asbag69
(g90
g71
NtRp1234
(dp1235
g74
(dp1236
sg83
g1221
sg76
(lp1237
g69
(g70
g71
NtRp1238
(dp1239
g74
(dp1240
g82
I4
ssg83
g1234
sg76
(lp1241
S'Mozilla/5.0 (X11; Ubuntu; Linux i686; rv:16.0) Gecko/20100101 Firefox/16.0'
p1242
asbasbasbag69
(g85
g71
NtRp1243
(dp1244
g74
(dp1245
sg83
g885
sg76
(lp1246
g69
(g90
g71
NtRp1247
(dp1248
g74
(dp1249
g94
g95
ssg83
g1243
sg76
(lp1250
S'is_jython'
p1251
asbag69
(g90
g71
NtRp1252
(dp1253
g74
(dp1254
g101
g102
ssg83
g1243
sg76
(lp1255
S':'
asbag69
(g90
g71
NtRp1256
(dp1257
g74
(dp1258
sg83
g1243
sg76
(lp1259
g69
(g70
g71
NtRp1260
(dp1261
g74
(dp1262
g82
I4
ssg83
g1256
sg76
(lp1263
g112
asbasbasbag69
(g85
g71
NtRp1264
(dp1265
g74
(dp1266
sg83
g885
sg76
(lp1267
g69
(g90
g71
NtRp1268
(dp1269
g74
(dp1270
g94
g95
ssg83
g1264
sg76
(lp1271
S'is_pypy'
p1272
asbag69
(g90
g71
NtRp1273
(dp1274
g74
(dp1275
g101
g102
ssg83
g1264
sg76
(lp1276
S':'
asbag69
(g90
g71
NtRp1277
(dp1278
g74
(dp1279
sg83
g1264
sg76
(lp1280
g69
(g70
g71
NtRp1281
(dp1282
g74
(dp1283
g82
I4
ssg83
g1277
sg76
(lp1284
g112
asbasbasbag69
(g85
g71
NtRp1285
(dp1286
g74
(dp1287
sg83
g885
sg76
(lp1288
g69
(g90
g71
NtRp1289
(dp1290
g74
(dp1291
g94
g95
ssg83
g1285
sg76
(lp1292
S'local_hosts'
p1293
asbag69
(g90
g71
NtRp1294
(dp1295
g74
(dp1296
g101
g102
ssg83
g1285
sg76
(lp1297
S':'
asbag69
(g90
g71
NtRp1298
(dp1299
g74
(dp1300
sg83
g1285
sg76
(lp1301
g69
(g70
g71
NtRp1302
(dp1303
g74
(dp1304
g82
I4
ssg83
g1298
sg76
(lp1305
g69
(g78
g71
NtRp1306
(dp1307
g74
(dp1308
g82
I3
ssg83
Nsg76
(lp1309
g69
(g85
g71
NtRp1310
(dp1311
g74
(dp1312
sg83
g1306
sg76
(lp1313
g69
(g90
g71
NtRp1314
(dp1315
g74
(dp1316
sg83
g1310
sg76
(lp1317
g69
(g70
g71
NtRp1318
(dp1319
g74
(dp1320
g82
I3
ssg83
g1314
sg76
(lp1321
S'gaurav-Compaq-Presario-C700-Notebook-PC'
p1322
asbasbasbag69
(g85
g71
NtRp1323
(dp1324
g74
(dp1325
sg83
g1306
sg76
(lp1326
g69
(g90
g71
NtRp1327
(dp1328
g74
(dp1329
sg83
g1323
sg76
(lp1330
g69
(g70
g71
NtRp1331
(dp1332
g74
(dp1333
g82
I3
ssg83
g1327
sg76
(lp1334
S'::1'
p1335
asbasbasbag69
(g85
g71
NtRp1336
(dp1337
g74
(dp1338
sg83
g1306
sg76
(lp1339
g69
(g90
g71
NtRp1340
(dp1341
g74
(dp1342
sg83
g1336
sg76
(lp1343
g69
(g70
g71
NtRp1344
(dp1345
g74
(dp1346
g82
I3
ssg83
g1340
sg76
(lp1347
S'127.0.1.1'
p1348
asbasbasbag69
(g85
g71
NtRp1349
(dp1350
g74
(dp1351
sg83
g1306
sg76
(lp1352
g69
(g90
g71
NtRp1353
(dp1354
g74
(dp1355
sg83
g1349
sg76
(lp1356
g69
(g70
g71
NtRp1357
(dp1358
g74
(dp1359
g82
I3
ssg83
g1353
sg76
(lp1360
S'::ffff:127.0.0.1'
p1361
asbasbasbag69
(g85
g71
NtRp1362
(dp1363
g74
(dp1364
sg83
g1306
sg76
(lp1365
g69
(g90
g71
NtRp1366
(dp1367
g74
(dp1368
sg83
g1362
sg76
(lp1369
g69
(g70
g71
NtRp1370
(dp1371
g74
(dp1372
g82
I3
ssg83
g1366
sg76
(lp1373
S'127.0.0.1'
p1374
asbasbasbasbasbasbasbag69
(g85
g71
NtRp1375
(dp1376
g74
(dp1377
sg83
g885
sg76
(lp1378
g69
(g90
g71
NtRp1379
(dp1380
g74
(dp1381
g94
g95
ssg83
g1375
sg76
(lp1382
S'path_info'
p1383
asbag69
(g90
g71
NtRp1384
(dp1385
g74
(dp1386
g101
g102
ssg83
g1375
sg76
(lp1387
S':'
asbag69
(g90
g71
NtRp1388
(dp1389
g74
(dp1390
sg83
g1375
sg76
(lp1391
g69
(g70
g71
NtRp1392
(dp1393
g74
(dp1394
g82
I4
ssg83
g1388
sg76
(lp1395
S'/MUSIC/appadmin/insert/db/movie'
p1396
asbasbasbag69
(g85
g71
NtRp1397
(dp1398
g74
(dp1399
sg83
g885
sg76
(lp1400
g69
(g90
g71
NtRp1401
(dp1402
g74
(dp1403
g94
g95
ssg83
g1397
sg76
(lp1404
S'query_string'
p1405
asbag69
(g90
g71
NtRp1406
(dp1407
g74
(dp1408
g101
g102
ssg83
g1397
sg76
(lp1409
S':'
asbag69
(g90
g71
NtRp1410
(dp1411
g74
(dp1412
sg83
g1397
sg76
(lp1413
g69
(g70
g71
NtRp1414
(dp1415
g74
(dp1416
g82
I4
ssg83
g1410
sg76
(lp1417
S''
asbasbasbag69
(g85
g71
NtRp1418
(dp1419
g74
(dp1420
sg83
g885
sg76
(lp1421
g69
(g90
g71
NtRp1422
(dp1423
g74
(dp1424
g94
g95
ssg83
g1418
sg76
(lp1425
S'remote_addr'
p1426
asbag69
(g90
g71
NtRp1427
(dp1428
g74
(dp1429
g101
g102
ssg83
g1418
sg76
(lp1430
S':'
asbag69
(g90
g71
NtRp1431
(dp1432
g74
(dp1433
sg83
g1418
sg76
(lp1434
g69
(g70
g71
NtRp1435
(dp1436
g74
(dp1437
g82
I4
ssg83
g1431
sg76
(lp1438
g250
asbasbasbag69
(g85
g71
NtRp1439
(dp1440
g74
(dp1441
sg83
g885
sg76
(lp1442
g69
(g90
g71
NtRp1443
(dp1444
g74
(dp1445
g94
g95
ssg83
g1439
sg76
(lp1446
S'remote_port'
p1447
asbag69
(g90
g71
NtRp1448
(dp1449
g74
(dp1450
g101
g102
ssg83
g1439
sg76
(lp1451
S':'
asbag69
(g90
g71
NtRp1452
(dp1453
g74
(dp1454
sg83
g1439
sg76
(lp1455
g69
(g70
g71
NtRp1456
(dp1457
g74
(dp1458
g82
I4
ssg83
g1452
sg76
(lp1459
S'43430'
p1460
asbasbasbag69
(g85
g71
NtRp1461
(dp1462
g74
(dp1463
sg83
g885
sg76
(lp1464
g69
(g90
g71
NtRp1465
(dp1466
g74
(dp1467
g94
g95
ssg83
g1461
sg76
(lp1468
S'request_method'
p1469
asbag69
(g90
g71
NtRp1470
(dp1471
g74
(dp1472
g101
g102
ssg83
g1461
sg76
(lp1473
S':'
asbag69
(g90
g71
NtRp1474
(dp1475
g74
(dp1476
sg83
g1461
sg76
(lp1477
g69
(g70
g71
NtRp1478
(dp1479
g74
(dp1480
g82
I4
ssg83
g1474
sg76
(lp1481
S'GET'
p1482
asbasbasbag69
(g85
g71
NtRp1483
(dp1484
g74
(dp1485
sg83
g885
sg76
(lp1486
g69
(g90
g71
NtRp1487
(dp1488
g74
(dp1489
g94
g95
ssg83
g1483
sg76
(lp1490
S'request_uri'
p1491
asbag69
(g90
g71
NtRp1492
(dp1493
g74
(dp1494
g101
g102
ssg83
g1483
sg76
(lp1495
S':'
asbag69
(g90
g71
NtRp1496
(dp1497
g74
(dp1498
sg83
g1483
sg76
(lp1499
g69
(g70
g71
NtRp1500
(dp1501
g74
(dp1502
g82
I4
ssg83
g1496
sg76
(lp1503
g1396
asbasbasbag69
(g85
g71
NtRp1504
(dp1505
g74
(dp1506
sg83
g885
sg76
(lp1507
g69
(g90
g71
NtRp1508
(dp1509
g74
(dp1510
g94
g95
ssg83
g1504
sg76
(lp1511
S'script_name'
p1512
asbag69
(g90
g71
NtRp1513
(dp1514
g74
(dp1515
g101
g102
ssg83
g1504
sg76
(lp1516
S':'
asbag69
(g90
g71
NtRp1517
(dp1518
g74
(dp1519
sg83
g1504
sg76
(lp1520
g69
(g70
g71
NtRp1521
(dp1522
g74
(dp1523
g82
I4
ssg83
g1517
sg76
(lp1524
S''
asbasbasbag69
(g85
g71
NtRp1525
(dp1526
g74
(dp1527
sg83
g885
sg76
(lp1528
g69
(g90
g71
NtRp1529
(dp1530
g74
(dp1531
g94
g95
ssg83
g1525
sg76
(lp1532
S'server_name'
p1533
asbag69
(g90
g71
NtRp1534
(dp1535
g74
(dp1536
g101
g102
ssg83
g1525
sg76
(lp1537
S':'
asbag69
(g90
g71
NtRp1538
(dp1539
g74
(dp1540
sg83
g1525
sg76
(lp1541
g69
(g70
g71
NtRp1542
(dp1543
g74
(dp1544
g82
I4
ssg83
g1538
sg76
(lp1545
S'gaurav-Compaq-Presario-C700-Notebook-PC'
p1546
asbasbasbag69
(g85
g71
NtRp1547
(dp1548
g74
(dp1549
sg83
g885
sg76
(lp1550
g69
(g90
g71
NtRp1551
(dp1552
g74
(dp1553
g94
g95
ssg83
g1547
sg76
(lp1554
S'server_port'
p1555
asbag69
(g90
g71
NtRp1556
(dp1557
g74
(dp1558
g101
g102
ssg83
g1547
sg76
(lp1559
S':'
asbag69
(g90
g71
NtRp1560
(dp1561
g74
(dp1562
sg83
g1547
sg76
(lp1563
g69
(g70
g71
NtRp1564
(dp1565
g74
(dp1566
g82
I4
ssg83
g1560
sg76
(lp1567
S'8000'
p1568
asbasbasbag69
(g85
g71
NtRp1569
(dp1570
g74
(dp1571
sg83
g885
sg76
(lp1572
g69
(g90
g71
NtRp1573
(dp1574
g74
(dp1575
g94
g95
ssg83
g1569
sg76
(lp1576
S'server_protocol'
p1577
asbag69
(g90
g71
NtRp1578
(dp1579
g74
(dp1580
g101
g102
ssg83
g1569
sg76
(lp1581
S':'
asbag69
(g90
g71
NtRp1582
(dp1583
g74
(dp1584
sg83
g1569
sg76
(lp1585
g69
(g70
g71
NtRp1586
(dp1587
g74
(dp1588
g82
I4
ssg83
g1582
sg76
(lp1589
S'HTTP/1.1'
p1590
asbasbasbag69
(g85
g71
NtRp1591
(dp1592
g74
(dp1593
sg83
g885
sg76
(lp1594
g69
(g90
g71
NtRp1595
(dp1596
g74
(dp1597
g94
g95
ssg83
g1591
sg76
(lp1598
S'server_software'
p1599
asbag69
(g90
g71
NtRp1600
(dp1601
g74
(dp1602
g101
g102
ssg83
g1591
sg76
(lp1603
S':'
asbag69
(g90
g71
NtRp1604
(dp1605
g74
(dp1606
sg83
g1591
sg76
(lp1607
g69
(g70
g71
NtRp1608
(dp1609
g74
(dp1610
g82
I4
ssg83
g1604
sg76
(lp1611
S'Rocket 1.2.6'
p1612
asbasbasbag69
(g85
g71
NtRp1613
(dp1614
g74
(dp1615
sg83
g885
sg76
(lp1616
g69
(g90
g71
NtRp1617
(dp1618
g74
(dp1619
g94
g95
ssg83
g1613
sg76
(lp1620
S'web2py_path'
p1621
asbag69
(g90
g71
NtRp1622
(dp1623
g74
(dp1624
g101
g102
ssg83
g1613
sg76
(lp1625
S':'
asbag69
(g90
g71
NtRp1626
(dp1627
g74
(dp1628
sg83
g1613
sg76
(lp1629
g69
(g70
g71
NtRp1630
(dp1631
g74
(dp1632
g82
I4
ssg83
g1626
sg76
(lp1633
g932
asbasbasbag69
(g85
g71
NtRp1634
(dp1635
g74
(dp1636
sg83
g885
sg76
(lp1637
g69
(g90
g71
NtRp1638
(dp1639
g74
(dp1640
g94
g95
ssg83
g1634
sg76
(lp1641
S'web2py_version'
p1642
asbag69
(g90
g71
NtRp1643
(dp1644
g74
(dp1645
g101
g102
ssg83
g1634
sg76
(lp1646
S':'
asbag69
(g90
g71
NtRp1647
(dp1648
g74
(dp1649
sg83
g1634
sg76
(lp1650
g69
(g70
g71
NtRp1651
(dp1652
g74
(dp1653
g82
I4
ssg83
g1647
sg76
(lp1654
g69
(g78
g71
NtRp1655
(dp1656
g74
(dp1657
g82
I3
ssg83
Nsg76
(lp1658
g69
(g85
g71
NtRp1659
(dp1660
g74
(dp1661
sg83
g1655
sg76
(lp1662
g69
(g90
g71
NtRp1663
(dp1664
g74
(dp1665
sg83
g1659
sg76
(lp1666
g69
(g70
g71
NtRp1667
(dp1668
g74
(dp1669
g82
I3
ssg83
g1663
sg76
(lp1670
S'2'
asbasbasbag69
(g85
g71
NtRp1671
(dp1672
g74
(dp1673
sg83
g1655
sg76
(lp1674
g69
(g90
g71
NtRp1675
(dp1676
g74
(dp1677
sg83
g1671
sg76
(lp1678
g69
(g70
g71
NtRp1679
(dp1680
g74
(dp1681
g82
I3
ssg83
g1675
sg76
(lp1682
S'3'
asbasbasbag69
(g85
g71
NtRp1683
(dp1684
g74
(dp1685
sg83
g1655
sg76
(lp1686
g69
(g90
g71
NtRp1687
(dp1688
g74
(dp1689
sg83
g1683
sg76
(lp1690
g69
(g70
g71
NtRp1691
(dp1692
g74
(dp1693
g82
I3
ssg83
g1687
sg76
(lp1694
S'2'
asbasbasbag69
(g85
g71
NtRp1695
(dp1696
g74
(dp1697
sg83
g1655
sg76
(lp1698
g69
(g90
g71
NtRp1699
(dp1700
g74
(dp1701
sg83
g1695
sg76
(lp1702
g69
(g70
g71
NtRp1703
(dp1704
g74
(dp1705
g82
I3
ssg83
g1699
sg76
(lp1706
S'datetime.datetime(2012, 12, 17, 15, 3, 30)'
p1707
asbasbasbag69
(g85
g71
NtRp1708
(dp1709
g74
(dp1710
sg83
g1655
sg76
(lp1711
g69
(g90
g71
NtRp1712
(dp1713
g74
(dp1714
sg83
g1708
sg76
(lp1715
g69
(g70
g71
NtRp1716
(dp1717
g74
(dp1718
g82
I3
ssg83
g1712
sg76
(lp1719
S'stable'
p1720
asbasbasbasbasbasbasbag69
(g85
g71
NtRp1721
(dp1722
g74
(dp1723
sg83
g885
sg76
(lp1724
g69
(g90
g71
NtRp1725
(dp1726
g74
(dp1727
g94
g95
ssg83
g1721
sg76
(lp1728
S'wsgi_errors'
p1729
asbag69
(g90
g71
NtRp1730
(dp1731
g74
(dp1732
g101
g102
ssg83
g1721
sg76
(lp1733
S':'
asbag69
(g90
g71
NtRp1734
(dp1735
g74
(dp1736
sg83
g1721
sg76
(lp1737
g69
(g70
g71
NtRp1738
(dp1739
g74
(dp1740
g82
I4
ssg83
g1734
sg76
(lp1741
S"<open file '<stderr>', mode 'w' at 0xb751e0d0>"
p1742
asbasbasbag69
(g85
g71
NtRp1743
(dp1744
g74
(dp1745
sg83
g885
sg76
(lp1746
g69
(g90
g71
NtRp1747
(dp1748
g74
(dp1749
g94
g95
ssg83
g1743
sg76
(lp1750
S'wsgi_file_wrapper'
p1751
asbag69
(g90
g71
NtRp1752
(dp1753
g74
(dp1754
g101
g102
ssg83
g1743
sg76
(lp1755
S':'
asbag69
(g90
g71
NtRp1756
(dp1757
g74
(dp1758
sg83
g1743
sg76
(lp1759
g69
(g70
g71
NtRp1760
(dp1761
g74
(dp1762
g82
I4
ssg83
g1756
sg76
(lp1763
S'<class wsgiref.util.FileWrapper at 0x8844ecc>'
p1764
asbasbasbag69
(g85
g71
NtRp1765
(dp1766
g74
(dp1767
sg83
g885
sg76
(lp1768
g69
(g90
g71
NtRp1769
(dp1770
g74
(dp1771
g94
g95
ssg83
g1765
sg76
(lp1772
S'wsgi_input'
p1773
asbag69
(g90
g71
NtRp1774
(dp1775
g74
(dp1776
g101
g102
ssg83
g1765
sg76
(lp1777
S':'
asbag69
(g90
g71
NtRp1778
(dp1779
g74
(dp1780
sg83
g1765
sg76
(lp1781
g69
(g70
g71
NtRp1782
(dp1783
g74
(dp1784
g82
I4
ssg83
g1778
sg76
(lp1785
S'<socket._fileobject object at 0xade0ddac>'
p1786
asbasbasbag69
(g85
g71
NtRp1787
(dp1788
g74
(dp1789
sg83
g885
sg76
(lp1790
g69
(g90
g71
NtRp1791
(dp1792
g74
(dp1793
g94
g95
ssg83
g1787
sg76
(lp1794
S'wsgi_multiprocess'
p1795
asbag69
(g90
g71
NtRp1796
(dp1797
g74
(dp1798
g101
g102
ssg83
g1787
sg76
(lp1799
S':'
asbag69
(g90
g71
NtRp1800
(dp1801
g74
(dp1802
sg83
g1787
sg76
(lp1803
g69
(g70
g71
NtRp1804
(dp1805
g74
(dp1806
g82
I4
ssg83
g1800
sg76
(lp1807
g112
asbasbasbag69
(g85
g71
NtRp1808
(dp1809
g74
(dp1810
sg83
g885
sg76
(lp1811
g69
(g90
g71
NtRp1812
(dp1813
g74
(dp1814
g94
g95
ssg83
g1808
sg76
(lp1815
S'wsgi_multithread'
p1816
asbag69
(g90
g71
NtRp1817
(dp1818
g74
(dp1819
g101
g102
ssg83
g1808
sg76
(lp1820
S':'
asbag69
(g90
g71
NtRp1821
(dp1822
g74
(dp1823
sg83
g1808
sg76
(lp1824
g69
(g70
g71
NtRp1825
(dp1826
g74
(dp1827
g82
I4
ssg83
g1821
sg76
(lp1828
S'True'
p1829
asbasbasbag69
(g85
g71
NtRp1830
(dp1831
g74
(dp1832
sg83
g885
sg76
(lp1833
g69
(g90
g71
NtRp1834
(dp1835
g74
(dp1836
g94
g95
ssg83
g1830
sg76
(lp1837
S'wsgi_run_once'
p1838
asbag69
(g90
g71
NtRp1839
(dp1840
g74
(dp1841
g101
g102
ssg83
g1830
sg76
(lp1842
S':'
asbag69
(g90
g71
NtRp1843
(dp1844
g74
(dp1845
sg83
g1830
sg76
(lp1846
g69
(g70
g71
NtRp1847
(dp1848
g74
(dp1849
g82
I4
ssg83
g1843
sg76
(lp1850
g112
asbasbasbag69
(g85
g71
NtRp1851
(dp1852
g74
(dp1853
sg83
g885
sg76
(lp1854
g69
(g90
g71
NtRp1855
(dp1856
g74
(dp1857
g94
g95
ssg83
g1851
sg76
(lp1858
S'wsgi_url_scheme'
p1859
asbag69
(g90
g71
NtRp1860
(dp1861
g74
(dp1862
g101
g102
ssg83
g1851
sg76
(lp1863
S':'
asbag69
(g90
g71
NtRp1864
(dp1865
g74
(dp1866
sg83
g1851
sg76
(lp1867
g69
(g70
g71
NtRp1868
(dp1869
g74
(dp1870
g82
I4
ssg83
g1864
sg76
(lp1871
S'http'
p1872
asbasbasbag69
(g85
g71
NtRp1873
(dp1874
g74
(dp1875
sg83
g885
sg76
(lp1876
g69
(g90
g71
NtRp1877
(dp1878
g74
(dp1879
g94
g95
ssg83
g1873
sg76
(lp1880
S'wsgi_version'
p1881
asbag69
(g90
g71
NtRp1882
(dp1883
g74
(dp1884
g101
g102
ssg83
g1873
sg76
(lp1885
S':'
asbag69
(g90
g71
NtRp1886
(dp1887
g74
(dp1888
sg83
g1873
sg76
(lp1889
g69
(g70
g71
NtRp1890
(dp1891
g74
(dp1892
g82
I4
ssg83
g1886
sg76
(lp1893
g69
(g78
g71
NtRp1894
(dp1895
g74
(dp1896
g82
I3
ssg83
Nsg76
(lp1897
g69
(g85
g71
NtRp1898
(dp1899
g74
(dp1900
sg83
g1894
sg76
(lp1901
g69
(g90
g71
NtRp1902
(dp1903
g74
(dp1904
sg83
g1898
sg76
(lp1905
g69
(g70
g71
NtRp1906
(dp1907
g74
(dp1908
g82
I3
ssg83
g1902
sg76
(lp1909
S'1'
asbasbasbag69
(g85
g71
NtRp1910
(dp1911
g74
(dp1912
sg83
g1894
sg76
(lp1913
g69
(g90
g71
NtRp1914
(dp1915
g74
(dp1916
sg83
g1910
sg76
(lp1917
g69
(g70
g71
NtRp1918
(dp1919
g74
(dp1920
g82
I3
ssg83
g1914
sg76
(lp1921
S'0'
asbasbasbasbasbasbasbasbasbasbasbag69
(g85
g71
NtRp1922
(dp1923
g74
(dp1924
sg83
g79
sg76
(lp1925
g69
(g90
g71
NtRp1926
(dp1927
g74
(dp1928
g94
g95
ssg83
g1922
sg76
(lp1929
S'extension'
p1930
asbag69
(g90
g71
NtRp1931
(dp1932
g74
(dp1933
g101
g102
ssg83
g1922
sg76
(lp1934
S':'
asbag69
(g90
g71
NtRp1935
(dp1936
g74
(dp1937
sg83
g1922
sg76
(lp1938
g69
(g70
g71
NtRp1939
(dp1940
g74
(dp1941
g82
I5
ssg83
g1935
sg76
(lp1942
S'html'
p1943
asbasbasbag69
(g85
g71
NtRp1944
(dp1945
g74
(dp1946
sg83
g79
sg76
(lp1947
g69
(g90
g71
NtRp1948
(dp1949
g74
(dp1950
g94
g95
ssg83
g1944
sg76
(lp1951
S'folder'
p1952
asbag69
(g90
g71
NtRp1953
(dp1954
g74
(dp1955
g101
g102
ssg83
g1944
sg76
(lp1956
S':'
asbag69
(g90
g71
NtRp1957
(dp1958
g74
(dp1959
sg83
g1944
sg76
(lp1960
g69
(g70
g71
NtRp1961
(dp1962
g74
(dp1963
g82
I5
ssg83
g1957
sg76
(lp1964
S'/home/gaurav/classwork/WEB_PROGRAMMING/web2py/applications/MUSIC/'
p1965
asbasbasbag69
(g85
g71
NtRp1966
(dp1967
g74
(dp1968
sg83
g79
sg76
(lp1969
g69
(g90
g71
NtRp1970
(dp1971
g74
(dp1972
g94
g95
ssg83
g1966
sg76
(lp1973
S'function'
p1974
asbag69
(g90
g71
NtRp1975
(dp1976
g74
(dp1977
g101
g102
ssg83
g1966
sg76
(lp1978
S':'
asbag69
(g90
g71
NtRp1979
(dp1980
g74
(dp1981
sg83
g1966
sg76
(lp1982
g69
(g70
g71
NtRp1983
(dp1984
g74
(dp1985
g82
I5
ssg83
g1979
sg76
(lp1986
S'insert'
p1987
asbasbasbag69
(g85
g71
NtRp1988
(dp1989
g74
(dp1990
sg83
g79
sg76
(lp1991
g69
(g90
g71
NtRp1992
(dp1993
g74
(dp1994
g94
g95
ssg83
g1988
sg76
(lp1995
S'get_vars'
p1996
asbag69
(g90
g71
NtRp1997
(dp1998
g74
(dp1999
g101
g102
ssg83
g1988
sg76
(lp2000
S':'
asbag69
(g90
g71
NtRp2001
(dp2002
g74
(dp2003
sg83
g1988
sg76
(lp2004
g69
(g70
g71
NtRp2005
(dp2006
g74
(dp2007
g82
I5
ssg83
g2001
sg76
(lp2008
g69
(g78
g71
NtRp2009
(dp2010
g74
(dp2011
g82
I4
ssg83
Nsg76
(lp2012
sbasbasbasbag69
(g85
g71
NtRp2013
(dp2014
g74
(dp2015
sg83
g79
sg76
(lp2016
g69
(g90
g71
NtRp2017
(dp2018
g74
(dp2019
g94
g95
ssg83
g2013
sg76
(lp2020
S'global_settings'
p2021
asbag69
(g90
g71
NtRp2022
(dp2023
g74
(dp2024
g101
g102
ssg83
g2013
sg76
(lp2025
S':'
asbag69
(g90
g71
NtRp2026
(dp2027
g74
(dp2028
sg83
g2013
sg76
(lp2029
g69
(g70
g71
NtRp2030
(dp2031
g74
(dp2032
g82
I5
ssg83
g2026
sg76
(lp2033
g69
(g78
g71
NtRp2034
(dp2035
g74
(dp2036
g82
I4
ssg83
Nsg76
(lp2037
g69
(g85
g71
NtRp2038
(dp2039
g74
(dp2040
sg83
g2034
sg76
(lp2041
g69
(g90
g71
NtRp2042
(dp2043
g74
(dp2044
g94
g95
ssg83
g2038
sg76
(lp2045
g897
asbag69
(g90
g71
NtRp2046
(dp2047
g74
(dp2048
g101
g102
ssg83
g2038
sg76
(lp2049
S':'
asbag69
(g90
g71
NtRp2050
(dp2051
g74
(dp2052
sg83
g2038
sg76
(lp2053
g69
(g70
g71
NtRp2054
(dp2055
g74
(dp2056
g82
I4
ssg83
g2050
sg76
(lp2057
S"set(['/home/gaurav/classwork/WEB_PROGRAMMING/web2py/applications/MUSIC/', '/home/gaurav/classwork/WEB_PROGRAMMING/web2py/applications/admin/', '/home/gaurav/classwork/WEB_PROGRAMMING/web2py/applications/welcome/'])"
p2058
asbasbasbag69
(g85
g71
NtRp2059
(dp2060
g74
(dp2061
sg83
g2034
sg76
(lp2062
g69
(g90
g71
NtRp2063
(dp2064
g74
(dp2065
g94
g95
ssg83
g2059
sg76
(lp2066
g919
asbag69
(g90
g71
NtRp2067
(dp2068
g74
(dp2069
g101
g102
ssg83
g2059
sg76
(lp2070
S':'
asbag69
(g90
g71
NtRp2071
(dp2072
g74
(dp2073
sg83
g2059
sg76
(lp2074
g69
(g70
g71
NtRp2075
(dp2076
g74
(dp2077
g82
I4
ssg83
g2071
sg76
(lp2078
g932
asbasbasbag69
(g85
g71
NtRp2079
(dp2080
g74
(dp2081
sg83
g2034
sg76
(lp2082
g69
(g90
g71
NtRp2083
(dp2084
g74
(dp2085
g94
g95
ssg83
g2079
sg76
(lp2086
g941
asbag69
(g90
g71
NtRp2087
(dp2088
g74
(dp2089
g101
g102
ssg83
g2079
sg76
(lp2090
S':'
asbag69
(g90
g71
NtRp2091
(dp2092
g74
(dp2093
sg83
g2079
sg76
(lp2094
g69
(g70
g71
NtRp2095
(dp2096
g74
(dp2097
g82
I4
ssg83
g2091
sg76
(lp2098
g69
(g78
g71
NtRp2099
(dp2100
g74
(dp2101
g82
I3
ssg83
Nsg76
(lp2102
sbasbasbasbag69
(g85
g71
NtRp2103
(dp2104
g74
(dp2105
sg83
g2034
sg76
(lp2106
g69
(g90
g71
NtRp2107
(dp2108
g74
(dp2109
g94
g95
ssg83
g2103
sg76
(lp2110
g966
asbag69
(g90
g71
NtRp2111
(dp2112
g74
(dp2113
g101
g102
ssg83
g2103
sg76
(lp2114
S':'
asbag69
(g90
g71
NtRp2115
(dp2116
g74
(dp2117
sg83
g2103
sg76
(lp2118
g69
(g70
g71
NtRp2119
(dp2120
g74
(dp2121
g82
I4
ssg83
g2115
sg76
(lp2122
S"<Values at 0x88926ec: {'verbose': False, 'ip': '127.0.0.1', 'with_scheduler': False, 'ips': [], 'shutdown_timeout': 5, 'taskbar': False, 'port': 8000, 'maxthreads': None, 'softcron': False, 'server_name': 'gaurav-Compaq-Presario-C700-Notebook-PC', 'bpython': False, 'nogui': False, 'pid_filename': 'httpserver.pid', 'extcron': False, 'runcron': False, 'run_system_tests': False, 'test': None, 'folder': '/home/gaurav/classwork/WEB_PROGRAMMING/web2py', 'config': '', 'import_models': False, 'winservice': '', 'shell': None, 'run': '', 'log_filename': 'httpserver.log', 'debuglevel': 30, 'args': [''], 'socket_timeout': 5, 'ssl_ca_certificate': None, 'scheduler': None, 'profiler_filename': None, 'ssl_private_key': '', 'scheduler_groups': None, 'password': '<ask>', 'request_queue_size': 5, 'ssl_certificate': '', 'cronjob': False, 'numthreads': None, 'quiet': False, 'interfaces': None, 'minthreads': None, 'timeout': 10, 'plain': False, 'nobanner': False}>"
p2123
asbasbasbag69
(g85
g71
NtRp2124
(dp2125
g74
(dp2126
sg83
g2034
sg76
(lp2127
g69
(g90
g71
NtRp2128
(dp2129
g74
(dp2130
g94
g95
ssg83
g2124
sg76
(lp2131
g988
asbag69
(g90
g71
NtRp2132
(dp2133
g74
(dp2134
g101
g102
ssg83
g2124
sg76
(lp2135
S':'
asbag69
(g90
g71
NtRp2136
(dp2137
g74
(dp2138
sg83
g2124
sg76
(lp2139
g69
(g70
g71
NtRp2140
(dp2141
g74
(dp2142
g82
I4
ssg83
g2136
sg76
(lp2143
S'set([])'
p2144
asbasbasbag69
(g85
g71
NtRp2145
(dp2146
g74
(dp2147
sg83
g2034
sg76
(lp2148
g69
(g90
g71
NtRp2149
(dp2150
g74
(dp2151
g94
g95
ssg83
g2145
sg76
(lp2152
g1010
asbag69
(g90
g71
NtRp2153
(dp2154
g74
(dp2155
g101
g102
ssg83
g2145
sg76
(lp2156
S':'
asbag69
(g90
g71
NtRp2157
(dp2158
g74
(dp2159
sg83
g2145
sg76
(lp2160
g69
(g70
g71
NtRp2161
(dp2162
g74
(dp2163
g82
I4
ssg83
g2157
sg76
(lp2164
g112
asbasbasbag69
(g85
g71
NtRp2165
(dp2166
g74
(dp2167
sg83
g2034
sg76
(lp2168
g69
(g90
g71
NtRp2169
(dp2170
g74
(dp2171
g94
g95
ssg83
g2165
sg76
(lp2172
g1031
asbag69
(g90
g71
NtRp2173
(dp2174
g74
(dp2175
g101
g102
ssg83
g2165
sg76
(lp2176
S':'
asbag69
(g90
g71
NtRp2177
(dp2178
g74
(dp2179
sg83
g2165
sg76
(lp2180
g69
(g70
g71
NtRp2181
(dp2182
g74
(dp2183
g82
I4
ssg83
g2177
sg76
(lp2184
g1044
asbasbasbag69
(g85
g71
NtRp2185
(dp2186
g74
(dp2187
sg83
g2034
sg76
(lp2188
g69
(g90
g71
NtRp2189
(dp2190
g74
(dp2191
g94
g95
ssg83
g2185
sg76
(lp2192
g1251
asbag69
(g90
g71
NtRp2193
(dp2194
g74
(dp2195
g101
g102
ssg83
g2185
sg76
(lp2196
S':'
asbag69
(g90
g71
NtRp2197
(dp2198
g74
(dp2199
sg83
g2185
sg76
(lp2200
g69
(g70
g71
NtRp2201
(dp2202
g74
(dp2203
g82
I4
ssg83
g2197
sg76
(lp2204
g112
asbasbasbag69
(g85
g71
NtRp2205
(dp2206
g74
(dp2207
sg83
g2034
sg76
(lp2208
g69
(g90
g71
NtRp2209
(dp2210
g74
(dp2211
g94
g95
ssg83
g2205
sg76
(lp2212
g1272
asbag69
(g90
g71
NtRp2213
(dp2214
g74
(dp2215
g101
g102
ssg83
g2205
sg76
(lp2216
S':'
asbag69
(g90
g71
NtRp2217
(dp2218
g74
(dp2219
sg83
g2205
sg76
(lp2220
g69
(g70
g71
NtRp2221
(dp2222
g74
(dp2223
g82
I4
ssg83
g2217
sg76
(lp2224
g112
asbasbasbag69
(g85
g71
NtRp2225
(dp2226
g74
(dp2227
sg83
g2034
sg76
(lp2228
g69
(g90
g71
NtRp2229
(dp2230
g74
(dp2231
g94
g95
ssg83
g2225
sg76
(lp2232
g1293
asbag69
(g90
g71
NtRp2233
(dp2234
g74
(dp2235
g101
g102
ssg83
g2225
sg76
(lp2236
S':'
asbag69
(g90
g71
NtRp2237
(dp2238
g74
(dp2239
sg83
g2225
sg76
(lp2240
g69
(g70
g71
NtRp2241
(dp2242
g74
(dp2243
g82
I4
ssg83
g2237
sg76
(lp2244
g69
(g78
g71
NtRp2245
(dp2246
g74
(dp2247
g82
I3
ssg83
Nsg76
(lp2248
g69
(g85
g71
NtRp2249
(dp2250
g74
(dp2251
sg83
g2245
sg76
(lp2252
g69
(g90
g71
NtRp2253
(dp2254
g74
(dp2255
sg83
g2249
sg76
(lp2256
g69
(g70
g71
NtRp2257
(dp2258
g74
(dp2259
g82
I3
ssg83
g2253
sg76
(lp2260
g1322
asbasbasbag69
(g85
g71
NtRp2261
(dp2262
g74
(dp2263
sg83
g2245
sg76
(lp2264
g69
(g90
g71
NtRp2265
(dp2266
g74
(dp2267
sg83
g2261
sg76
(lp2268
g69
(g70
g71
NtRp2269
(dp2270
g74
(dp2271
g82
I3
ssg83
g2265
sg76
(lp2272
g1335
asbasbasbag69
(g85
g71
NtRp2273
(dp2274
g74
(dp2275
sg83
g2245
sg76
(lp2276
g69
(g90
g71
NtRp2277
(dp2278
g74
(dp2279
sg83
g2273
sg76
(lp2280
g69
(g70
g71
NtRp2281
(dp2282
g74
(dp2283
g82
I3
ssg83
g2277
sg76
(lp2284
g1348
asbasbasbag69
(g85
g71
NtRp2285
(dp2286
g74
(dp2287
sg83
g2245
sg76
(lp2288
g69
(g90
g71
NtRp2289
(dp2290
g74
(dp2291
sg83
g2285
sg76
(lp2292
g69
(g70
g71
NtRp2293
(dp2294
g74
(dp2295
g82
I3
ssg83
g2289
sg76
(lp2296
g1361
asbasbasbag69
(g85
g71
NtRp2297
(dp2298
g74
(dp2299
sg83
g2245
sg76
(lp2300
g69
(g90
g71
NtRp2301
(dp2302
g74
(dp2303
sg83
g2297
sg76
(lp2304
g69
(g70
g71
NtRp2305
(dp2306
g74
(dp2307
g82
I3
ssg83
g2301
sg76
(lp2308
g1374
asbasbasbasbasbasbasbag69
(g85
g71
NtRp2309
(dp2310
g74
(dp2311
sg83
g2034
sg76
(lp2312
g69
(g90
g71
NtRp2313
(dp2314
g74
(dp2315
g94
g95
ssg83
g2309
sg76
(lp2316
g1642
asbag69
(g90
g71
NtRp2317
(dp2318
g74
(dp2319
g101
g102
ssg83
g2309
sg76
(lp2320
S':'
asbag69
(g90
g71
NtRp2321
(dp2322
g74
(dp2323
sg83
g2309
sg76
(lp2324
g69
(g70
g71
NtRp2325
(dp2326
g74
(dp2327
g82
I4
ssg83
g2321
sg76
(lp2328
g69
(g78
g71
NtRp2329
(dp2330
g74
(dp2331
g82
I3
ssg83
Nsg76
(lp2332
g69
(g85
g71
NtRp2333
(dp2334
g74
(dp2335
sg83
g2329
sg76
(lp2336
g69
(g90
g71
NtRp2337
(dp2338
g74
(dp2339
sg83
g2333
sg76
(lp2340
g69
(g70
g71
NtRp2341
(dp2342
g74
(dp2343
g82
I3
ssg83
g2337
sg76
(lp2344
S'2'
asbasbasbag69
(g85
g71
NtRp2345
(dp2346
g74
(dp2347
sg83
g2329
sg76
(lp2348
g69
(g90
g71
NtRp2349
(dp2350
g74
(dp2351
sg83
g2345
sg76
(lp2352
g69
(g70
g71
NtRp2353
(dp2354
g74
(dp2355
g82
I3
ssg83
g2349
sg76
(lp2356
S'3'
asbasbasbag69
(g85
g71
NtRp2357
(dp2358
g74
(dp2359
sg83
g2329
sg76
(lp2360
g69
(g90
g71
NtRp2361
(dp2362
g74
(dp2363
sg83
g2357
sg76
(lp2364
g69
(g70
g71
NtRp2365
(dp2366
g74
(dp2367
g82
I3
ssg83
g2361
sg76
(lp2368
S'2'
asbasbasbag69
(g85
g71
NtRp2369
(dp2370
g74
(dp2371
sg83
g2329
sg76
(lp2372
g69
(g90
g71
NtRp2373
(dp2374
g74
(dp2375
sg83
g2369
sg76
(lp2376
g69
(g70
g71
NtRp2377
(dp2378
g74
(dp2379
g82
I3
ssg83
g2373
sg76
(lp2380
S'datetime.datetime(2012, 12, 17, 15, 3, 30)'
p2381
asbasbasbag69
(g85
g71
NtRp2382
(dp2383
g74
(dp2384
sg83
g2329
sg76
(lp2385
g69
(g90
g71
NtRp2386
(dp2387
g74
(dp2388
sg83
g2382
sg76
(lp2389
g69
(g70
g71
NtRp2390
(dp2391
g74
(dp2392
g82
I3
ssg83
g2386
sg76
(lp2393
g1720
asbasbasbasbasbasbasbasbasbasbasbag69
(g85
g71
NtRp2394
(dp2395
g74
(dp2396
sg83
g79
sg76
(lp2397
g69
(g90
g71
NtRp2398
(dp2399
g74
(dp2400
g94
g95
ssg83
g2394
sg76
(lp2401
S'is_https'
p2402
asbag69
(g90
g71
NtRp2403
(dp2404
g74
(dp2405
g101
g102
ssg83
g2394
sg76
(lp2406
S':'
asbag69
(g90
g71
NtRp2407
(dp2408
g74
(dp2409
sg83
g2394
sg76
(lp2410
g69
(g70
g71
NtRp2411
(dp2412
g74
(dp2413
g82
I5
ssg83
g2407
sg76
(lp2414
g112
asbasbasbag69
(g85
g71
NtRp2415
(dp2416
g74
(dp2417
sg83
g79
sg76
(lp2418
g69
(g90
g71
NtRp2419
(dp2420
g74
(dp2421
g94
g95
ssg83
g2415
sg76
(lp2422
S'is_local'
p2423
asbag69
(g90
g71
NtRp2424
(dp2425
g74
(dp2426
g101
g102
ssg83
g2415
sg76
(lp2427
S':'
asbag69
(g90
g71
NtRp2428
(dp2429
g74
(dp2430
sg83
g2415
sg76
(lp2431
g69
(g70
g71
NtRp2432
(dp2433
g74
(dp2434
g82
I5
ssg83
g2428
sg76
(lp2435
g1829
asbasbasbag69
(g85
g71
NtRp2436
(dp2437
g74
(dp2438
sg83
g79
sg76
(lp2439
g69
(g90
g71
NtRp2440
(dp2441
g74
(dp2442
g94
g95
ssg83
g2436
sg76
(lp2443
S'is_restful'
p2444
asbag69
(g90
g71
NtRp2445
(dp2446
g74
(dp2447
g101
g102
ssg83
g2436
sg76
(lp2448
S':'
asbag69
(g90
g71
NtRp2449
(dp2450
g74
(dp2451
sg83
g2436
sg76
(lp2452
g69
(g70
g71
NtRp2453
(dp2454
g74
(dp2455
g82
I5
ssg83
g2449
sg76
(lp2456
g112
asbasbasbag69
(g85
g71
NtRp2457
(dp2458
g74
(dp2459
sg83
g79
sg76
(lp2460
g69
(g90
g71
NtRp2461
(dp2462
g74
(dp2463
g94
g95
ssg83
g2457
sg76
(lp2464
S'now'
p2465
asbag69
(g90
g71
NtRp2466
(dp2467
g74
(dp2468
g101
g102
ssg83
g2457
sg76
(lp2469
S':'
asbag69
(g90
g71
NtRp2470
(dp2471
g74
(dp2472
sg83
g2457
sg76
(lp2473
g69
(g70
g71
NtRp2474
(dp2475
g74
(dp2476
g82
I5
ssg83
g2470
sg76
(lp2477
S'datetime.datetime(2013, 3, 9, 16, 14, 19, 996156)'
p2478
asbasbasbag69
(g85
g71
NtRp2479
(dp2480
g74
(dp2481
sg83
g79
sg76
(lp2482
g69
(g90
g71
NtRp2483
(dp2484
g74
(dp2485
g94
g95
ssg83
g2479
sg76
(lp2486
S'post_vars'
p2487
asbag69
(g90
g71
NtRp2488
(dp2489
g74
(dp2490
g101
g102
ssg83
g2479
sg76
(lp2491
S':'
asbag69
(g90
g71
NtRp2492
(dp2493
g74
(dp2494
sg83
g2479
sg76
(lp2495
g69
(g70
g71
NtRp2496
(dp2497
g74
(dp2498
g82
I5
ssg83
g2492
sg76
(lp2499
g69
(g78
g71
NtRp2500
(dp2501
g74
(dp2502
g82
I4
ssg83
Nsg76
(lp2503
sbasbasbasbag69
(g85
g71
NtRp2504
(dp2505
g74
(dp2506
sg83
g79
sg76
(lp2507
g69
(g90
g71
NtRp2508
(dp2509
g74
(dp2510
g94
g95
ssg83
g2504
sg76
(lp2511
S'raw_args'
p2512
asbag69
(g90
g71
NtRp2513
(dp2514
g74
(dp2515
g101
g102
ssg83
g2504
sg76
(lp2516
S':'
asbag69
(g90
g71
NtRp2517
(dp2518
g74
(dp2519
sg83
g2504
sg76
(lp2520
g69
(g70
g71
NtRp2521
(dp2522
g74
(dp2523
g82
I5
ssg83
g2517
sg76
(lp2524
S'db/movie'
p2525
asbasbasbag69
(g85
g71
NtRp2526
(dp2527
g74
(dp2528
sg83
g79
sg76
(lp2529
g69
(g90
g71
NtRp2530
(dp2531
g74
(dp2532
g94
g95
ssg83
g2526
sg76
(lp2533
S'raw_extension'
p2534
asbag69
(g90
g71
NtRp2535
(dp2536
g74
(dp2537
g101
g102
ssg83
g2526
sg76
(lp2538
S':'
asbag69
(g90
g71
NtRp2539
(dp2540
g74
(dp2541
sg83
g2526
sg76
(lp2542
g69
(g70
g71
NtRp2543
(dp2544
g74
(dp2545
g82
I5
ssg83
g2539
sg76
(lp2546
S'None'
p2547
asbasbasbag69
(g85
g71
NtRp2548
(dp2549
g74
(dp2550
sg83
g79
sg76
(lp2551
g69
(g90
g71
NtRp2552
(dp2553
g74
(dp2554
g94
g95
ssg83
g2548
sg76
(lp2555
S'url'
p2556
asbag69
(g90
g71
NtRp2557
(dp2558
g74
(dp2559
g101
g102
ssg83
g2548
sg76
(lp2560
S':'
asbag69
(g90
g71
NtRp2561
(dp2562
g74
(dp2563
sg83
g2548
sg76
(lp2564
g69
(g70
g71
NtRp2565
(dp2566
g74
(dp2567
g82
I5
ssg83
g2561
sg76
(lp2568
g1396
asbasbasbag69
(g85
g71
NtRp2569
(dp2570
g74
(dp2571
sg83
g79
sg76
(lp2572
g69
(g90
g71
NtRp2573
(dp2574
g74
(dp2575
g94
g95
ssg83
g2569
sg76
(lp2576
S'utcnow'
p2577
asbag69
(g90
g71
NtRp2578
(dp2579
g74
(dp2580
g101
g102
ssg83
g2569
sg76
(lp2581
S':'
asbag69
(g90
g71
NtRp2582
(dp2583
g74
(dp2584
sg83
g2569
sg76
(lp2585
g69
(g70
g71
NtRp2586
(dp2587
g74
(dp2588
g82
I5
ssg83
g2582
sg76
(lp2589
S'datetime.datetime(2013, 3, 9, 10, 44, 19, 996195)'
p2590
asbasbasbag69
(g85
g71
NtRp2591
(dp2592
g74
(dp2593
sg83
g79
sg76
(lp2594
g69
(g90
g71
NtRp2595
(dp2596
g74
(dp2597
g94
g95
ssg83
g2591
sg76
(lp2598
S'uuid'
p2599
asbag69
(g90
g71
NtRp2600
(dp2601
g74
(dp2602
g101
g102
ssg83
g2591
sg76
(lp2603
S':'
asbag69
(g90
g71
NtRp2604
(dp2605
g74
(dp2606
sg83
g2591
sg76
(lp2607
g69
(g70
g71
NtRp2608
(dp2609
g74
(dp2610
g82
I5
ssg83
g2604
sg76
(lp2611
S'MUSIC/127.0.0.1.2013-03-09.16-14-19.e9d152c9-087f-4bc0-ab02-eeed478b7575'
p2612
asbasbasbag69
(g85
g71
NtRp2613
(dp2614
g74
(dp2615
sg83
g79
sg76
(lp2616
g69
(g90
g71
NtRp2617
(dp2618
g74
(dp2619
g94
g95
ssg83
g2613
sg76
(lp2620
S'vars'
p2621
asbag69
(g90
g71
NtRp2622
(dp2623
g74
(dp2624
g101
g102
ssg83
g2613
sg76
(lp2625
S':'
asbag69
(g90
g71
NtRp2626
(dp2627
g74
(dp2628
sg83
g2613
sg76
(lp2629
g69
(g70
g71
NtRp2630
(dp2631
g74
(dp2632
g82
I5
ssg83
g2626
sg76
(lp2633
g69
(g78
g71
NtRp2634
(dp2635
g74
(dp2636
g82
I4
ssg83
Nsg76
(lp2637
sbasbasbasbag69
(g85
g71
NtRp2638
(dp2639
g74
(dp2640
sg83
g79
sg76
(lp2641
g69
(g90
g71
NtRp2642
(dp2643
g74
(dp2644
g94
g95
ssg83
g2638
sg76
(lp2645
S'wsgi'
p2646
asbag69
(g90
g71
NtRp2647
(dp2648
g74
(dp2649
g101
g102
ssg83
g2638
sg76
(lp2650
S':'
asbag69
(g90
g71
NtRp2651
(dp2652
g74
(dp2653
sg83
g2638
sg76
(lp2654
g69
(g70
g71
NtRp2655
(dp2656
g74
(dp2657
g82
I5
ssg83
g2651
sg76
(lp2658
g69
(g78
g71
NtRp2659
(dp2660
g74
(dp2661
g82
I4
ssg83
Nsg76
(lp2662
g69
(g85
g71
NtRp2663
(dp2664
g74
(dp2665
sg83
g2659
sg76
(lp2666
g69
(g90
g71
NtRp2667
(dp2668
g74
(dp2669
g94
g95
ssg83
g2663
sg76
(lp2670
S'environ'
p2671
asbag69
(g90
g71
NtRp2672
(dp2673
g74
(dp2674
g101
g102
ssg83
g2663
sg76
(lp2675
S':'
asbag69
(g90
g71
NtRp2676
(dp2677
g74
(dp2678
sg83
g2663
sg76
(lp2679
g69
(g70
g71
NtRp2680
(dp2681
g74
(dp2682
g82
I4
ssg83
g2676
sg76
(lp2683
g69
(g78
g71
NtRp2684
(dp2685
g74
(dp2686
g82
I3
ssg83
Nsg76
(lp2687
g69
(g85
g71
NtRp2688
(dp2689
g74
(dp2690
sg83
g2684
sg76
(lp2691
g69
(g90
g71
NtRp2692
(dp2693
g74
(dp2694
g94
g95
ssg83
g2688
sg76
(lp2695
S'HTTP_ACCEPT'
p2696
asbag69
(g90
g71
NtRp2697
(dp2698
g74
(dp2699
g101
g102
ssg83
g2688
sg76
(lp2700
S':'
asbag69
(g90
g71
NtRp2701
(dp2702
g74
(dp2703
sg83
g2688
sg76
(lp2704
g69
(g70
g71
NtRp2705
(dp2706
g74
(dp2707
g82
I3
ssg83
g2701
sg76
(lp2708
g1066
asbasbasbag69
(g85
g71
NtRp2709
(dp2710
g74
(dp2711
sg83
g2684
sg76
(lp2712
g69
(g90
g71
NtRp2713
(dp2714
g74
(dp2715
g94
g95
ssg83
g2709
sg76
(lp2716
S'HTTP_ACCEPT_ENCODING'
p2717
asbag69
(g90
g71
NtRp2718
(dp2719
g74
(dp2720
g101
g102
ssg83
g2709
sg76
(lp2721
S':'
asbag69
(g90
g71
NtRp2722
(dp2723
g74
(dp2724
sg83
g2709
sg76
(lp2725
g69
(g70
g71
NtRp2726
(dp2727
g74
(dp2728
g82
I3
ssg83
g2722
sg76
(lp2729
g1088
asbasbasbag69
(g85
g71
NtRp2730
(dp2731
g74
(dp2732
sg83
g2684
sg76
(lp2733
g69
(g90
g71
NtRp2734
(dp2735
g74
(dp2736
g94
g95
ssg83
g2730
sg76
(lp2737
S'HTTP_ACCEPT_LANGUAGE'
p2738
asbag69
(g90
g71
NtRp2739
(dp2740
g74
(dp2741
g101
g102
ssg83
g2730
sg76
(lp2742
S':'
asbag69
(g90
g71
NtRp2743
(dp2744
g74
(dp2745
sg83
g2730
sg76
(lp2746
g69
(g70
g71
NtRp2747
(dp2748
g74
(dp2749
g82
I3
ssg83
g2743
sg76
(lp2750
g1110
asbasbasbag69
(g85
g71
NtRp2751
(dp2752
g74
(dp2753
sg83
g2684
sg76
(lp2754
g69
(g90
g71
NtRp2755
(dp2756
g74
(dp2757
g94
g95
ssg83
g2751
sg76
(lp2758
S'HTTP_CACHE_CONTROL'
p2759
asbag69
(g90
g71
NtRp2760
(dp2761
g74
(dp2762
g101
g102
ssg83
g2751
sg76
(lp2763
S':'
asbag69
(g90
g71
NtRp2764
(dp2765
g74
(dp2766
sg83
g2751
sg76
(lp2767
g69
(g70
g71
NtRp2768
(dp2769
g74
(dp2770
g82
I3
ssg83
g2764
sg76
(lp2771
g1132
asbasbasbag69
(g85
g71
NtRp2772
(dp2773
g74
(dp2774
sg83
g2684
sg76
(lp2775
g69
(g90
g71
NtRp2776
(dp2777
g74
(dp2778
g94
g95
ssg83
g2772
sg76
(lp2779
S'HTTP_CONNECTION'
p2780
asbag69
(g90
g71
NtRp2781
(dp2782
g74
(dp2783
g101
g102
ssg83
g2772
sg76
(lp2784
S':'
asbag69
(g90
g71
NtRp2785
(dp2786
g74
(dp2787
sg83
g2772
sg76
(lp2788
g69
(g70
g71
NtRp2789
(dp2790
g74
(dp2791
g82
I3
ssg83
g2785
sg76
(lp2792
g1154
asbasbasbag69
(g85
g71
NtRp2793
(dp2794
g74
(dp2795
sg83
g2684
sg76
(lp2796
g69
(g90
g71
NtRp2797
(dp2798
g74
(dp2799
g94
g95
ssg83
g2793
sg76
(lp2800
S'HTTP_COOKIE'
p2801
asbag69
(g90
g71
NtRp2802
(dp2803
g74
(dp2804
g101
g102
ssg83
g2793
sg76
(lp2805
S':'
asbag69
(g90
g71
NtRp2806
(dp2807
g74
(dp2808
sg83
g2793
sg76
(lp2809
g69
(g70
g71
NtRp2810
(dp2811
g74
(dp2812
g82
I3
ssg83
g2806
sg76
(lp2813
g1176
asbasbasbag69
(g85
g71
NtRp2814
(dp2815
g74
(dp2816
sg83
g2684
sg76
(lp2817
g69
(g90
g71
NtRp2818
(dp2819
g74
(dp2820
g94
g95
ssg83
g2814
sg76
(lp2821
S'HTTP_HOST'
p2822
asbag69
(g90
g71
NtRp2823
(dp2824
g74
(dp2825
g101
g102
ssg83
g2814
sg76
(lp2826
S':'
asbag69
(g90
g71
NtRp2827
(dp2828
g74
(dp2829
sg83
g2814
sg76
(lp2830
g69
(g70
g71
NtRp2831
(dp2832
g74
(dp2833
g82
I3
ssg83
g2827
sg76
(lp2834
g1198
asbasbasbag69
(g85
g71
NtRp2835
(dp2836
g74
(dp2837
sg83
g2684
sg76
(lp2838
g69
(g90
g71
NtRp2839
(dp2840
g74
(dp2841
g94
g95
ssg83
g2835
sg76
(lp2842
S'HTTP_REFERER'
p2843
asbag69
(g90
g71
NtRp2844
(dp2845
g74
(dp2846
g101
g102
ssg83
g2835
sg76
(lp2847
S':'
asbag69
(g90
g71
NtRp2848
(dp2849
g74
(dp2850
sg83
g2835
sg76
(lp2851
g69
(g70
g71
NtRp2852
(dp2853
g74
(dp2854
g82
I3
ssg83
g2848
sg76
(lp2855
g1220
asbasbasbag69
(g85
g71
NtRp2856
(dp2857
g74
(dp2858
sg83
g2684
sg76
(lp2859
g69
(g90
g71
NtRp2860
(dp2861
g74
(dp2862
g94
g95
ssg83
g2856
sg76
(lp2863
S'HTTP_USER_AGENT'
p2864
asbag69
(g90
g71
NtRp2865
(dp2866
g74
(dp2867
g101
g102
ssg83
g2856
sg76
(lp2868
S':'
asbag69
(g90
g71
NtRp2869
(dp2870
g74
(dp2871
sg83
g2856
sg76
(lp2872
g69
(g70
g71
NtRp2873
(dp2874
g74
(dp2875
g82
I3
ssg83
g2869
sg76
(lp2876
g1242
asbasbasbag69
(g85
g71
NtRp2877
(dp2878
g74
(dp2879
sg83
g2684
sg76
(lp2880
g69
(g90
g71
NtRp2881
(dp2882
g74
(dp2883
g94
g95
ssg83
g2877
sg76
(lp2884
S'PATH_INFO'
p2885
asbag69
(g90
g71
NtRp2886
(dp2887
g74
(dp2888
g101
g102
ssg83
g2877
sg76
(lp2889
S':'
asbag69
(g90
g71
NtRp2890
(dp2891
g74
(dp2892
sg83
g2877
sg76
(lp2893
g69
(g70
g71
NtRp2894
(dp2895
g74
(dp2896
g82
I3
ssg83
g2890
sg76
(lp2897
g1396
asbasbasbag69
(g85
g71
NtRp2898
(dp2899
g74
(dp2900
sg83
g2684
sg76
(lp2901
g69
(g90
g71
NtRp2902
(dp2903
g74
(dp2904
g94
g95
ssg83
g2898
sg76
(lp2905
S'QUERY_STRING'
p2906
asbag69
(g90
g71
NtRp2907
(dp2908
g74
(dp2909
g101
g102
ssg83
g2898
sg76
(lp2910
S':'
asbag69
(g90
g71
NtRp2911
(dp2912
g74
(dp2913
sg83
g2898
sg76
(lp2914
g69
(g70
g71
NtRp2915
(dp2916
g74
(dp2917
g82
I3
ssg83
g2911
sg76
(lp2918
S''
asbasbasbag69
(g85
g71
NtRp2919
(dp2920
g74
(dp2921
sg83
g2684
sg76
(lp2922
g69
(g90
g71
NtRp2923
(dp2924
g74
(dp2925
g94
g95
ssg83
g2919
sg76
(lp2926
S'REMOTE_ADDR'
p2927
asbag69
(g90
g71
NtRp2928
(dp2929
g74
(dp2930
g101
g102
ssg83
g2919
sg76
(lp2931
S':'
asbag69
(g90
g71
NtRp2932
(dp2933
g74
(dp2934
sg83
g2919
sg76
(lp2935
g69
(g70
g71
NtRp2936
(dp2937
g74
(dp2938
g82
I3
ssg83
g2932
sg76
(lp2939
g250
asbasbasbag69
(g85
g71
NtRp2940
(dp2941
g74
(dp2942
sg83
g2684
sg76
(lp2943
g69
(g90
g71
NtRp2944
(dp2945
g74
(dp2946
g94
g95
ssg83
g2940
sg76
(lp2947
S'REMOTE_PORT'
p2948
asbag69
(g90
g71
NtRp2949
(dp2950
g74
(dp2951
g101
g102
ssg83
g2940
sg76
(lp2952
S':'
asbag69
(g90
g71
NtRp2953
(dp2954
g74
(dp2955
sg83
g2940
sg76
(lp2956
g69
(g70
g71
NtRp2957
(dp2958
g74
(dp2959
g82
I3
ssg83
g2953
sg76
(lp2960
g1460
asbasbasbag69
(g85
g71
NtRp2961
(dp2962
g74
(dp2963
sg83
g2684
sg76
(lp2964
g69
(g90
g71
NtRp2965
(dp2966
g74
(dp2967
g94
g95
ssg83
g2961
sg76
(lp2968
S'REQUEST_METHOD'
p2969
asbag69
(g90
g71
NtRp2970
(dp2971
g74
(dp2972
g101
g102
ssg83
g2961
sg76
(lp2973
S':'
asbag69
(g90
g71
NtRp2974
(dp2975
g74
(dp2976
sg83
g2961
sg76
(lp2977
g69
(g70
g71
NtRp2978
(dp2979
g74
(dp2980
g82
I3
ssg83
g2974
sg76
(lp2981
g1482
asbasbasbag69
(g85
g71
NtRp2982
(dp2983
g74
(dp2984
sg83
g2684
sg76
(lp2985
g69
(g90
g71
NtRp2986
(dp2987
g74
(dp2988
g94
g95
ssg83
g2982
sg76
(lp2989
S'REQUEST_URI'
p2990
asbag69
(g90
g71
NtRp2991
(dp2992
g74
(dp2993
g101
g102
ssg83
g2982
sg76
(lp2994
S':'
asbag69
(g90
g71
NtRp2995
(dp2996
g74
(dp2997
sg83
g2982
sg76
(lp2998
g69
(g70
g71
NtRp2999
(dp3000
g74
(dp3001
g82
I3
ssg83
g2995
sg76
(lp3002
g1396
asbasbasbag69
(g85
g71
NtRp3003
(dp3004
g74
(dp3005
sg83
g2684
sg76
(lp3006
g69
(g90
g71
NtRp3007
(dp3008
g74
(dp3009
g94
g95
ssg83
g3003
sg76
(lp3010
S'SCRIPT_NAME'
p3011
asbag69
(g90
g71
NtRp3012
(dp3013
g74
(dp3014
g101
g102
ssg83
g3003
sg76
(lp3015
S':'
asbag69
(g90
g71
NtRp3016
(dp3017
g74
(dp3018
sg83
g3003
sg76
(lp3019
g69
(g70
g71
NtRp3020
(dp3021
g74
(dp3022
g82
I3
ssg83
g3016
sg76
(lp3023
S''
asbasbasbag69
(g85
g71
NtRp3024
(dp3025
g74
(dp3026
sg83
g2684
sg76
(lp3027
g69
(g90
g71
NtRp3028
(dp3029
g74
(dp3030
g94
g95
ssg83
g3024
sg76
(lp3031
S'SERVER_NAME'
p3032
asbag69
(g90
g71
NtRp3033
(dp3034
g74
(dp3035
g101
g102
ssg83
g3024
sg76
(lp3036
S':'
asbag69
(g90
g71
NtRp3037
(dp3038
g74
(dp3039
sg83
g3024
sg76
(lp3040
g69
(g70
g71
NtRp3041
(dp3042
g74
(dp3043
g82
I3
ssg83
g3037
sg76
(lp3044
g1546
asbasbasbag69
(g85
g71
NtRp3045
(dp3046
g74
(dp3047
sg83
g2684
sg76
(lp3048
g69
(g90
g71
NtRp3049
(dp3050
g74
(dp3051
g94
g95
ssg83
g3045
sg76
(lp3052
S'SERVER_PORT'
p3053
asbag69
(g90
g71
NtRp3054
(dp3055
g74
(dp3056
g101
g102
ssg83
g3045
sg76
(lp3057
S':'
asbag69
(g90
g71
NtRp3058
(dp3059
g74
(dp3060
sg83
g3045
sg76
(lp3061
g69
(g70
g71
NtRp3062
(dp3063
g74
(dp3064
g82
I3
ssg83
g3058
sg76
(lp3065
g1568
asbasbasbag69
(g85
g71
NtRp3066
(dp3067
g74
(dp3068
sg83
g2684
sg76
(lp3069
g69
(g90
g71
NtRp3070
(dp3071
g74
(dp3072
g94
g95
ssg83
g3066
sg76
(lp3073
S'SERVER_PROTOCOL'
p3074
asbag69
(g90
g71
NtRp3075
(dp3076
g74
(dp3077
g101
g102
ssg83
g3066
sg76
(lp3078
S':'
asbag69
(g90
g71
NtRp3079
(dp3080
g74
(dp3081
sg83
g3066
sg76
(lp3082
g69
(g70
g71
NtRp3083
(dp3084
g74
(dp3085
g82
I3
ssg83
g3079
sg76
(lp3086
g1590
asbasbasbag69
(g85
g71
NtRp3087
(dp3088
g74
(dp3089
sg83
g2684
sg76
(lp3090
g69
(g90
g71
NtRp3091
(dp3092
g74
(dp3093
g94
g95
ssg83
g3087
sg76
(lp3094
S'SERVER_SOFTWARE'
p3095
asbag69
(g90
g71
NtRp3096
(dp3097
g74
(dp3098
g101
g102
ssg83
g3087
sg76
(lp3099
S':'
asbag69
(g90
g71
NtRp3100
(dp3101
g74
(dp3102
sg83
g3087
sg76
(lp3103
g69
(g70
g71
NtRp3104
(dp3105
g74
(dp3106
g82
I3
ssg83
g3100
sg76
(lp3107
g1612
asbasbasbag69
(g85
g71
NtRp3108
(dp3109
g74
(dp3110
sg83
g2684
sg76
(lp3111
g69
(g90
g71
NtRp3112
(dp3113
g74
(dp3114
g94
g95
ssg83
g3108
sg76
(lp3115
S'wsgi.errors'
p3116
asbag69
(g90
g71
NtRp3117
(dp3118
g74
(dp3119
g101
g102
ssg83
g3108
sg76
(lp3120
S':'
asbag69
(g90
g71
NtRp3121
(dp3122
g74
(dp3123
sg83
g3108
sg76
(lp3124
g69
(g70
g71
NtRp3125
(dp3126
g74
(dp3127
g82
I3
ssg83
g3121
sg76
(lp3128
S"<open file '<stderr>', mode 'w' at 0xb751e0d0>"
p3129
asbasbasbag69
(g85
g71
NtRp3130
(dp3131
g74
(dp3132
sg83
g2684
sg76
(lp3133
g69
(g90
g71
NtRp3134
(dp3135
g74
(dp3136
g94
g95
ssg83
g3130
sg76
(lp3137
S'wsgi.file_wrapper'
p3138
asbag69
(g90
g71
NtRp3139
(dp3140
g74
(dp3141
g101
g102
ssg83
g3130
sg76
(lp3142
S':'
asbag69
(g90
g71
NtRp3143
(dp3144
g74
(dp3145
sg83
g3130
sg76
(lp3146
g69
(g70
g71
NtRp3147
(dp3148
g74
(dp3149
g82
I3
ssg83
g3143
sg76
(lp3150
S'<class wsgiref.util.FileWrapper at 0x8844ecc>'
p3151
asbasbasbag69
(g85
g71
NtRp3152
(dp3153
g74
(dp3154
sg83
g2684
sg76
(lp3155
g69
(g90
g71
NtRp3156
(dp3157
g74
(dp3158
g94
g95
ssg83
g3152
sg76
(lp3159
S'wsgi.input'
p3160
asbag69
(g90
g71
NtRp3161
(dp3162
g74
(dp3163
g101
g102
ssg83
g3152
sg76
(lp3164
S':'
asbag69
(g90
g71
NtRp3165
(dp3166
g74
(dp3167
sg83
g3152
sg76
(lp3168
g69
(g70
g71
NtRp3169
(dp3170
g74
(dp3171
g82
I3
ssg83
g3165
sg76
(lp3172
S'<cStringIO.StringO object at 0xae2a11e0>'
p3173
asbasbasbag69
(g85
g71
NtRp3174
(dp3175
g74
(dp3176
sg83
g2684
sg76
(lp3177
g69
(g90
g71
NtRp3178
(dp3179
g74
(dp3180
g94
g95
ssg83
g3174
sg76
(lp3181
S'wsgi.multiprocess'
p3182
asbag69
(g90
g71
NtRp3183
(dp3184
g74
(dp3185
g101
g102
ssg83
g3174
sg76
(lp3186
S':'
asbag69
(g90
g71
NtRp3187
(dp3188
g74
(dp3189
sg83
g3174
sg76
(lp3190
g69
(g70
g71
NtRp3191
(dp3192
g74
(dp3193
g82
I3
ssg83
g3187
sg76
(lp3194
g112
asbasbasbag69
(g85
g71
NtRp3195
(dp3196
g74
(dp3197
sg83
g2684
sg76
(lp3198
g69
(g90
g71
NtRp3199
(dp3200
g74
(dp3201
g94
g95
ssg83
g3195
sg76
(lp3202
S'wsgi.multithread'
p3203
asbag69
(g90
g71
NtRp3204
(dp3205
g74
(dp3206
g101
g102
ssg83
g3195
sg76
(lp3207
S':'
asbag69
(g90
g71
NtRp3208
(dp3209
g74
(dp3210
sg83
g3195
sg76
(lp3211
g69
(g70
g71
NtRp3212
(dp3213
g74
(dp3214
g82
I3
ssg83
g3208
sg76
(lp3215
g1829
asbasbasbag69
(g85
g71
NtRp3216
(dp3217
g74
(dp3218
sg83
g2684
sg76
(lp3219
g69
(g90
g71
NtRp3220
(dp3221
g74
(dp3222
g94
g95
ssg83
g3216
sg76
(lp3223
S'wsgi.run_once'
p3224
asbag69
(g90
g71
NtRp3225
(dp3226
g74
(dp3227
g101
g102
ssg83
g3216
sg76
(lp3228
S':'
asbag69
(g90
g71
NtRp3229
(dp3230
g74
(dp3231
sg83
g3216
sg76
(lp3232
g69
(g70
g71
NtRp3233
(dp3234
g74
(dp3235
g82
I3
ssg83
g3229
sg76
(lp3236
g112
asbasbasbag69
(g85
g71
NtRp3237
(dp3238
g74
(dp3239
sg83
g2684
sg76
(lp3240
g69
(g90
g71
NtRp3241
(dp3242
g74
(dp3243
g94
g95
ssg83
g3237
sg76
(lp3244
S'wsgi.url_scheme'
p3245
asbag69
(g90
g71
NtRp3246
(dp3247
g74
(dp3248
g101
g102
ssg83
g3237
sg76
(lp3249
S':'
asbag69
(g90
g71
NtRp3250
(dp3251
g74
(dp3252
sg83
g3237
sg76
(lp3253
g69
(g70
g71
NtRp3254
(dp3255
g74
(dp3256
g82
I3
ssg83
g3250
sg76
(lp3257
g1872
asbasbasbag69
(g85
g71
NtRp3258
(dp3259
g74
(dp3260
sg83
g2684
sg76
(lp3261
g69
(g90
g71
NtRp3262
(dp3263
g74
(dp3264
g94
g95
ssg83
g3258
sg76
(lp3265
S'wsgi.version'
p3266
asbag69
(g90
g71
NtRp3267
(dp3268
g74
(dp3269
g101
g102
ssg83
g3258
sg76
(lp3270
S':'
asbag69
(g90
g71
NtRp3271
(dp3272
g74
(dp3273
sg83
g3258
sg76
(lp3274
g69
(g70
g71
NtRp3275
(dp3276
g74
(dp3277
g82
I3
ssg83
g3271
sg76
(lp3278
S'1'
asbasbasbasbasbasbasbasbasbasbasbasbasbsS'frames'
p3279
(lp3280
(dp3281
S'file'
p3282
S'/home/gaurav/classwork/WEB_PROGRAMMING/web2py/gluon/restricted.py'
p3283
sS'dump'
p3284
(dp3285
S'environment'
p3286
S"{'A': <class 'gluon.html.A'>, 'Auth': <class 'gluon.tools.Auth'>, 'B': <class 'gluon.html.B'>, 'BEAUTIFY': <class 'gluon.html.BEAUTIFY'>, 'BODY': <class 'gluon.html.BODY'>, 'BR': <class 'gluon.html.BR'>, 'BUTTON': <class 'gluon.html.BUTTON'>, 'CAT': <class 'gluon.html.CAT'>, 'CENTER': <class 'gluon.html.CENTER'>, 'CLEANUP': <class 'gluon.validators.CLEANUP'>, ...}"
p3287
sS'ccode'
p3288
S'<code object <module> at 0xade0c3c8, file "/home...web2py/applications/MUSIC/models/db.py", line 12>'
p3289
ssS'lnum'
p3290
I212
sS'lines'
p3291
(dp3292
I207
S'    try:'
p3293
sI208
S'        if isinstance(code, types.CodeType):'
p3294
sI209
S'            ccode = code'
p3295
sI210
S'        else:'
p3296
sI211
S'            ccode = compile2(code, layer)'
p3297
sI212
S'        exec ccode in environment'
p3298
sI213
S'    except HTTP:'
p3299
sI214
S'        raise'
p3300
sI215
S'    except RestrictedError:'
p3301
sI216
S'        # do not encapsulate (obfuscate) the original RestrictedError'
p3302
ssS'call'
p3303
S'(code="# -*- coding: utf-8 -*-\\n\\n#######################... Field(\'singing_actor\',\'string\',required=True))\\n\\n", environment={\'A\': <class \'gluon.html.A\'>, \'Auth\': <class \'gluon.tools.Auth\'>, \'B\': <class \'gluon.html.B\'>, \'BEAUTIFY\': <class \'gluon.html.BEAUTIFY\'>, \'BODY\': <class \'gluon.html.BODY\'>, \'BR\': <class \'gluon.html.BR\'>, \'BUTTON\': <class \'gluon.html.BUTTON\'>, \'CAT\': <class \'gluon.html.CAT\'>, \'CENTER\': <class \'gluon.html.CENTER\'>, \'CLEANUP\': <class \'gluon.validators.CLEANUP\'>, ...}, layer=\'/home/gaurav/classwork/WEB_PROGRAMMING/web2py/applications/MUSIC/models/db.py\')'
p3304
sS'func'
p3305
S'restricted'
p3306
sa(dp3307
g3282
S'/home/gaurav/classwork/WEB_PROGRAMMING/web2py/applications/MUSIC/models/db.py'
p3308
sg3284
(dp3309
S'Field'
p3310
S"<class 'gluon.dal.Field'>"
p3311
sS'builtinTrue'
p3312
g1829
sS'required'
p3313
S'undefined'
p3314
ssg3290
I106
sg3291
(dp3315
I98
S"\t  Field('release_date','date',required=True))"
p3316
sI99
S''
sI100
S"db.define_table('song',"
p3317
sI101
S"\t  Field('name','string',required=True),"
p3318
sI102
S"\t  Field('length','string',required=True),"
p3319
sI103
S"\t  Field('singer','string',required=True),"
p3320
sI104
S"\t  Field('composer','string',required=True),"
p3321
sI105
S"\t  Field('movie','string',required=True),"
p3322
sI106
S"\t  Field('singing_actor','string',required=True))"
p3323
sI107
S''
ssg3303
S'()'
p3324
sg3305
S'<module>'
p3325
sa(dp3326
g3282
S'/home/gaurav/classwork/WEB_PROGRAMMING/web2py/gluon/dal.py'
p3327
sg3284
(dp3328
S'fields'
p3329
S'(<gluon.dal.Field object>, <gluon.dal.Field object>, <gluon.dal.Field object>, <gluon.dal.Field object>, <gluon.dal.Field object>, <gluon.dal.Field object>)'
p3330
sS'self'
p3331
S'<DAL uri="sqlite://storage.sqlite">'
p3332
sS'args'
p3333
g21
sS'tablename'
p3334
S"'song'"
p3335
sS'table'
p3336
g3314
sS'self.lazy_define_table'
p3337
S'<bound method DAL.lazy_define_table of <DAL uri="sqlite://storage.sqlite">>'
p3338
ssg3290
I7186
sg3291
(dp3339
I7181
S'                    % (tablename,invalid_args))'
p3340
sI7182
S'        if self._lazy_tables and not tablename in self._LAZY_TABLES:'
p3341
sI7183
S'            self._LAZY_TABLES[tablename] = (tablename,fields,args)'
p3342
sI7184
S'            table = None'
p3343
sI7185
S'        else:'
p3344
sI7186
S'            table = self.lazy_define_table(tablename,*fields,**args)'
p3345
sI7187
S'        if not tablename in self.tables:'
p3346
sI7188
S'            self.tables.append(tablename)'
p3347
sI7189
S'        return table'
p3348
sI7190
S''
ssg3303
S'(self=<DAL uri="sqlite://storage.sqlite">, tablename=\'song\', *fields=(<gluon.dal.Field object>, <gluon.dal.Field object>, <gluon.dal.Field object>, <gluon.dal.Field object>, <gluon.dal.Field object>, <gluon.dal.Field object>), **args={})'
p3349
sg3305
S'define_table'
p3350
sa(dp3351
g3282
S'/home/gaurav/classwork/WEB_PROGRAMMING/web2py/gluon/dal.py'
p3352
sg3284
(dp3353
S'fields'
p3354
S'(<gluon.dal.Field object>, <gluon.dal.Field object>, <gluon.dal.Field object>, <gluon.dal.Field object>, <gluon.dal.Field object>, <gluon.dal.Field object>)'
p3355
sS'self'
p3356
S'<DAL uri="sqlite://storage.sqlite">'
p3357
sS'args'
p3358
g21
sS'tablename'
p3359
S"'song'"
p3360
sS'table_class'
p3361
S"<class 'gluon.dal.Table'>"
p3362
sS'table'
p3363
g3314
ssg3290
I7203
sg3291
(dp3364
I7200
S'            fields = list(fields) + list(common_fields)'
p3365
sI7201
S''
sI7202
S"        table_class = args_get('table_class',Table)"
p3366
sI7203
S'        table = table_class(self, tablename, *fields, **args)'
p3367
sI7204
S'        table._actual = True'
p3368
sI7205
S'        self[tablename] = table'
p3369
sI7206
S'        # must follow above line to handle self references'
p3370
sI7207
S'        table._create_references()'
p3371
sI7198
S'        common_fields = self._common_fields'
p3372
sI7199
S'        if common_fields:'
p3373
ssg3303
S'(self=<DAL uri="sqlite://storage.sqlite">, tablename=\'song\', *fields=(<gluon.dal.Field object>, <gluon.dal.Field object>, <gluon.dal.Field object>, <gluon.dal.Field object>, <gluon.dal.Field object>, <gluon.dal.Field object>), **args={})'
p3374
sg3305
S'lazy_define_table'
p3375
sa(dp3376
g3282
S'/home/gaurav/classwork/WEB_PROGRAMMING/web2py/gluon/dal.py'
p3377
sg3284
(dp3378
S'field_name'
p3379
S"'length'"
p3380
sS'db.check_reserved_keyword'
p3381
S'<bound method DAL.check_reserved_keyword of <DAL uri="sqlite://storage.sqlite">>'
p3382
sS'db'
p3383
S'<DAL uri="sqlite://storage.sqlite">'
p3384
ssg3290
I7609
sg3291
(dp3385
I7604
S'        lower_fieldnames = set()'
p3386
sI7605
S"        reserved = dir(Table) + ['fields']"
p3387
sI7606
S'        for field in fields:'
p3388
sI7607
S'            field_name = field.name'
p3389
sI7608
S'            if db and db.check_reserved:'
p3390
sI7609
S'                db.check_reserved_keyword(field_name)'
p3391
sI7610
S'            elif field_name in reserved:'
p3392
sI7611
S'                raise SyntaxError("field name %s not allowed" % field_name)'
p3393
sI7612
S''
sI7613
S'            if field_name.lower() in lower_fieldnames:'
p3394
ssg3303
S'(self=<Table song (id,name)>, db=<DAL uri="sqlite://storage.sqlite">, tablename=\'song\', *fields=[<gluon.dal.Field object>, <gluon.dal.Field object>, <gluon.dal.Field object>, <gluon.dal.Field object>, <gluon.dal.Field object>, <gluon.dal.Field object>, <gluon.dal.Field object>], **args={})'
p3395
sg3305
g24
sa(dp3396
g3282
S'/home/gaurav/classwork/WEB_PROGRAMMING/web2py/gluon/dal.py'
p3397
sg3284
(dp3398
S'backend.upper'
p3399
S'<built-in method upper of str object>'
p3400
sS'name'
p3401
S"'length'"
p3402
sS'backend'
p3403
S"'all'"
p3404
ssg3290
I6930
sg3291
(dp3405
I6925
S"        ['all']"
p3406
sI6926
S'        """'
p3407
sI6927
S'        for backend in self.check_reserved:'
p3408
sI6928
S'            if name.upper() in self.RSK[backend]:'
p3409
sI6929
S'                raise SyntaxError('
p3410
sI6930
S'                    \'invalid table/column name "%s" is a "%s" reserved SQL keyword\' % (name, backend.upper()))'
p3411
sI6931
S''
sI6932
S'    def parse_as_rest(self,patterns,args,vars,queries=None,nested_select=True):'
p3412
sI6933
S'        """'
p3413
sI6934
S'        EXAMPLE:'
p3414
ssg3303
S'(self=<DAL uri="sqlite://storage.sqlite">, name=\'length\')'
p3415
sg3305
S'check_reserved_keyword'
p3416
sasS'pyver'
p3417
S'Python 2.7.3: /usr/bin/python'
p3418
sS'session'
p3419
g69
(g70
g71
NtRp3420
(dp3421
g74
(dp3422
sg76
(lp3423
g69
(g78
g71
NtRp3424
(dp3425
g74
(dp3426
g82
I5
ssg83
Nsg76
(lp3427
g69
(g85
g71
NtRp3428
(dp3429
g74
(dp3430
sg83
g3424
sg76
(lp3431
g69
(g90
g71
NtRp3432
(dp3433
g74
(dp3434
g94
g95
ssg83
g3428
sg76
(lp3435
S'last_orderby'
p3436
asbag69
(g90
g71
NtRp3437
(dp3438
g74
(dp3439
g101
g102
ssg83
g3428
sg76
(lp3440
S':'
asbag69
(g90
g71
NtRp3441
(dp3442
g74
(dp3443
sg83
g3428
sg76
(lp3444
g69
(g70
g71
NtRp3445
(dp3446
g74
(dp3447
g82
I5
ssg83
g3441
sg76
(lp3448
S'None'
p3449
asbasbasbag69
(g85
g71
NtRp3450
(dp3451
g74
(dp3452
sg83
g3424
sg76
(lp3453
g69
(g90
g71
NtRp3454
(dp3455
g74
(dp3456
g94
g95
ssg83
g3450
sg76
(lp3457
S'last_query'
p3458
asbag69
(g90
g71
NtRp3459
(dp3460
g74
(dp3461
g101
g102
ssg83
g3450
sg76
(lp3462
S':'
asbag69
(g90
g71
NtRp3463
(dp3464
g74
(dp3465
sg83
g3450
sg76
(lp3466
g69
(g70
g71
NtRp3467
(dp3468
g74
(dp3469
g82
I5
ssg83
g3463
sg76
(lp3470
S'db.artist.id>0'
p3471
asbasbasbasbasbsS'etype'
p3472
S"<type 'exceptions.SyntaxError'>"
p3473
sS'date'
p3474
S'Sat Mar  9 16:14:20 2013'
p3475
sS'response'
p3476
g69
(g70
g71
NtRp3477
(dp3478
g74
(dp3479
sg76
(lp3480
g69
(g78
g71
NtRp3481
(dp3482
g74
(dp3483
g82
I5
ssg83
Nsg76
(lp3484
g69
(g85
g71
NtRp3485
(dp3486
g74
(dp3487
sg83
g3481
sg76
(lp3488
g69
(g90
g71
NtRp3489
(dp3490
g74
(dp3491
g94
g95
ssg83
g3485
sg76
(lp3492
g193
asbag69
(g90
g71
NtRp3493
(dp3494
g74
(dp3495
g101
g102
ssg83
g3485
sg76
(lp3496
S':'
asbag69
(g90
g71
NtRp3497
(dp3498
g74
(dp3499
sg83
g3485
sg76
(lp3500
g69
(g70
g71
NtRp3501
(dp3502
g74
(dp3503
g82
I5
ssg83
g3497
sg76
(lp3504
S'<cStringIO.StringO object at 0xae48b7e0>'
p3505
asbasbasbag69
(g85
g71
NtRp3506
(dp3507
g74
(dp3508
sg83
g3481
sg76
(lp3509
g69
(g90
g71
NtRp3510
(dp3511
g74
(dp3512
g94
g95
ssg83
g3506
sg76
(lp3513
g281
asbag69
(g90
g71
NtRp3514
(dp3515
g74
(dp3516
g101
g102
ssg83
g3506
sg76
(lp3517
S':'
asbag69
(g90
g71
NtRp3518
(dp3519
g74
(dp3520
sg83
g3506
sg76
(lp3521
g69
(g70
g71
NtRp3522
(dp3523
g74
(dp3524
g82
I5
ssg83
g3518
sg76
(lp3525
g69
(g78
g71
NtRp3526
(dp3527
g74
(dp3528
g82
I4
ssg83
Nsg76
(lp3529
g69
(g85
g71
NtRp3530
(dp3531
g74
(dp3532
sg83
g3526
sg76
(lp3533
g69
(g90
g71
NtRp3534
(dp3535
g74
(dp3536
g94
g95
ssg83
g3530
sg76
(lp3537
S'session_id_music'
p3538
asbag69
(g90
g71
NtRp3539
(dp3540
g74
(dp3541
g101
g102
ssg83
g3530
sg76
(lp3542
S':'
asbag69
(g90
g71
NtRp3543
(dp3544
g74
(dp3545
sg83
g3530
sg76
(lp3546
g69
(g70
g71
NtRp3547
(dp3548
g74
(dp3549
g82
I4
ssg83
g3543
sg76
(lp3550
g513
ag69
(g78
g71
NtRp3551
(dp3552
g74
(dp3553
g82
I3
ssg83
Nsg76
(lp3554
g69
(g85
g71
NtRp3555
(dp3556
g74
(dp3557
sg83
g3551
sg76
(lp3558
g69
(g90
g71
NtRp3559
(dp3560
g74
(dp3561
g94
g95
ssg83
g3555
sg76
(lp3562
g332
asbag69
(g90
g71
NtRp3563
(dp3564
g74
(dp3565
g101
g102
ssg83
g3555
sg76
(lp3566
S':'
asbag69
(g90
g71
NtRp3567
(dp3568
g74
(dp3569
sg83
g3555
sg76
(lp3570
g69
(g70
g71
NtRp3571
(dp3572
g74
(dp3573
g82
I3
ssg83
g3567
sg76
(lp3574
S''
asbasbasbag69
(g85
g71
NtRp3575
(dp3576
g74
(dp3577
sg83
g3551
sg76
(lp3578
g69
(g90
g71
NtRp3579
(dp3580
g74
(dp3581
g94
g95
ssg83
g3575
sg76
(lp3582
g353
asbag69
(g90
g71
NtRp3583
(dp3584
g74
(dp3585
g101
g102
ssg83
g3575
sg76
(lp3586
S':'
asbag69
(g90
g71
NtRp3587
(dp3588
g74
(dp3589
sg83
g3575
sg76
(lp3590
g69
(g70
g71
NtRp3591
(dp3592
g74
(dp3593
g82
I3
ssg83
g3587
sg76
(lp3594
S''
asbasbasbag69
(g85
g71
NtRp3595
(dp3596
g74
(dp3597
sg83
g3551
sg76
(lp3598
g69
(g90
g71
NtRp3599
(dp3600
g74
(dp3601
g94
g95
ssg83
g3595
sg76
(lp3602
g374
asbag69
(g90
g71
NtRp3603
(dp3604
g74
(dp3605
g101
g102
ssg83
g3595
sg76
(lp3606
S':'
asbag69
(g90
g71
NtRp3607
(dp3608
g74
(dp3609
sg83
g3595
sg76
(lp3610
g69
(g70
g71
NtRp3611
(dp3612
g74
(dp3613
g82
I3
ssg83
g3607
sg76
(lp3614
S''
asbasbasbag69
(g85
g71
NtRp3615
(dp3616
g74
(dp3617
sg83
g3551
sg76
(lp3618
g69
(g90
g71
NtRp3619
(dp3620
g74
(dp3621
g94
g95
ssg83
g3615
sg76
(lp3622
g395
asbag69
(g90
g71
NtRp3623
(dp3624
g74
(dp3625
g101
g102
ssg83
g3615
sg76
(lp3626
S':'
asbag69
(g90
g71
NtRp3627
(dp3628
g74
(dp3629
sg83
g3615
sg76
(lp3630
g69
(g70
g71
NtRp3631
(dp3632
g74
(dp3633
g82
I3
ssg83
g3627
sg76
(lp3634
S''
asbasbasbag69
(g85
g71
NtRp3635
(dp3636
g74
(dp3637
sg83
g3551
sg76
(lp3638
g69
(g90
g71
NtRp3639
(dp3640
g74
(dp3641
g94
g95
ssg83
g3635
sg76
(lp3642
g416
asbag69
(g90
g71
NtRp3643
(dp3644
g74
(dp3645
g101
g102
ssg83
g3635
sg76
(lp3646
S':'
asbag69
(g90
g71
NtRp3647
(dp3648
g74
(dp3649
sg83
g3635
sg76
(lp3650
g69
(g70
g71
NtRp3651
(dp3652
g74
(dp3653
g82
I3
ssg83
g3647
sg76
(lp3654
S''
asbasbasbag69
(g85
g71
NtRp3655
(dp3656
g74
(dp3657
sg83
g3551
sg76
(lp3658
g69
(g90
g71
NtRp3659
(dp3660
g74
(dp3661
g94
g95
ssg83
g3655
sg76
(lp3662
g437
asbag69
(g90
g71
NtRp3663
(dp3664
g74
(dp3665
g101
g102
ssg83
g3655
sg76
(lp3666
S':'
asbag69
(g90
g71
NtRp3667
(dp3668
g74
(dp3669
sg83
g3655
sg76
(lp3670
g69
(g70
g71
NtRp3671
(dp3672
g74
(dp3673
g82
I3
ssg83
g3667
sg76
(lp3674
S'/'
asbasbasbag69
(g85
g71
NtRp3675
(dp3676
g74
(dp3677
sg83
g3551
sg76
(lp3678
g69
(g90
g71
NtRp3679
(dp3680
g74
(dp3681
g94
g95
ssg83
g3675
sg76
(lp3682
g458
asbag69
(g90
g71
NtRp3683
(dp3684
g74
(dp3685
g101
g102
ssg83
g3675
sg76
(lp3686
S':'
asbag69
(g90
g71
NtRp3687
(dp3688
g74
(dp3689
sg83
g3675
sg76
(lp3690
g69
(g70
g71
NtRp3691
(dp3692
g74
(dp3693
g82
I3
ssg83
g3687
sg76
(lp3694
S''
asbasbasbag69
(g85
g71
NtRp3695
(dp3696
g74
(dp3697
sg83
g3551
sg76
(lp3698
g69
(g90
g71
NtRp3699
(dp3700
g74
(dp3701
g94
g95
ssg83
g3695
sg76
(lp3702
g479
asbag69
(g90
g71
NtRp3703
(dp3704
g74
(dp3705
g101
g102
ssg83
g3695
sg76
(lp3706
S':'
asbag69
(g90
g71
NtRp3707
(dp3708
g74
(dp3709
sg83
g3695
sg76
(lp3710
g69
(g70
g71
NtRp3711
(dp3712
g74
(dp3713
g82
I3
ssg83
g3707
sg76
(lp3714
S''
asbasbasbasbasbasbasbasbasbasbasbag69
(g85
g71
NtRp3715
(dp3716
g74
(dp3717
sg83
g3481
sg76
(lp3718
g69
(g90
g71
NtRp3719
(dp3720
g74
(dp3721
g94
g95
ssg83
g3715
sg76
(lp3722
S'delimiters'
p3723
asbag69
(g90
g71
NtRp3724
(dp3725
g74
(dp3726
g101
g102
ssg83
g3715
sg76
(lp3727
S':'
asbag69
(g90
g71
NtRp3728
(dp3729
g74
(dp3730
sg83
g3715
sg76
(lp3731
g69
(g70
g71
NtRp3732
(dp3733
g74
(dp3734
g82
I5
ssg83
g3728
sg76
(lp3735
g69
(g78
g71
NtRp3736
(dp3737
g74
(dp3738
g82
I4
ssg83
Nsg76
(lp3739
g69
(g85
g71
NtRp3740
(dp3741
g74
(dp3742
sg83
g3736
sg76
(lp3743
g69
(g90
g71
NtRp3744
(dp3745
g74
(dp3746
sg83
g3740
sg76
(lp3747
g69
(g70
g71
NtRp3748
(dp3749
g74
(dp3750
g82
I4
ssg83
g3744
sg76
(lp3751
S'{{'
p3752
asbasbasbag69
(g85
g71
NtRp3753
(dp3754
g74
(dp3755
sg83
g3736
sg76
(lp3756
g69
(g90
g71
NtRp3757
(dp3758
g74
(dp3759
sg83
g3753
sg76
(lp3760
g69
(g70
g71
NtRp3761
(dp3762
g74
(dp3763
g82
I4
ssg83
g3757
sg76
(lp3764
S'}}'
p3765
asbasbasbasbasbasbasbag69
(g85
g71
NtRp3766
(dp3767
g74
(dp3768
sg83
g3481
sg76
(lp3769
g69
(g90
g71
NtRp3770
(dp3771
g74
(dp3772
g94
g95
ssg83
g3766
sg76
(lp3773
S'files'
p3774
asbag69
(g90
g71
NtRp3775
(dp3776
g74
(dp3777
g101
g102
ssg83
g3766
sg76
(lp3778
S':'
asbag69
(g90
g71
NtRp3779
(dp3780
g74
(dp3781
sg83
g3766
sg76
(lp3782
g69
(g70
g71
NtRp3783
(dp3784
g74
(dp3785
g82
I5
ssg83
g3779
sg76
(lp3786
g69
(g78
g71
NtRp3787
(dp3788
g74
(dp3789
g82
I4
ssg83
Nsg76
(lp3790
sbasbasbasbag69
(g85
g71
NtRp3791
(dp3792
g74
(dp3793
sg83
g3481
sg76
(lp3794
g69
(g90
g71
NtRp3795
(dp3796
g74
(dp3797
g94
g95
ssg83
g3791
sg76
(lp3798
S'flash'
p3799
asbag69
(g90
g71
NtRp3800
(dp3801
g74
(dp3802
g101
g102
ssg83
g3791
sg76
(lp3803
S':'
asbag69
(g90
g71
NtRp3804
(dp3805
g74
(dp3806
sg83
g3791
sg76
(lp3807
g69
(g70
g71
NtRp3808
(dp3809
g74
(dp3810
g82
I5
ssg83
g3804
sg76
(lp3811
S''
asbasbasbag69
(g85
g71
NtRp3812
(dp3813
g74
(dp3814
sg83
g3481
sg76
(lp3815
g69
(g90
g71
NtRp3816
(dp3817
g74
(dp3818
g94
g95
ssg83
g3812
sg76
(lp3819
S'generic_patterns'
p3820
asbag69
(g90
g71
NtRp3821
(dp3822
g74
(dp3823
g101
g102
ssg83
g3812
sg76
(lp3824
S':'
asbag69
(g90
g71
NtRp3825
(dp3826
g74
(dp3827
sg83
g3812
sg76
(lp3828
g69
(g70
g71
NtRp3829
(dp3830
g74
(dp3831
g82
I5
ssg83
g3825
sg76
(lp3832
g69
(g78
g71
NtRp3833
(dp3834
g74
(dp3835
g82
I4
ssg83
Nsg76
(lp3836
g69
(g85
g71
NtRp3837
(dp3838
g74
(dp3839
sg83
g3833
sg76
(lp3840
g69
(g90
g71
NtRp3841
(dp3842
g74
(dp3843
sg83
g3837
sg76
(lp3844
g69
(g70
g71
NtRp3845
(dp3846
g74
(dp3847
g82
I4
ssg83
g3841
sg76
(lp3848
S'*'
asbasbasbasbasbasbasbag69
(g85
g71
NtRp3849
(dp3850
g74
(dp3851
sg83
g3481
sg76
(lp3852
g69
(g90
g71
NtRp3853
(dp3854
g74
(dp3855
g94
g95
ssg83
g3849
sg76
(lp3856
S'headers'
p3857
asbag69
(g90
g71
NtRp3858
(dp3859
g74
(dp3860
g101
g102
ssg83
g3849
sg76
(lp3861
S':'
asbag69
(g90
g71
NtRp3862
(dp3863
g74
(dp3864
sg83
g3849
sg76
(lp3865
g69
(g70
g71
NtRp3866
(dp3867
g74
(dp3868
g82
I5
ssg83
g3862
sg76
(lp3869
g69
(g78
g71
NtRp3870
(dp3871
g74
(dp3872
g82
I4
ssg83
Nsg76
(lp3873
g69
(g85
g71
NtRp3874
(dp3875
g74
(dp3876
sg83
g3870
sg76
(lp3877
g69
(g90
g71
NtRp3878
(dp3879
g74
(dp3880
g94
g95
ssg83
g3874
sg76
(lp3881
S'X-Powered-By'
p3882
asbag69
(g90
g71
NtRp3883
(dp3884
g74
(dp3885
g101
g102
ssg83
g3874
sg76
(lp3886
S':'
asbag69
(g90
g71
NtRp3887
(dp3888
g74
(dp3889
sg83
g3874
sg76
(lp3890
g69
(g70
g71
NtRp3891
(dp3892
g74
(dp3893
g82
I4
ssg83
g3887
sg76
(lp3894
S'web2py'
p3895
asbasbasbasbasbasbasbag69
(g85
g71
NtRp3896
(dp3897
g74
(dp3898
sg83
g3481
sg76
(lp3899
g69
(g90
g71
NtRp3900
(dp3901
g74
(dp3902
g94
g95
ssg83
g3896
sg76
(lp3903
S'menu'
p3904
asbag69
(g90
g71
NtRp3905
(dp3906
g74
(dp3907
g101
g102
ssg83
g3896
sg76
(lp3908
S':'
asbag69
(g90
g71
NtRp3909
(dp3910
g74
(dp3911
sg83
g3896
sg76
(lp3912
g69
(g70
g71
NtRp3913
(dp3914
g74
(dp3915
g82
I5
ssg83
g3909
sg76
(lp3916
g69
(g78
g71
NtRp3917
(dp3918
g74
(dp3919
g82
I4
ssg83
Nsg76
(lp3920
sbasbasbasbag69
(g85
g71
NtRp3921
(dp3922
g74
(dp3923
sg83
g3481
sg76
(lp3924
g69
(g90
g71
NtRp3925
(dp3926
g74
(dp3927
g94
g95
ssg83
g3921
sg76
(lp3928
S'meta'
p3929
asbag69
(g90
g71
NtRp3930
(dp3931
g74
(dp3932
g101
g102
ssg83
g3921
sg76
(lp3933
S':'
asbag69
(g90
g71
NtRp3934
(dp3935
g74
(dp3936
sg83
g3921
sg76
(lp3937
g69
(g70
g71
NtRp3938
(dp3939
g74
(dp3940
g82
I5
ssg83
g3934
sg76
(lp3941
g69
(g78
g71
NtRp3942
(dp3943
g74
(dp3944
g82
I4
ssg83
Nsg76
(lp3945
sbasbasbasbag69
(g85
g71
NtRp3946
(dp3947
g74
(dp3948
sg83
g3481
sg76
(lp3949
g69
(g90
g71
NtRp3950
(dp3951
g74
(dp3952
g94
g95
ssg83
g3946
sg76
(lp3953
S'models_to_run'
p3954
asbag69
(g90
g71
NtRp3955
(dp3956
g74
(dp3957
g101
g102
ssg83
g3946
sg76
(lp3958
S':'
asbag69
(g90
g71
NtRp3959
(dp3960
g74
(dp3961
sg83
g3946
sg76
(lp3962
g69
(g70
g71
NtRp3963
(dp3964
g74
(dp3965
g82
I5
ssg83
g3959
sg76
(lp3966
g69
(g78
g71
NtRp3967
(dp3968
g74
(dp3969
g82
I4
ssg83
Nsg76
(lp3970
g69
(g85
g71
NtRp3971
(dp3972
g74
(dp3973
sg83
g3967
sg76
(lp3974
g69
(g90
g71
NtRp3975
(dp3976
g74
(dp3977
sg83
g3971
sg76
(lp3978
g69
(g70
g71
NtRp3979
(dp3980
g74
(dp3981
g82
I4
ssg83
g3975
sg76
(lp3982
S'^\\w+\\.py$'
p3983
asbasbasbag69
(g85
g71
NtRp3984
(dp3985
g74
(dp3986
sg83
g3967
sg76
(lp3987
g69
(g90
g71
NtRp3988
(dp3989
g74
(dp3990
sg83
g3984
sg76
(lp3991
g69
(g70
g71
NtRp3992
(dp3993
g74
(dp3994
g82
I4
ssg83
g3988
sg76
(lp3995
S'^appadmin/\\w+\\.py$'
p3996
asbasbasbag69
(g85
g71
NtRp3997
(dp3998
g74
(dp3999
sg83
g3967
sg76
(lp4000
g69
(g90
g71
NtRp4001
(dp4002
g74
(dp4003
sg83
g3997
sg76
(lp4004
g69
(g70
g71
NtRp4005
(dp4006
g74
(dp4007
g82
I4
ssg83
g4001
sg76
(lp4008
S'^appadmin/insert/\\w+\\.py$'
p4009
asbasbasbasbasbasbasbag69
(g85
g71
NtRp4010
(dp4011
g74
(dp4012
sg83
g3481
sg76
(lp4013
g69
(g90
g71
NtRp4014
(dp4015
g74
(dp4016
g94
g95
ssg83
g4010
sg76
(lp4017
S'postprocessing'
p4018
asbag69
(g90
g71
NtRp4019
(dp4020
g74
(dp4021
g101
g102
ssg83
g4010
sg76
(lp4022
S':'
asbag69
(g90
g71
NtRp4023
(dp4024
g74
(dp4025
sg83
g4010
sg76
(lp4026
g69
(g70
g71
NtRp4027
(dp4028
g74
(dp4029
g82
I5
ssg83
g4023
sg76
(lp4030
g69
(g78
g71
NtRp4031
(dp4032
g74
(dp4033
g82
I4
ssg83
Nsg76
(lp4034
sbasbasbasbag69
(g85
g71
NtRp4035
(dp4036
g74
(dp4037
sg83
g3481
sg76
(lp4038
g69
(g90
g71
NtRp4039
(dp4040
g74
(dp4041
g94
g95
ssg83
g4035
sg76
(lp4042
S'session_cookie_expires'
p4043
asbag69
(g90
g71
NtRp4044
(dp4045
g74
(dp4046
g101
g102
ssg83
g4035
sg76
(lp4047
S':'
asbag69
(g90
g71
NtRp4048
(dp4049
g74
(dp4050
sg83
g4035
sg76
(lp4051
g69
(g70
g71
NtRp4052
(dp4053
g74
(dp4054
g82
I5
ssg83
g4048
sg76
(lp4055
S'None'
p4056
asbasbasbag69
(g85
g71
NtRp4057
(dp4058
g74
(dp4059
sg83
g3481
sg76
(lp4060
g69
(g90
g71
NtRp4061
(dp4062
g74
(dp4063
g94
g95
ssg83
g4057
sg76
(lp4064
S'session_data_name'
p4065
asbag69
(g90
g71
NtRp4066
(dp4067
g74
(dp4068
g101
g102
ssg83
g4057
sg76
(lp4069
S':'
asbag69
(g90
g71
NtRp4070
(dp4071
g74
(dp4072
sg83
g4057
sg76
(lp4073
g69
(g70
g71
NtRp4074
(dp4075
g74
(dp4076
g82
I5
ssg83
g4070
sg76
(lp4077
S'session_data_music'
p4078
asbasbasbag69
(g85
g71
NtRp4079
(dp4080
g74
(dp4081
sg83
g3481
sg76
(lp4082
g69
(g90
g71
NtRp4083
(dp4084
g74
(dp4085
g94
g95
ssg83
g4079
sg76
(lp4086
S'session_file'
p4087
asbag69
(g90
g71
NtRp4088
(dp4089
g74
(dp4090
g101
g102
ssg83
g4079
sg76
(lp4091
S':'
asbag69
(g90
g71
NtRp4092
(dp4093
g74
(dp4094
sg83
g4079
sg76
(lp4095
g69
(g70
g71
NtRp4096
(dp4097
g74
(dp4098
g82
I5
ssg83
g4092
sg76
(lp4099
S"<open file '/home/gaurav/classwork/WEB_PROGRAMMING/web2py/applications/MUSIC/sessions/127.0.0.1-bd5be0ed-4eb6-4bc5-88a9-8d569f9d0604', mode 'rb+' at 0x8e5aa70>"
p4100
asbasbasbag69
(g85
g71
NtRp4101
(dp4102
g74
(dp4103
sg83
g3481
sg76
(lp4104
g69
(g90
g71
NtRp4105
(dp4106
g74
(dp4107
g94
g95
ssg83
g4101
sg76
(lp4108
S'session_filename'
p4109
asbag69
(g90
g71
NtRp4110
(dp4111
g74
(dp4112
g101
g102
ssg83
g4101
sg76
(lp4113
S':'
asbag69
(g90
g71
NtRp4114
(dp4115
g74
(dp4116
sg83
g4101
sg76
(lp4117
g69
(g70
g71
NtRp4118
(dp4119
g74
(dp4120
g82
I5
ssg83
g4114
sg76
(lp4121
S'/home/gaurav/classwork/WEB_PROGRAMMING/web2py/applications/MUSIC/sessions/127.0.0.1-bd5be0ed-4eb6-4bc5-88a9-8d569f9d0604'
p4122
asbasbasbag69
(g85
g71
NtRp4123
(dp4124
g74
(dp4125
sg83
g3481
sg76
(lp4126
g69
(g90
g71
NtRp4127
(dp4128
g74
(dp4129
g94
g95
ssg83
g4123
sg76
(lp4130
S'session_id'
p4131
asbag69
(g90
g71
NtRp4132
(dp4133
g74
(dp4134
g101
g102
ssg83
g4123
sg76
(lp4135
S':'
asbag69
(g90
g71
NtRp4136
(dp4137
g74
(dp4138
sg83
g4123
sg76
(lp4139
g69
(g70
g71
NtRp4140
(dp4141
g74
(dp4142
g82
I5
ssg83
g4136
sg76
(lp4143
g513
asbasbasbag69
(g85
g71
NtRp4144
(dp4145
g74
(dp4146
sg83
g3481
sg76
(lp4147
g69
(g90
g71
NtRp4148
(dp4149
g74
(dp4150
g94
g95
ssg83
g4144
sg76
(lp4151
S'session_id_name'
p4152
asbag69
(g90
g71
NtRp4153
(dp4154
g74
(dp4155
g101
g102
ssg83
g4144
sg76
(lp4156
S':'
asbag69
(g90
g71
NtRp4157
(dp4158
g74
(dp4159
sg83
g4144
sg76
(lp4160
g69
(g70
g71
NtRp4161
(dp4162
g74
(dp4163
g82
I5
ssg83
g4157
sg76
(lp4164
g3538
asbasbasbag69
(g85
g71
NtRp4165
(dp4166
g74
(dp4167
sg83
g3481
sg76
(lp4168
g69
(g90
g71
NtRp4169
(dp4170
g74
(dp4171
g94
g95
ssg83
g4165
sg76
(lp4172
S'session_locked'
p4173
asbag69
(g90
g71
NtRp4174
(dp4175
g74
(dp4176
g101
g102
ssg83
g4165
sg76
(lp4177
S':'
asbag69
(g90
g71
NtRp4178
(dp4179
g74
(dp4180
sg83
g4165
sg76
(lp4181
g69
(g70
g71
NtRp4182
(dp4183
g74
(dp4184
g82
I5
ssg83
g4178
sg76
(lp4185
g1829
asbasbasbag69
(g85
g71
NtRp4186
(dp4187
g74
(dp4188
sg83
g3481
sg76
(lp4189
g69
(g90
g71
NtRp4190
(dp4191
g74
(dp4192
g94
g95
ssg83
g4186
sg76
(lp4193
S'session_new'
p4194
asbag69
(g90
g71
NtRp4195
(dp4196
g74
(dp4197
g101
g102
ssg83
g4186
sg76
(lp4198
S':'
asbag69
(g90
g71
NtRp4199
(dp4200
g74
(dp4201
sg83
g4186
sg76
(lp4202
g69
(g70
g71
NtRp4203
(dp4204
g74
(dp4205
g82
I5
ssg83
g4199
sg76
(lp4206
g112
asbasbasbag69
(g85
g71
NtRp4207
(dp4208
g74
(dp4209
sg83
g3481
sg76
(lp4210
g69
(g90
g71
NtRp4211
(dp4212
g74
(dp4213
g94
g95
ssg83
g4207
sg76
(lp4214
S'session_storage_type'
p4215
asbag69
(g90
g71
NtRp4216
(dp4217
g74
(dp4218
g101
g102
ssg83
g4207
sg76
(lp4219
S':'
asbag69
(g90
g71
NtRp4220
(dp4221
g74
(dp4222
sg83
g4207
sg76
(lp4223
g69
(g70
g71
NtRp4224
(dp4225
g74
(dp4226
g82
I5
ssg83
g4220
sg76
(lp4227
g3282
asbasbasbag69
(g85
g71
NtRp4228
(dp4229
g74
(dp4230
sg83
g3481
sg76
(lp4231
g69
(g90
g71
NtRp4232
(dp4233
g74
(dp4234
g94
g95
ssg83
g4228
sg76
(lp4235
S'status'
p4236
asbag69
(g90
g71
NtRp4237
(dp4238
g74
(dp4239
g101
g102
ssg83
g4228
sg76
(lp4240
S':'
asbag69
(g90
g71
NtRp4241
(dp4242
g74
(dp4243
sg83
g4228
sg76
(lp4244
g69
(g70
g71
NtRp4245
(dp4246
g74
(dp4247
g82
I5
ssg83
g4241
sg76
(lp4248
S'200'
p4249
asbasbasbag69
(g85
g71
NtRp4250
(dp4251
g74
(dp4252
sg83
g3481
sg76
(lp4253
g69
(g90
g71
NtRp4254
(dp4255
g74
(dp4256
g94
g95
ssg83
g4250
sg76
(lp4257
S'view'
p4258
asbag69
(g90
g71
NtRp4259
(dp4260
g74
(dp4261
g101
g102
ssg83
g4250
sg76
(lp4262
S':'
asbag69
(g90
g71
NtRp4263
(dp4264
g74
(dp4265
sg83
g4250
sg76
(lp4266
g69
(g70
g71
NtRp4267
(dp4268
g74
(dp4269
g82
I5
ssg83
g4263
sg76
(lp4270
S'appadmin/insert.html'
p4271
asbasbasbasbasbsS'locals'
p4272
(dp4273
S'self'
p4274
S'<DAL uri="sqlite://storage.sqlite">'
p4275
sS'name'
p4276
S"'length'"
p4277
sS'backend'
p4278
S"'all'"
p4279
sssS'traceback'
p4280
S'Traceback (most recent call last):\n  File "/home/gaurav/classwork/WEB_PROGRAMMING/web2py/gluon/restricted.py", line 212, in restricted\n    exec ccode in environment\n  File "/home/gaurav/classwork/WEB_PROGRAMMING/web2py/applications/MUSIC/models/db.py", line 106, in <module>\n    Field(\'singing_actor\',\'string\',required=True))\n  File "/home/gaurav/classwork/WEB_PROGRAMMING/web2py/gluon/dal.py", line 7186, in define_table\n    table = self.lazy_define_table(tablename,*fields,**args)\n  File "/home/gaurav/classwork/WEB_PROGRAMMING/web2py/gluon/dal.py", line 7203, in lazy_define_table\n    table = table_class(self, tablename, *fields, **args)\n  File "/home/gaurav/classwork/WEB_PROGRAMMING/web2py/gluon/dal.py", line 7609, in __init__\n    db.check_reserved_keyword(field_name)\n  File "/home/gaurav/classwork/WEB_PROGRAMMING/web2py/gluon/dal.py", line 6930, in check_reserved_keyword\n    \'invalid table/column name "%s" is a "%s" reserved SQL keyword\' % (name, backend.upper()))\nSyntaxError: invalid table/column name "length" is a "ALL" reserved SQL keyword\n'
p4281
s.