(dp1
S'output'
p2
S"<type 'exceptions.SyntaxError'> invalid syntax (default.py, line 102)"
p3
sS'layer'
p4
S'/home/gaurav/classwork/WEB_PROGRAMMING/web2py/applications/MUSIC/controllers/default.py'
p5
sS'code'
p6
S'\n\n\n\n\n# -*- coding: utf-8 -*-\n# this file is released under public domain and you can use without limitations\n\n#########################################################################\n## This is a samples controller\n## - index is the default action of any application\n## - user is required for authentication and authorization\n## - download is for downloading files uploaded in the db (does streaming)\n## - call exposes all registered services (none by default)\n#########################################################################\n\n\ndef index():\n    """\n    example action using the internationalization operator T and flash\n    rendered by views/default/index.html or views/generic.html\n\n    if you need a simple wiki simple replace the two lines below with:\n    return auth.wiki()\n    """\n    response.flash = T("Welcome to web2py!")\n    return dict(message=T(\'Hello World\'))\n\n\ndef user():\n    """\n    exposes:\n    http://..../[app]/default/user/login\n    http://..../[app]/default/user/logout\n    http://..../[app]/default/user/register\n    http://..../[app]/default/user/profile\n    http://..../[app]/default/user/retrieve_password\n    http://..../[app]/default/user/change_password\n    use @auth.requires_login()\n        @auth.requires_membership(\'group name\')\n        @auth.requires_permission(\'read\',\'table name\',record_id)\n    to decorate functions that need access control\n    """\n    return dict(form=auth())\n\n\ndef download():\n    """\n    allows downloading of uploaded files\n    http://..../[app]/default/download/[filename]\n    """\n    return response.download(request, db)\n\n\ndef call():\n    """\n    exposes services. for example:\n    http://..../[app]/default/call/jsonrpc\n    decorate with @services.jsonrpc the functions to expose\n    supports xml, json, xmlrpc, jsonrpc, amfrpc, rss, csv\n    """\n    return service()\n\n\n@auth.requires_signature()\ndef data():\n    """\n    http://..../[app]/default/data/tables\n    http://..../[app]/default/data/create/[table]\n    http://..../[app]/default/data/read/[table]/[id]\n    http://..../[app]/default/data/update/[table]/[id]\n    http://..../[app]/default/data/delete/[table]/[id]\n    http://..../[app]/default/data/select/[table]\n    http://..../[app]/default/data/search/[table]\n    but URLs must be signed, i.e. linked with\n      A(\'table\',_href=URL(\'data/tables\',user_signature=True))\n    or with the signed load operator\n      LOAD(\'default\',\'data.load\',args=\'tables\',ajax=True,user_signature=True)\n    """\n    return dict(form=crud())\n\n\n\n\ndef select():\n     if(request.post_vars[\'name\']==\'1\'):\n\t  redirect(URL(\'que_1\'))\n     if(request.post_vars[\'name\']==\'4\'):\n\t  redirect(URL(\'que_4\'))\n     if(request.post_vars[\'name\']==\'2\'):\n\t  redirect(URL(\'que_2\'))\n     if(request.post_vars[\'name\']==\'3\'):\n\t  redirect(URL(\'que_3\'))\n     if(request.post_vars[\'name\']==\'5\'):\n\t  redirect(URL(\'que_5\'))\nimport datetime\ndef que_1():\n     return locals()\n\ndef ans():\n     pos=request.post_vars[\'name\']\n     k=db((db.artist.id==pos)&(db.artist.name==db.song.)).select(db.artist.name,db.song.name)\n     return dict(k=k)\n\ndef que_2():\n     k=db((db.song.singer==\'Balu\')).select(db.song.name)\n     return dict(k=k)\n\ndef que_3():\n     ans=db((db.song.singer==\'Balu\')&(db.song.movie==\'Sankarabharanam\')).select(db.song.name)\n     return dict(ans=ans)\n\ndef que_4():\n     k=db((db.song.singer==\'Balu\')&(db.song.movie==db.movie.name)&(db.movie.release_date<datetime.date(2000,1,1))).select(db.song.name,db.song.singing_actor)\n     return dict(k=k)\ndef que_5():\n     k=db((db.rating.rating>=4)&(db.rating.song==db.song.id)).select(db.song.name,db.song.singer)\n     return dict(k=k)\n\nresponse._vars=response._caller(que_1)\n'
p7
sS'snapshot'
p8
(dp9
S'exception'
p10
(dp11
S'__getslice__'
p12
S"<method-wrapper '__getslice__' of exceptions.SyntaxError object>"
p13
sS'text'
p14
S"'     k=db((db.artist.id==pos)&(db.artist.name==db.song.)).select(db.artist.name,db.song.name)\\n'"
p15
sS'__str__'
p16
S"<method-wrapper '__str__' of exceptions.SyntaxError object>"
p17
sS'__reduce__'
p18
S'<built-in method __reduce__ of exceptions.SyntaxError object>'
p19
sS'__dict__'
p20
S'{}'
p21
sS'__sizeof__'
p22
S'<built-in method __sizeof__ of exceptions.SyntaxError object>'
p23
sS'__init__'
p24
S"<method-wrapper '__init__' of exceptions.SyntaxError object>"
p25
sS'__setattr__'
p26
S"<method-wrapper '__setattr__' of exceptions.SyntaxError object>"
p27
sS'__reduce_ex__'
p28
S'<built-in method __reduce_ex__ of exceptions.SyntaxError object>'
p29
sS'__new__'
p30
S'<built-in method __new__ of type object>'
p31
sS'__format__'
p32
S'<built-in method __format__ of exceptions.SyntaxError object>'
p33
sS'__class__'
p34
S"<type 'exceptions.SyntaxError'>"
p35
sS'filename'
p36
S"'/home/gaurav/classwork/WEB_PROGRAMMING/web2py/applications/MUSIC/controllers/default.py'"
p37
sS'lineno'
p38
S'102'
p39
sS'msg'
p40
S"'invalid syntax'"
p41
sS'__doc__'
p42
S"'Invalid syntax.'"
p43
sS'__getitem__'
p44
S"<method-wrapper '__getitem__' of exceptions.SyntaxError object>"
p45
sS'__setstate__'
p46
S'<built-in method __setstate__ of exceptions.SyntaxError object>'
p47
sS'__getattribute__'
p48
S"<method-wrapper '__getattribute__' of exceptions.SyntaxError object>"
p49
sS'print_file_and_line'
p50
S'None'
p51
sS'args'
p52
S"('invalid syntax', ('/home/gaurav/classwork/WEB_PROGRAMMING/web2py/applications/MUSIC/controllers/default.py', 102, 56, '     k=db((db.artist.id==pos)&(db.artist.name==db.song.)).select(db.artist.name,db.song.name)\\n'))"
p53
sS'__subclasshook__'
p54
S'<built-in method __subclasshook__ of type object>'
p55
sS'offset'
p56
S'56'
p57
sS'__unicode__'
p58
S'<built-in method __unicode__ of exceptions.SyntaxError object>'
p59
sS'__delattr__'
p60
S"<method-wrapper '__delattr__' of exceptions.SyntaxError object>"
p61
sS'__repr__'
p62
S"<method-wrapper '__repr__' of exceptions.SyntaxError object>"
p63
sS'__hash__'
p64
S"<method-wrapper '__hash__' of exceptions.SyntaxError object>"
p65
ssS'evalue'
p66
S'invalid syntax (default.py, line 102)'
p67
sS'request'
p68
ccopy_reg
_reconstructor
p69
(cgluon.html
BEAUTIFY
p70
c__builtin__
object
p71
NtRp72
(dp73
S'attributes'
p74
(dp75
sS'components'
p76
(lp77
g69
(cgluon.html
TABLE
p78
g71
NtRp79
(dp80
g74
(dp81
S'level'
p82
I5
ssS'parent'
p83
Nsg76
(lp84
g69
(cgluon.html
TR
p85
g71
NtRp86
(dp87
g74
(dp88
sg83
g79
sg76
(lp89
g69
(cgluon.html
TD
p90
g71
NtRp91
(dp92
g74
(dp93
S'_style'
p94
S'font-weight:bold;vertical-align:top'
p95
ssg83
g86
sg76
(lp96
S'ajax'
p97
asbag69
(g90
g71
NtRp98
(dp99
g74
(dp100
S'_valign'
p101
S'top'
p102
ssg83
g86
sg76
(lp103
S':'
asbag69
(g90
g71
NtRp104
(dp105
g74
(dp106
sg83
g86
sg76
(lp107
g69
(g70
g71
NtRp108
(dp109
g74
(dp110
g82
I5
ssg83
g104
sg76
(lp111
S'False'
p112
asbasbasbag69
(g85
g71
NtRp113
(dp114
g74
(dp115
sg83
g79
sg76
(lp116
g69
(g90
g71
NtRp117
(dp118
g74
(dp119
g94
g95
ssg83
g113
sg76
(lp120
S'application'
p121
asbag69
(g90
g71
NtRp122
(dp123
g74
(dp124
g101
g102
ssg83
g113
sg76
(lp125
S':'
asbag69
(g90
g71
NtRp126
(dp127
g74
(dp128
sg83
g113
sg76
(lp129
g69
(g70
g71
NtRp130
(dp131
g74
(dp132
g82
I5
ssg83
g126
sg76
(lp133
S'MUSIC'
p134
asbasbasbag69
(g85
g71
NtRp135
(dp136
g74
(dp137
sg83
g79
sg76
(lp138
g69
(g90
g71
NtRp139
(dp140
g74
(dp141
g94
g95
ssg83
g135
sg76
(lp142
g52
asbag69
(g90
g71
NtRp143
(dp144
g74
(dp145
g101
g102
ssg83
g135
sg76
(lp146
S':'
asbag69
(g90
g71
NtRp147
(dp148
g74
(dp149
sg83
g135
sg76
(lp150
g69
(g70
g71
NtRp151
(dp152
g74
(dp153
g82
I5
ssg83
g147
sg76
(lp154
g69
(g78
g71
NtRp155
(dp156
g74
(dp157
g82
I4
ssg83
Nsg76
(lp158
sbasbasbasbag69
(g85
g71
NtRp159
(dp160
g74
(dp161
sg83
g79
sg76
(lp162
g69
(g90
g71
NtRp163
(dp164
g74
(dp165
g94
g95
ssg83
g159
sg76
(lp166
S'body'
p167
asbag69
(g90
g71
NtRp168
(dp169
g74
(dp170
g101
g102
ssg83
g159
sg76
(lp171
S':'
asbag69
(g90
g71
NtRp172
(dp173
g74
(dp174
sg83
g159
sg76
(lp175
g69
(g70
g71
NtRp176
(dp177
g74
(dp178
g82
I5
ssg83
g172
sg76
(lp179
S'<cStringIO.StringO object at 0xaec51980>'
p180
asbasbasbag69
(g85
g71
NtRp181
(dp182
g74
(dp183
sg83
g79
sg76
(lp184
g69
(g90
g71
NtRp185
(dp186
g74
(dp187
g94
g95
ssg83
g181
sg76
(lp188
S'cid'
p189
asbag69
(g90
g71
NtRp190
(dp191
g74
(dp192
g101
g102
ssg83
g181
sg76
(lp193
S':'
asbag69
(g90
g71
NtRp194
(dp195
g74
(dp196
sg83
g181
sg76
(lp197
g69
(g70
g71
NtRp198
(dp199
g74
(dp200
g82
I5
ssg83
g194
sg76
(lp201
S'None'
p202
asbasbasbag69
(g85
g71
NtRp203
(dp204
g74
(dp205
sg83
g79
sg76
(lp206
g69
(g90
g71
NtRp207
(dp208
g74
(dp209
g94
g95
ssg83
g203
sg76
(lp210
S'client'
p211
asbag69
(g90
g71
NtRp212
(dp213
g74
(dp214
g101
g102
ssg83
g203
sg76
(lp215
S':'
asbag69
(g90
g71
NtRp216
(dp217
g74
(dp218
sg83
g203
sg76
(lp219
g69
(g70
g71
NtRp220
(dp221
g74
(dp222
g82
I5
ssg83
g216
sg76
(lp223
S'127.0.0.1'
p224
asbasbasbag69
(g85
g71
NtRp225
(dp226
g74
(dp227
sg83
g79
sg76
(lp228
g69
(g90
g71
NtRp229
(dp230
g74
(dp231
g94
g95
ssg83
g225
sg76
(lp232
S'controller'
p233
asbag69
(g90
g71
NtRp234
(dp235
g74
(dp236
g101
g102
ssg83
g225
sg76
(lp237
S':'
asbag69
(g90
g71
NtRp238
(dp239
g74
(dp240
sg83
g225
sg76
(lp241
g69
(g70
g71
NtRp242
(dp243
g74
(dp244
g82
I5
ssg83
g238
sg76
(lp245
S'default'
p246
asbasbasbag69
(g85
g71
NtRp247
(dp248
g74
(dp249
sg83
g79
sg76
(lp250
g69
(g90
g71
NtRp251
(dp252
g74
(dp253
g94
g95
ssg83
g247
sg76
(lp254
S'cookies'
p255
asbag69
(g90
g71
NtRp256
(dp257
g74
(dp258
g101
g102
ssg83
g247
sg76
(lp259
S':'
asbag69
(g90
g71
NtRp260
(dp261
g74
(dp262
sg83
g247
sg76
(lp263
g69
(g70
g71
NtRp264
(dp265
g74
(dp266
g82
I5
ssg83
g260
sg76
(lp267
g69
(g78
g71
NtRp268
(dp269
g74
(dp270
g82
I4
ssg83
Nsg76
(lp271
g69
(g85
g71
NtRp272
(dp273
g74
(dp274
sg83
g268
sg76
(lp275
g69
(g90
g71
NtRp276
(dp277
g74
(dp278
g94
g95
ssg83
g272
sg76
(lp279
S'session_id_admin'
p280
asbag69
(g90
g71
NtRp281
(dp282
g74
(dp283
g101
g102
ssg83
g272
sg76
(lp284
S':'
asbag69
(g90
g71
NtRp285
(dp286
g74
(dp287
sg83
g272
sg76
(lp288
g69
(g70
g71
NtRp289
(dp290
g74
(dp291
g82
I4
ssg83
g285
sg76
(lp292
S'127.0.0.1-584f2a84-2dc3-42a6-bc35-74e81db7c554'
p293
ag69
(g78
g71
NtRp294
(dp295
g74
(dp296
g82
I3
ssg83
Nsg76
(lp297
g69
(g85
g71
NtRp298
(dp299
g74
(dp300
sg83
g294
sg76
(lp301
g69
(g90
g71
NtRp302
(dp303
g74
(dp304
g94
g95
ssg83
g298
sg76
(lp305
S'comment'
p306
asbag69
(g90
g71
NtRp307
(dp308
g74
(dp309
g101
g102
ssg83
g298
sg76
(lp310
S':'
asbag69
(g90
g71
NtRp311
(dp312
g74
(dp313
sg83
g298
sg76
(lp314
g69
(g70
g71
NtRp315
(dp316
g74
(dp317
g82
I3
ssg83
g311
sg76
(lp318
S''
asbasbasbag69
(g85
g71
NtRp319
(dp320
g74
(dp321
sg83
g294
sg76
(lp322
g69
(g90
g71
NtRp323
(dp324
g74
(dp325
g94
g95
ssg83
g319
sg76
(lp326
S'domain'
p327
asbag69
(g90
g71
NtRp328
(dp329
g74
(dp330
g101
g102
ssg83
g319
sg76
(lp331
S':'
asbag69
(g90
g71
NtRp332
(dp333
g74
(dp334
sg83
g319
sg76
(lp335
g69
(g70
g71
NtRp336
(dp337
g74
(dp338
g82
I3
ssg83
g332
sg76
(lp339
S''
asbasbasbag69
(g85
g71
NtRp340
(dp341
g74
(dp342
sg83
g294
sg76
(lp343
g69
(g90
g71
NtRp344
(dp345
g74
(dp346
g94
g95
ssg83
g340
sg76
(lp347
S'expires'
p348
asbag69
(g90
g71
NtRp349
(dp350
g74
(dp351
g101
g102
ssg83
g340
sg76
(lp352
S':'
asbag69
(g90
g71
NtRp353
(dp354
g74
(dp355
sg83
g340
sg76
(lp356
g69
(g70
g71
NtRp357
(dp358
g74
(dp359
g82
I3
ssg83
g353
sg76
(lp360
S''
asbasbasbag69
(g85
g71
NtRp361
(dp362
g74
(dp363
sg83
g294
sg76
(lp364
g69
(g90
g71
NtRp365
(dp366
g74
(dp367
g94
g95
ssg83
g361
sg76
(lp368
S'httponly'
p369
asbag69
(g90
g71
NtRp370
(dp371
g74
(dp372
g101
g102
ssg83
g361
sg76
(lp373
S':'
asbag69
(g90
g71
NtRp374
(dp375
g74
(dp376
sg83
g361
sg76
(lp377
g69
(g70
g71
NtRp378
(dp379
g74
(dp380
g82
I3
ssg83
g374
sg76
(lp381
S''
asbasbasbag69
(g85
g71
NtRp382
(dp383
g74
(dp384
sg83
g294
sg76
(lp385
g69
(g90
g71
NtRp386
(dp387
g74
(dp388
g94
g95
ssg83
g382
sg76
(lp389
S'max-age'
p390
asbag69
(g90
g71
NtRp391
(dp392
g74
(dp393
g101
g102
ssg83
g382
sg76
(lp394
S':'
asbag69
(g90
g71
NtRp395
(dp396
g74
(dp397
sg83
g382
sg76
(lp398
g69
(g70
g71
NtRp399
(dp400
g74
(dp401
g82
I3
ssg83
g395
sg76
(lp402
S''
asbasbasbag69
(g85
g71
NtRp403
(dp404
g74
(dp405
sg83
g294
sg76
(lp406
g69
(g90
g71
NtRp407
(dp408
g74
(dp409
g94
g95
ssg83
g403
sg76
(lp410
S'path'
p411
asbag69
(g90
g71
NtRp412
(dp413
g74
(dp414
g101
g102
ssg83
g403
sg76
(lp415
S':'
asbag69
(g90
g71
NtRp416
(dp417
g74
(dp418
sg83
g403
sg76
(lp419
g69
(g70
g71
NtRp420
(dp421
g74
(dp422
g82
I3
ssg83
g416
sg76
(lp423
S''
asbasbasbag69
(g85
g71
NtRp424
(dp425
g74
(dp426
sg83
g294
sg76
(lp427
g69
(g90
g71
NtRp428
(dp429
g74
(dp430
g94
g95
ssg83
g424
sg76
(lp431
S'secure'
p432
asbag69
(g90
g71
NtRp433
(dp434
g74
(dp435
g101
g102
ssg83
g424
sg76
(lp436
S':'
asbag69
(g90
g71
NtRp437
(dp438
g74
(dp439
sg83
g424
sg76
(lp440
g69
(g70
g71
NtRp441
(dp442
g74
(dp443
g82
I3
ssg83
g437
sg76
(lp444
S''
asbasbasbag69
(g85
g71
NtRp445
(dp446
g74
(dp447
sg83
g294
sg76
(lp448
g69
(g90
g71
NtRp449
(dp450
g74
(dp451
g94
g95
ssg83
g445
sg76
(lp452
S'version'
p453
asbag69
(g90
g71
NtRp454
(dp455
g74
(dp456
g101
g102
ssg83
g445
sg76
(lp457
S':'
asbag69
(g90
g71
NtRp458
(dp459
g74
(dp460
sg83
g445
sg76
(lp461
g69
(g70
g71
NtRp462
(dp463
g74
(dp464
g82
I3
ssg83
g458
sg76
(lp465
S''
asbasbasbasbasbasbasbag69
(g85
g71
NtRp466
(dp467
g74
(dp468
sg83
g268
sg76
(lp469
g69
(g90
g71
NtRp470
(dp471
g74
(dp472
g94
g95
ssg83
g466
sg76
(lp473
S'session_id_image'
p474
asbag69
(g90
g71
NtRp475
(dp476
g74
(dp477
g101
g102
ssg83
g466
sg76
(lp478
S':'
asbag69
(g90
g71
NtRp479
(dp480
g74
(dp481
sg83
g466
sg76
(lp482
g69
(g70
g71
NtRp483
(dp484
g74
(dp485
g82
I4
ssg83
g479
sg76
(lp486
S'127.0.0.1-64827972-b9b3-4c6c-8faa-9f77e6b84685'
p487
ag69
(g78
g71
NtRp488
(dp489
g74
(dp490
g82
I3
ssg83
Nsg76
(lp491
g69
(g85
g71
NtRp492
(dp493
g74
(dp494
sg83
g488
sg76
(lp495
g69
(g90
g71
NtRp496
(dp497
g74
(dp498
g94
g95
ssg83
g492
sg76
(lp499
g306
asbag69
(g90
g71
NtRp500
(dp501
g74
(dp502
g101
g102
ssg83
g492
sg76
(lp503
S':'
asbag69
(g90
g71
NtRp504
(dp505
g74
(dp506
sg83
g492
sg76
(lp507
g69
(g70
g71
NtRp508
(dp509
g74
(dp510
g82
I3
ssg83
g504
sg76
(lp511
S''
asbasbasbag69
(g85
g71
NtRp512
(dp513
g74
(dp514
sg83
g488
sg76
(lp515
g69
(g90
g71
NtRp516
(dp517
g74
(dp518
g94
g95
ssg83
g512
sg76
(lp519
g327
asbag69
(g90
g71
NtRp520
(dp521
g74
(dp522
g101
g102
ssg83
g512
sg76
(lp523
S':'
asbag69
(g90
g71
NtRp524
(dp525
g74
(dp526
sg83
g512
sg76
(lp527
g69
(g70
g71
NtRp528
(dp529
g74
(dp530
g82
I3
ssg83
g524
sg76
(lp531
S''
asbasbasbag69
(g85
g71
NtRp532
(dp533
g74
(dp534
sg83
g488
sg76
(lp535
g69
(g90
g71
NtRp536
(dp537
g74
(dp538
g94
g95
ssg83
g532
sg76
(lp539
g348
asbag69
(g90
g71
NtRp540
(dp541
g74
(dp542
g101
g102
ssg83
g532
sg76
(lp543
S':'
asbag69
(g90
g71
NtRp544
(dp545
g74
(dp546
sg83
g532
sg76
(lp547
g69
(g70
g71
NtRp548
(dp549
g74
(dp550
g82
I3
ssg83
g544
sg76
(lp551
S''
asbasbasbag69
(g85
g71
NtRp552
(dp553
g74
(dp554
sg83
g488
sg76
(lp555
g69
(g90
g71
NtRp556
(dp557
g74
(dp558
g94
g95
ssg83
g552
sg76
(lp559
g369
asbag69
(g90
g71
NtRp560
(dp561
g74
(dp562
g101
g102
ssg83
g552
sg76
(lp563
S':'
asbag69
(g90
g71
NtRp564
(dp565
g74
(dp566
sg83
g552
sg76
(lp567
g69
(g70
g71
NtRp568
(dp569
g74
(dp570
g82
I3
ssg83
g564
sg76
(lp571
S''
asbasbasbag69
(g85
g71
NtRp572
(dp573
g74
(dp574
sg83
g488
sg76
(lp575
g69
(g90
g71
NtRp576
(dp577
g74
(dp578
g94
g95
ssg83
g572
sg76
(lp579
g390
asbag69
(g90
g71
NtRp580
(dp581
g74
(dp582
g101
g102
ssg83
g572
sg76
(lp583
S':'
asbag69
(g90
g71
NtRp584
(dp585
g74
(dp586
sg83
g572
sg76
(lp587
g69
(g70
g71
NtRp588
(dp589
g74
(dp590
g82
I3
ssg83
g584
sg76
(lp591
S''
asbasbasbag69
(g85
g71
NtRp592
(dp593
g74
(dp594
sg83
g488
sg76
(lp595
g69
(g90
g71
NtRp596
(dp597
g74
(dp598
g94
g95
ssg83
g592
sg76
(lp599
g411
asbag69
(g90
g71
NtRp600
(dp601
g74
(dp602
g101
g102
ssg83
g592
sg76
(lp603
S':'
asbag69
(g90
g71
NtRp604
(dp605
g74
(dp606
sg83
g592
sg76
(lp607
g69
(g70
g71
NtRp608
(dp609
g74
(dp610
g82
I3
ssg83
g604
sg76
(lp611
S''
asbasbasbag69
(g85
g71
NtRp612
(dp613
g74
(dp614
sg83
g488
sg76
(lp615
g69
(g90
g71
NtRp616
(dp617
g74
(dp618
g94
g95
ssg83
g612
sg76
(lp619
g432
asbag69
(g90
g71
NtRp620
(dp621
g74
(dp622
g101
g102
ssg83
g612
sg76
(lp623
S':'
asbag69
(g90
g71
NtRp624
(dp625
g74
(dp626
sg83
g612
sg76
(lp627
g69
(g70
g71
NtRp628
(dp629
g74
(dp630
g82
I3
ssg83
g624
sg76
(lp631
S''
asbasbasbag69
(g85
g71
NtRp632
(dp633
g74
(dp634
sg83
g488
sg76
(lp635
g69
(g90
g71
NtRp636
(dp637
g74
(dp638
g94
g95
ssg83
g632
sg76
(lp639
g453
asbag69
(g90
g71
NtRp640
(dp641
g74
(dp642
g101
g102
ssg83
g632
sg76
(lp643
S':'
asbag69
(g90
g71
NtRp644
(dp645
g74
(dp646
sg83
g632
sg76
(lp647
g69
(g70
g71
NtRp648
(dp649
g74
(dp650
g82
I3
ssg83
g644
sg76
(lp651
S''
asbasbasbasbasbasbasbag69
(g85
g71
NtRp652
(dp653
g74
(dp654
sg83
g268
sg76
(lp655
g69
(g90
g71
NtRp656
(dp657
g74
(dp658
g94
g95
ssg83
g652
sg76
(lp659
S'session_id_music'
p660
asbag69
(g90
g71
NtRp661
(dp662
g74
(dp663
g101
g102
ssg83
g652
sg76
(lp664
S':'
asbag69
(g90
g71
NtRp665
(dp666
g74
(dp667
sg83
g652
sg76
(lp668
g69
(g70
g71
NtRp669
(dp670
g74
(dp671
g82
I4
ssg83
g665
sg76
(lp672
S'127.0.0.1-6a75e943-0a20-4bfb-98fe-2a61fdfaa079'
p673
ag69
(g78
g71
NtRp674
(dp675
g74
(dp676
g82
I3
ssg83
Nsg76
(lp677
g69
(g85
g71
NtRp678
(dp679
g74
(dp680
sg83
g674
sg76
(lp681
g69
(g90
g71
NtRp682
(dp683
g74
(dp684
g94
g95
ssg83
g678
sg76
(lp685
g306
asbag69
(g90
g71
NtRp686
(dp687
g74
(dp688
g101
g102
ssg83
g678
sg76
(lp689
S':'
asbag69
(g90
g71
NtRp690
(dp691
g74
(dp692
sg83
g678
sg76
(lp693
g69
(g70
g71
NtRp694
(dp695
g74
(dp696
g82
I3
ssg83
g690
sg76
(lp697
S''
asbasbasbag69
(g85
g71
NtRp698
(dp699
g74
(dp700
sg83
g674
sg76
(lp701
g69
(g90
g71
NtRp702
(dp703
g74
(dp704
g94
g95
ssg83
g698
sg76
(lp705
g327
asbag69
(g90
g71
NtRp706
(dp707
g74
(dp708
g101
g102
ssg83
g698
sg76
(lp709
S':'
asbag69
(g90
g71
NtRp710
(dp711
g74
(dp712
sg83
g698
sg76
(lp713
g69
(g70
g71
NtRp714
(dp715
g74
(dp716
g82
I3
ssg83
g710
sg76
(lp717
S''
asbasbasbag69
(g85
g71
NtRp718
(dp719
g74
(dp720
sg83
g674
sg76
(lp721
g69
(g90
g71
NtRp722
(dp723
g74
(dp724
g94
g95
ssg83
g718
sg76
(lp725
g348
asbag69
(g90
g71
NtRp726
(dp727
g74
(dp728
g101
g102
ssg83
g718
sg76
(lp729
S':'
asbag69
(g90
g71
NtRp730
(dp731
g74
(dp732
sg83
g718
sg76
(lp733
g69
(g70
g71
NtRp734
(dp735
g74
(dp736
g82
I3
ssg83
g730
sg76
(lp737
S''
asbasbasbag69
(g85
g71
NtRp738
(dp739
g74
(dp740
sg83
g674
sg76
(lp741
g69
(g90
g71
NtRp742
(dp743
g74
(dp744
g94
g95
ssg83
g738
sg76
(lp745
g369
asbag69
(g90
g71
NtRp746
(dp747
g74
(dp748
g101
g102
ssg83
g738
sg76
(lp749
S':'
asbag69
(g90
g71
NtRp750
(dp751
g74
(dp752
sg83
g738
sg76
(lp753
g69
(g70
g71
NtRp754
(dp755
g74
(dp756
g82
I3
ssg83
g750
sg76
(lp757
S''
asbasbasbag69
(g85
g71
NtRp758
(dp759
g74
(dp760
sg83
g674
sg76
(lp761
g69
(g90
g71
NtRp762
(dp763
g74
(dp764
g94
g95
ssg83
g758
sg76
(lp765
g390
asbag69
(g90
g71
NtRp766
(dp767
g74
(dp768
g101
g102
ssg83
g758
sg76
(lp769
S':'
asbag69
(g90
g71
NtRp770
(dp771
g74
(dp772
sg83
g758
sg76
(lp773
g69
(g70
g71
NtRp774
(dp775
g74
(dp776
g82
I3
ssg83
g770
sg76
(lp777
S''
asbasbasbag69
(g85
g71
NtRp778
(dp779
g74
(dp780
sg83
g674
sg76
(lp781
g69
(g90
g71
NtRp782
(dp783
g74
(dp784
g94
g95
ssg83
g778
sg76
(lp785
g411
asbag69
(g90
g71
NtRp786
(dp787
g74
(dp788
g101
g102
ssg83
g778
sg76
(lp789
S':'
asbag69
(g90
g71
NtRp790
(dp791
g74
(dp792
sg83
g778
sg76
(lp793
g69
(g70
g71
NtRp794
(dp795
g74
(dp796
g82
I3
ssg83
g790
sg76
(lp797
S''
asbasbasbag69
(g85
g71
NtRp798
(dp799
g74
(dp800
sg83
g674
sg76
(lp801
g69
(g90
g71
NtRp802
(dp803
g74
(dp804
g94
g95
ssg83
g798
sg76
(lp805
g432
asbag69
(g90
g71
NtRp806
(dp807
g74
(dp808
g101
g102
ssg83
g798
sg76
(lp809
S':'
asbag69
(g90
g71
NtRp810
(dp811
g74
(dp812
sg83
g798
sg76
(lp813
g69
(g70
g71
NtRp814
(dp815
g74
(dp816
g82
I3
ssg83
g810
sg76
(lp817
S''
asbasbasbag69
(g85
g71
NtRp818
(dp819
g74
(dp820
sg83
g674
sg76
(lp821
g69
(g90
g71
NtRp822
(dp823
g74
(dp824
g94
g95
ssg83
g818
sg76
(lp825
g453
asbag69
(g90
g71
NtRp826
(dp827
g74
(dp828
g101
g102
ssg83
g818
sg76
(lp829
S':'
asbag69
(g90
g71
NtRp830
(dp831
g74
(dp832
sg83
g818
sg76
(lp833
g69
(g70
g71
NtRp834
(dp835
g74
(dp836
g82
I3
ssg83
g830
sg76
(lp837
S''
asbasbasbasbasbasbasbag69
(g85
g71
NtRp838
(dp839
g74
(dp840
sg83
g268
sg76
(lp841
g69
(g90
g71
NtRp842
(dp843
g74
(dp844
g94
g95
ssg83
g838
sg76
(lp845
S'session_id_tmp'
p846
asbag69
(g90
g71
NtRp847
(dp848
g74
(dp849
g101
g102
ssg83
g838
sg76
(lp850
S':'
asbag69
(g90
g71
NtRp851
(dp852
g74
(dp853
sg83
g838
sg76
(lp854
g69
(g70
g71
NtRp855
(dp856
g74
(dp857
g82
I4
ssg83
g851
sg76
(lp858
S'127.0.0.1-8afdcc3c-287e-46d8-9a6a-83273a0e958d'
p859
ag69
(g78
g71
NtRp860
(dp861
g74
(dp862
g82
I3
ssg83
Nsg76
(lp863
g69
(g85
g71
NtRp864
(dp865
g74
(dp866
sg83
g860
sg76
(lp867
g69
(g90
g71
NtRp868
(dp869
g74
(dp870
g94
g95
ssg83
g864
sg76
(lp871
g306
asbag69
(g90
g71
NtRp872
(dp873
g74
(dp874
g101
g102
ssg83
g864
sg76
(lp875
S':'
asbag69
(g90
g71
NtRp876
(dp877
g74
(dp878
sg83
g864
sg76
(lp879
g69
(g70
g71
NtRp880
(dp881
g74
(dp882
g82
I3
ssg83
g876
sg76
(lp883
S''
asbasbasbag69
(g85
g71
NtRp884
(dp885
g74
(dp886
sg83
g860
sg76
(lp887
g69
(g90
g71
NtRp888
(dp889
g74
(dp890
g94
g95
ssg83
g884
sg76
(lp891
g327
asbag69
(g90
g71
NtRp892
(dp893
g74
(dp894
g101
g102
ssg83
g884
sg76
(lp895
S':'
asbag69
(g90
g71
NtRp896
(dp897
g74
(dp898
sg83
g884
sg76
(lp899
g69
(g70
g71
NtRp900
(dp901
g74
(dp902
g82
I3
ssg83
g896
sg76
(lp903
S''
asbasbasbag69
(g85
g71
NtRp904
(dp905
g74
(dp906
sg83
g860
sg76
(lp907
g69
(g90
g71
NtRp908
(dp909
g74
(dp910
g94
g95
ssg83
g904
sg76
(lp911
g348
asbag69
(g90
g71
NtRp912
(dp913
g74
(dp914
g101
g102
ssg83
g904
sg76
(lp915
S':'
asbag69
(g90
g71
NtRp916
(dp917
g74
(dp918
sg83
g904
sg76
(lp919
g69
(g70
g71
NtRp920
(dp921
g74
(dp922
g82
I3
ssg83
g916
sg76
(lp923
S''
asbasbasbag69
(g85
g71
NtRp924
(dp925
g74
(dp926
sg83
g860
sg76
(lp927
g69
(g90
g71
NtRp928
(dp929
g74
(dp930
g94
g95
ssg83
g924
sg76
(lp931
g369
asbag69
(g90
g71
NtRp932
(dp933
g74
(dp934
g101
g102
ssg83
g924
sg76
(lp935
S':'
asbag69
(g90
g71
NtRp936
(dp937
g74
(dp938
sg83
g924
sg76
(lp939
g69
(g70
g71
NtRp940
(dp941
g74
(dp942
g82
I3
ssg83
g936
sg76
(lp943
S''
asbasbasbag69
(g85
g71
NtRp944
(dp945
g74
(dp946
sg83
g860
sg76
(lp947
g69
(g90
g71
NtRp948
(dp949
g74
(dp950
g94
g95
ssg83
g944
sg76
(lp951
g390
asbag69
(g90
g71
NtRp952
(dp953
g74
(dp954
g101
g102
ssg83
g944
sg76
(lp955
S':'
asbag69
(g90
g71
NtRp956
(dp957
g74
(dp958
sg83
g944
sg76
(lp959
g69
(g70
g71
NtRp960
(dp961
g74
(dp962
g82
I3
ssg83
g956
sg76
(lp963
S''
asbasbasbag69
(g85
g71
NtRp964
(dp965
g74
(dp966
sg83
g860
sg76
(lp967
g69
(g90
g71
NtRp968
(dp969
g74
(dp970
g94
g95
ssg83
g964
sg76
(lp971
g411
asbag69
(g90
g71
NtRp972
(dp973
g74
(dp974
g101
g102
ssg83
g964
sg76
(lp975
S':'
asbag69
(g90
g71
NtRp976
(dp977
g74
(dp978
sg83
g964
sg76
(lp979
g69
(g70
g71
NtRp980
(dp981
g74
(dp982
g82
I3
ssg83
g976
sg76
(lp983
S''
asbasbasbag69
(g85
g71
NtRp984
(dp985
g74
(dp986
sg83
g860
sg76
(lp987
g69
(g90
g71
NtRp988
(dp989
g74
(dp990
g94
g95
ssg83
g984
sg76
(lp991
g432
asbag69
(g90
g71
NtRp992
(dp993
g74
(dp994
g101
g102
ssg83
g984
sg76
(lp995
S':'
asbag69
(g90
g71
NtRp996
(dp997
g74
(dp998
sg83
g984
sg76
(lp999
g69
(g70
g71
NtRp1000
(dp1001
g74
(dp1002
g82
I3
ssg83
g996
sg76
(lp1003
S''
asbasbasbag69
(g85
g71
NtRp1004
(dp1005
g74
(dp1006
sg83
g860
sg76
(lp1007
g69
(g90
g71
NtRp1008
(dp1009
g74
(dp1010
g94
g95
ssg83
g1004
sg76
(lp1011
g453
asbag69
(g90
g71
NtRp1012
(dp1013
g74
(dp1014
g101
g102
ssg83
g1004
sg76
(lp1015
S':'
asbag69
(g90
g71
NtRp1016
(dp1017
g74
(dp1018
sg83
g1004
sg76
(lp1019
g69
(g70
g71
NtRp1020
(dp1021
g74
(dp1022
g82
I3
ssg83
g1016
sg76
(lp1023
S''
asbasbasbasbasbasbasbag69
(g85
g71
NtRp1024
(dp1025
g74
(dp1026
sg83
g268
sg76
(lp1027
g69
(g90
g71
NtRp1028
(dp1029
g74
(dp1030
g94
g95
ssg83
g1024
sg76
(lp1031
S'session_id_welcome'
p1032
asbag69
(g90
g71
NtRp1033
(dp1034
g74
(dp1035
g101
g102
ssg83
g1024
sg76
(lp1036
S':'
asbag69
(g90
g71
NtRp1037
(dp1038
g74
(dp1039
sg83
g1024
sg76
(lp1040
g69
(g70
g71
NtRp1041
(dp1042
g74
(dp1043
g82
I4
ssg83
g1037
sg76
(lp1044
S'127.0.0.1-718bdbe2-87af-405a-8102-6e2bd21895d0'
p1045
ag69
(g78
g71
NtRp1046
(dp1047
g74
(dp1048
g82
I3
ssg83
Nsg76
(lp1049
g69
(g85
g71
NtRp1050
(dp1051
g74
(dp1052
sg83
g1046
sg76
(lp1053
g69
(g90
g71
NtRp1054
(dp1055
g74
(dp1056
g94
g95
ssg83
g1050
sg76
(lp1057
g306
asbag69
(g90
g71
NtRp1058
(dp1059
g74
(dp1060
g101
g102
ssg83
g1050
sg76
(lp1061
S':'
asbag69
(g90
g71
NtRp1062
(dp1063
g74
(dp1064
sg83
g1050
sg76
(lp1065
g69
(g70
g71
NtRp1066
(dp1067
g74
(dp1068
g82
I3
ssg83
g1062
sg76
(lp1069
S''
asbasbasbag69
(g85
g71
NtRp1070
(dp1071
g74
(dp1072
sg83
g1046
sg76
(lp1073
g69
(g90
g71
NtRp1074
(dp1075
g74
(dp1076
g94
g95
ssg83
g1070
sg76
(lp1077
g327
asbag69
(g90
g71
NtRp1078
(dp1079
g74
(dp1080
g101
g102
ssg83
g1070
sg76
(lp1081
S':'
asbag69
(g90
g71
NtRp1082
(dp1083
g74
(dp1084
sg83
g1070
sg76
(lp1085
g69
(g70
g71
NtRp1086
(dp1087
g74
(dp1088
g82
I3
ssg83
g1082
sg76
(lp1089
S''
asbasbasbag69
(g85
g71
NtRp1090
(dp1091
g74
(dp1092
sg83
g1046
sg76
(lp1093
g69
(g90
g71
NtRp1094
(dp1095
g74
(dp1096
g94
g95
ssg83
g1090
sg76
(lp1097
g348
asbag69
(g90
g71
NtRp1098
(dp1099
g74
(dp1100
g101
g102
ssg83
g1090
sg76
(lp1101
S':'
asbag69
(g90
g71
NtRp1102
(dp1103
g74
(dp1104
sg83
g1090
sg76
(lp1105
g69
(g70
g71
NtRp1106
(dp1107
g74
(dp1108
g82
I3
ssg83
g1102
sg76
(lp1109
S''
asbasbasbag69
(g85
g71
NtRp1110
(dp1111
g74
(dp1112
sg83
g1046
sg76
(lp1113
g69
(g90
g71
NtRp1114
(dp1115
g74
(dp1116
g94
g95
ssg83
g1110
sg76
(lp1117
g369
asbag69
(g90
g71
NtRp1118
(dp1119
g74
(dp1120
g101
g102
ssg83
g1110
sg76
(lp1121
S':'
asbag69
(g90
g71
NtRp1122
(dp1123
g74
(dp1124
sg83
g1110
sg76
(lp1125
g69
(g70
g71
NtRp1126
(dp1127
g74
(dp1128
g82
I3
ssg83
g1122
sg76
(lp1129
S''
asbasbasbag69
(g85
g71
NtRp1130
(dp1131
g74
(dp1132
sg83
g1046
sg76
(lp1133
g69
(g90
g71
NtRp1134
(dp1135
g74
(dp1136
g94
g95
ssg83
g1130
sg76
(lp1137
g390
asbag69
(g90
g71
NtRp1138
(dp1139
g74
(dp1140
g101
g102
ssg83
g1130
sg76
(lp1141
S':'
asbag69
(g90
g71
NtRp1142
(dp1143
g74
(dp1144
sg83
g1130
sg76
(lp1145
g69
(g70
g71
NtRp1146
(dp1147
g74
(dp1148
g82
I3
ssg83
g1142
sg76
(lp1149
S''
asbasbasbag69
(g85
g71
NtRp1150
(dp1151
g74
(dp1152
sg83
g1046
sg76
(lp1153
g69
(g90
g71
NtRp1154
(dp1155
g74
(dp1156
g94
g95
ssg83
g1150
sg76
(lp1157
g411
asbag69
(g90
g71
NtRp1158
(dp1159
g74
(dp1160
g101
g102
ssg83
g1150
sg76
(lp1161
S':'
asbag69
(g90
g71
NtRp1162
(dp1163
g74
(dp1164
sg83
g1150
sg76
(lp1165
g69
(g70
g71
NtRp1166
(dp1167
g74
(dp1168
g82
I3
ssg83
g1162
sg76
(lp1169
S''
asbasbasbag69
(g85
g71
NtRp1170
(dp1171
g74
(dp1172
sg83
g1046
sg76
(lp1173
g69
(g90
g71
NtRp1174
(dp1175
g74
(dp1176
g94
g95
ssg83
g1170
sg76
(lp1177
g432
asbag69
(g90
g71
NtRp1178
(dp1179
g74
(dp1180
g101
g102
ssg83
g1170
sg76
(lp1181
S':'
asbag69
(g90
g71
NtRp1182
(dp1183
g74
(dp1184
sg83
g1170
sg76
(lp1185
g69
(g70
g71
NtRp1186
(dp1187
g74
(dp1188
g82
I3
ssg83
g1182
sg76
(lp1189
S''
asbasbasbag69
(g85
g71
NtRp1190
(dp1191
g74
(dp1192
sg83
g1046
sg76
(lp1193
g69
(g90
g71
NtRp1194
(dp1195
g74
(dp1196
g94
g95
ssg83
g1190
sg76
(lp1197
g453
asbag69
(g90
g71
NtRp1198
(dp1199
g74
(dp1200
g101
g102
ssg83
g1190
sg76
(lp1201
S':'
asbag69
(g90
g71
NtRp1202
(dp1203
g74
(dp1204
sg83
g1190
sg76
(lp1205
g69
(g70
g71
NtRp1206
(dp1207
g74
(dp1208
g82
I3
ssg83
g1202
sg76
(lp1209
S''
asbasbasbasbasbasbasbasbasbasbasbag69
(g85
g71
NtRp1210
(dp1211
g74
(dp1212
sg83
g79
sg76
(lp1213
g69
(g90
g71
NtRp1214
(dp1215
g74
(dp1216
g94
g95
ssg83
g1210
sg76
(lp1217
S'env'
p1218
asbag69
(g90
g71
NtRp1219
(dp1220
g74
(dp1221
g101
g102
ssg83
g1210
sg76
(lp1222
S':'
asbag69
(g90
g71
NtRp1223
(dp1224
g74
(dp1225
sg83
g1210
sg76
(lp1226
g69
(g70
g71
NtRp1227
(dp1228
g74
(dp1229
g82
I5
ssg83
g1223
sg76
(lp1230
g69
(g78
g71
NtRp1231
(dp1232
g74
(dp1233
g82
I4
ssg83
Nsg76
(lp1234
g69
(g85
g71
NtRp1235
(dp1236
g74
(dp1237
sg83
g1231
sg76
(lp1238
g69
(g90
g71
NtRp1239
(dp1240
g74
(dp1241
g94
g95
ssg83
g1235
sg76
(lp1242
S'app_folders'
p1243
asbag69
(g90
g71
NtRp1244
(dp1245
g74
(dp1246
g101
g102
ssg83
g1235
sg76
(lp1247
S':'
asbag69
(g90
g71
NtRp1248
(dp1249
g74
(dp1250
sg83
g1235
sg76
(lp1251
g69
(g70
g71
NtRp1252
(dp1253
g74
(dp1254
g82
I4
ssg83
g1248
sg76
(lp1255
S"set(['/home/gaurav/classwork/WEB_PROGRAMMING/web2py/applications/MUSIC/', '/home/gaurav/classwork/WEB_PROGRAMMING/web2py/applications/admin/', '/home/gaurav/classwork/WEB_PROGRAMMING/web2py/applications/welcome/'])"
p1256
asbasbasbag69
(g85
g71
NtRp1257
(dp1258
g74
(dp1259
sg83
g1231
sg76
(lp1260
g69
(g90
g71
NtRp1261
(dp1262
g74
(dp1263
g94
g95
ssg83
g1257
sg76
(lp1264
S'applications_parent'
p1265
asbag69
(g90
g71
NtRp1266
(dp1267
g74
(dp1268
g101
g102
ssg83
g1257
sg76
(lp1269
S':'
asbag69
(g90
g71
NtRp1270
(dp1271
g74
(dp1272
sg83
g1257
sg76
(lp1273
g69
(g70
g71
NtRp1274
(dp1275
g74
(dp1276
g82
I4
ssg83
g1270
sg76
(lp1277
S'/home/gaurav/classwork/WEB_PROGRAMMING/web2py'
p1278
asbasbasbag69
(g85
g71
NtRp1279
(dp1280
g74
(dp1281
sg83
g1231
sg76
(lp1282
g69
(g90
g71
NtRp1283
(dp1284
g74
(dp1285
g94
g95
ssg83
g1279
sg76
(lp1286
S'cmd_args'
p1287
asbag69
(g90
g71
NtRp1288
(dp1289
g74
(dp1290
g101
g102
ssg83
g1279
sg76
(lp1291
S':'
asbag69
(g90
g71
NtRp1292
(dp1293
g74
(dp1294
sg83
g1279
sg76
(lp1295
g69
(g70
g71
NtRp1296
(dp1297
g74
(dp1298
g82
I4
ssg83
g1292
sg76
(lp1299
g69
(g78
g71
NtRp1300
(dp1301
g74
(dp1302
g82
I3
ssg83
Nsg76
(lp1303
sbasbasbasbag69
(g85
g71
NtRp1304
(dp1305
g74
(dp1306
sg83
g1231
sg76
(lp1307
g69
(g90
g71
NtRp1308
(dp1309
g74
(dp1310
g94
g95
ssg83
g1304
sg76
(lp1311
S'cmd_options'
p1312
asbag69
(g90
g71
NtRp1313
(dp1314
g74
(dp1315
g101
g102
ssg83
g1304
sg76
(lp1316
S':'
asbag69
(g90
g71
NtRp1317
(dp1318
g74
(dp1319
sg83
g1304
sg76
(lp1320
g69
(g70
g71
NtRp1321
(dp1322
g74
(dp1323
g82
I4
ssg83
g1317
sg76
(lp1324
S"<Values at 0x8f0e6ec: {'verbose': False, 'ip': '127.0.0.1', 'with_scheduler': False, 'ips': [], 'shutdown_timeout': 5, 'taskbar': False, 'port': 8000, 'maxthreads': None, 'softcron': False, 'server_name': 'gaurav-Compaq-Presario-C700-Notebook-PC', 'bpython': False, 'nogui': False, 'pid_filename': 'httpserver.pid', 'extcron': False, 'runcron': False, 'run_system_tests': False, 'test': None, 'folder': '/home/gaurav/classwork/WEB_PROGRAMMING/web2py', 'config': '', 'import_models': False, 'winservice': '', 'shell': None, 'run': '', 'log_filename': 'httpserver.log', 'debuglevel': 30, 'args': [''], 'socket_timeout': 5, 'ssl_ca_certificate': None, 'scheduler': None, 'profiler_filename': None, 'ssl_private_key': '', 'scheduler_groups': None, 'password': '<ask>', 'request_queue_size': 5, 'ssl_certificate': '', 'cronjob': False, 'numthreads': None, 'quiet': False, 'interfaces': None, 'minthreads': None, 'timeout': 10, 'plain': False, 'nobanner': False}>"
p1325
asbasbasbag69
(g85
g71
NtRp1326
(dp1327
g74
(dp1328
sg83
g1231
sg76
(lp1329
g69
(g90
g71
NtRp1330
(dp1331
g74
(dp1332
g94
g95
ssg83
g1326
sg76
(lp1333
S'db_sessions'
p1334
asbag69
(g90
g71
NtRp1335
(dp1336
g74
(dp1337
g101
g102
ssg83
g1326
sg76
(lp1338
S':'
asbag69
(g90
g71
NtRp1339
(dp1340
g74
(dp1341
sg83
g1326
sg76
(lp1342
g69
(g70
g71
NtRp1343
(dp1344
g74
(dp1345
g82
I4
ssg83
g1339
sg76
(lp1346
S'set([])'
p1347
asbasbasbag69
(g85
g71
NtRp1348
(dp1349
g74
(dp1350
sg83
g1231
sg76
(lp1351
g69
(g90
g71
NtRp1352
(dp1353
g74
(dp1354
g94
g95
ssg83
g1348
sg76
(lp1355
S'debugging'
p1356
asbag69
(g90
g71
NtRp1357
(dp1358
g74
(dp1359
g101
g102
ssg83
g1348
sg76
(lp1360
S':'
asbag69
(g90
g71
NtRp1361
(dp1362
g74
(dp1363
sg83
g1348
sg76
(lp1364
g69
(g70
g71
NtRp1365
(dp1366
g74
(dp1367
g82
I4
ssg83
g1361
sg76
(lp1368
g112
asbasbasbag69
(g85
g71
NtRp1369
(dp1370
g74
(dp1371
sg83
g1231
sg76
(lp1372
g69
(g90
g71
NtRp1373
(dp1374
g74
(dp1375
g94
g95
ssg83
g1369
sg76
(lp1376
S'gluon_parent'
p1377
asbag69
(g90
g71
NtRp1378
(dp1379
g74
(dp1380
g101
g102
ssg83
g1369
sg76
(lp1381
S':'
asbag69
(g90
g71
NtRp1382
(dp1383
g74
(dp1384
sg83
g1369
sg76
(lp1385
g69
(g70
g71
NtRp1386
(dp1387
g74
(dp1388
g82
I4
ssg83
g1382
sg76
(lp1389
S'/home/gaurav/classwork/WEB_PROGRAMMING/web2py'
p1390
asbasbasbag69
(g85
g71
NtRp1391
(dp1392
g74
(dp1393
sg83
g1231
sg76
(lp1394
g69
(g90
g71
NtRp1395
(dp1396
g74
(dp1397
g94
g95
ssg83
g1391
sg76
(lp1398
S'http_accept'
p1399
asbag69
(g90
g71
NtRp1400
(dp1401
g74
(dp1402
g101
g102
ssg83
g1391
sg76
(lp1403
S':'
asbag69
(g90
g71
NtRp1404
(dp1405
g74
(dp1406
sg83
g1391
sg76
(lp1407
g69
(g70
g71
NtRp1408
(dp1409
g74
(dp1410
g82
I4
ssg83
g1404
sg76
(lp1411
S'text/html,application/xhtml+xml,application/xml;q=0.9,*/*;q=0.8'
p1412
asbasbasbag69
(g85
g71
NtRp1413
(dp1414
g74
(dp1415
sg83
g1231
sg76
(lp1416
g69
(g90
g71
NtRp1417
(dp1418
g74
(dp1419
g94
g95
ssg83
g1413
sg76
(lp1420
S'http_accept_encoding'
p1421
asbag69
(g90
g71
NtRp1422
(dp1423
g74
(dp1424
g101
g102
ssg83
g1413
sg76
(lp1425
S':'
asbag69
(g90
g71
NtRp1426
(dp1427
g74
(dp1428
sg83
g1413
sg76
(lp1429
g69
(g70
g71
NtRp1430
(dp1431
g74
(dp1432
g82
I4
ssg83
g1426
sg76
(lp1433
S'gzip, deflate'
p1434
asbasbasbag69
(g85
g71
NtRp1435
(dp1436
g74
(dp1437
sg83
g1231
sg76
(lp1438
g69
(g90
g71
NtRp1439
(dp1440
g74
(dp1441
g94
g95
ssg83
g1435
sg76
(lp1442
S'http_accept_language'
p1443
asbag69
(g90
g71
NtRp1444
(dp1445
g74
(dp1446
g101
g102
ssg83
g1435
sg76
(lp1447
S':'
asbag69
(g90
g71
NtRp1448
(dp1449
g74
(dp1450
sg83
g1435
sg76
(lp1451
g69
(g70
g71
NtRp1452
(dp1453
g74
(dp1454
g82
I4
ssg83
g1448
sg76
(lp1455
S'en-US,en;q=0.5'
p1456
asbasbasbag69
(g85
g71
NtRp1457
(dp1458
g74
(dp1459
sg83
g1231
sg76
(lp1460
g69
(g90
g71
NtRp1461
(dp1462
g74
(dp1463
g94
g95
ssg83
g1457
sg76
(lp1464
S'http_connection'
p1465
asbag69
(g90
g71
NtRp1466
(dp1467
g74
(dp1468
g101
g102
ssg83
g1457
sg76
(lp1469
S':'
asbag69
(g90
g71
NtRp1470
(dp1471
g74
(dp1472
sg83
g1457
sg76
(lp1473
g69
(g70
g71
NtRp1474
(dp1475
g74
(dp1476
g82
I4
ssg83
g1470
sg76
(lp1477
S'keep-alive'
p1478
asbasbasbag69
(g85
g71
NtRp1479
(dp1480
g74
(dp1481
sg83
g1231
sg76
(lp1482
g69
(g90
g71
NtRp1483
(dp1484
g74
(dp1485
g94
g95
ssg83
g1479
sg76
(lp1486
S'http_cookie'
p1487
asbag69
(g90
g71
NtRp1488
(dp1489
g74
(dp1490
g101
g102
ssg83
g1479
sg76
(lp1491
S':'
asbag69
(g90
g71
NtRp1492
(dp1493
g74
(dp1494
sg83
g1479
sg76
(lp1495
g69
(g70
g71
NtRp1496
(dp1497
g74
(dp1498
g82
I4
ssg83
g1492
sg76
(lp1499
S'session_id_welcome=127.0.0.1-718bdbe2-87af-405a-8102-6e2bd21895d0; session_id_admin=127.0.0.1-584f2a84-2dc3-42a6-bc35-74e81db7c554; session_id_music=127.0.0.1-6a75e943-0a20-4bfb-98fe-2a61fdfaa079; session_id_tmp=127.0.0.1-8afdcc3c-287e-46d8-9a6a-83273a0e958d; session_id_image=127.0.0.1-64827972-b9b3-4c6c-8faa-9f77e6b84685'
p1500
asbasbasbag69
(g85
g71
NtRp1501
(dp1502
g74
(dp1503
sg83
g1231
sg76
(lp1504
g69
(g90
g71
NtRp1505
(dp1506
g74
(dp1507
g94
g95
ssg83
g1501
sg76
(lp1508
S'http_host'
p1509
asbag69
(g90
g71
NtRp1510
(dp1511
g74
(dp1512
g101
g102
ssg83
g1501
sg76
(lp1513
S':'
asbag69
(g90
g71
NtRp1514
(dp1515
g74
(dp1516
sg83
g1501
sg76
(lp1517
g69
(g70
g71
NtRp1518
(dp1519
g74
(dp1520
g82
I4
ssg83
g1514
sg76
(lp1521
S'127.0.0.1:8000'
p1522
asbasbasbag69
(g85
g71
NtRp1523
(dp1524
g74
(dp1525
sg83
g1231
sg76
(lp1526
g69
(g90
g71
NtRp1527
(dp1528
g74
(dp1529
g94
g95
ssg83
g1523
sg76
(lp1530
S'http_user_agent'
p1531
asbag69
(g90
g71
NtRp1532
(dp1533
g74
(dp1534
g101
g102
ssg83
g1523
sg76
(lp1535
S':'
asbag69
(g90
g71
NtRp1536
(dp1537
g74
(dp1538
sg83
g1523
sg76
(lp1539
g69
(g70
g71
NtRp1540
(dp1541
g74
(dp1542
g82
I4
ssg83
g1536
sg76
(lp1543
S'Mozilla/5.0 (X11; Ubuntu; Linux i686; rv:16.0) Gecko/20100101 Firefox/16.0'
p1544
asbasbasbag69
(g85
g71
NtRp1545
(dp1546
g74
(dp1547
sg83
g1231
sg76
(lp1548
g69
(g90
g71
NtRp1549
(dp1550
g74
(dp1551
g94
g95
ssg83
g1545
sg76
(lp1552
S'is_jython'
p1553
asbag69
(g90
g71
NtRp1554
(dp1555
g74
(dp1556
g101
g102
ssg83
g1545
sg76
(lp1557
S':'
asbag69
(g90
g71
NtRp1558
(dp1559
g74
(dp1560
sg83
g1545
sg76
(lp1561
g69
(g70
g71
NtRp1562
(dp1563
g74
(dp1564
g82
I4
ssg83
g1558
sg76
(lp1565
g112
asbasbasbag69
(g85
g71
NtRp1566
(dp1567
g74
(dp1568
sg83
g1231
sg76
(lp1569
g69
(g90
g71
NtRp1570
(dp1571
g74
(dp1572
g94
g95
ssg83
g1566
sg76
(lp1573
S'is_pypy'
p1574
asbag69
(g90
g71
NtRp1575
(dp1576
g74
(dp1577
g101
g102
ssg83
g1566
sg76
(lp1578
S':'
asbag69
(g90
g71
NtRp1579
(dp1580
g74
(dp1581
sg83
g1566
sg76
(lp1582
g69
(g70
g71
NtRp1583
(dp1584
g74
(dp1585
g82
I4
ssg83
g1579
sg76
(lp1586
g112
asbasbasbag69
(g85
g71
NtRp1587
(dp1588
g74
(dp1589
sg83
g1231
sg76
(lp1590
g69
(g90
g71
NtRp1591
(dp1592
g74
(dp1593
g94
g95
ssg83
g1587
sg76
(lp1594
S'local_hosts'
p1595
asbag69
(g90
g71
NtRp1596
(dp1597
g74
(dp1598
g101
g102
ssg83
g1587
sg76
(lp1599
S':'
asbag69
(g90
g71
NtRp1600
(dp1601
g74
(dp1602
sg83
g1587
sg76
(lp1603
g69
(g70
g71
NtRp1604
(dp1605
g74
(dp1606
g82
I4
ssg83
g1600
sg76
(lp1607
g69
(g78
g71
NtRp1608
(dp1609
g74
(dp1610
g82
I3
ssg83
Nsg76
(lp1611
g69
(g85
g71
NtRp1612
(dp1613
g74
(dp1614
sg83
g1608
sg76
(lp1615
g69
(g90
g71
NtRp1616
(dp1617
g74
(dp1618
sg83
g1612
sg76
(lp1619
g69
(g70
g71
NtRp1620
(dp1621
g74
(dp1622
g82
I3
ssg83
g1616
sg76
(lp1623
S'gaurav-Compaq-Presario-C700-Notebook-PC'
p1624
asbasbasbag69
(g85
g71
NtRp1625
(dp1626
g74
(dp1627
sg83
g1608
sg76
(lp1628
g69
(g90
g71
NtRp1629
(dp1630
g74
(dp1631
sg83
g1625
sg76
(lp1632
g69
(g70
g71
NtRp1633
(dp1634
g74
(dp1635
g82
I3
ssg83
g1629
sg76
(lp1636
S'::1'
p1637
asbasbasbag69
(g85
g71
NtRp1638
(dp1639
g74
(dp1640
sg83
g1608
sg76
(lp1641
g69
(g90
g71
NtRp1642
(dp1643
g74
(dp1644
sg83
g1638
sg76
(lp1645
g69
(g70
g71
NtRp1646
(dp1647
g74
(dp1648
g82
I3
ssg83
g1642
sg76
(lp1649
S'127.0.1.1'
p1650
asbasbasbag69
(g85
g71
NtRp1651
(dp1652
g74
(dp1653
sg83
g1608
sg76
(lp1654
g69
(g90
g71
NtRp1655
(dp1656
g74
(dp1657
sg83
g1651
sg76
(lp1658
g69
(g70
g71
NtRp1659
(dp1660
g74
(dp1661
g82
I3
ssg83
g1655
sg76
(lp1662
S'::ffff:127.0.0.1'
p1663
asbasbasbag69
(g85
g71
NtRp1664
(dp1665
g74
(dp1666
sg83
g1608
sg76
(lp1667
g69
(g90
g71
NtRp1668
(dp1669
g74
(dp1670
sg83
g1664
sg76
(lp1671
g69
(g70
g71
NtRp1672
(dp1673
g74
(dp1674
g82
I3
ssg83
g1668
sg76
(lp1675
S'127.0.0.1'
p1676
asbasbasbasbasbasbasbag69
(g85
g71
NtRp1677
(dp1678
g74
(dp1679
sg83
g1231
sg76
(lp1680
g69
(g90
g71
NtRp1681
(dp1682
g74
(dp1683
g94
g95
ssg83
g1677
sg76
(lp1684
S'path_info'
p1685
asbag69
(g90
g71
NtRp1686
(dp1687
g74
(dp1688
g101
g102
ssg83
g1677
sg76
(lp1689
S':'
asbag69
(g90
g71
NtRp1690
(dp1691
g74
(dp1692
sg83
g1677
sg76
(lp1693
g69
(g70
g71
NtRp1694
(dp1695
g74
(dp1696
g82
I4
ssg83
g1690
sg76
(lp1697
S'/MUSIC/default/que_1'
p1698
asbasbasbag69
(g85
g71
NtRp1699
(dp1700
g74
(dp1701
sg83
g1231
sg76
(lp1702
g69
(g90
g71
NtRp1703
(dp1704
g74
(dp1705
g94
g95
ssg83
g1699
sg76
(lp1706
S'query_string'
p1707
asbag69
(g90
g71
NtRp1708
(dp1709
g74
(dp1710
g101
g102
ssg83
g1699
sg76
(lp1711
S':'
asbag69
(g90
g71
NtRp1712
(dp1713
g74
(dp1714
sg83
g1699
sg76
(lp1715
g69
(g70
g71
NtRp1716
(dp1717
g74
(dp1718
g82
I4
ssg83
g1712
sg76
(lp1719
S''
asbasbasbag69
(g85
g71
NtRp1720
(dp1721
g74
(dp1722
sg83
g1231
sg76
(lp1723
g69
(g90
g71
NtRp1724
(dp1725
g74
(dp1726
g94
g95
ssg83
g1720
sg76
(lp1727
S'remote_addr'
p1728
asbag69
(g90
g71
NtRp1729
(dp1730
g74
(dp1731
g101
g102
ssg83
g1720
sg76
(lp1732
S':'
asbag69
(g90
g71
NtRp1733
(dp1734
g74
(dp1735
sg83
g1720
sg76
(lp1736
g69
(g70
g71
NtRp1737
(dp1738
g74
(dp1739
g82
I4
ssg83
g1733
sg76
(lp1740
g224
asbasbasbag69
(g85
g71
NtRp1741
(dp1742
g74
(dp1743
sg83
g1231
sg76
(lp1744
g69
(g90
g71
NtRp1745
(dp1746
g74
(dp1747
g94
g95
ssg83
g1741
sg76
(lp1748
S'remote_port'
p1749
asbag69
(g90
g71
NtRp1750
(dp1751
g74
(dp1752
g101
g102
ssg83
g1741
sg76
(lp1753
S':'
asbag69
(g90
g71
NtRp1754
(dp1755
g74
(dp1756
sg83
g1741
sg76
(lp1757
g69
(g70
g71
NtRp1758
(dp1759
g74
(dp1760
g82
I4
ssg83
g1754
sg76
(lp1761
S'44375'
p1762
asbasbasbag69
(g85
g71
NtRp1763
(dp1764
g74
(dp1765
sg83
g1231
sg76
(lp1766
g69
(g90
g71
NtRp1767
(dp1768
g74
(dp1769
g94
g95
ssg83
g1763
sg76
(lp1770
S'request_method'
p1771
asbag69
(g90
g71
NtRp1772
(dp1773
g74
(dp1774
g101
g102
ssg83
g1763
sg76
(lp1775
S':'
asbag69
(g90
g71
NtRp1776
(dp1777
g74
(dp1778
sg83
g1763
sg76
(lp1779
g69
(g70
g71
NtRp1780
(dp1781
g74
(dp1782
g82
I4
ssg83
g1776
sg76
(lp1783
S'GET'
p1784
asbasbasbag69
(g85
g71
NtRp1785
(dp1786
g74
(dp1787
sg83
g1231
sg76
(lp1788
g69
(g90
g71
NtRp1789
(dp1790
g74
(dp1791
g94
g95
ssg83
g1785
sg76
(lp1792
S'request_uri'
p1793
asbag69
(g90
g71
NtRp1794
(dp1795
g74
(dp1796
g101
g102
ssg83
g1785
sg76
(lp1797
S':'
asbag69
(g90
g71
NtRp1798
(dp1799
g74
(dp1800
sg83
g1785
sg76
(lp1801
g69
(g70
g71
NtRp1802
(dp1803
g74
(dp1804
g82
I4
ssg83
g1798
sg76
(lp1805
g1698
asbasbasbag69
(g85
g71
NtRp1806
(dp1807
g74
(dp1808
sg83
g1231
sg76
(lp1809
g69
(g90
g71
NtRp1810
(dp1811
g74
(dp1812
g94
g95
ssg83
g1806
sg76
(lp1813
S'script_name'
p1814
asbag69
(g90
g71
NtRp1815
(dp1816
g74
(dp1817
g101
g102
ssg83
g1806
sg76
(lp1818
S':'
asbag69
(g90
g71
NtRp1819
(dp1820
g74
(dp1821
sg83
g1806
sg76
(lp1822
g69
(g70
g71
NtRp1823
(dp1824
g74
(dp1825
g82
I4
ssg83
g1819
sg76
(lp1826
S''
asbasbasbag69
(g85
g71
NtRp1827
(dp1828
g74
(dp1829
sg83
g1231
sg76
(lp1830
g69
(g90
g71
NtRp1831
(dp1832
g74
(dp1833
g94
g95
ssg83
g1827
sg76
(lp1834
S'server_name'
p1835
asbag69
(g90
g71
NtRp1836
(dp1837
g74
(dp1838
g101
g102
ssg83
g1827
sg76
(lp1839
S':'
asbag69
(g90
g71
NtRp1840
(dp1841
g74
(dp1842
sg83
g1827
sg76
(lp1843
g69
(g70
g71
NtRp1844
(dp1845
g74
(dp1846
g82
I4
ssg83
g1840
sg76
(lp1847
S'gaurav-Compaq-Presario-C700-Notebook-PC'
p1848
asbasbasbag69
(g85
g71
NtRp1849
(dp1850
g74
(dp1851
sg83
g1231
sg76
(lp1852
g69
(g90
g71
NtRp1853
(dp1854
g74
(dp1855
g94
g95
ssg83
g1849
sg76
(lp1856
S'server_port'
p1857
asbag69
(g90
g71
NtRp1858
(dp1859
g74
(dp1860
g101
g102
ssg83
g1849
sg76
(lp1861
S':'
asbag69
(g90
g71
NtRp1862
(dp1863
g74
(dp1864
sg83
g1849
sg76
(lp1865
g69
(g70
g71
NtRp1866
(dp1867
g74
(dp1868
g82
I4
ssg83
g1862
sg76
(lp1869
S'8000'
p1870
asbasbasbag69
(g85
g71
NtRp1871
(dp1872
g74
(dp1873
sg83
g1231
sg76
(lp1874
g69
(g90
g71
NtRp1875
(dp1876
g74
(dp1877
g94
g95
ssg83
g1871
sg76
(lp1878
S'server_protocol'
p1879
asbag69
(g90
g71
NtRp1880
(dp1881
g74
(dp1882
g101
g102
ssg83
g1871
sg76
(lp1883
S':'
asbag69
(g90
g71
NtRp1884
(dp1885
g74
(dp1886
sg83
g1871
sg76
(lp1887
g69
(g70
g71
NtRp1888
(dp1889
g74
(dp1890
g82
I4
ssg83
g1884
sg76
(lp1891
S'HTTP/1.1'
p1892
asbasbasbag69
(g85
g71
NtRp1893
(dp1894
g74
(dp1895
sg83
g1231
sg76
(lp1896
g69
(g90
g71
NtRp1897
(dp1898
g74
(dp1899
g94
g95
ssg83
g1893
sg76
(lp1900
S'server_software'
p1901
asbag69
(g90
g71
NtRp1902
(dp1903
g74
(dp1904
g101
g102
ssg83
g1893
sg76
(lp1905
S':'
asbag69
(g90
g71
NtRp1906
(dp1907
g74
(dp1908
sg83
g1893
sg76
(lp1909
g69
(g70
g71
NtRp1910
(dp1911
g74
(dp1912
g82
I4
ssg83
g1906
sg76
(lp1913
S'Rocket 1.2.6'
p1914
asbasbasbag69
(g85
g71
NtRp1915
(dp1916
g74
(dp1917
sg83
g1231
sg76
(lp1918
g69
(g90
g71
NtRp1919
(dp1920
g74
(dp1921
g94
g95
ssg83
g1915
sg76
(lp1922
S'web2py_path'
p1923
asbag69
(g90
g71
NtRp1924
(dp1925
g74
(dp1926
g101
g102
ssg83
g1915
sg76
(lp1927
S':'
asbag69
(g90
g71
NtRp1928
(dp1929
g74
(dp1930
sg83
g1915
sg76
(lp1931
g69
(g70
g71
NtRp1932
(dp1933
g74
(dp1934
g82
I4
ssg83
g1928
sg76
(lp1935
g1278
asbasbasbag69
(g85
g71
NtRp1936
(dp1937
g74
(dp1938
sg83
g1231
sg76
(lp1939
g69
(g90
g71
NtRp1940
(dp1941
g74
(dp1942
g94
g95
ssg83
g1936
sg76
(lp1943
S'web2py_version'
p1944
asbag69
(g90
g71
NtRp1945
(dp1946
g74
(dp1947
g101
g102
ssg83
g1936
sg76
(lp1948
S':'
asbag69
(g90
g71
NtRp1949
(dp1950
g74
(dp1951
sg83
g1936
sg76
(lp1952
g69
(g70
g71
NtRp1953
(dp1954
g74
(dp1955
g82
I4
ssg83
g1949
sg76
(lp1956
g69
(g78
g71
NtRp1957
(dp1958
g74
(dp1959
g82
I3
ssg83
Nsg76
(lp1960
g69
(g85
g71
NtRp1961
(dp1962
g74
(dp1963
sg83
g1957
sg76
(lp1964
g69
(g90
g71
NtRp1965
(dp1966
g74
(dp1967
sg83
g1961
sg76
(lp1968
g69
(g70
g71
NtRp1969
(dp1970
g74
(dp1971
g82
I3
ssg83
g1965
sg76
(lp1972
S'2'
asbasbasbag69
(g85
g71
NtRp1973
(dp1974
g74
(dp1975
sg83
g1957
sg76
(lp1976
g69
(g90
g71
NtRp1977
(dp1978
g74
(dp1979
sg83
g1973
sg76
(lp1980
g69
(g70
g71
NtRp1981
(dp1982
g74
(dp1983
g82
I3
ssg83
g1977
sg76
(lp1984
S'3'
asbasbasbag69
(g85
g71
NtRp1985
(dp1986
g74
(dp1987
sg83
g1957
sg76
(lp1988
g69
(g90
g71
NtRp1989
(dp1990
g74
(dp1991
sg83
g1985
sg76
(lp1992
g69
(g70
g71
NtRp1993
(dp1994
g74
(dp1995
g82
I3
ssg83
g1989
sg76
(lp1996
S'2'
asbasbasbag69
(g85
g71
NtRp1997
(dp1998
g74
(dp1999
sg83
g1957
sg76
(lp2000
g69
(g90
g71
NtRp2001
(dp2002
g74
(dp2003
sg83
g1997
sg76
(lp2004
g69
(g70
g71
NtRp2005
(dp2006
g74
(dp2007
g82
I3
ssg83
g2001
sg76
(lp2008
S'datetime.datetime(2012, 12, 17, 15, 3, 30)'
p2009
asbasbasbag69
(g85
g71
NtRp2010
(dp2011
g74
(dp2012
sg83
g1957
sg76
(lp2013
g69
(g90
g71
NtRp2014
(dp2015
g74
(dp2016
sg83
g2010
sg76
(lp2017
g69
(g70
g71
NtRp2018
(dp2019
g74
(dp2020
g82
I3
ssg83
g2014
sg76
(lp2021
S'stable'
p2022
asbasbasbasbasbasbasbag69
(g85
g71
NtRp2023
(dp2024
g74
(dp2025
sg83
g1231
sg76
(lp2026
g69
(g90
g71
NtRp2027
(dp2028
g74
(dp2029
g94
g95
ssg83
g2023
sg76
(lp2030
S'wsgi_errors'
p2031
asbag69
(g90
g71
NtRp2032
(dp2033
g74
(dp2034
g101
g102
ssg83
g2023
sg76
(lp2035
S':'
asbag69
(g90
g71
NtRp2036
(dp2037
g74
(dp2038
sg83
g2023
sg76
(lp2039
g69
(g70
g71
NtRp2040
(dp2041
g74
(dp2042
g82
I4
ssg83
g2036
sg76
(lp2043
S"<open file '<stderr>', mode 'w' at 0xb74d60d0>"
p2044
asbasbasbag69
(g85
g71
NtRp2045
(dp2046
g74
(dp2047
sg83
g1231
sg76
(lp2048
g69
(g90
g71
NtRp2049
(dp2050
g74
(dp2051
g94
g95
ssg83
g2045
sg76
(lp2052
S'wsgi_file_wrapper'
p2053
asbag69
(g90
g71
NtRp2054
(dp2055
g74
(dp2056
g101
g102
ssg83
g2045
sg76
(lp2057
S':'
asbag69
(g90
g71
NtRp2058
(dp2059
g74
(dp2060
sg83
g2045
sg76
(lp2061
g69
(g70
g71
NtRp2062
(dp2063
g74
(dp2064
g82
I4
ssg83
g2058
sg76
(lp2065
S'<class wsgiref.util.FileWrapper at 0x8ec0ecc>'
p2066
asbasbasbag69
(g85
g71
NtRp2067
(dp2068
g74
(dp2069
sg83
g1231
sg76
(lp2070
g69
(g90
g71
NtRp2071
(dp2072
g74
(dp2073
g94
g95
ssg83
g2067
sg76
(lp2074
S'wsgi_input'
p2075
asbag69
(g90
g71
NtRp2076
(dp2077
g74
(dp2078
g101
g102
ssg83
g2067
sg76
(lp2079
S':'
asbag69
(g90
g71
NtRp2080
(dp2081
g74
(dp2082
sg83
g2067
sg76
(lp2083
g69
(g70
g71
NtRp2084
(dp2085
g74
(dp2086
g82
I4
ssg83
g2080
sg76
(lp2087
S'<socket._fileobject object at 0xb3f669ec>'
p2088
asbasbasbag69
(g85
g71
NtRp2089
(dp2090
g74
(dp2091
sg83
g1231
sg76
(lp2092
g69
(g90
g71
NtRp2093
(dp2094
g74
(dp2095
g94
g95
ssg83
g2089
sg76
(lp2096
S'wsgi_multiprocess'
p2097
asbag69
(g90
g71
NtRp2098
(dp2099
g74
(dp2100
g101
g102
ssg83
g2089
sg76
(lp2101
S':'
asbag69
(g90
g71
NtRp2102
(dp2103
g74
(dp2104
sg83
g2089
sg76
(lp2105
g69
(g70
g71
NtRp2106
(dp2107
g74
(dp2108
g82
I4
ssg83
g2102
sg76
(lp2109
g112
asbasbasbag69
(g85
g71
NtRp2110
(dp2111
g74
(dp2112
sg83
g1231
sg76
(lp2113
g69
(g90
g71
NtRp2114
(dp2115
g74
(dp2116
g94
g95
ssg83
g2110
sg76
(lp2117
S'wsgi_multithread'
p2118
asbag69
(g90
g71
NtRp2119
(dp2120
g74
(dp2121
g101
g102
ssg83
g2110
sg76
(lp2122
S':'
asbag69
(g90
g71
NtRp2123
(dp2124
g74
(dp2125
sg83
g2110
sg76
(lp2126
g69
(g70
g71
NtRp2127
(dp2128
g74
(dp2129
g82
I4
ssg83
g2123
sg76
(lp2130
S'True'
p2131
asbasbasbag69
(g85
g71
NtRp2132
(dp2133
g74
(dp2134
sg83
g1231
sg76
(lp2135
g69
(g90
g71
NtRp2136
(dp2137
g74
(dp2138
g94
g95
ssg83
g2132
sg76
(lp2139
S'wsgi_run_once'
p2140
asbag69
(g90
g71
NtRp2141
(dp2142
g74
(dp2143
g101
g102
ssg83
g2132
sg76
(lp2144
S':'
asbag69
(g90
g71
NtRp2145
(dp2146
g74
(dp2147
sg83
g2132
sg76
(lp2148
g69
(g70
g71
NtRp2149
(dp2150
g74
(dp2151
g82
I4
ssg83
g2145
sg76
(lp2152
g112
asbasbasbag69
(g85
g71
NtRp2153
(dp2154
g74
(dp2155
sg83
g1231
sg76
(lp2156
g69
(g90
g71
NtRp2157
(dp2158
g74
(dp2159
g94
g95
ssg83
g2153
sg76
(lp2160
S'wsgi_url_scheme'
p2161
asbag69
(g90
g71
NtRp2162
(dp2163
g74
(dp2164
g101
g102
ssg83
g2153
sg76
(lp2165
S':'
asbag69
(g90
g71
NtRp2166
(dp2167
g74
(dp2168
sg83
g2153
sg76
(lp2169
g69
(g70
g71
NtRp2170
(dp2171
g74
(dp2172
g82
I4
ssg83
g2166
sg76
(lp2173
S'http'
p2174
asbasbasbag69
(g85
g71
NtRp2175
(dp2176
g74
(dp2177
sg83
g1231
sg76
(lp2178
g69
(g90
g71
NtRp2179
(dp2180
g74
(dp2181
g94
g95
ssg83
g2175
sg76
(lp2182
S'wsgi_version'
p2183
asbag69
(g90
g71
NtRp2184
(dp2185
g74
(dp2186
g101
g102
ssg83
g2175
sg76
(lp2187
S':'
asbag69
(g90
g71
NtRp2188
(dp2189
g74
(dp2190
sg83
g2175
sg76
(lp2191
g69
(g70
g71
NtRp2192
(dp2193
g74
(dp2194
g82
I4
ssg83
g2188
sg76
(lp2195
g69
(g78
g71
NtRp2196
(dp2197
g74
(dp2198
g82
I3
ssg83
Nsg76
(lp2199
g69
(g85
g71
NtRp2200
(dp2201
g74
(dp2202
sg83
g2196
sg76
(lp2203
g69
(g90
g71
NtRp2204
(dp2205
g74
(dp2206
sg83
g2200
sg76
(lp2207
g69
(g70
g71
NtRp2208
(dp2209
g74
(dp2210
g82
I3
ssg83
g2204
sg76
(lp2211
S'1'
asbasbasbag69
(g85
g71
NtRp2212
(dp2213
g74
(dp2214
sg83
g2196
sg76
(lp2215
g69
(g90
g71
NtRp2216
(dp2217
g74
(dp2218
sg83
g2212
sg76
(lp2219
g69
(g70
g71
NtRp2220
(dp2221
g74
(dp2222
g82
I3
ssg83
g2216
sg76
(lp2223
S'0'
asbasbasbasbasbasbasbasbasbasbasbag69
(g85
g71
NtRp2224
(dp2225
g74
(dp2226
sg83
g79
sg76
(lp2227
g69
(g90
g71
NtRp2228
(dp2229
g74
(dp2230
g94
g95
ssg83
g2224
sg76
(lp2231
S'extension'
p2232
asbag69
(g90
g71
NtRp2233
(dp2234
g74
(dp2235
g101
g102
ssg83
g2224
sg76
(lp2236
S':'
asbag69
(g90
g71
NtRp2237
(dp2238
g74
(dp2239
sg83
g2224
sg76
(lp2240
g69
(g70
g71
NtRp2241
(dp2242
g74
(dp2243
g82
I5
ssg83
g2237
sg76
(lp2244
S'html'
p2245
asbasbasbag69
(g85
g71
NtRp2246
(dp2247
g74
(dp2248
sg83
g79
sg76
(lp2249
g69
(g90
g71
NtRp2250
(dp2251
g74
(dp2252
g94
g95
ssg83
g2246
sg76
(lp2253
S'folder'
p2254
asbag69
(g90
g71
NtRp2255
(dp2256
g74
(dp2257
g101
g102
ssg83
g2246
sg76
(lp2258
S':'
asbag69
(g90
g71
NtRp2259
(dp2260
g74
(dp2261
sg83
g2246
sg76
(lp2262
g69
(g70
g71
NtRp2263
(dp2264
g74
(dp2265
g82
I5
ssg83
g2259
sg76
(lp2266
S'/home/gaurav/classwork/WEB_PROGRAMMING/web2py/applications/MUSIC/'
p2267
asbasbasbag69
(g85
g71
NtRp2268
(dp2269
g74
(dp2270
sg83
g79
sg76
(lp2271
g69
(g90
g71
NtRp2272
(dp2273
g74
(dp2274
g94
g95
ssg83
g2268
sg76
(lp2275
S'function'
p2276
asbag69
(g90
g71
NtRp2277
(dp2278
g74
(dp2279
g101
g102
ssg83
g2268
sg76
(lp2280
S':'
asbag69
(g90
g71
NtRp2281
(dp2282
g74
(dp2283
sg83
g2268
sg76
(lp2284
g69
(g70
g71
NtRp2285
(dp2286
g74
(dp2287
g82
I5
ssg83
g2281
sg76
(lp2288
S'que_1'
p2289
asbasbasbag69
(g85
g71
NtRp2290
(dp2291
g74
(dp2292
sg83
g79
sg76
(lp2293
g69
(g90
g71
NtRp2294
(dp2295
g74
(dp2296
g94
g95
ssg83
g2290
sg76
(lp2297
S'get_vars'
p2298
asbag69
(g90
g71
NtRp2299
(dp2300
g74
(dp2301
g101
g102
ssg83
g2290
sg76
(lp2302
S':'
asbag69
(g90
g71
NtRp2303
(dp2304
g74
(dp2305
sg83
g2290
sg76
(lp2306
g69
(g70
g71
NtRp2307
(dp2308
g74
(dp2309
g82
I5
ssg83
g2303
sg76
(lp2310
g69
(g78
g71
NtRp2311
(dp2312
g74
(dp2313
g82
I4
ssg83
Nsg76
(lp2314
sbasbasbasbag69
(g85
g71
NtRp2315
(dp2316
g74
(dp2317
sg83
g79
sg76
(lp2318
g69
(g90
g71
NtRp2319
(dp2320
g74
(dp2321
g94
g95
ssg83
g2315
sg76
(lp2322
S'global_settings'
p2323
asbag69
(g90
g71
NtRp2324
(dp2325
g74
(dp2326
g101
g102
ssg83
g2315
sg76
(lp2327
S':'
asbag69
(g90
g71
NtRp2328
(dp2329
g74
(dp2330
sg83
g2315
sg76
(lp2331
g69
(g70
g71
NtRp2332
(dp2333
g74
(dp2334
g82
I5
ssg83
g2328
sg76
(lp2335
g69
(g78
g71
NtRp2336
(dp2337
g74
(dp2338
g82
I4
ssg83
Nsg76
(lp2339
g69
(g85
g71
NtRp2340
(dp2341
g74
(dp2342
sg83
g2336
sg76
(lp2343
g69
(g90
g71
NtRp2344
(dp2345
g74
(dp2346
g94
g95
ssg83
g2340
sg76
(lp2347
g1243
asbag69
(g90
g71
NtRp2348
(dp2349
g74
(dp2350
g101
g102
ssg83
g2340
sg76
(lp2351
S':'
asbag69
(g90
g71
NtRp2352
(dp2353
g74
(dp2354
sg83
g2340
sg76
(lp2355
g69
(g70
g71
NtRp2356
(dp2357
g74
(dp2358
g82
I4
ssg83
g2352
sg76
(lp2359
S"set(['/home/gaurav/classwork/WEB_PROGRAMMING/web2py/applications/MUSIC/', '/home/gaurav/classwork/WEB_PROGRAMMING/web2py/applications/admin/', '/home/gaurav/classwork/WEB_PROGRAMMING/web2py/applications/welcome/'])"
p2360
asbasbasbag69
(g85
g71
NtRp2361
(dp2362
g74
(dp2363
sg83
g2336
sg76
(lp2364
g69
(g90
g71
NtRp2365
(dp2366
g74
(dp2367
g94
g95
ssg83
g2361
sg76
(lp2368
g1265
asbag69
(g90
g71
NtRp2369
(dp2370
g74
(dp2371
g101
g102
ssg83
g2361
sg76
(lp2372
S':'
asbag69
(g90
g71
NtRp2373
(dp2374
g74
(dp2375
sg83
g2361
sg76
(lp2376
g69
(g70
g71
NtRp2377
(dp2378
g74
(dp2379
g82
I4
ssg83
g2373
sg76
(lp2380
g1278
asbasbasbag69
(g85
g71
NtRp2381
(dp2382
g74
(dp2383
sg83
g2336
sg76
(lp2384
g69
(g90
g71
NtRp2385
(dp2386
g74
(dp2387
g94
g95
ssg83
g2381
sg76
(lp2388
g1287
asbag69
(g90
g71
NtRp2389
(dp2390
g74
(dp2391
g101
g102
ssg83
g2381
sg76
(lp2392
S':'
asbag69
(g90
g71
NtRp2393
(dp2394
g74
(dp2395
sg83
g2381
sg76
(lp2396
g69
(g70
g71
NtRp2397
(dp2398
g74
(dp2399
g82
I4
ssg83
g2393
sg76
(lp2400
g69
(g78
g71
NtRp2401
(dp2402
g74
(dp2403
g82
I3
ssg83
Nsg76
(lp2404
sbasbasbasbag69
(g85
g71
NtRp2405
(dp2406
g74
(dp2407
sg83
g2336
sg76
(lp2408
g69
(g90
g71
NtRp2409
(dp2410
g74
(dp2411
g94
g95
ssg83
g2405
sg76
(lp2412
g1312
asbag69
(g90
g71
NtRp2413
(dp2414
g74
(dp2415
g101
g102
ssg83
g2405
sg76
(lp2416
S':'
asbag69
(g90
g71
NtRp2417
(dp2418
g74
(dp2419
sg83
g2405
sg76
(lp2420
g69
(g70
g71
NtRp2421
(dp2422
g74
(dp2423
g82
I4
ssg83
g2417
sg76
(lp2424
S"<Values at 0x8f0e6ec: {'verbose': False, 'ip': '127.0.0.1', 'with_scheduler': False, 'ips': [], 'shutdown_timeout': 5, 'taskbar': False, 'port': 8000, 'maxthreads': None, 'softcron': False, 'server_name': 'gaurav-Compaq-Presario-C700-Notebook-PC', 'bpython': False, 'nogui': False, 'pid_filename': 'httpserver.pid', 'extcron': False, 'runcron': False, 'run_system_tests': False, 'test': None, 'folder': '/home/gaurav/classwork/WEB_PROGRAMMING/web2py', 'config': '', 'import_models': False, 'winservice': '', 'shell': None, 'run': '', 'log_filename': 'httpserver.log', 'debuglevel': 30, 'args': [''], 'socket_timeout': 5, 'ssl_ca_certificate': None, 'scheduler': None, 'profiler_filename': None, 'ssl_private_key': '', 'scheduler_groups': None, 'password': '<ask>', 'request_queue_size': 5, 'ssl_certificate': '', 'cronjob': False, 'numthreads': None, 'quiet': False, 'interfaces': None, 'minthreads': None, 'timeout': 10, 'plain': False, 'nobanner': False}>"
p2425
asbasbasbag69
(g85
g71
NtRp2426
(dp2427
g74
(dp2428
sg83
g2336
sg76
(lp2429
g69
(g90
g71
NtRp2430
(dp2431
g74
(dp2432
g94
g95
ssg83
g2426
sg76
(lp2433
g1334
asbag69
(g90
g71
NtRp2434
(dp2435
g74
(dp2436
g101
g102
ssg83
g2426
sg76
(lp2437
S':'
asbag69
(g90
g71
NtRp2438
(dp2439
g74
(dp2440
sg83
g2426
sg76
(lp2441
g69
(g70
g71
NtRp2442
(dp2443
g74
(dp2444
g82
I4
ssg83
g2438
sg76
(lp2445
S'set([])'
p2446
asbasbasbag69
(g85
g71
NtRp2447
(dp2448
g74
(dp2449
sg83
g2336
sg76
(lp2450
g69
(g90
g71
NtRp2451
(dp2452
g74
(dp2453
g94
g95
ssg83
g2447
sg76
(lp2454
g1356
asbag69
(g90
g71
NtRp2455
(dp2456
g74
(dp2457
g101
g102
ssg83
g2447
sg76
(lp2458
S':'
asbag69
(g90
g71
NtRp2459
(dp2460
g74
(dp2461
sg83
g2447
sg76
(lp2462
g69
(g70
g71
NtRp2463
(dp2464
g74
(dp2465
g82
I4
ssg83
g2459
sg76
(lp2466
g112
asbasbasbag69
(g85
g71
NtRp2467
(dp2468
g74
(dp2469
sg83
g2336
sg76
(lp2470
g69
(g90
g71
NtRp2471
(dp2472
g74
(dp2473
g94
g95
ssg83
g2467
sg76
(lp2474
g1377
asbag69
(g90
g71
NtRp2475
(dp2476
g74
(dp2477
g101
g102
ssg83
g2467
sg76
(lp2478
S':'
asbag69
(g90
g71
NtRp2479
(dp2480
g74
(dp2481
sg83
g2467
sg76
(lp2482
g69
(g70
g71
NtRp2483
(dp2484
g74
(dp2485
g82
I4
ssg83
g2479
sg76
(lp2486
g1390
asbasbasbag69
(g85
g71
NtRp2487
(dp2488
g74
(dp2489
sg83
g2336
sg76
(lp2490
g69
(g90
g71
NtRp2491
(dp2492
g74
(dp2493
g94
g95
ssg83
g2487
sg76
(lp2494
g1553
asbag69
(g90
g71
NtRp2495
(dp2496
g74
(dp2497
g101
g102
ssg83
g2487
sg76
(lp2498
S':'
asbag69
(g90
g71
NtRp2499
(dp2500
g74
(dp2501
sg83
g2487
sg76
(lp2502
g69
(g70
g71
NtRp2503
(dp2504
g74
(dp2505
g82
I4
ssg83
g2499
sg76
(lp2506
g112
asbasbasbag69
(g85
g71
NtRp2507
(dp2508
g74
(dp2509
sg83
g2336
sg76
(lp2510
g69
(g90
g71
NtRp2511
(dp2512
g74
(dp2513
g94
g95
ssg83
g2507
sg76
(lp2514
g1574
asbag69
(g90
g71
NtRp2515
(dp2516
g74
(dp2517
g101
g102
ssg83
g2507
sg76
(lp2518
S':'
asbag69
(g90
g71
NtRp2519
(dp2520
g74
(dp2521
sg83
g2507
sg76
(lp2522
g69
(g70
g71
NtRp2523
(dp2524
g74
(dp2525
g82
I4
ssg83
g2519
sg76
(lp2526
g112
asbasbasbag69
(g85
g71
NtRp2527
(dp2528
g74
(dp2529
sg83
g2336
sg76
(lp2530
g69
(g90
g71
NtRp2531
(dp2532
g74
(dp2533
g94
g95
ssg83
g2527
sg76
(lp2534
g1595
asbag69
(g90
g71
NtRp2535
(dp2536
g74
(dp2537
g101
g102
ssg83
g2527
sg76
(lp2538
S':'
asbag69
(g90
g71
NtRp2539
(dp2540
g74
(dp2541
sg83
g2527
sg76
(lp2542
g69
(g70
g71
NtRp2543
(dp2544
g74
(dp2545
g82
I4
ssg83
g2539
sg76
(lp2546
g69
(g78
g71
NtRp2547
(dp2548
g74
(dp2549
g82
I3
ssg83
Nsg76
(lp2550
g69
(g85
g71
NtRp2551
(dp2552
g74
(dp2553
sg83
g2547
sg76
(lp2554
g69
(g90
g71
NtRp2555
(dp2556
g74
(dp2557
sg83
g2551
sg76
(lp2558
g69
(g70
g71
NtRp2559
(dp2560
g74
(dp2561
g82
I3
ssg83
g2555
sg76
(lp2562
g1624
asbasbasbag69
(g85
g71
NtRp2563
(dp2564
g74
(dp2565
sg83
g2547
sg76
(lp2566
g69
(g90
g71
NtRp2567
(dp2568
g74
(dp2569
sg83
g2563
sg76
(lp2570
g69
(g70
g71
NtRp2571
(dp2572
g74
(dp2573
g82
I3
ssg83
g2567
sg76
(lp2574
g1637
asbasbasbag69
(g85
g71
NtRp2575
(dp2576
g74
(dp2577
sg83
g2547
sg76
(lp2578
g69
(g90
g71
NtRp2579
(dp2580
g74
(dp2581
sg83
g2575
sg76
(lp2582
g69
(g70
g71
NtRp2583
(dp2584
g74
(dp2585
g82
I3
ssg83
g2579
sg76
(lp2586
g1650
asbasbasbag69
(g85
g71
NtRp2587
(dp2588
g74
(dp2589
sg83
g2547
sg76
(lp2590
g69
(g90
g71
NtRp2591
(dp2592
g74
(dp2593
sg83
g2587
sg76
(lp2594
g69
(g70
g71
NtRp2595
(dp2596
g74
(dp2597
g82
I3
ssg83
g2591
sg76
(lp2598
g1663
asbasbasbag69
(g85
g71
NtRp2599
(dp2600
g74
(dp2601
sg83
g2547
sg76
(lp2602
g69
(g90
g71
NtRp2603
(dp2604
g74
(dp2605
sg83
g2599
sg76
(lp2606
g69
(g70
g71
NtRp2607
(dp2608
g74
(dp2609
g82
I3
ssg83
g2603
sg76
(lp2610
g1676
asbasbasbasbasbasbasbag69
(g85
g71
NtRp2611
(dp2612
g74
(dp2613
sg83
g2336
sg76
(lp2614
g69
(g90
g71
NtRp2615
(dp2616
g74
(dp2617
g94
g95
ssg83
g2611
sg76
(lp2618
g1944
asbag69
(g90
g71
NtRp2619
(dp2620
g74
(dp2621
g101
g102
ssg83
g2611
sg76
(lp2622
S':'
asbag69
(g90
g71
NtRp2623
(dp2624
g74
(dp2625
sg83
g2611
sg76
(lp2626
g69
(g70
g71
NtRp2627
(dp2628
g74
(dp2629
g82
I4
ssg83
g2623
sg76
(lp2630
g69
(g78
g71
NtRp2631
(dp2632
g74
(dp2633
g82
I3
ssg83
Nsg76
(lp2634
g69
(g85
g71
NtRp2635
(dp2636
g74
(dp2637
sg83
g2631
sg76
(lp2638
g69
(g90
g71
NtRp2639
(dp2640
g74
(dp2641
sg83
g2635
sg76
(lp2642
g69
(g70
g71
NtRp2643
(dp2644
g74
(dp2645
g82
I3
ssg83
g2639
sg76
(lp2646
S'2'
asbasbasbag69
(g85
g71
NtRp2647
(dp2648
g74
(dp2649
sg83
g2631
sg76
(lp2650
g69
(g90
g71
NtRp2651
(dp2652
g74
(dp2653
sg83
g2647
sg76
(lp2654
g69
(g70
g71
NtRp2655
(dp2656
g74
(dp2657
g82
I3
ssg83
g2651
sg76
(lp2658
S'3'
asbasbasbag69
(g85
g71
NtRp2659
(dp2660
g74
(dp2661
sg83
g2631
sg76
(lp2662
g69
(g90
g71
NtRp2663
(dp2664
g74
(dp2665
sg83
g2659
sg76
(lp2666
g69
(g70
g71
NtRp2667
(dp2668
g74
(dp2669
g82
I3
ssg83
g2663
sg76
(lp2670
S'2'
asbasbasbag69
(g85
g71
NtRp2671
(dp2672
g74
(dp2673
sg83
g2631
sg76
(lp2674
g69
(g90
g71
NtRp2675
(dp2676
g74
(dp2677
sg83
g2671
sg76
(lp2678
g69
(g70
g71
NtRp2679
(dp2680
g74
(dp2681
g82
I3
ssg83
g2675
sg76
(lp2682
S'datetime.datetime(2012, 12, 17, 15, 3, 30)'
p2683
asbasbasbag69
(g85
g71
NtRp2684
(dp2685
g74
(dp2686
sg83
g2631
sg76
(lp2687
g69
(g90
g71
NtRp2688
(dp2689
g74
(dp2690
sg83
g2684
sg76
(lp2691
g69
(g70
g71
NtRp2692
(dp2693
g74
(dp2694
g82
I3
ssg83
g2688
sg76
(lp2695
g2022
asbasbasbasbasbasbasbasbasbasbasbag69
(g85
g71
NtRp2696
(dp2697
g74
(dp2698
sg83
g79
sg76
(lp2699
g69
(g90
g71
NtRp2700
(dp2701
g74
(dp2702
g94
g95
ssg83
g2696
sg76
(lp2703
S'is_https'
p2704
asbag69
(g90
g71
NtRp2705
(dp2706
g74
(dp2707
g101
g102
ssg83
g2696
sg76
(lp2708
S':'
asbag69
(g90
g71
NtRp2709
(dp2710
g74
(dp2711
sg83
g2696
sg76
(lp2712
g69
(g70
g71
NtRp2713
(dp2714
g74
(dp2715
g82
I5
ssg83
g2709
sg76
(lp2716
g112
asbasbasbag69
(g85
g71
NtRp2717
(dp2718
g74
(dp2719
sg83
g79
sg76
(lp2720
g69
(g90
g71
NtRp2721
(dp2722
g74
(dp2723
g94
g95
ssg83
g2717
sg76
(lp2724
S'is_local'
p2725
asbag69
(g90
g71
NtRp2726
(dp2727
g74
(dp2728
g101
g102
ssg83
g2717
sg76
(lp2729
S':'
asbag69
(g90
g71
NtRp2730
(dp2731
g74
(dp2732
sg83
g2717
sg76
(lp2733
g69
(g70
g71
NtRp2734
(dp2735
g74
(dp2736
g82
I5
ssg83
g2730
sg76
(lp2737
g2131
asbasbasbag69
(g85
g71
NtRp2738
(dp2739
g74
(dp2740
sg83
g79
sg76
(lp2741
g69
(g90
g71
NtRp2742
(dp2743
g74
(dp2744
g94
g95
ssg83
g2738
sg76
(lp2745
S'is_restful'
p2746
asbag69
(g90
g71
NtRp2747
(dp2748
g74
(dp2749
g101
g102
ssg83
g2738
sg76
(lp2750
S':'
asbag69
(g90
g71
NtRp2751
(dp2752
g74
(dp2753
sg83
g2738
sg76
(lp2754
g69
(g70
g71
NtRp2755
(dp2756
g74
(dp2757
g82
I5
ssg83
g2751
sg76
(lp2758
g112
asbasbasbag69
(g85
g71
NtRp2759
(dp2760
g74
(dp2761
sg83
g79
sg76
(lp2762
g69
(g90
g71
NtRp2763
(dp2764
g74
(dp2765
g94
g95
ssg83
g2759
sg76
(lp2766
S'now'
p2767
asbag69
(g90
g71
NtRp2768
(dp2769
g74
(dp2770
g101
g102
ssg83
g2759
sg76
(lp2771
S':'
asbag69
(g90
g71
NtRp2772
(dp2773
g74
(dp2774
sg83
g2759
sg76
(lp2775
g69
(g70
g71
NtRp2776
(dp2777
g74
(dp2778
g82
I5
ssg83
g2772
sg76
(lp2779
S'datetime.datetime(2013, 3, 12, 19, 37, 16, 485004)'
p2780
asbasbasbag69
(g85
g71
NtRp2781
(dp2782
g74
(dp2783
sg83
g79
sg76
(lp2784
g69
(g90
g71
NtRp2785
(dp2786
g74
(dp2787
g94
g95
ssg83
g2781
sg76
(lp2788
S'post_vars'
p2789
asbag69
(g90
g71
NtRp2790
(dp2791
g74
(dp2792
g101
g102
ssg83
g2781
sg76
(lp2793
S':'
asbag69
(g90
g71
NtRp2794
(dp2795
g74
(dp2796
sg83
g2781
sg76
(lp2797
g69
(g70
g71
NtRp2798
(dp2799
g74
(dp2800
g82
I5
ssg83
g2794
sg76
(lp2801
g69
(g78
g71
NtRp2802
(dp2803
g74
(dp2804
g82
I4
ssg83
Nsg76
(lp2805
sbasbasbasbag69
(g85
g71
NtRp2806
(dp2807
g74
(dp2808
sg83
g79
sg76
(lp2809
g69
(g90
g71
NtRp2810
(dp2811
g74
(dp2812
g94
g95
ssg83
g2806
sg76
(lp2813
S'raw_args'
p2814
asbag69
(g90
g71
NtRp2815
(dp2816
g74
(dp2817
g101
g102
ssg83
g2806
sg76
(lp2818
S':'
asbag69
(g90
g71
NtRp2819
(dp2820
g74
(dp2821
sg83
g2806
sg76
(lp2822
g69
(g70
g71
NtRp2823
(dp2824
g74
(dp2825
g82
I5
ssg83
g2819
sg76
(lp2826
S''
asbasbasbag69
(g85
g71
NtRp2827
(dp2828
g74
(dp2829
sg83
g79
sg76
(lp2830
g69
(g90
g71
NtRp2831
(dp2832
g74
(dp2833
g94
g95
ssg83
g2827
sg76
(lp2834
S'raw_extension'
p2835
asbag69
(g90
g71
NtRp2836
(dp2837
g74
(dp2838
g101
g102
ssg83
g2827
sg76
(lp2839
S':'
asbag69
(g90
g71
NtRp2840
(dp2841
g74
(dp2842
sg83
g2827
sg76
(lp2843
g69
(g70
g71
NtRp2844
(dp2845
g74
(dp2846
g82
I5
ssg83
g2840
sg76
(lp2847
S'None'
p2848
asbasbasbag69
(g85
g71
NtRp2849
(dp2850
g74
(dp2851
sg83
g79
sg76
(lp2852
g69
(g90
g71
NtRp2853
(dp2854
g74
(dp2855
g94
g95
ssg83
g2849
sg76
(lp2856
S'url'
p2857
asbag69
(g90
g71
NtRp2858
(dp2859
g74
(dp2860
g101
g102
ssg83
g2849
sg76
(lp2861
S':'
asbag69
(g90
g71
NtRp2862
(dp2863
g74
(dp2864
sg83
g2849
sg76
(lp2865
g69
(g70
g71
NtRp2866
(dp2867
g74
(dp2868
g82
I5
ssg83
g2862
sg76
(lp2869
g1698
asbasbasbag69
(g85
g71
NtRp2870
(dp2871
g74
(dp2872
sg83
g79
sg76
(lp2873
g69
(g90
g71
NtRp2874
(dp2875
g74
(dp2876
g94
g95
ssg83
g2870
sg76
(lp2877
S'utcnow'
p2878
asbag69
(g90
g71
NtRp2879
(dp2880
g74
(dp2881
g101
g102
ssg83
g2870
sg76
(lp2882
S':'
asbag69
(g90
g71
NtRp2883
(dp2884
g74
(dp2885
sg83
g2870
sg76
(lp2886
g69
(g70
g71
NtRp2887
(dp2888
g74
(dp2889
g82
I5
ssg83
g2883
sg76
(lp2890
S'datetime.datetime(2013, 3, 12, 14, 7, 16, 485120)'
p2891
asbasbasbag69
(g85
g71
NtRp2892
(dp2893
g74
(dp2894
sg83
g79
sg76
(lp2895
g69
(g90
g71
NtRp2896
(dp2897
g74
(dp2898
g94
g95
ssg83
g2892
sg76
(lp2899
S'uuid'
p2900
asbag69
(g90
g71
NtRp2901
(dp2902
g74
(dp2903
g101
g102
ssg83
g2892
sg76
(lp2904
S':'
asbag69
(g90
g71
NtRp2905
(dp2906
g74
(dp2907
sg83
g2892
sg76
(lp2908
g69
(g70
g71
NtRp2909
(dp2910
g74
(dp2911
g82
I5
ssg83
g2905
sg76
(lp2912
S'MUSIC/127.0.0.1.2013-03-12.19-37-16.f85605c8-0485-41cb-b9d5-1f6a44029e9a'
p2913
asbasbasbag69
(g85
g71
NtRp2914
(dp2915
g74
(dp2916
sg83
g79
sg76
(lp2917
g69
(g90
g71
NtRp2918
(dp2919
g74
(dp2920
g94
g95
ssg83
g2914
sg76
(lp2921
S'vars'
p2922
asbag69
(g90
g71
NtRp2923
(dp2924
g74
(dp2925
g101
g102
ssg83
g2914
sg76
(lp2926
S':'
asbag69
(g90
g71
NtRp2927
(dp2928
g74
(dp2929
sg83
g2914
sg76
(lp2930
g69
(g70
g71
NtRp2931
(dp2932
g74
(dp2933
g82
I5
ssg83
g2927
sg76
(lp2934
g69
(g78
g71
NtRp2935
(dp2936
g74
(dp2937
g82
I4
ssg83
Nsg76
(lp2938
sbasbasbasbag69
(g85
g71
NtRp2939
(dp2940
g74
(dp2941
sg83
g79
sg76
(lp2942
g69
(g90
g71
NtRp2943
(dp2944
g74
(dp2945
g94
g95
ssg83
g2939
sg76
(lp2946
S'wsgi'
p2947
asbag69
(g90
g71
NtRp2948
(dp2949
g74
(dp2950
g101
g102
ssg83
g2939
sg76
(lp2951
S':'
asbag69
(g90
g71
NtRp2952
(dp2953
g74
(dp2954
sg83
g2939
sg76
(lp2955
g69
(g70
g71
NtRp2956
(dp2957
g74
(dp2958
g82
I5
ssg83
g2952
sg76
(lp2959
g69
(g78
g71
NtRp2960
(dp2961
g74
(dp2962
g82
I4
ssg83
Nsg76
(lp2963
g69
(g85
g71
NtRp2964
(dp2965
g74
(dp2966
sg83
g2960
sg76
(lp2967
g69
(g90
g71
NtRp2968
(dp2969
g74
(dp2970
g94
g95
ssg83
g2964
sg76
(lp2971
S'environ'
p2972
asbag69
(g90
g71
NtRp2973
(dp2974
g74
(dp2975
g101
g102
ssg83
g2964
sg76
(lp2976
S':'
asbag69
(g90
g71
NtRp2977
(dp2978
g74
(dp2979
sg83
g2964
sg76
(lp2980
g69
(g70
g71
NtRp2981
(dp2982
g74
(dp2983
g82
I4
ssg83
g2977
sg76
(lp2984
g69
(g78
g71
NtRp2985
(dp2986
g74
(dp2987
g82
I3
ssg83
Nsg76
(lp2988
g69
(g85
g71
NtRp2989
(dp2990
g74
(dp2991
sg83
g2985
sg76
(lp2992
g69
(g90
g71
NtRp2993
(dp2994
g74
(dp2995
g94
g95
ssg83
g2989
sg76
(lp2996
S'HTTP_ACCEPT'
p2997
asbag69
(g90
g71
NtRp2998
(dp2999
g74
(dp3000
g101
g102
ssg83
g2989
sg76
(lp3001
S':'
asbag69
(g90
g71
NtRp3002
(dp3003
g74
(dp3004
sg83
g2989
sg76
(lp3005
g69
(g70
g71
NtRp3006
(dp3007
g74
(dp3008
g82
I3
ssg83
g3002
sg76
(lp3009
g1412
asbasbasbag69
(g85
g71
NtRp3010
(dp3011
g74
(dp3012
sg83
g2985
sg76
(lp3013
g69
(g90
g71
NtRp3014
(dp3015
g74
(dp3016
g94
g95
ssg83
g3010
sg76
(lp3017
S'HTTP_ACCEPT_ENCODING'
p3018
asbag69
(g90
g71
NtRp3019
(dp3020
g74
(dp3021
g101
g102
ssg83
g3010
sg76
(lp3022
S':'
asbag69
(g90
g71
NtRp3023
(dp3024
g74
(dp3025
sg83
g3010
sg76
(lp3026
g69
(g70
g71
NtRp3027
(dp3028
g74
(dp3029
g82
I3
ssg83
g3023
sg76
(lp3030
g1434
asbasbasbag69
(g85
g71
NtRp3031
(dp3032
g74
(dp3033
sg83
g2985
sg76
(lp3034
g69
(g90
g71
NtRp3035
(dp3036
g74
(dp3037
g94
g95
ssg83
g3031
sg76
(lp3038
S'HTTP_ACCEPT_LANGUAGE'
p3039
asbag69
(g90
g71
NtRp3040
(dp3041
g74
(dp3042
g101
g102
ssg83
g3031
sg76
(lp3043
S':'
asbag69
(g90
g71
NtRp3044
(dp3045
g74
(dp3046
sg83
g3031
sg76
(lp3047
g69
(g70
g71
NtRp3048
(dp3049
g74
(dp3050
g82
I3
ssg83
g3044
sg76
(lp3051
g1456
asbasbasbag69
(g85
g71
NtRp3052
(dp3053
g74
(dp3054
sg83
g2985
sg76
(lp3055
g69
(g90
g71
NtRp3056
(dp3057
g74
(dp3058
g94
g95
ssg83
g3052
sg76
(lp3059
S'HTTP_CONNECTION'
p3060
asbag69
(g90
g71
NtRp3061
(dp3062
g74
(dp3063
g101
g102
ssg83
g3052
sg76
(lp3064
S':'
asbag69
(g90
g71
NtRp3065
(dp3066
g74
(dp3067
sg83
g3052
sg76
(lp3068
g69
(g70
g71
NtRp3069
(dp3070
g74
(dp3071
g82
I3
ssg83
g3065
sg76
(lp3072
g1478
asbasbasbag69
(g85
g71
NtRp3073
(dp3074
g74
(dp3075
sg83
g2985
sg76
(lp3076
g69
(g90
g71
NtRp3077
(dp3078
g74
(dp3079
g94
g95
ssg83
g3073
sg76
(lp3080
S'HTTP_COOKIE'
p3081
asbag69
(g90
g71
NtRp3082
(dp3083
g74
(dp3084
g101
g102
ssg83
g3073
sg76
(lp3085
S':'
asbag69
(g90
g71
NtRp3086
(dp3087
g74
(dp3088
sg83
g3073
sg76
(lp3089
g69
(g70
g71
NtRp3090
(dp3091
g74
(dp3092
g82
I3
ssg83
g3086
sg76
(lp3093
g1500
asbasbasbag69
(g85
g71
NtRp3094
(dp3095
g74
(dp3096
sg83
g2985
sg76
(lp3097
g69
(g90
g71
NtRp3098
(dp3099
g74
(dp3100
g94
g95
ssg83
g3094
sg76
(lp3101
S'HTTP_HOST'
p3102
asbag69
(g90
g71
NtRp3103
(dp3104
g74
(dp3105
g101
g102
ssg83
g3094
sg76
(lp3106
S':'
asbag69
(g90
g71
NtRp3107
(dp3108
g74
(dp3109
sg83
g3094
sg76
(lp3110
g69
(g70
g71
NtRp3111
(dp3112
g74
(dp3113
g82
I3
ssg83
g3107
sg76
(lp3114
g1522
asbasbasbag69
(g85
g71
NtRp3115
(dp3116
g74
(dp3117
sg83
g2985
sg76
(lp3118
g69
(g90
g71
NtRp3119
(dp3120
g74
(dp3121
g94
g95
ssg83
g3115
sg76
(lp3122
S'HTTP_USER_AGENT'
p3123
asbag69
(g90
g71
NtRp3124
(dp3125
g74
(dp3126
g101
g102
ssg83
g3115
sg76
(lp3127
S':'
asbag69
(g90
g71
NtRp3128
(dp3129
g74
(dp3130
sg83
g3115
sg76
(lp3131
g69
(g70
g71
NtRp3132
(dp3133
g74
(dp3134
g82
I3
ssg83
g3128
sg76
(lp3135
g1544
asbasbasbag69
(g85
g71
NtRp3136
(dp3137
g74
(dp3138
sg83
g2985
sg76
(lp3139
g69
(g90
g71
NtRp3140
(dp3141
g74
(dp3142
g94
g95
ssg83
g3136
sg76
(lp3143
S'PATH_INFO'
p3144
asbag69
(g90
g71
NtRp3145
(dp3146
g74
(dp3147
g101
g102
ssg83
g3136
sg76
(lp3148
S':'
asbag69
(g90
g71
NtRp3149
(dp3150
g74
(dp3151
sg83
g3136
sg76
(lp3152
g69
(g70
g71
NtRp3153
(dp3154
g74
(dp3155
g82
I3
ssg83
g3149
sg76
(lp3156
g1698
asbasbasbag69
(g85
g71
NtRp3157
(dp3158
g74
(dp3159
sg83
g2985
sg76
(lp3160
g69
(g90
g71
NtRp3161
(dp3162
g74
(dp3163
g94
g95
ssg83
g3157
sg76
(lp3164
S'QUERY_STRING'
p3165
asbag69
(g90
g71
NtRp3166
(dp3167
g74
(dp3168
g101
g102
ssg83
g3157
sg76
(lp3169
S':'
asbag69
(g90
g71
NtRp3170
(dp3171
g74
(dp3172
sg83
g3157
sg76
(lp3173
g69
(g70
g71
NtRp3174
(dp3175
g74
(dp3176
g82
I3
ssg83
g3170
sg76
(lp3177
S''
asbasbasbag69
(g85
g71
NtRp3178
(dp3179
g74
(dp3180
sg83
g2985
sg76
(lp3181
g69
(g90
g71
NtRp3182
(dp3183
g74
(dp3184
g94
g95
ssg83
g3178
sg76
(lp3185
S'REMOTE_ADDR'
p3186
asbag69
(g90
g71
NtRp3187
(dp3188
g74
(dp3189
g101
g102
ssg83
g3178
sg76
(lp3190
S':'
asbag69
(g90
g71
NtRp3191
(dp3192
g74
(dp3193
sg83
g3178
sg76
(lp3194
g69
(g70
g71
NtRp3195
(dp3196
g74
(dp3197
g82
I3
ssg83
g3191
sg76
(lp3198
g224
asbasbasbag69
(g85
g71
NtRp3199
(dp3200
g74
(dp3201
sg83
g2985
sg76
(lp3202
g69
(g90
g71
NtRp3203
(dp3204
g74
(dp3205
g94
g95
ssg83
g3199
sg76
(lp3206
S'REMOTE_PORT'
p3207
asbag69
(g90
g71
NtRp3208
(dp3209
g74
(dp3210
g101
g102
ssg83
g3199
sg76
(lp3211
S':'
asbag69
(g90
g71
NtRp3212
(dp3213
g74
(dp3214
sg83
g3199
sg76
(lp3215
g69
(g70
g71
NtRp3216
(dp3217
g74
(dp3218
g82
I3
ssg83
g3212
sg76
(lp3219
g1762
asbasbasbag69
(g85
g71
NtRp3220
(dp3221
g74
(dp3222
sg83
g2985
sg76
(lp3223
g69
(g90
g71
NtRp3224
(dp3225
g74
(dp3226
g94
g95
ssg83
g3220
sg76
(lp3227
S'REQUEST_METHOD'
p3228
asbag69
(g90
g71
NtRp3229
(dp3230
g74
(dp3231
g101
g102
ssg83
g3220
sg76
(lp3232
S':'
asbag69
(g90
g71
NtRp3233
(dp3234
g74
(dp3235
sg83
g3220
sg76
(lp3236
g69
(g70
g71
NtRp3237
(dp3238
g74
(dp3239
g82
I3
ssg83
g3233
sg76
(lp3240
g1784
asbasbasbag69
(g85
g71
NtRp3241
(dp3242
g74
(dp3243
sg83
g2985
sg76
(lp3244
g69
(g90
g71
NtRp3245
(dp3246
g74
(dp3247
g94
g95
ssg83
g3241
sg76
(lp3248
S'REQUEST_URI'
p3249
asbag69
(g90
g71
NtRp3250
(dp3251
g74
(dp3252
g101
g102
ssg83
g3241
sg76
(lp3253
S':'
asbag69
(g90
g71
NtRp3254
(dp3255
g74
(dp3256
sg83
g3241
sg76
(lp3257
g69
(g70
g71
NtRp3258
(dp3259
g74
(dp3260
g82
I3
ssg83
g3254
sg76
(lp3261
g1698
asbasbasbag69
(g85
g71
NtRp3262
(dp3263
g74
(dp3264
sg83
g2985
sg76
(lp3265
g69
(g90
g71
NtRp3266
(dp3267
g74
(dp3268
g94
g95
ssg83
g3262
sg76
(lp3269
S'SCRIPT_NAME'
p3270
asbag69
(g90
g71
NtRp3271
(dp3272
g74
(dp3273
g101
g102
ssg83
g3262
sg76
(lp3274
S':'
asbag69
(g90
g71
NtRp3275
(dp3276
g74
(dp3277
sg83
g3262
sg76
(lp3278
g69
(g70
g71
NtRp3279
(dp3280
g74
(dp3281
g82
I3
ssg83
g3275
sg76
(lp3282
S''
asbasbasbag69
(g85
g71
NtRp3283
(dp3284
g74
(dp3285
sg83
g2985
sg76
(lp3286
g69
(g90
g71
NtRp3287
(dp3288
g74
(dp3289
g94
g95
ssg83
g3283
sg76
(lp3290
S'SERVER_NAME'
p3291
asbag69
(g90
g71
NtRp3292
(dp3293
g74
(dp3294
g101
g102
ssg83
g3283
sg76
(lp3295
S':'
asbag69
(g90
g71
NtRp3296
(dp3297
g74
(dp3298
sg83
g3283
sg76
(lp3299
g69
(g70
g71
NtRp3300
(dp3301
g74
(dp3302
g82
I3
ssg83
g3296
sg76
(lp3303
g1848
asbasbasbag69
(g85
g71
NtRp3304
(dp3305
g74
(dp3306
sg83
g2985
sg76
(lp3307
g69
(g90
g71
NtRp3308
(dp3309
g74
(dp3310
g94
g95
ssg83
g3304
sg76
(lp3311
S'SERVER_PORT'
p3312
asbag69
(g90
g71
NtRp3313
(dp3314
g74
(dp3315
g101
g102
ssg83
g3304
sg76
(lp3316
S':'
asbag69
(g90
g71
NtRp3317
(dp3318
g74
(dp3319
sg83
g3304
sg76
(lp3320
g69
(g70
g71
NtRp3321
(dp3322
g74
(dp3323
g82
I3
ssg83
g3317
sg76
(lp3324
g1870
asbasbasbag69
(g85
g71
NtRp3325
(dp3326
g74
(dp3327
sg83
g2985
sg76
(lp3328
g69
(g90
g71
NtRp3329
(dp3330
g74
(dp3331
g94
g95
ssg83
g3325
sg76
(lp3332
S'SERVER_PROTOCOL'
p3333
asbag69
(g90
g71
NtRp3334
(dp3335
g74
(dp3336
g101
g102
ssg83
g3325
sg76
(lp3337
S':'
asbag69
(g90
g71
NtRp3338
(dp3339
g74
(dp3340
sg83
g3325
sg76
(lp3341
g69
(g70
g71
NtRp3342
(dp3343
g74
(dp3344
g82
I3
ssg83
g3338
sg76
(lp3345
g1892
asbasbasbag69
(g85
g71
NtRp3346
(dp3347
g74
(dp3348
sg83
g2985
sg76
(lp3349
g69
(g90
g71
NtRp3350
(dp3351
g74
(dp3352
g94
g95
ssg83
g3346
sg76
(lp3353
S'SERVER_SOFTWARE'
p3354
asbag69
(g90
g71
NtRp3355
(dp3356
g74
(dp3357
g101
g102
ssg83
g3346
sg76
(lp3358
S':'
asbag69
(g90
g71
NtRp3359
(dp3360
g74
(dp3361
sg83
g3346
sg76
(lp3362
g69
(g70
g71
NtRp3363
(dp3364
g74
(dp3365
g82
I3
ssg83
g3359
sg76
(lp3366
g1914
asbasbasbag69
(g85
g71
NtRp3367
(dp3368
g74
(dp3369
sg83
g2985
sg76
(lp3370
g69
(g90
g71
NtRp3371
(dp3372
g74
(dp3373
g94
g95
ssg83
g3367
sg76
(lp3374
S'wsgi.errors'
p3375
asbag69
(g90
g71
NtRp3376
(dp3377
g74
(dp3378
g101
g102
ssg83
g3367
sg76
(lp3379
S':'
asbag69
(g90
g71
NtRp3380
(dp3381
g74
(dp3382
sg83
g3367
sg76
(lp3383
g69
(g70
g71
NtRp3384
(dp3385
g74
(dp3386
g82
I3
ssg83
g3380
sg76
(lp3387
S"<open file '<stderr>', mode 'w' at 0xb74d60d0>"
p3388
asbasbasbag69
(g85
g71
NtRp3389
(dp3390
g74
(dp3391
sg83
g2985
sg76
(lp3392
g69
(g90
g71
NtRp3393
(dp3394
g74
(dp3395
g94
g95
ssg83
g3389
sg76
(lp3396
S'wsgi.file_wrapper'
p3397
asbag69
(g90
g71
NtRp3398
(dp3399
g74
(dp3400
g101
g102
ssg83
g3389
sg76
(lp3401
S':'
asbag69
(g90
g71
NtRp3402
(dp3403
g74
(dp3404
sg83
g3389
sg76
(lp3405
g69
(g70
g71
NtRp3406
(dp3407
g74
(dp3408
g82
I3
ssg83
g3402
sg76
(lp3409
S'<class wsgiref.util.FileWrapper at 0x8ec0ecc>'
p3410
asbasbasbag69
(g85
g71
NtRp3411
(dp3412
g74
(dp3413
sg83
g2985
sg76
(lp3414
g69
(g90
g71
NtRp3415
(dp3416
g74
(dp3417
g94
g95
ssg83
g3411
sg76
(lp3418
S'wsgi.input'
p3419
asbag69
(g90
g71
NtRp3420
(dp3421
g74
(dp3422
g101
g102
ssg83
g3411
sg76
(lp3423
S':'
asbag69
(g90
g71
NtRp3424
(dp3425
g74
(dp3426
sg83
g3411
sg76
(lp3427
g69
(g70
g71
NtRp3428
(dp3429
g74
(dp3430
g82
I3
ssg83
g3424
sg76
(lp3431
S'<cStringIO.StringO object at 0xaec51980>'
p3432
asbasbasbag69
(g85
g71
NtRp3433
(dp3434
g74
(dp3435
sg83
g2985
sg76
(lp3436
g69
(g90
g71
NtRp3437
(dp3438
g74
(dp3439
g94
g95
ssg83
g3433
sg76
(lp3440
S'wsgi.multiprocess'
p3441
asbag69
(g90
g71
NtRp3442
(dp3443
g74
(dp3444
g101
g102
ssg83
g3433
sg76
(lp3445
S':'
asbag69
(g90
g71
NtRp3446
(dp3447
g74
(dp3448
sg83
g3433
sg76
(lp3449
g69
(g70
g71
NtRp3450
(dp3451
g74
(dp3452
g82
I3
ssg83
g3446
sg76
(lp3453
g112
asbasbasbag69
(g85
g71
NtRp3454
(dp3455
g74
(dp3456
sg83
g2985
sg76
(lp3457
g69
(g90
g71
NtRp3458
(dp3459
g74
(dp3460
g94
g95
ssg83
g3454
sg76
(lp3461
S'wsgi.multithread'
p3462
asbag69
(g90
g71
NtRp3463
(dp3464
g74
(dp3465
g101
g102
ssg83
g3454
sg76
(lp3466
S':'
asbag69
(g90
g71
NtRp3467
(dp3468
g74
(dp3469
sg83
g3454
sg76
(lp3470
g69
(g70
g71
NtRp3471
(dp3472
g74
(dp3473
g82
I3
ssg83
g3467
sg76
(lp3474
g2131
asbasbasbag69
(g85
g71
NtRp3475
(dp3476
g74
(dp3477
sg83
g2985
sg76
(lp3478
g69
(g90
g71
NtRp3479
(dp3480
g74
(dp3481
g94
g95
ssg83
g3475
sg76
(lp3482
S'wsgi.run_once'
p3483
asbag69
(g90
g71
NtRp3484
(dp3485
g74
(dp3486
g101
g102
ssg83
g3475
sg76
(lp3487
S':'
asbag69
(g90
g71
NtRp3488
(dp3489
g74
(dp3490
sg83
g3475
sg76
(lp3491
g69
(g70
g71
NtRp3492
(dp3493
g74
(dp3494
g82
I3
ssg83
g3488
sg76
(lp3495
g112
asbasbasbag69
(g85
g71
NtRp3496
(dp3497
g74
(dp3498
sg83
g2985
sg76
(lp3499
g69
(g90
g71
NtRp3500
(dp3501
g74
(dp3502
g94
g95
ssg83
g3496
sg76
(lp3503
S'wsgi.url_scheme'
p3504
asbag69
(g90
g71
NtRp3505
(dp3506
g74
(dp3507
g101
g102
ssg83
g3496
sg76
(lp3508
S':'
asbag69
(g90
g71
NtRp3509
(dp3510
g74
(dp3511
sg83
g3496
sg76
(lp3512
g69
(g70
g71
NtRp3513
(dp3514
g74
(dp3515
g82
I3
ssg83
g3509
sg76
(lp3516
g2174
asbasbasbag69
(g85
g71
NtRp3517
(dp3518
g74
(dp3519
sg83
g2985
sg76
(lp3520
g69
(g90
g71
NtRp3521
(dp3522
g74
(dp3523
g94
g95
ssg83
g3517
sg76
(lp3524
S'wsgi.version'
p3525
asbag69
(g90
g71
NtRp3526
(dp3527
g74
(dp3528
g101
g102
ssg83
g3517
sg76
(lp3529
S':'
asbag69
(g90
g71
NtRp3530
(dp3531
g74
(dp3532
sg83
g3517
sg76
(lp3533
g69
(g70
g71
NtRp3534
(dp3535
g74
(dp3536
g82
I3
ssg83
g3530
sg76
(lp3537
S'1'
asbasbasbasbasbasbasbasbasbasbasbasbasbsS'frames'
p3538
(lp3539
(dp3540
S'file'
p3541
S'/home/gaurav/classwork/WEB_PROGRAMMING/web2py/gluon/restricted.py'
p3542
sS'dump'
p3543
(dp3544
S'code'
p3545
S"'\\n\\n\\n\\n\\n# -*- coding: utf-8 -*-\\n# this file is rele...ict(k=k)\\n\\nresponse._vars=response._caller(que_1)\\n'"
p3546
sS'layer'
p3547
S"'/home/gaurav/classwork/WEB_PROGRAMMING/web2py/applications/MUSIC/controllers/default.py'"
p3548
sS'global compile2'
p3549
S'<function compile2>'
p3550
sS'ccode'
p3551
S'undefined'
p3552
ssS'lnum'
p3553
I211
sS'lines'
p3554
(dp3555
I206
S"    environment['__name__'] = '__restricted__'"
p3556
sI207
S'    try:'
p3557
sI208
S'        if isinstance(code, types.CodeType):'
p3558
sI209
S'            ccode = code'
p3559
sI210
S'        else:'
p3560
sI211
S'            ccode = compile2(code, layer)'
p3561
sI212
S'        exec ccode in environment'
p3562
sI213
S'    except HTTP:'
p3563
sI214
S'        raise'
p3564
sI215
S'    except RestrictedError:'
p3565
ssS'call'
p3566
S"(code='\\n\\n\\n\\n\\n# -*- coding: utf-8 -*-\\n# this file is rele...ict(k=k)\\n\\nresponse._vars=response._caller(que_1)\\n', environment={'A': <class 'gluon.html.A'>, 'Auth': <class 'gluon.tools.Auth'>, 'B': <class 'gluon.html.B'>, 'BEAUTIFY': <class 'gluon.html.BEAUTIFY'>, 'BODY': <class 'gluon.html.BODY'>, 'BR': <class 'gluon.html.BR'>, 'BUTTON': <class 'gluon.html.BUTTON'>, 'CAT': <class 'gluon.html.CAT'>, 'CENTER': <class 'gluon.html.CENTER'>, 'CLEANUP': <class 'gluon.validators.CLEANUP'>, ...}, layer='/home/gaurav/classwork/WEB_PROGRAMMING/web2py/applications/MUSIC/controllers/default.py')"
p3567
sS'func'
p3568
S'restricted'
p3569
sa(dp3570
g3541
S'/home/gaurav/classwork/WEB_PROGRAMMING/web2py/gluon/restricted.py'
p3571
sg3543
(dp3572
S'builtincompile'
p3573
S'<built-in function compile>'
p3574
sS'code'
p3575
S"'\\n\\n\\n\\n\\n# -*- coding: utf-8 -*-\\n# this file is rele...ict(k=k)\\n\\nresponse._vars=response._caller(que_1)\\n'"
p3576
sS'code.rstrip'
p3577
S'<built-in method rstrip of str object>'
p3578
sS').replace'
p3579
g3552
sS'layer'
p3580
S"'/home/gaurav/classwork/WEB_PROGRAMMING/web2py/applications/MUSIC/controllers/default.py'"
p3581
ssg3553
I194
sg3554
(dp3582
I192
S"    The +'\\n' is necessary else compile fails when code ends in a comment."
p3583
sI193
S'    """'
p3584
sI194
S"    return compile(code.rstrip().replace('\\r\\n', '\\n') + '\\n', layer, 'exec')"
p3585
sI195
S''
sI196
S''
sI197
S"def restricted(code, environment=None, layer='Unknown'):"
p3586
sI198
S'    """'
p3587
sI189
S''
sI190
S'def compile2(code, layer):'
p3588
sI191
S'    """'
p3589
ssg3566
S"(code='\\n\\n\\n\\n\\n# -*- coding: utf-8 -*-\\n# this file is rele...ict(k=k)\\n\\nresponse._vars=response._caller(que_1)\\n', layer='/home/gaurav/classwork/WEB_PROGRAMMING/web2py/applications/MUSIC/controllers/default.py')"
p3590
sg3568
S'compile2'
p3591
sasS'pyver'
p3592
S'Python 2.7.3: /usr/bin/python'
p3593
sS'session'
p3594
g69
(g70
g71
NtRp3595
(dp3596
g74
(dp3597
sg76
(lp3598
g69
(g78
g71
NtRp3599
(dp3600
g74
(dp3601
g82
I5
ssg83
Nsg76
(lp3602
sbasbsS'etype'
p3603
S"<type 'exceptions.SyntaxError'>"
p3604
sS'date'
p3605
S'Tue Mar 12 19:37:16 2013'
p3606
sS'response'
p3607
g69
(g70
g71
NtRp3608
(dp3609
g74
(dp3610
sg76
(lp3611
g69
(g78
g71
NtRp3612
(dp3613
g74
(dp3614
g82
I5
ssg83
Nsg76
(lp3615
g69
(g85
g71
NtRp3616
(dp3617
g74
(dp3618
sg83
g3612
sg76
(lp3619
g69
(g90
g71
NtRp3620
(dp3621
g74
(dp3622
g94
g95
ssg83
g3616
sg76
(lp3623
g167
asbag69
(g90
g71
NtRp3624
(dp3625
g74
(dp3626
g101
g102
ssg83
g3616
sg76
(lp3627
S':'
asbag69
(g90
g71
NtRp3628
(dp3629
g74
(dp3630
sg83
g3616
sg76
(lp3631
g69
(g70
g71
NtRp3632
(dp3633
g74
(dp3634
g82
I5
ssg83
g3628
sg76
(lp3635
S'<cStringIO.StringO object at 0x8f327c0>'
p3636
asbasbasbag69
(g85
g71
NtRp3637
(dp3638
g74
(dp3639
sg83
g3612
sg76
(lp3640
g69
(g90
g71
NtRp3641
(dp3642
g74
(dp3643
g94
g95
ssg83
g3637
sg76
(lp3644
g255
asbag69
(g90
g71
NtRp3645
(dp3646
g74
(dp3647
g101
g102
ssg83
g3637
sg76
(lp3648
S':'
asbag69
(g90
g71
NtRp3649
(dp3650
g74
(dp3651
sg83
g3637
sg76
(lp3652
g69
(g70
g71
NtRp3653
(dp3654
g74
(dp3655
g82
I5
ssg83
g3649
sg76
(lp3656
g69
(g78
g71
NtRp3657
(dp3658
g74
(dp3659
g82
I4
ssg83
Nsg76
(lp3660
g69
(g85
g71
NtRp3661
(dp3662
g74
(dp3663
sg83
g3657
sg76
(lp3664
g69
(g90
g71
NtRp3665
(dp3666
g74
(dp3667
g94
g95
ssg83
g3661
sg76
(lp3668
S'session_id_music'
p3669
asbag69
(g90
g71
NtRp3670
(dp3671
g74
(dp3672
g101
g102
ssg83
g3661
sg76
(lp3673
S':'
asbag69
(g90
g71
NtRp3674
(dp3675
g74
(dp3676
sg83
g3661
sg76
(lp3677
g69
(g70
g71
NtRp3678
(dp3679
g74
(dp3680
g82
I4
ssg83
g3674
sg76
(lp3681
g673
ag69
(g78
g71
NtRp3682
(dp3683
g74
(dp3684
g82
I3
ssg83
Nsg76
(lp3685
g69
(g85
g71
NtRp3686
(dp3687
g74
(dp3688
sg83
g3682
sg76
(lp3689
g69
(g90
g71
NtRp3690
(dp3691
g74
(dp3692
g94
g95
ssg83
g3686
sg76
(lp3693
g306
asbag69
(g90
g71
NtRp3694
(dp3695
g74
(dp3696
g101
g102
ssg83
g3686
sg76
(lp3697
S':'
asbag69
(g90
g71
NtRp3698
(dp3699
g74
(dp3700
sg83
g3686
sg76
(lp3701
g69
(g70
g71
NtRp3702
(dp3703
g74
(dp3704
g82
I3
ssg83
g3698
sg76
(lp3705
S''
asbasbasbag69
(g85
g71
NtRp3706
(dp3707
g74
(dp3708
sg83
g3682
sg76
(lp3709
g69
(g90
g71
NtRp3710
(dp3711
g74
(dp3712
g94
g95
ssg83
g3706
sg76
(lp3713
g327
asbag69
(g90
g71
NtRp3714
(dp3715
g74
(dp3716
g101
g102
ssg83
g3706
sg76
(lp3717
S':'
asbag69
(g90
g71
NtRp3718
(dp3719
g74
(dp3720
sg83
g3706
sg76
(lp3721
g69
(g70
g71
NtRp3722
(dp3723
g74
(dp3724
g82
I3
ssg83
g3718
sg76
(lp3725
S''
asbasbasbag69
(g85
g71
NtRp3726
(dp3727
g74
(dp3728
sg83
g3682
sg76
(lp3729
g69
(g90
g71
NtRp3730
(dp3731
g74
(dp3732
g94
g95
ssg83
g3726
sg76
(lp3733
g348
asbag69
(g90
g71
NtRp3734
(dp3735
g74
(dp3736
g101
g102
ssg83
g3726
sg76
(lp3737
S':'
asbag69
(g90
g71
NtRp3738
(dp3739
g74
(dp3740
sg83
g3726
sg76
(lp3741
g69
(g70
g71
NtRp3742
(dp3743
g74
(dp3744
g82
I3
ssg83
g3738
sg76
(lp3745
S''
asbasbasbag69
(g85
g71
NtRp3746
(dp3747
g74
(dp3748
sg83
g3682
sg76
(lp3749
g69
(g90
g71
NtRp3750
(dp3751
g74
(dp3752
g94
g95
ssg83
g3746
sg76
(lp3753
g369
asbag69
(g90
g71
NtRp3754
(dp3755
g74
(dp3756
g101
g102
ssg83
g3746
sg76
(lp3757
S':'
asbag69
(g90
g71
NtRp3758
(dp3759
g74
(dp3760
sg83
g3746
sg76
(lp3761
g69
(g70
g71
NtRp3762
(dp3763
g74
(dp3764
g82
I3
ssg83
g3758
sg76
(lp3765
S''
asbasbasbag69
(g85
g71
NtRp3766
(dp3767
g74
(dp3768
sg83
g3682
sg76
(lp3769
g69
(g90
g71
NtRp3770
(dp3771
g74
(dp3772
g94
g95
ssg83
g3766
sg76
(lp3773
g390
asbag69
(g90
g71
NtRp3774
(dp3775
g74
(dp3776
g101
g102
ssg83
g3766
sg76
(lp3777
S':'
asbag69
(g90
g71
NtRp3778
(dp3779
g74
(dp3780
sg83
g3766
sg76
(lp3781
g69
(g70
g71
NtRp3782
(dp3783
g74
(dp3784
g82
I3
ssg83
g3778
sg76
(lp3785
S''
asbasbasbag69
(g85
g71
NtRp3786
(dp3787
g74
(dp3788
sg83
g3682
sg76
(lp3789
g69
(g90
g71
NtRp3790
(dp3791
g74
(dp3792
g94
g95
ssg83
g3786
sg76
(lp3793
g411
asbag69
(g90
g71
NtRp3794
(dp3795
g74
(dp3796
g101
g102
ssg83
g3786
sg76
(lp3797
S':'
asbag69
(g90
g71
NtRp3798
(dp3799
g74
(dp3800
sg83
g3786
sg76
(lp3801
g69
(g70
g71
NtRp3802
(dp3803
g74
(dp3804
g82
I3
ssg83
g3798
sg76
(lp3805
S'/'
asbasbasbag69
(g85
g71
NtRp3806
(dp3807
g74
(dp3808
sg83
g3682
sg76
(lp3809
g69
(g90
g71
NtRp3810
(dp3811
g74
(dp3812
g94
g95
ssg83
g3806
sg76
(lp3813
g432
asbag69
(g90
g71
NtRp3814
(dp3815
g74
(dp3816
g101
g102
ssg83
g3806
sg76
(lp3817
S':'
asbag69
(g90
g71
NtRp3818
(dp3819
g74
(dp3820
sg83
g3806
sg76
(lp3821
g69
(g70
g71
NtRp3822
(dp3823
g74
(dp3824
g82
I3
ssg83
g3818
sg76
(lp3825
S''
asbasbasbag69
(g85
g71
NtRp3826
(dp3827
g74
(dp3828
sg83
g3682
sg76
(lp3829
g69
(g90
g71
NtRp3830
(dp3831
g74
(dp3832
g94
g95
ssg83
g3826
sg76
(lp3833
g453
asbag69
(g90
g71
NtRp3834
(dp3835
g74
(dp3836
g101
g102
ssg83
g3826
sg76
(lp3837
S':'
asbag69
(g90
g71
NtRp3838
(dp3839
g74
(dp3840
sg83
g3826
sg76
(lp3841
g69
(g70
g71
NtRp3842
(dp3843
g74
(dp3844
g82
I3
ssg83
g3838
sg76
(lp3845
S''
asbasbasbasbasbasbasbasbasbasbasbag69
(g85
g71
NtRp3846
(dp3847
g74
(dp3848
sg83
g3612
sg76
(lp3849
g69
(g90
g71
NtRp3850
(dp3851
g74
(dp3852
g94
g95
ssg83
g3846
sg76
(lp3853
S'delimiters'
p3854
asbag69
(g90
g71
NtRp3855
(dp3856
g74
(dp3857
g101
g102
ssg83
g3846
sg76
(lp3858
S':'
asbag69
(g90
g71
NtRp3859
(dp3860
g74
(dp3861
sg83
g3846
sg76
(lp3862
g69
(g70
g71
NtRp3863
(dp3864
g74
(dp3865
g82
I5
ssg83
g3859
sg76
(lp3866
g69
(g78
g71
NtRp3867
(dp3868
g74
(dp3869
g82
I4
ssg83
Nsg76
(lp3870
g69
(g85
g71
NtRp3871
(dp3872
g74
(dp3873
sg83
g3867
sg76
(lp3874
g69
(g90
g71
NtRp3875
(dp3876
g74
(dp3877
sg83
g3871
sg76
(lp3878
g69
(g70
g71
NtRp3879
(dp3880
g74
(dp3881
g82
I4
ssg83
g3875
sg76
(lp3882
S'{{'
p3883
asbasbasbag69
(g85
g71
NtRp3884
(dp3885
g74
(dp3886
sg83
g3867
sg76
(lp3887
g69
(g90
g71
NtRp3888
(dp3889
g74
(dp3890
sg83
g3884
sg76
(lp3891
g69
(g70
g71
NtRp3892
(dp3893
g74
(dp3894
g82
I4
ssg83
g3888
sg76
(lp3895
S'}}'
p3896
asbasbasbasbasbasbasbag69
(g85
g71
NtRp3897
(dp3898
g74
(dp3899
sg83
g3612
sg76
(lp3900
g69
(g90
g71
NtRp3901
(dp3902
g74
(dp3903
g94
g95
ssg83
g3897
sg76
(lp3904
S'files'
p3905
asbag69
(g90
g71
NtRp3906
(dp3907
g74
(dp3908
g101
g102
ssg83
g3897
sg76
(lp3909
S':'
asbag69
(g90
g71
NtRp3910
(dp3911
g74
(dp3912
sg83
g3897
sg76
(lp3913
g69
(g70
g71
NtRp3914
(dp3915
g74
(dp3916
g82
I5
ssg83
g3910
sg76
(lp3917
g69
(g78
g71
NtRp3918
(dp3919
g74
(dp3920
g82
I4
ssg83
Nsg76
(lp3921
sbasbasbasbag69
(g85
g71
NtRp3922
(dp3923
g74
(dp3924
sg83
g3612
sg76
(lp3925
g69
(g90
g71
NtRp3926
(dp3927
g74
(dp3928
g94
g95
ssg83
g3922
sg76
(lp3929
S'flash'
p3930
asbag69
(g90
g71
NtRp3931
(dp3932
g74
(dp3933
g101
g102
ssg83
g3922
sg76
(lp3934
S':'
asbag69
(g90
g71
NtRp3935
(dp3936
g74
(dp3937
sg83
g3922
sg76
(lp3938
g69
(g70
g71
NtRp3939
(dp3940
g74
(dp3941
g82
I5
ssg83
g3935
sg76
(lp3942
S''
asbasbasbag69
(g85
g71
NtRp3943
(dp3944
g74
(dp3945
sg83
g3612
sg76
(lp3946
g69
(g90
g71
NtRp3947
(dp3948
g74
(dp3949
g94
g95
ssg83
g3943
sg76
(lp3950
S'generic_patterns'
p3951
asbag69
(g90
g71
NtRp3952
(dp3953
g74
(dp3954
g101
g102
ssg83
g3943
sg76
(lp3955
S':'
asbag69
(g90
g71
NtRp3956
(dp3957
g74
(dp3958
sg83
g3943
sg76
(lp3959
g69
(g70
g71
NtRp3960
(dp3961
g74
(dp3962
g82
I5
ssg83
g3956
sg76
(lp3963
g69
(g78
g71
NtRp3964
(dp3965
g74
(dp3966
g82
I4
ssg83
Nsg76
(lp3967
g69
(g85
g71
NtRp3968
(dp3969
g74
(dp3970
sg83
g3964
sg76
(lp3971
g69
(g90
g71
NtRp3972
(dp3973
g74
(dp3974
sg83
g3968
sg76
(lp3975
g69
(g70
g71
NtRp3976
(dp3977
g74
(dp3978
g82
I4
ssg83
g3972
sg76
(lp3979
S'*'
asbasbasbasbasbasbasbag69
(g85
g71
NtRp3980
(dp3981
g74
(dp3982
sg83
g3612
sg76
(lp3983
g69
(g90
g71
NtRp3984
(dp3985
g74
(dp3986
g94
g95
ssg83
g3980
sg76
(lp3987
S'google_analytics_id'
p3988
asbag69
(g90
g71
NtRp3989
(dp3990
g74
(dp3991
g101
g102
ssg83
g3980
sg76
(lp3992
S':'
asbag69
(g90
g71
NtRp3993
(dp3994
g74
(dp3995
sg83
g3980
sg76
(lp3996
g69
(g70
g71
NtRp3997
(dp3998
g74
(dp3999
g82
I5
ssg83
g3993
sg76
(lp4000
S'None'
p4001
asbasbasbag69
(g85
g71
NtRp4002
(dp4003
g74
(dp4004
sg83
g3612
sg76
(lp4005
g69
(g90
g71
NtRp4006
(dp4007
g74
(dp4008
g94
g95
ssg83
g4002
sg76
(lp4009
S'headers'
p4010
asbag69
(g90
g71
NtRp4011
(dp4012
g74
(dp4013
g101
g102
ssg83
g4002
sg76
(lp4014
S':'
asbag69
(g90
g71
NtRp4015
(dp4016
g74
(dp4017
sg83
g4002
sg76
(lp4018
g69
(g70
g71
NtRp4019
(dp4020
g74
(dp4021
g82
I5
ssg83
g4015
sg76
(lp4022
g69
(g78
g71
NtRp4023
(dp4024
g74
(dp4025
g82
I4
ssg83
Nsg76
(lp4026
g69
(g85
g71
NtRp4027
(dp4028
g74
(dp4029
sg83
g4023
sg76
(lp4030
g69
(g90
g71
NtRp4031
(dp4032
g74
(dp4033
g94
g95
ssg83
g4027
sg76
(lp4034
S'X-Powered-By'
p4035
asbag69
(g90
g71
NtRp4036
(dp4037
g74
(dp4038
g101
g102
ssg83
g4027
sg76
(lp4039
S':'
asbag69
(g90
g71
NtRp4040
(dp4041
g74
(dp4042
sg83
g4027
sg76
(lp4043
g69
(g70
g71
NtRp4044
(dp4045
g74
(dp4046
g82
I4
ssg83
g4040
sg76
(lp4047
S'web2py'
p4048
asbasbasbasbasbasbasbag69
(g85
g71
NtRp4049
(dp4050
g74
(dp4051
sg83
g3612
sg76
(lp4052
g69
(g90
g71
NtRp4053
(dp4054
g74
(dp4055
g94
g95
ssg83
g4049
sg76
(lp4056
S'logo'
p4057
asbag69
(g90
g71
NtRp4058
(dp4059
g74
(dp4060
g101
g102
ssg83
g4049
sg76
(lp4061
S':'
asbag69
(g90
g71
NtRp4062
(dp4063
g74
(dp4064
sg83
g4049
sg76
(lp4065
g69
(g70
g71
NtRp4066
(dp4067
g74
(dp4068
g82
I5
ssg83
g4062
sg76
(lp4069
g69
(cgluon.html
A
p4070
g71
NtRp4071
(dp4072
g74
(dp4073
S'_class'
p4074
S'brand'
p4075
sS'_href'
p4076
S'http://www.web2py.com/'
p4077
ssg83
Nsg76
(lp4078
g69
(cgluon.html
B
p4079
g71
NtRp4080
(dp4081
g74
(dp4082
sg83
g4071
sg76
(lp4083
S'web'
p4084
ag69
(cgluon.html
SPAN
p4085
g71
NtRp4086
(dp4087
g74
(dp4088
sg83
g4080
sg76
(lp4089
I2
asbaS'py'
p4090
asbacgluon.html
XML_unpickle
p4091
(S's\r\x00\x00\x00&trade;&nbsp;'
tRp4092
asbasbasbasbag69
(g85
g71
NtRp4093
(dp4094
g74
(dp4095
sg83
g3612
sg76
(lp4096
g69
(g90
g71
NtRp4097
(dp4098
g74
(dp4099
g94
g95
ssg83
g4093
sg76
(lp4100
S'menu'
p4101
asbag69
(g90
g71
NtRp4102
(dp4103
g74
(dp4104
g101
g102
ssg83
g4093
sg76
(lp4105
S':'
asbag69
(g90
g71
NtRp4106
(dp4107
g74
(dp4108
sg83
g4093
sg76
(lp4109
g69
(g70
g71
NtRp4110
(dp4111
g74
(dp4112
g82
I5
ssg83
g4106
sg76
(lp4113
g69
(g78
g71
NtRp4114
(dp4115
g74
(dp4116
g82
I4
ssg83
Nsg76
(lp4117
g69
(g85
g71
NtRp4118
(dp4119
g74
(dp4120
sg83
g4114
sg76
(lp4121
g69
(g90
g71
NtRp4122
(dp4123
g74
(dp4124
sg83
g4118
sg76
(lp4125
g69
(g70
g71
NtRp4126
(dp4127
g74
(dp4128
g82
I4
ssg83
g4122
sg76
(lp4129
g69
(g78
g71
NtRp4130
(dp4131
g74
(dp4132
g82
I3
ssg83
Nsg76
(lp4133
g69
(g85
g71
NtRp4134
(dp4135
g74
(dp4136
sg83
g4130
sg76
(lp4137
g69
(g90
g71
NtRp4138
(dp4139
g74
(dp4140
sg83
g4134
sg76
(lp4141
g69
(g70
g71
NtRp4142
(dp4143
g74
(dp4144
g82
I3
ssg83
g4138
sg76
(lp4145
cgluon.languages
lazyT_unpickle
p4146
(S's\x04\x00\x00\x00Home'
tRp4147
asbasbasbag69
(g85
g71
NtRp4148
(dp4149
g74
(dp4150
sg83
g4130
sg76
(lp4151
g69
(g90
g71
NtRp4152
(dp4153
g74
(dp4154
sg83
g4148
sg76
(lp4155
g69
(g70
g71
NtRp4156
(dp4157
g74
(dp4158
g82
I3
ssg83
g4152
sg76
(lp4159
g112
asbasbasbag69
(g85
g71
NtRp4160
(dp4161
g74
(dp4162
sg83
g4130
sg76
(lp4163
g69
(g90
g71
NtRp4164
(dp4165
g74
(dp4166
sg83
g4160
sg76
(lp4167
g69
(g70
g71
NtRp4168
(dp4169
g74
(dp4170
g82
I3
ssg83
g4164
sg76
(lp4171
S'/MUSIC/default/index'
p4172
asbasbasbag69
(g85
g71
NtRp4173
(dp4174
g74
(dp4175
sg83
g4130
sg76
(lp4176
g69
(g90
g71
NtRp4177
(dp4178
g74
(dp4179
sg83
g4173
sg76
(lp4180
g69
(g70
g71
NtRp4181
(dp4182
g74
(dp4183
g82
I3
ssg83
g4177
sg76
(lp4184
g69
(g78
g71
NtRp4185
(dp4186
g74
(dp4187
g82
I2
ssg83
Nsg76
(lp4188
sbasbasbasbasbasbasbasbag69
(g85
g71
NtRp4189
(dp4190
g74
(dp4191
sg83
g4114
sg76
(lp4192
g69
(g90
g71
NtRp4193
(dp4194
g74
(dp4195
sg83
g4189
sg76
(lp4196
g69
(g70
g71
NtRp4197
(dp4198
g74
(dp4199
g82
I4
ssg83
g4193
sg76
(lp4200
g69
(g78
g71
NtRp4201
(dp4202
g74
(dp4203
g82
I3
ssg83
Nsg76
(lp4204
g69
(g85
g71
NtRp4205
(dp4206
g74
(dp4207
sg83
g4201
sg76
(lp4208
g69
(g90
g71
NtRp4209
(dp4210
g74
(dp4211
sg83
g4205
sg76
(lp4212
g69
(g70
g71
NtRp4213
(dp4214
g74
(dp4215
g82
I3
ssg83
g4209
sg76
(lp4216
g69
(g4085
g71
NtRp4217
(dp4218
g74
(dp4219
g4074
S'highlighted'
p4220
ssg83
Nsg76
(lp4221
g4048
asbasbasbasbag69
(g85
g71
NtRp4222
(dp4223
g74
(dp4224
sg83
g4201
sg76
(lp4225
g69
(g90
g71
NtRp4226
(dp4227
g74
(dp4228
sg83
g4222
sg76
(lp4229
g69
(g70
g71
NtRp4230
(dp4231
g74
(dp4232
g82
I3
ssg83
g4226
sg76
(lp4233
g112
asbasbasbag69
(g85
g71
NtRp4234
(dp4235
g74
(dp4236
sg83
g4201
sg76
(lp4237
g69
(g90
g71
NtRp4238
(dp4239
g74
(dp4240
sg83
g4234
sg76
(lp4241
g69
(g70
g71
NtRp4242
(dp4243
g74
(dp4244
g82
I3
ssg83
g4238
sg76
(lp4245
S'http://web2py.com'
p4246
asbasbasbag69
(g85
g71
NtRp4247
(dp4248
g74
(dp4249
sg83
g4201
sg76
(lp4250
g69
(g90
g71
NtRp4251
(dp4252
g74
(dp4253
sg83
g4247
sg76
(lp4254
g69
(g70
g71
NtRp4255
(dp4256
g74
(dp4257
g82
I3
ssg83
g4251
sg76
(lp4258
g69
(g78
g71
NtRp4259
(dp4260
g74
(dp4261
g82
I2
ssg83
Nsg76
(lp4262
g69
(g85
g71
NtRp4263
(dp4264
g74
(dp4265
sg83
g4259
sg76
(lp4266
g69
(g90
g71
NtRp4267
(dp4268
g74
(dp4269
sg83
g4263
sg76
(lp4270
g69
(g70
g71
NtRp4271
(dp4272
g74
(dp4273
g82
I2
ssg83
g4267
sg76
(lp4274
g69
(g78
g71
NtRp4275
(dp4276
g74
(dp4277
g82
I1
ssg83
Nsg76
(lp4278
g69
(g85
g71
NtRp4279
(dp4280
g74
(dp4281
sg83
g4275
sg76
(lp4282
g69
(g90
g71
NtRp4283
(dp4284
g74
(dp4285
sg83
g4279
sg76
(lp4286
g69
(g70
g71
NtRp4287
(dp4288
g74
(dp4289
g82
I1
ssg83
g4283
sg76
(lp4290
g4146
(S's\x08\x00\x00\x00My Sites'
tRp4291
asbasbasbag69
(g85
g71
NtRp4292
(dp4293
g74
(dp4294
sg83
g4275
sg76
(lp4295
g69
(g90
g71
NtRp4296
(dp4297
g74
(dp4298
sg83
g4292
sg76
(lp4299
g69
(g70
g71
NtRp4300
(dp4301
g74
(dp4302
g82
I1
ssg83
g4296
sg76
(lp4303
I00
asbasbasbag69
(g85
g71
NtRp4304
(dp4305
g74
(dp4306
sg83
g4275
sg76
(lp4307
g69
(g90
g71
NtRp4308
(dp4309
g74
(dp4310
sg83
g4304
sg76
(lp4311
g69
(g70
g71
NtRp4312
(dp4313
g74
(dp4314
g82
I1
ssg83
g4308
sg76
(lp4315
S'/admin/default/site'
p4316
asbasbasbasbasbasbasbag69
(g85
g71
NtRp4317
(dp4318
g74
(dp4319
sg83
g4259
sg76
(lp4320
g69
(g90
g71
NtRp4321
(dp4322
g74
(dp4323
sg83
g4317
sg76
(lp4324
g69
(g70
g71
NtRp4325
(dp4326
g74
(dp4327
g82
I2
ssg83
g4321
sg76
(lp4328
g69
(g78
g71
NtRp4329
(dp4330
g74
(dp4331
g82
I1
ssg83
Nsg76
(lp4332
g69
(g85
g71
NtRp4333
(dp4334
g74
(dp4335
sg83
g4329
sg76
(lp4336
g69
(g90
g71
NtRp4337
(dp4338
g74
(dp4339
sg83
g4333
sg76
(lp4340
g69
(g70
g71
NtRp4341
(dp4342
g74
(dp4343
g82
I1
ssg83
g4337
sg76
(lp4344
g4146
(S's\x08\x00\x00\x00This App'
tRp4345
asbasbasbag69
(g85
g71
NtRp4346
(dp4347
g74
(dp4348
sg83
g4329
sg76
(lp4349
g69
(g90
g71
NtRp4350
(dp4351
g74
(dp4352
sg83
g4346
sg76
(lp4353
g69
(g70
g71
NtRp4354
(dp4355
g74
(dp4356
g82
I1
ssg83
g4350
sg76
(lp4357
I00
asbasbasbag69
(g85
g71
NtRp4358
(dp4359
g74
(dp4360
sg83
g4329
sg76
(lp4361
g69
(g90
g71
NtRp4362
(dp4363
g74
(dp4364
sg83
g4358
sg76
(lp4365
g69
(g70
g71
NtRp4366
(dp4367
g74
(dp4368
g82
I1
ssg83
g4362
sg76
(lp4369
S'/admin/default/design/MUSIC'
p4370
asbasbasbag69
(g85
g71
NtRp4371
(dp4372
g74
(dp4373
sg83
g4329
sg76
(lp4374
g69
(g90
g71
NtRp4375
(dp4376
g74
(dp4377
sg83
g4371
sg76
(lp4378
g69
(g70
g71
NtRp4379
(dp4380
g74
(dp4381
g82
I1
ssg83
g4375
sg76
(lp4382
(lp4383
(g4146
(S's\n\x00\x00\x00Controller'
tRp4384
I00
S'/admin/default/edit/MUSIC/controllers/default.py'
tp4385
a(g4146
(S's\x04\x00\x00\x00View'
tRp4386
I00
S'/admin/default/edit/MUSIC/views/default/que_1.html'
tp4387
a(g4146
(S's\x06\x00\x00\x00Layout'
tRp4388
I00
S'/admin/default/edit/MUSIC/views/layout.html'
tp4389
a(g4146
(S's\n\x00\x00\x00Stylesheet'
tRp4390
I00
S'/admin/default/edit/MUSIC/static/css/web2py.css'
tp4391
a(g4146
(S's\x08\x00\x00\x00DB Model'
tRp4392
I00
S'/admin/default/edit/MUSIC/models/db.py'
tp4393
a(g4146
(S's\n\x00\x00\x00Menu Model'
tRp4394
I00
S'/admin/default/edit/MUSIC/models/menu.py'
tp4395
a(g4146
(S's\x08\x00\x00\x00Database'
tRp4396
I00
S'/MUSIC/appadmin/index'
tp4397
a(g4146
(S's\x06\x00\x00\x00Errors'
tRp4398
I00
S'/admin/default/errors/MUSIC'
tp4399
a(g4146
(S's\x05\x00\x00\x00About'
tRp4400
I00
S'/admin/default/about/MUSIC'
tp4401
aasbasbasbasbasbasbasbag69
(g85
g71
NtRp4402
(dp4403
g74
(dp4404
sg83
g4259
sg76
(lp4405
g69
(g90
g71
NtRp4406
(dp4407
g74
(dp4408
sg83
g4402
sg76
(lp4409
g69
(g70
g71
NtRp4410
(dp4411
g74
(dp4412
g82
I2
ssg83
g4406
sg76
(lp4413
g69
(g78
g71
NtRp4414
(dp4415
g74
(dp4416
g82
I1
ssg83
Nsg76
(lp4417
g69
(g85
g71
NtRp4418
(dp4419
g74
(dp4420
sg83
g4414
sg76
(lp4421
g69
(g90
g71
NtRp4422
(dp4423
g74
(dp4424
sg83
g4418
sg76
(lp4425
g69
(g70
g71
NtRp4426
(dp4427
g74
(dp4428
g82
I1
ssg83
g4422
sg76
(lp4429
S'web2py.com'
p4430
asbasbasbag69
(g85
g71
NtRp4431
(dp4432
g74
(dp4433
sg83
g4414
sg76
(lp4434
g69
(g90
g71
NtRp4435
(dp4436
g74
(dp4437
sg83
g4431
sg76
(lp4438
g69
(g70
g71
NtRp4439
(dp4440
g74
(dp4441
g82
I1
ssg83
g4435
sg76
(lp4442
I00
asbasbasbag69
(g85
g71
NtRp4443
(dp4444
g74
(dp4445
sg83
g4414
sg76
(lp4446
g69
(g90
g71
NtRp4447
(dp4448
g74
(dp4449
sg83
g4443
sg76
(lp4450
g69
(g70
g71
NtRp4451
(dp4452
g74
(dp4453
g82
I1
ssg83
g4447
sg76
(lp4454
S'http://www.web2py.com'
p4455
asbasbasbag69
(g85
g71
NtRp4456
(dp4457
g74
(dp4458
sg83
g4414
sg76
(lp4459
g69
(g90
g71
NtRp4460
(dp4461
g74
(dp4462
sg83
g4456
sg76
(lp4463
g69
(g70
g71
NtRp4464
(dp4465
g74
(dp4466
g82
I1
ssg83
g4460
sg76
(lp4467
(lp4468
(g4146
(S's\x08\x00\x00\x00Download'
tRp4469
I00
S'http://www.web2py.com/examples/default/download'
p4470
tp4471
a(g4146
(S's\x07\x00\x00\x00Support'
tRp4472
I00
S'http://www.web2py.com/examples/default/support'
p4473
tp4474
a(g4146
(S's\x04\x00\x00\x00Demo'
tRp4475
I00
S'http://web2py.com/demo_admin'
p4476
tp4477
a(g4146
(S's\x0e\x00\x00\x00Quick Examples'
tRp4478
I00
S'http://web2py.com/examples/default/examples'
p4479
tp4480
a(g4146
(S's\x03\x00\x00\x00FAQ'
tRp4481
I00
S'http://web2py.com/AlterEgo'
p4482
tp4483
a(g4146
(S's\x06\x00\x00\x00Videos'
tRp4484
I00
S'http://www.web2py.com/examples/default/videos/'
p4485
tp4486
a(g4146
(S's\x11\x00\x00\x00Free Applications'
tRp4487
I00
S'http://web2py.com/appliances'
p4488
tp4489
a(g4146
(S's\x07\x00\x00\x00Plugins'
tRp4490
I00
S'http://web2py.com/plugins'
p4491
tp4492
a(g4146
(S's\x07\x00\x00\x00Layouts'
tRp4493
I00
S'http://web2py.com/layouts'
p4494
tp4495
a(g4146
(S's\x07\x00\x00\x00Recipes'
tRp4496
I00
S'http://web2pyslices.com/'
p4497
tp4498
a(g4146
(S's\x08\x00\x00\x00Semantic'
tRp4499
I00
S'http://web2py.com/semantic'
p4500
tp4501
aasbasbasbasbasbasbasbag69
(g85
g71
NtRp4502
(dp4503
g74
(dp4504
sg83
g4259
sg76
(lp4505
g69
(g90
g71
NtRp4506
(dp4507
g74
(dp4508
sg83
g4502
sg76
(lp4509
g69
(g70
g71
NtRp4510
(dp4511
g74
(dp4512
g82
I2
ssg83
g4506
sg76
(lp4513
g69
(g78
g71
NtRp4514
(dp4515
g74
(dp4516
g82
I1
ssg83
Nsg76
(lp4517
g69
(g85
g71
NtRp4518
(dp4519
g74
(dp4520
sg83
g4514
sg76
(lp4521
g69
(g90
g71
NtRp4522
(dp4523
g74
(dp4524
sg83
g4518
sg76
(lp4525
g69
(g70
g71
NtRp4526
(dp4527
g74
(dp4528
g82
I1
ssg83
g4522
sg76
(lp4529
g4146
(S's\r\x00\x00\x00Documentation'
tRp4530
asbasbasbag69
(g85
g71
NtRp4531
(dp4532
g74
(dp4533
sg83
g4514
sg76
(lp4534
g69
(g90
g71
NtRp4535
(dp4536
g74
(dp4537
sg83
g4531
sg76
(lp4538
g69
(g70
g71
NtRp4539
(dp4540
g74
(dp4541
g82
I1
ssg83
g4535
sg76
(lp4542
I00
asbasbasbag69
(g85
g71
NtRp4543
(dp4544
g74
(dp4545
sg83
g4514
sg76
(lp4546
g69
(g90
g71
NtRp4547
(dp4548
g74
(dp4549
sg83
g4543
sg76
(lp4550
g69
(g70
g71
NtRp4551
(dp4552
g74
(dp4553
g82
I1
ssg83
g4547
sg76
(lp4554
S'http://www.web2py.com/book'
p4555
asbasbasbag69
(g85
g71
NtRp4556
(dp4557
g74
(dp4558
sg83
g4514
sg76
(lp4559
g69
(g90
g71
NtRp4560
(dp4561
g74
(dp4562
sg83
g4556
sg76
(lp4563
g69
(g70
g71
NtRp4564
(dp4565
g74
(dp4566
g82
I1
ssg83
g4560
sg76
(lp4567
(lp4568
(g4146
(S's\x07\x00\x00\x00Preface'
tRp4569
I00
S'http://www.web2py.com/book/default/chapter/00'
p4570
tp4571
a(g4146
(S's\x0c\x00\x00\x00Introduction'
tRp4572
I00
S'http://www.web2py.com/book/default/chapter/01'
p4573
tp4574
a(g4146
(S's\x06\x00\x00\x00Python'
tRp4575
I00
S'http://www.web2py.com/book/default/chapter/02'
p4576
tp4577
a(g4146
(S's\x08\x00\x00\x00Overview'
tRp4578
I00
S'http://www.web2py.com/book/default/chapter/03'
p4579
tp4580
a(g4146
(S's\x08\x00\x00\x00The Core'
tRp4581
I00
S'http://www.web2py.com/book/default/chapter/04'
p4582
tp4583
a(g4146
(S's\t\x00\x00\x00The Views'
tRp4584
I00
S'http://www.web2py.com/book/default/chapter/05'
p4585
tp4586
a(g4146
(S's\x08\x00\x00\x00Database'
tRp4587
I00
S'http://www.web2py.com/book/default/chapter/06'
p4588
tp4589
a(g4146
(S's\x14\x00\x00\x00Forms and Validators'
tRp4590
I00
S'http://www.web2py.com/book/default/chapter/07'
p4591
tp4592
a(g4146
(S's\r\x00\x00\x00Email and SMS'
tRp4593
I00
S'http://www.web2py.com/book/default/chapter/08'
p4594
tp4595
a(g4146
(S's\x0e\x00\x00\x00Access Control'
tRp4596
I00
S'http://www.web2py.com/book/default/chapter/09'
p4597
tp4598
a(g4146
(S's\x08\x00\x00\x00Services'
tRp4599
I00
S'http://www.web2py.com/book/default/chapter/10'
p4600
tp4601
a(g4146
(S's\x0c\x00\x00\x00Ajax Recipes'
tRp4602
I00
S'http://www.web2py.com/book/default/chapter/11'
p4603
tp4604
a(g4146
(S's\x16\x00\x00\x00Components and Plugins'
tRp4605
I00
S'http://www.web2py.com/book/default/chapter/12'
p4606
tp4607
a(g4146
(S's\x12\x00\x00\x00Deployment Recipes'
tRp4608
I00
S'http://www.web2py.com/book/default/chapter/13'
p4609
tp4610
a(g4146
(S's\r\x00\x00\x00Other Recipes'
tRp4611
I00
S'http://www.web2py.com/book/default/chapter/14'
p4612
tp4613
a(g4146
(S's\r\x00\x00\x00Buy this book'
tRp4614
I00
S'http://stores.lulu.com/web2py'
p4615
tp4616
aasbasbasbasbasbasbasbag69
(g85
g71
NtRp4617
(dp4618
g74
(dp4619
sg83
g4259
sg76
(lp4620
g69
(g90
g71
NtRp4621
(dp4622
g74
(dp4623
sg83
g4617
sg76
(lp4624
g69
(g70
g71
NtRp4625
(dp4626
g74
(dp4627
g82
I2
ssg83
g4621
sg76
(lp4628
g69
(g78
g71
NtRp4629
(dp4630
g74
(dp4631
g82
I1
ssg83
Nsg76
(lp4632
g69
(g85
g71
NtRp4633
(dp4634
g74
(dp4635
sg83
g4629
sg76
(lp4636
g69
(g90
g71
NtRp4637
(dp4638
g74
(dp4639
sg83
g4633
sg76
(lp4640
g69
(g70
g71
NtRp4641
(dp4642
g74
(dp4643
g82
I1
ssg83
g4637
sg76
(lp4644
g4146
(S's\t\x00\x00\x00Community'
tRp4645
asbasbasbag69
(g85
g71
NtRp4646
(dp4647
g74
(dp4648
sg83
g4629
sg76
(lp4649
g69
(g90
g71
NtRp4650
(dp4651
g74
(dp4652
sg83
g4646
sg76
(lp4653
g69
(g70
g71
NtRp4654
(dp4655
g74
(dp4656
g82
I1
ssg83
g4650
sg76
(lp4657
I00
asbasbasbag69
(g85
g71
NtRp4658
(dp4659
g74
(dp4660
sg83
g4629
sg76
(lp4661
g69
(g90
g71
NtRp4662
(dp4663
g74
(dp4664
sg83
g4658
sg76
(lp4665
g69
(g70
g71
NtRp4666
(dp4667
g74
(dp4668
g82
I1
ssg83
g4662
sg76
(lp4669
Nasbasbasbag69
(g85
g71
NtRp4670
(dp4671
g74
(dp4672
sg83
g4629
sg76
(lp4673
g69
(g90
g71
NtRp4674
(dp4675
g74
(dp4676
sg83
g4670
sg76
(lp4677
g69
(g70
g71
NtRp4678
(dp4679
g74
(dp4680
g82
I1
ssg83
g4674
sg76
(lp4681
(lp4682
(g4146
(S's\x06\x00\x00\x00Groups'
tRp4683
I00
S'http://www.web2py.com/examples/default/usergroups'
p4684
tp4685
a(g4146
(S's\x07\x00\x00\x00Twitter'
tRp4686
I00
S'http://twitter.com/web2py'
p4687
tp4688
a(g4146
(S's\t\x00\x00\x00Live Chat'
tRp4689
I00
S'http://webchat.freenode.net/?channels=web2py'
p4690
tp4691
aasbasbasbasbasbasbasbag69
(g85
g71
NtRp4692
(dp4693
g74
(dp4694
sg83
g4259
sg76
(lp4695
g69
(g90
g71
NtRp4696
(dp4697
g74
(dp4698
sg83
g4692
sg76
(lp4699
g69
(g70
g71
NtRp4700
(dp4701
g74
(dp4702
g82
I2
ssg83
g4696
sg76
(lp4703
g69
(g78
g71
NtRp4704
(dp4705
g74
(dp4706
g82
I1
ssg83
Nsg76
(lp4707
g69
(g85
g71
NtRp4708
(dp4709
g74
(dp4710
sg83
g4704
sg76
(lp4711
g69
(g90
g71
NtRp4712
(dp4713
g74
(dp4714
sg83
g4708
sg76
(lp4715
g69
(g70
g71
NtRp4716
(dp4717
g74
(dp4718
g82
I1
ssg83
g4712
sg76
(lp4719
g4146
(S's\x07\x00\x00\x00Plugins'
tRp4720
asbasbasbag69
(g85
g71
NtRp4721
(dp4722
g74
(dp4723
sg83
g4704
sg76
(lp4724
g69
(g90
g71
NtRp4725
(dp4726
g74
(dp4727
sg83
g4721
sg76
(lp4728
g69
(g70
g71
NtRp4729
(dp4730
g74
(dp4731
g82
I1
ssg83
g4725
sg76
(lp4732
I00
asbasbasbag69
(g85
g71
NtRp4733
(dp4734
g74
(dp4735
sg83
g4704
sg76
(lp4736
g69
(g90
g71
NtRp4737
(dp4738
g74
(dp4739
sg83
g4733
sg76
(lp4740
g69
(g70
g71
NtRp4741
(dp4742
g74
(dp4743
g82
I1
ssg83
g4737
sg76
(lp4744
Nasbasbasbag69
(g85
g71
NtRp4745
(dp4746
g74
(dp4747
sg83
g4704
sg76
(lp4748
g69
(g90
g71
NtRp4749
(dp4750
g74
(dp4751
sg83
g4745
sg76
(lp4752
g69
(g70
g71
NtRp4753
(dp4754
g74
(dp4755
g82
I1
ssg83
g4749
sg76
(lp4756
(lp4757
(S'plugin_wiki'
p4758
I00
S'http://web2py.com/examples/default/download'
p4759
tp4760
a(g4146
(S's\r\x00\x00\x00Other Plugins'
tRp4761
I00
g4491
tp4762
a(g4146
(S's\x0e\x00\x00\x00Layout Plugins'
tRp4763
I00
g4494
tp4764
aasbasbasbasbasbasbasbasbasbasbasbasbasbasbasbasbasbasbasbag69
(g85
g71
NtRp4765
(dp4766
g74
(dp4767
sg83
g3612
sg76
(lp4768
g69
(g90
g71
NtRp4769
(dp4770
g74
(dp4771
g94
g95
ssg83
g4765
sg76
(lp4772
S'meta'
p4773
asbag69
(g90
g71
NtRp4774
(dp4775
g74
(dp4776
g101
g102
ssg83
g4765
sg76
(lp4777
S':'
asbag69
(g90
g71
NtRp4778
(dp4779
g74
(dp4780
sg83
g4765
sg76
(lp4781
g69
(g70
g71
NtRp4782
(dp4783
g74
(dp4784
g82
I5
ssg83
g4778
sg76
(lp4785
g69
(g78
g71
NtRp4786
(dp4787
g74
(dp4788
g82
I4
ssg83
Nsg76
(lp4789
g69
(g85
g71
NtRp4790
(dp4791
g74
(dp4792
sg83
g4786
sg76
(lp4793
g69
(g90
g71
NtRp4794
(dp4795
g74
(dp4796
g94
g95
ssg83
g4790
sg76
(lp4797
S'author'
p4798
asbag69
(g90
g71
NtRp4799
(dp4800
g74
(dp4801
g101
g102
ssg83
g4790
sg76
(lp4802
S':'
asbag69
(g90
g71
NtRp4803
(dp4804
g74
(dp4805
sg83
g4790
sg76
(lp4806
g69
(g70
g71
NtRp4807
(dp4808
g74
(dp4809
g82
I4
ssg83
g4803
sg76
(lp4810
S'Your Name <you@example.com>'
p4811
asbasbasbag69
(g85
g71
NtRp4812
(dp4813
g74
(dp4814
sg83
g4786
sg76
(lp4815
g69
(g90
g71
NtRp4816
(dp4817
g74
(dp4818
g94
g95
ssg83
g4812
sg76
(lp4819
S'description'
p4820
asbag69
(g90
g71
NtRp4821
(dp4822
g74
(dp4823
g101
g102
ssg83
g4812
sg76
(lp4824
S':'
asbag69
(g90
g71
NtRp4825
(dp4826
g74
(dp4827
sg83
g4812
sg76
(lp4828
g69
(g70
g71
NtRp4829
(dp4830
g74
(dp4831
g82
I4
ssg83
g4825
sg76
(lp4832
S'a cool new app'
p4833
asbasbasbag69
(g85
g71
NtRp4834
(dp4835
g74
(dp4836
sg83
g4786
sg76
(lp4837
g69
(g90
g71
NtRp4838
(dp4839
g74
(dp4840
g94
g95
ssg83
g4834
sg76
(lp4841
S'generator'
p4842
asbag69
(g90
g71
NtRp4843
(dp4844
g74
(dp4845
g101
g102
ssg83
g4834
sg76
(lp4846
S':'
asbag69
(g90
g71
NtRp4847
(dp4848
g74
(dp4849
sg83
g4834
sg76
(lp4850
g69
(g70
g71
NtRp4851
(dp4852
g74
(dp4853
g82
I4
ssg83
g4847
sg76
(lp4854
S'Web2py Web Framework'
p4855
asbasbasbag69
(g85
g71
NtRp4856
(dp4857
g74
(dp4858
sg83
g4786
sg76
(lp4859
g69
(g90
g71
NtRp4860
(dp4861
g74
(dp4862
g94
g95
ssg83
g4856
sg76
(lp4863
S'keywords'
p4864
asbag69
(g90
g71
NtRp4865
(dp4866
g74
(dp4867
g101
g102
ssg83
g4856
sg76
(lp4868
S':'
asbag69
(g90
g71
NtRp4869
(dp4870
g74
(dp4871
sg83
g4856
sg76
(lp4872
g69
(g70
g71
NtRp4873
(dp4874
g74
(dp4875
g82
I4
ssg83
g4869
sg76
(lp4876
S'web2py, python, framework'
p4877
asbasbasbasbasbasbasbag69
(g85
g71
NtRp4878
(dp4879
g74
(dp4880
sg83
g3612
sg76
(lp4881
g69
(g90
g71
NtRp4882
(dp4883
g74
(dp4884
g94
g95
ssg83
g4878
sg76
(lp4885
S'models_to_run'
p4886
asbag69
(g90
g71
NtRp4887
(dp4888
g74
(dp4889
g101
g102
ssg83
g4878
sg76
(lp4890
S':'
asbag69
(g90
g71
NtRp4891
(dp4892
g74
(dp4893
sg83
g4878
sg76
(lp4894
g69
(g70
g71
NtRp4895
(dp4896
g74
(dp4897
g82
I5
ssg83
g4891
sg76
(lp4898
g69
(g78
g71
NtRp4899
(dp4900
g74
(dp4901
g82
I4
ssg83
Nsg76
(lp4902
g69
(g85
g71
NtRp4903
(dp4904
g74
(dp4905
sg83
g4899
sg76
(lp4906
g69
(g90
g71
NtRp4907
(dp4908
g74
(dp4909
sg83
g4903
sg76
(lp4910
g69
(g70
g71
NtRp4911
(dp4912
g74
(dp4913
g82
I4
ssg83
g4907
sg76
(lp4914
S'^\\w+\\.py$'
p4915
asbasbasbag69
(g85
g71
NtRp4916
(dp4917
g74
(dp4918
sg83
g4899
sg76
(lp4919
g69
(g90
g71
NtRp4920
(dp4921
g74
(dp4922
sg83
g4916
sg76
(lp4923
g69
(g70
g71
NtRp4924
(dp4925
g74
(dp4926
g82
I4
ssg83
g4920
sg76
(lp4927
S'^default/\\w+\\.py$'
p4928
asbasbasbag69
(g85
g71
NtRp4929
(dp4930
g74
(dp4931
sg83
g4899
sg76
(lp4932
g69
(g90
g71
NtRp4933
(dp4934
g74
(dp4935
sg83
g4929
sg76
(lp4936
g69
(g70
g71
NtRp4937
(dp4938
g74
(dp4939
g82
I4
ssg83
g4933
sg76
(lp4940
S'^default/que_1/\\w+\\.py$'
p4941
asbasbasbasbasbasbasbag69
(g85
g71
NtRp4942
(dp4943
g74
(dp4944
sg83
g3612
sg76
(lp4945
g69
(g90
g71
NtRp4946
(dp4947
g74
(dp4948
g94
g95
ssg83
g4942
sg76
(lp4949
S'postprocessing'
p4950
asbag69
(g90
g71
NtRp4951
(dp4952
g74
(dp4953
g101
g102
ssg83
g4942
sg76
(lp4954
S':'
asbag69
(g90
g71
NtRp4955
(dp4956
g74
(dp4957
sg83
g4942
sg76
(lp4958
g69
(g70
g71
NtRp4959
(dp4960
g74
(dp4961
g82
I5
ssg83
g4955
sg76
(lp4962
g69
(g78
g71
NtRp4963
(dp4964
g74
(dp4965
g82
I4
ssg83
Nsg76
(lp4966
sbasbasbasbag69
(g85
g71
NtRp4967
(dp4968
g74
(dp4969
sg83
g3612
sg76
(lp4970
g69
(g90
g71
NtRp4971
(dp4972
g74
(dp4973
g94
g95
ssg83
g4967
sg76
(lp4974
S'session_cookie_expires'
p4975
asbag69
(g90
g71
NtRp4976
(dp4977
g74
(dp4978
g101
g102
ssg83
g4967
sg76
(lp4979
S':'
asbag69
(g90
g71
NtRp4980
(dp4981
g74
(dp4982
sg83
g4967
sg76
(lp4983
g69
(g70
g71
NtRp4984
(dp4985
g74
(dp4986
g82
I5
ssg83
g4980
sg76
(lp4987
S'None'
p4988
asbasbasbag69
(g85
g71
NtRp4989
(dp4990
g74
(dp4991
sg83
g3612
sg76
(lp4992
g69
(g90
g71
NtRp4993
(dp4994
g74
(dp4995
g94
g95
ssg83
g4989
sg76
(lp4996
S'session_data_name'
p4997
asbag69
(g90
g71
NtRp4998
(dp4999
g74
(dp5000
g101
g102
ssg83
g4989
sg76
(lp5001
S':'
asbag69
(g90
g71
NtRp5002
(dp5003
g74
(dp5004
sg83
g4989
sg76
(lp5005
g69
(g70
g71
NtRp5006
(dp5007
g74
(dp5008
g82
I5
ssg83
g5002
sg76
(lp5009
S'session_data_music'
p5010
asbasbasbag69
(g85
g71
NtRp5011
(dp5012
g74
(dp5013
sg83
g3612
sg76
(lp5014
g69
(g90
g71
NtRp5015
(dp5016
g74
(dp5017
g94
g95
ssg83
g5011
sg76
(lp5018
S'session_file'
p5019
asbag69
(g90
g71
NtRp5020
(dp5021
g74
(dp5022
g101
g102
ssg83
g5011
sg76
(lp5023
S':'
asbag69
(g90
g71
NtRp5024
(dp5025
g74
(dp5026
sg83
g5011
sg76
(lp5027
g69
(g70
g71
NtRp5028
(dp5029
g74
(dp5030
g82
I5
ssg83
g5024
sg76
(lp5031
S"<open file '/home/gaurav/classwork/WEB_PROGRAMMING/web2py/applications/MUSIC/sessions/127.0.0.1-6a75e943-0a20-4bfb-98fe-2a61fdfaa079', mode 'rb+' at 0x9214de0>"
p5032
asbasbasbag69
(g85
g71
NtRp5033
(dp5034
g74
(dp5035
sg83
g3612
sg76
(lp5036
g69
(g90
g71
NtRp5037
(dp5038
g74
(dp5039
g94
g95
ssg83
g5033
sg76
(lp5040
S'session_filename'
p5041
asbag69
(g90
g71
NtRp5042
(dp5043
g74
(dp5044
g101
g102
ssg83
g5033
sg76
(lp5045
S':'
asbag69
(g90
g71
NtRp5046
(dp5047
g74
(dp5048
sg83
g5033
sg76
(lp5049
g69
(g70
g71
NtRp5050
(dp5051
g74
(dp5052
g82
I5
ssg83
g5046
sg76
(lp5053
S'/home/gaurav/classwork/WEB_PROGRAMMING/web2py/applications/MUSIC/sessions/127.0.0.1-6a75e943-0a20-4bfb-98fe-2a61fdfaa079'
p5054
asbasbasbag69
(g85
g71
NtRp5055
(dp5056
g74
(dp5057
sg83
g3612
sg76
(lp5058
g69
(g90
g71
NtRp5059
(dp5060
g74
(dp5061
g94
g95
ssg83
g5055
sg76
(lp5062
S'session_id'
p5063
asbag69
(g90
g71
NtRp5064
(dp5065
g74
(dp5066
g101
g102
ssg83
g5055
sg76
(lp5067
S':'
asbag69
(g90
g71
NtRp5068
(dp5069
g74
(dp5070
sg83
g5055
sg76
(lp5071
g69
(g70
g71
NtRp5072
(dp5073
g74
(dp5074
g82
I5
ssg83
g5068
sg76
(lp5075
g673
asbasbasbag69
(g85
g71
NtRp5076
(dp5077
g74
(dp5078
sg83
g3612
sg76
(lp5079
g69
(g90
g71
NtRp5080
(dp5081
g74
(dp5082
g94
g95
ssg83
g5076
sg76
(lp5083
S'session_id_name'
p5084
asbag69
(g90
g71
NtRp5085
(dp5086
g74
(dp5087
g101
g102
ssg83
g5076
sg76
(lp5088
S':'
asbag69
(g90
g71
NtRp5089
(dp5090
g74
(dp5091
sg83
g5076
sg76
(lp5092
g69
(g70
g71
NtRp5093
(dp5094
g74
(dp5095
g82
I5
ssg83
g5089
sg76
(lp5096
g3669
asbasbasbag69
(g85
g71
NtRp5097
(dp5098
g74
(dp5099
sg83
g3612
sg76
(lp5100
g69
(g90
g71
NtRp5101
(dp5102
g74
(dp5103
g94
g95
ssg83
g5097
sg76
(lp5104
S'session_locked'
p5105
asbag69
(g90
g71
NtRp5106
(dp5107
g74
(dp5108
g101
g102
ssg83
g5097
sg76
(lp5109
S':'
asbag69
(g90
g71
NtRp5110
(dp5111
g74
(dp5112
sg83
g5097
sg76
(lp5113
g69
(g70
g71
NtRp5114
(dp5115
g74
(dp5116
g82
I5
ssg83
g5110
sg76
(lp5117
g2131
asbasbasbag69
(g85
g71
NtRp5118
(dp5119
g74
(dp5120
sg83
g3612
sg76
(lp5121
g69
(g90
g71
NtRp5122
(dp5123
g74
(dp5124
g94
g95
ssg83
g5118
sg76
(lp5125
S'session_new'
p5126
asbag69
(g90
g71
NtRp5127
(dp5128
g74
(dp5129
g101
g102
ssg83
g5118
sg76
(lp5130
S':'
asbag69
(g90
g71
NtRp5131
(dp5132
g74
(dp5133
sg83
g5118
sg76
(lp5134
g69
(g70
g71
NtRp5135
(dp5136
g74
(dp5137
g82
I5
ssg83
g5131
sg76
(lp5138
g112
asbasbasbag69
(g85
g71
NtRp5139
(dp5140
g74
(dp5141
sg83
g3612
sg76
(lp5142
g69
(g90
g71
NtRp5143
(dp5144
g74
(dp5145
g94
g95
ssg83
g5139
sg76
(lp5146
S'session_storage_type'
p5147
asbag69
(g90
g71
NtRp5148
(dp5149
g74
(dp5150
g101
g102
ssg83
g5139
sg76
(lp5151
S':'
asbag69
(g90
g71
NtRp5152
(dp5153
g74
(dp5154
sg83
g5139
sg76
(lp5155
g69
(g70
g71
NtRp5156
(dp5157
g74
(dp5158
g82
I5
ssg83
g5152
sg76
(lp5159
g3541
asbasbasbag69
(g85
g71
NtRp5160
(dp5161
g74
(dp5162
sg83
g3612
sg76
(lp5163
g69
(g90
g71
NtRp5164
(dp5165
g74
(dp5166
g94
g95
ssg83
g5160
sg76
(lp5167
S'status'
p5168
asbag69
(g90
g71
NtRp5169
(dp5170
g74
(dp5171
g101
g102
ssg83
g5160
sg76
(lp5172
S':'
asbag69
(g90
g71
NtRp5173
(dp5174
g74
(dp5175
sg83
g5160
sg76
(lp5176
g69
(g70
g71
NtRp5177
(dp5178
g74
(dp5179
g82
I5
ssg83
g5173
sg76
(lp5180
S'200'
p5181
asbasbasbag69
(g85
g71
NtRp5182
(dp5183
g74
(dp5184
sg83
g3612
sg76
(lp5185
g69
(g90
g71
NtRp5186
(dp5187
g74
(dp5188
g94
g95
ssg83
g5182
sg76
(lp5189
S'subtitle'
p5190
asbag69
(g90
g71
NtRp5191
(dp5192
g74
(dp5193
g101
g102
ssg83
g5182
sg76
(lp5194
S':'
asbag69
(g90
g71
NtRp5195
(dp5196
g74
(dp5197
sg83
g5182
sg76
(lp5198
g69
(g70
g71
NtRp5199
(dp5200
g74
(dp5201
g82
I5
ssg83
g5195
sg76
(lp5202
g4146
(S's\r\x00\x00\x00customize me!'
tRp5203
asbasbasbag69
(g85
g71
NtRp5204
(dp5205
g74
(dp5206
sg83
g3612
sg76
(lp5207
g69
(g90
g71
NtRp5208
(dp5209
g74
(dp5210
g94
g95
ssg83
g5204
sg76
(lp5211
S'title'
p5212
asbag69
(g90
g71
NtRp5213
(dp5214
g74
(dp5215
g101
g102
ssg83
g5204
sg76
(lp5216
S':'
asbag69
(g90
g71
NtRp5217
(dp5218
g74
(dp5219
sg83
g5204
sg76
(lp5220
g69
(g70
g71
NtRp5221
(dp5222
g74
(dp5223
g82
I5
ssg83
g5217
sg76
(lp5224
S'Music'
p5225
asbasbasbag69
(g85
g71
NtRp5226
(dp5227
g74
(dp5228
sg83
g3612
sg76
(lp5229
g69
(g90
g71
NtRp5230
(dp5231
g74
(dp5232
g94
g95
ssg83
g5226
sg76
(lp5233
S'view'
p5234
asbag69
(g90
g71
NtRp5235
(dp5236
g74
(dp5237
g101
g102
ssg83
g5226
sg76
(lp5238
S':'
asbag69
(g90
g71
NtRp5239
(dp5240
g74
(dp5241
sg83
g5226
sg76
(lp5242
g69
(g70
g71
NtRp5243
(dp5244
g74
(dp5245
g82
I5
ssg83
g5239
sg76
(lp5246
S'default/que_1.html'
p5247
asbasbasbasbasbsS'locals'
p5248
(dp5249
g4
S"'/home/gaurav/classwork/WEB_PROGRAMMING/web2py/applications/MUSIC/controllers/default.py'"
p5250
sg6
S"'\\n\\n\\n\\n\\n# -*- coding: utf-8 -*-\\n# this file is rele...ict(k=k)\\n\\nresponse._vars=response._caller(que_1)\\n'"
p5251
sssS'traceback'
p5252
S'Traceback (most recent call last):\n  File "/home/gaurav/classwork/WEB_PROGRAMMING/web2py/gluon/restricted.py", line 211, in restricted\n    ccode = compile2(code, layer)\n  File "/home/gaurav/classwork/WEB_PROGRAMMING/web2py/gluon/restricted.py", line 194, in compile2\n    return compile(code.rstrip().replace(\'\\r\\n\', \'\\n\') + \'\\n\', layer, \'exec\')\n  File "/home/gaurav/classwork/WEB_PROGRAMMING/web2py/applications/MUSIC/controllers/default.py", line 102\n    k=db((db.artist.id==pos)&(db.artist.name==db.song.)).select(db.artist.name,db.song.name)\n                                                      ^\nSyntaxError: invalid syntax\n'
p5253
s.