(dp1
S'output'
p2
S"<type 'exceptions.KeyError'> 'name'"
p3
sS'layer'
p4
S'/home/gaurav/classwork/WEB_PROGRAMMING/web2py/applications/MUSIC/views/default/ans.html'
p5
sS'code'
p6
S"response.write(m['name'])\nresponse.write('\\n', escape=False)"
p7
sS'snapshot'
p8
(dp9
S'exception'
p10
(dp11
S'__hash__'
p12
S"<method-wrapper '__hash__' of exceptions.KeyError object>"
p13
sS'__setattr__'
p14
S"<method-wrapper '__setattr__' of exceptions.KeyError object>"
p15
sS'__reduce_ex__'
p16
S'<built-in method __reduce_ex__ of exceptions.KeyError object>'
p17
sS'__getslice__'
p18
S"<method-wrapper '__getslice__' of exceptions.KeyError object>"
p19
sS'__getitem__'
p20
S"<method-wrapper '__getitem__' of exceptions.KeyError object>"
p21
sS'__setstate__'
p22
S'<built-in method __setstate__ of exceptions.KeyError object>'
p23
sS'__reduce__'
p24
S'<built-in method __reduce__ of exceptions.KeyError object>'
p25
sS'__str__'
p26
S"<method-wrapper '__str__' of exceptions.KeyError object>"
p27
sS'__format__'
p28
S'<built-in method __format__ of exceptions.KeyError object>'
p29
sS'__getattribute__'
p30
S"<method-wrapper '__getattribute__' of exceptions.KeyError object>"
p31
sS'__class__'
p32
S"<type 'exceptions.KeyError'>"
p33
sS'__unicode__'
p34
S'<built-in method __unicode__ of exceptions.KeyError object>'
p35
sS'__delattr__'
p36
S"<method-wrapper '__delattr__' of exceptions.KeyError object>"
p37
sS'__subclasshook__'
p38
S'<built-in method __subclasshook__ of type object>'
p39
sS'__repr__'
p40
S"<method-wrapper '__repr__' of exceptions.KeyError object>"
p41
sS'args'
p42
S"('name',)"
p43
sS'__dict__'
p44
S'{}'
p45
sS'__sizeof__'
p46
S'<built-in method __sizeof__ of exceptions.KeyError object>'
p47
sS'__doc__'
p48
S"'Mapping key not found.'"
p49
sS'__init__'
p50
S"<method-wrapper '__init__' of exceptions.KeyError object>"
p51
sS'__new__'
p52
S'<built-in method __new__ of type object>'
p53
ssS'evalue'
p54
S"'name'"
p55
sS'request'
p56
ccopy_reg
_reconstructor
p57
(cgluon.html
BEAUTIFY
p58
c__builtin__
object
p59
NtRp60
(dp61
S'attributes'
p62
(dp63
sS'components'
p64
(lp65
g57
(cgluon.html
TABLE
p66
g59
NtRp67
(dp68
g62
(dp69
S'level'
p70
I5
ssS'parent'
p71
Nsg64
(lp72
g57
(cgluon.html
TR
p73
g59
NtRp74
(dp75
g62
(dp76
sg71
g67
sg64
(lp77
g57
(cgluon.html
TD
p78
g59
NtRp79
(dp80
g62
(dp81
S'_style'
p82
S'font-weight:bold;vertical-align:top'
p83
ssg71
g74
sg64
(lp84
S'ajax'
p85
asbag57
(g78
g59
NtRp86
(dp87
g62
(dp88
S'_valign'
p89
S'top'
p90
ssg71
g74
sg64
(lp91
S':'
asbag57
(g78
g59
NtRp92
(dp93
g62
(dp94
sg71
g74
sg64
(lp95
g57
(g58
g59
NtRp96
(dp97
g62
(dp98
g70
I5
ssg71
g92
sg64
(lp99
S'False'
p100
asbasbasbag57
(g73
g59
NtRp101
(dp102
g62
(dp103
sg71
g67
sg64
(lp104
g57
(g78
g59
NtRp105
(dp106
g62
(dp107
g82
g83
ssg71
g101
sg64
(lp108
S'application'
p109
asbag57
(g78
g59
NtRp110
(dp111
g62
(dp112
g89
g90
ssg71
g101
sg64
(lp113
S':'
asbag57
(g78
g59
NtRp114
(dp115
g62
(dp116
sg71
g101
sg64
(lp117
g57
(g58
g59
NtRp118
(dp119
g62
(dp120
g70
I5
ssg71
g114
sg64
(lp121
S'MUSIC'
p122
asbasbasbag57
(g73
g59
NtRp123
(dp124
g62
(dp125
sg71
g67
sg64
(lp126
g57
(g78
g59
NtRp127
(dp128
g62
(dp129
g82
g83
ssg71
g123
sg64
(lp130
g42
asbag57
(g78
g59
NtRp131
(dp132
g62
(dp133
g89
g90
ssg71
g123
sg64
(lp134
S':'
asbag57
(g78
g59
NtRp135
(dp136
g62
(dp137
sg71
g123
sg64
(lp138
g57
(g58
g59
NtRp139
(dp140
g62
(dp141
g70
I5
ssg71
g135
sg64
(lp142
g57
(g66
g59
NtRp143
(dp144
g62
(dp145
g70
I4
ssg71
Nsg64
(lp146
sbasbasbasbag57
(g73
g59
NtRp147
(dp148
g62
(dp149
sg71
g67
sg64
(lp150
g57
(g78
g59
NtRp151
(dp152
g62
(dp153
g82
g83
ssg71
g147
sg64
(lp154
S'body'
p155
asbag57
(g78
g59
NtRp156
(dp157
g62
(dp158
g89
g90
ssg71
g147
sg64
(lp159
S':'
asbag57
(g78
g59
NtRp160
(dp161
g62
(dp162
sg71
g147
sg64
(lp163
g57
(g58
g59
NtRp164
(dp165
g62
(dp166
g70
I5
ssg71
g160
sg64
(lp167
S"<open file '<fdopen>', mode 'w+b' at 0xae6125f8>"
p168
asbasbasbag57
(g73
g59
NtRp169
(dp170
g62
(dp171
sg71
g67
sg64
(lp172
g57
(g78
g59
NtRp173
(dp174
g62
(dp175
g82
g83
ssg71
g169
sg64
(lp176
S'cid'
p177
asbag57
(g78
g59
NtRp178
(dp179
g62
(dp180
g89
g90
ssg71
g169
sg64
(lp181
S':'
asbag57
(g78
g59
NtRp182
(dp183
g62
(dp184
sg71
g169
sg64
(lp185
g57
(g58
g59
NtRp186
(dp187
g62
(dp188
g70
I5
ssg71
g182
sg64
(lp189
S'None'
p190
asbasbasbag57
(g73
g59
NtRp191
(dp192
g62
(dp193
sg71
g67
sg64
(lp194
g57
(g78
g59
NtRp195
(dp196
g62
(dp197
g82
g83
ssg71
g191
sg64
(lp198
S'client'
p199
asbag57
(g78
g59
NtRp200
(dp201
g62
(dp202
g89
g90
ssg71
g191
sg64
(lp203
S':'
asbag57
(g78
g59
NtRp204
(dp205
g62
(dp206
sg71
g191
sg64
(lp207
g57
(g58
g59
NtRp208
(dp209
g62
(dp210
g70
I5
ssg71
g204
sg64
(lp211
S'127.0.0.1'
p212
asbasbasbag57
(g73
g59
NtRp213
(dp214
g62
(dp215
sg71
g67
sg64
(lp216
g57
(g78
g59
NtRp217
(dp218
g62
(dp219
g82
g83
ssg71
g213
sg64
(lp220
S'controller'
p221
asbag57
(g78
g59
NtRp222
(dp223
g62
(dp224
g89
g90
ssg71
g213
sg64
(lp225
S':'
asbag57
(g78
g59
NtRp226
(dp227
g62
(dp228
sg71
g213
sg64
(lp229
g57
(g58
g59
NtRp230
(dp231
g62
(dp232
g70
I5
ssg71
g226
sg64
(lp233
S'default'
p234
asbasbasbag57
(g73
g59
NtRp235
(dp236
g62
(dp237
sg71
g67
sg64
(lp238
g57
(g78
g59
NtRp239
(dp240
g62
(dp241
g82
g83
ssg71
g235
sg64
(lp242
S'cookies'
p243
asbag57
(g78
g59
NtRp244
(dp245
g62
(dp246
g89
g90
ssg71
g235
sg64
(lp247
S':'
asbag57
(g78
g59
NtRp248
(dp249
g62
(dp250
sg71
g235
sg64
(lp251
g57
(g58
g59
NtRp252
(dp253
g62
(dp254
g70
I5
ssg71
g248
sg64
(lp255
g57
(g66
g59
NtRp256
(dp257
g62
(dp258
g70
I4
ssg71
Nsg64
(lp259
g57
(g73
g59
NtRp260
(dp261
g62
(dp262
sg71
g256
sg64
(lp263
g57
(g78
g59
NtRp264
(dp265
g62
(dp266
g82
g83
ssg71
g260
sg64
(lp267
S'session_id_admin'
p268
asbag57
(g78
g59
NtRp269
(dp270
g62
(dp271
g89
g90
ssg71
g260
sg64
(lp272
S':'
asbag57
(g78
g59
NtRp273
(dp274
g62
(dp275
sg71
g260
sg64
(lp276
g57
(g58
g59
NtRp277
(dp278
g62
(dp279
g70
I4
ssg71
g273
sg64
(lp280
S'127.0.0.1-584f2a84-2dc3-42a6-bc35-74e81db7c554'
p281
ag57
(g66
g59
NtRp282
(dp283
g62
(dp284
g70
I3
ssg71
Nsg64
(lp285
g57
(g73
g59
NtRp286
(dp287
g62
(dp288
sg71
g282
sg64
(lp289
g57
(g78
g59
NtRp290
(dp291
g62
(dp292
g82
g83
ssg71
g286
sg64
(lp293
S'comment'
p294
asbag57
(g78
g59
NtRp295
(dp296
g62
(dp297
g89
g90
ssg71
g286
sg64
(lp298
S':'
asbag57
(g78
g59
NtRp299
(dp300
g62
(dp301
sg71
g286
sg64
(lp302
g57
(g58
g59
NtRp303
(dp304
g62
(dp305
g70
I3
ssg71
g299
sg64
(lp306
S''
asbasbasbag57
(g73
g59
NtRp307
(dp308
g62
(dp309
sg71
g282
sg64
(lp310
g57
(g78
g59
NtRp311
(dp312
g62
(dp313
g82
g83
ssg71
g307
sg64
(lp314
S'domain'
p315
asbag57
(g78
g59
NtRp316
(dp317
g62
(dp318
g89
g90
ssg71
g307
sg64
(lp319
S':'
asbag57
(g78
g59
NtRp320
(dp321
g62
(dp322
sg71
g307
sg64
(lp323
g57
(g58
g59
NtRp324
(dp325
g62
(dp326
g70
I3
ssg71
g320
sg64
(lp327
S''
asbasbasbag57
(g73
g59
NtRp328
(dp329
g62
(dp330
sg71
g282
sg64
(lp331
g57
(g78
g59
NtRp332
(dp333
g62
(dp334
g82
g83
ssg71
g328
sg64
(lp335
S'expires'
p336
asbag57
(g78
g59
NtRp337
(dp338
g62
(dp339
g89
g90
ssg71
g328
sg64
(lp340
S':'
asbag57
(g78
g59
NtRp341
(dp342
g62
(dp343
sg71
g328
sg64
(lp344
g57
(g58
g59
NtRp345
(dp346
g62
(dp347
g70
I3
ssg71
g341
sg64
(lp348
S''
asbasbasbag57
(g73
g59
NtRp349
(dp350
g62
(dp351
sg71
g282
sg64
(lp352
g57
(g78
g59
NtRp353
(dp354
g62
(dp355
g82
g83
ssg71
g349
sg64
(lp356
S'httponly'
p357
asbag57
(g78
g59
NtRp358
(dp359
g62
(dp360
g89
g90
ssg71
g349
sg64
(lp361
S':'
asbag57
(g78
g59
NtRp362
(dp363
g62
(dp364
sg71
g349
sg64
(lp365
g57
(g58
g59
NtRp366
(dp367
g62
(dp368
g70
I3
ssg71
g362
sg64
(lp369
S''
asbasbasbag57
(g73
g59
NtRp370
(dp371
g62
(dp372
sg71
g282
sg64
(lp373
g57
(g78
g59
NtRp374
(dp375
g62
(dp376
g82
g83
ssg71
g370
sg64
(lp377
S'max-age'
p378
asbag57
(g78
g59
NtRp379
(dp380
g62
(dp381
g89
g90
ssg71
g370
sg64
(lp382
S':'
asbag57
(g78
g59
NtRp383
(dp384
g62
(dp385
sg71
g370
sg64
(lp386
g57
(g58
g59
NtRp387
(dp388
g62
(dp389
g70
I3
ssg71
g383
sg64
(lp390
S''
asbasbasbag57
(g73
g59
NtRp391
(dp392
g62
(dp393
sg71
g282
sg64
(lp394
g57
(g78
g59
NtRp395
(dp396
g62
(dp397
g82
g83
ssg71
g391
sg64
(lp398
S'path'
p399
asbag57
(g78
g59
NtRp400
(dp401
g62
(dp402
g89
g90
ssg71
g391
sg64
(lp403
S':'
asbag57
(g78
g59
NtRp404
(dp405
g62
(dp406
sg71
g391
sg64
(lp407
g57
(g58
g59
NtRp408
(dp409
g62
(dp410
g70
I3
ssg71
g404
sg64
(lp411
S''
asbasbasbag57
(g73
g59
NtRp412
(dp413
g62
(dp414
sg71
g282
sg64
(lp415
g57
(g78
g59
NtRp416
(dp417
g62
(dp418
g82
g83
ssg71
g412
sg64
(lp419
S'secure'
p420
asbag57
(g78
g59
NtRp421
(dp422
g62
(dp423
g89
g90
ssg71
g412
sg64
(lp424
S':'
asbag57
(g78
g59
NtRp425
(dp426
g62
(dp427
sg71
g412
sg64
(lp428
g57
(g58
g59
NtRp429
(dp430
g62
(dp431
g70
I3
ssg71
g425
sg64
(lp432
S''
asbasbasbag57
(g73
g59
NtRp433
(dp434
g62
(dp435
sg71
g282
sg64
(lp436
g57
(g78
g59
NtRp437
(dp438
g62
(dp439
g82
g83
ssg71
g433
sg64
(lp440
S'version'
p441
asbag57
(g78
g59
NtRp442
(dp443
g62
(dp444
g89
g90
ssg71
g433
sg64
(lp445
S':'
asbag57
(g78
g59
NtRp446
(dp447
g62
(dp448
sg71
g433
sg64
(lp449
g57
(g58
g59
NtRp450
(dp451
g62
(dp452
g70
I3
ssg71
g446
sg64
(lp453
S''
asbasbasbasbasbasbasbag57
(g73
g59
NtRp454
(dp455
g62
(dp456
sg71
g256
sg64
(lp457
g57
(g78
g59
NtRp458
(dp459
g62
(dp460
g82
g83
ssg71
g454
sg64
(lp461
S'session_id_image'
p462
asbag57
(g78
g59
NtRp463
(dp464
g62
(dp465
g89
g90
ssg71
g454
sg64
(lp466
S':'
asbag57
(g78
g59
NtRp467
(dp468
g62
(dp469
sg71
g454
sg64
(lp470
g57
(g58
g59
NtRp471
(dp472
g62
(dp473
g70
I4
ssg71
g467
sg64
(lp474
S'127.0.0.1-64827972-b9b3-4c6c-8faa-9f77e6b84685'
p475
ag57
(g66
g59
NtRp476
(dp477
g62
(dp478
g70
I3
ssg71
Nsg64
(lp479
g57
(g73
g59
NtRp480
(dp481
g62
(dp482
sg71
g476
sg64
(lp483
g57
(g78
g59
NtRp484
(dp485
g62
(dp486
g82
g83
ssg71
g480
sg64
(lp487
g294
asbag57
(g78
g59
NtRp488
(dp489
g62
(dp490
g89
g90
ssg71
g480
sg64
(lp491
S':'
asbag57
(g78
g59
NtRp492
(dp493
g62
(dp494
sg71
g480
sg64
(lp495
g57
(g58
g59
NtRp496
(dp497
g62
(dp498
g70
I3
ssg71
g492
sg64
(lp499
S''
asbasbasbag57
(g73
g59
NtRp500
(dp501
g62
(dp502
sg71
g476
sg64
(lp503
g57
(g78
g59
NtRp504
(dp505
g62
(dp506
g82
g83
ssg71
g500
sg64
(lp507
g315
asbag57
(g78
g59
NtRp508
(dp509
g62
(dp510
g89
g90
ssg71
g500
sg64
(lp511
S':'
asbag57
(g78
g59
NtRp512
(dp513
g62
(dp514
sg71
g500
sg64
(lp515
g57
(g58
g59
NtRp516
(dp517
g62
(dp518
g70
I3
ssg71
g512
sg64
(lp519
S''
asbasbasbag57
(g73
g59
NtRp520
(dp521
g62
(dp522
sg71
g476
sg64
(lp523
g57
(g78
g59
NtRp524
(dp525
g62
(dp526
g82
g83
ssg71
g520
sg64
(lp527
g336
asbag57
(g78
g59
NtRp528
(dp529
g62
(dp530
g89
g90
ssg71
g520
sg64
(lp531
S':'
asbag57
(g78
g59
NtRp532
(dp533
g62
(dp534
sg71
g520
sg64
(lp535
g57
(g58
g59
NtRp536
(dp537
g62
(dp538
g70
I3
ssg71
g532
sg64
(lp539
S''
asbasbasbag57
(g73
g59
NtRp540
(dp541
g62
(dp542
sg71
g476
sg64
(lp543
g57
(g78
g59
NtRp544
(dp545
g62
(dp546
g82
g83
ssg71
g540
sg64
(lp547
g357
asbag57
(g78
g59
NtRp548
(dp549
g62
(dp550
g89
g90
ssg71
g540
sg64
(lp551
S':'
asbag57
(g78
g59
NtRp552
(dp553
g62
(dp554
sg71
g540
sg64
(lp555
g57
(g58
g59
NtRp556
(dp557
g62
(dp558
g70
I3
ssg71
g552
sg64
(lp559
S''
asbasbasbag57
(g73
g59
NtRp560
(dp561
g62
(dp562
sg71
g476
sg64
(lp563
g57
(g78
g59
NtRp564
(dp565
g62
(dp566
g82
g83
ssg71
g560
sg64
(lp567
g378
asbag57
(g78
g59
NtRp568
(dp569
g62
(dp570
g89
g90
ssg71
g560
sg64
(lp571
S':'
asbag57
(g78
g59
NtRp572
(dp573
g62
(dp574
sg71
g560
sg64
(lp575
g57
(g58
g59
NtRp576
(dp577
g62
(dp578
g70
I3
ssg71
g572
sg64
(lp579
S''
asbasbasbag57
(g73
g59
NtRp580
(dp581
g62
(dp582
sg71
g476
sg64
(lp583
g57
(g78
g59
NtRp584
(dp585
g62
(dp586
g82
g83
ssg71
g580
sg64
(lp587
g399
asbag57
(g78
g59
NtRp588
(dp589
g62
(dp590
g89
g90
ssg71
g580
sg64
(lp591
S':'
asbag57
(g78
g59
NtRp592
(dp593
g62
(dp594
sg71
g580
sg64
(lp595
g57
(g58
g59
NtRp596
(dp597
g62
(dp598
g70
I3
ssg71
g592
sg64
(lp599
S''
asbasbasbag57
(g73
g59
NtRp600
(dp601
g62
(dp602
sg71
g476
sg64
(lp603
g57
(g78
g59
NtRp604
(dp605
g62
(dp606
g82
g83
ssg71
g600
sg64
(lp607
g420
asbag57
(g78
g59
NtRp608
(dp609
g62
(dp610
g89
g90
ssg71
g600
sg64
(lp611
S':'
asbag57
(g78
g59
NtRp612
(dp613
g62
(dp614
sg71
g600
sg64
(lp615
g57
(g58
g59
NtRp616
(dp617
g62
(dp618
g70
I3
ssg71
g612
sg64
(lp619
S''
asbasbasbag57
(g73
g59
NtRp620
(dp621
g62
(dp622
sg71
g476
sg64
(lp623
g57
(g78
g59
NtRp624
(dp625
g62
(dp626
g82
g83
ssg71
g620
sg64
(lp627
g441
asbag57
(g78
g59
NtRp628
(dp629
g62
(dp630
g89
g90
ssg71
g620
sg64
(lp631
S':'
asbag57
(g78
g59
NtRp632
(dp633
g62
(dp634
sg71
g620
sg64
(lp635
g57
(g58
g59
NtRp636
(dp637
g62
(dp638
g70
I3
ssg71
g632
sg64
(lp639
S''
asbasbasbasbasbasbasbag57
(g73
g59
NtRp640
(dp641
g62
(dp642
sg71
g256
sg64
(lp643
g57
(g78
g59
NtRp644
(dp645
g62
(dp646
g82
g83
ssg71
g640
sg64
(lp647
S'session_id_music'
p648
asbag57
(g78
g59
NtRp649
(dp650
g62
(dp651
g89
g90
ssg71
g640
sg64
(lp652
S':'
asbag57
(g78
g59
NtRp653
(dp654
g62
(dp655
sg71
g640
sg64
(lp656
g57
(g58
g59
NtRp657
(dp658
g62
(dp659
g70
I4
ssg71
g653
sg64
(lp660
S'127.0.0.1-6a75e943-0a20-4bfb-98fe-2a61fdfaa079'
p661
ag57
(g66
g59
NtRp662
(dp663
g62
(dp664
g70
I3
ssg71
Nsg64
(lp665
g57
(g73
g59
NtRp666
(dp667
g62
(dp668
sg71
g662
sg64
(lp669
g57
(g78
g59
NtRp670
(dp671
g62
(dp672
g82
g83
ssg71
g666
sg64
(lp673
g294
asbag57
(g78
g59
NtRp674
(dp675
g62
(dp676
g89
g90
ssg71
g666
sg64
(lp677
S':'
asbag57
(g78
g59
NtRp678
(dp679
g62
(dp680
sg71
g666
sg64
(lp681
g57
(g58
g59
NtRp682
(dp683
g62
(dp684
g70
I3
ssg71
g678
sg64
(lp685
S''
asbasbasbag57
(g73
g59
NtRp686
(dp687
g62
(dp688
sg71
g662
sg64
(lp689
g57
(g78
g59
NtRp690
(dp691
g62
(dp692
g82
g83
ssg71
g686
sg64
(lp693
g315
asbag57
(g78
g59
NtRp694
(dp695
g62
(dp696
g89
g90
ssg71
g686
sg64
(lp697
S':'
asbag57
(g78
g59
NtRp698
(dp699
g62
(dp700
sg71
g686
sg64
(lp701
g57
(g58
g59
NtRp702
(dp703
g62
(dp704
g70
I3
ssg71
g698
sg64
(lp705
S''
asbasbasbag57
(g73
g59
NtRp706
(dp707
g62
(dp708
sg71
g662
sg64
(lp709
g57
(g78
g59
NtRp710
(dp711
g62
(dp712
g82
g83
ssg71
g706
sg64
(lp713
g336
asbag57
(g78
g59
NtRp714
(dp715
g62
(dp716
g89
g90
ssg71
g706
sg64
(lp717
S':'
asbag57
(g78
g59
NtRp718
(dp719
g62
(dp720
sg71
g706
sg64
(lp721
g57
(g58
g59
NtRp722
(dp723
g62
(dp724
g70
I3
ssg71
g718
sg64
(lp725
S''
asbasbasbag57
(g73
g59
NtRp726
(dp727
g62
(dp728
sg71
g662
sg64
(lp729
g57
(g78
g59
NtRp730
(dp731
g62
(dp732
g82
g83
ssg71
g726
sg64
(lp733
g357
asbag57
(g78
g59
NtRp734
(dp735
g62
(dp736
g89
g90
ssg71
g726
sg64
(lp737
S':'
asbag57
(g78
g59
NtRp738
(dp739
g62
(dp740
sg71
g726
sg64
(lp741
g57
(g58
g59
NtRp742
(dp743
g62
(dp744
g70
I3
ssg71
g738
sg64
(lp745
S''
asbasbasbag57
(g73
g59
NtRp746
(dp747
g62
(dp748
sg71
g662
sg64
(lp749
g57
(g78
g59
NtRp750
(dp751
g62
(dp752
g82
g83
ssg71
g746
sg64
(lp753
g378
asbag57
(g78
g59
NtRp754
(dp755
g62
(dp756
g89
g90
ssg71
g746
sg64
(lp757
S':'
asbag57
(g78
g59
NtRp758
(dp759
g62
(dp760
sg71
g746
sg64
(lp761
g57
(g58
g59
NtRp762
(dp763
g62
(dp764
g70
I3
ssg71
g758
sg64
(lp765
S''
asbasbasbag57
(g73
g59
NtRp766
(dp767
g62
(dp768
sg71
g662
sg64
(lp769
g57
(g78
g59
NtRp770
(dp771
g62
(dp772
g82
g83
ssg71
g766
sg64
(lp773
g399
asbag57
(g78
g59
NtRp774
(dp775
g62
(dp776
g89
g90
ssg71
g766
sg64
(lp777
S':'
asbag57
(g78
g59
NtRp778
(dp779
g62
(dp780
sg71
g766
sg64
(lp781
g57
(g58
g59
NtRp782
(dp783
g62
(dp784
g70
I3
ssg71
g778
sg64
(lp785
S''
asbasbasbag57
(g73
g59
NtRp786
(dp787
g62
(dp788
sg71
g662
sg64
(lp789
g57
(g78
g59
NtRp790
(dp791
g62
(dp792
g82
g83
ssg71
g786
sg64
(lp793
g420
asbag57
(g78
g59
NtRp794
(dp795
g62
(dp796
g89
g90
ssg71
g786
sg64
(lp797
S':'
asbag57
(g78
g59
NtRp798
(dp799
g62
(dp800
sg71
g786
sg64
(lp801
g57
(g58
g59
NtRp802
(dp803
g62
(dp804
g70
I3
ssg71
g798
sg64
(lp805
S''
asbasbasbag57
(g73
g59
NtRp806
(dp807
g62
(dp808
sg71
g662
sg64
(lp809
g57
(g78
g59
NtRp810
(dp811
g62
(dp812
g82
g83
ssg71
g806
sg64
(lp813
g441
asbag57
(g78
g59
NtRp814
(dp815
g62
(dp816
g89
g90
ssg71
g806
sg64
(lp817
S':'
asbag57
(g78
g59
NtRp818
(dp819
g62
(dp820
sg71
g806
sg64
(lp821
g57
(g58
g59
NtRp822
(dp823
g62
(dp824
g70
I3
ssg71
g818
sg64
(lp825
S''
asbasbasbasbasbasbasbag57
(g73
g59
NtRp826
(dp827
g62
(dp828
sg71
g256
sg64
(lp829
g57
(g78
g59
NtRp830
(dp831
g62
(dp832
g82
g83
ssg71
g826
sg64
(lp833
S'session_id_tmp'
p834
asbag57
(g78
g59
NtRp835
(dp836
g62
(dp837
g89
g90
ssg71
g826
sg64
(lp838
S':'
asbag57
(g78
g59
NtRp839
(dp840
g62
(dp841
sg71
g826
sg64
(lp842
g57
(g58
g59
NtRp843
(dp844
g62
(dp845
g70
I4
ssg71
g839
sg64
(lp846
S'127.0.0.1-8afdcc3c-287e-46d8-9a6a-83273a0e958d'
p847
ag57
(g66
g59
NtRp848
(dp849
g62
(dp850
g70
I3
ssg71
Nsg64
(lp851
g57
(g73
g59
NtRp852
(dp853
g62
(dp854
sg71
g848
sg64
(lp855
g57
(g78
g59
NtRp856
(dp857
g62
(dp858
g82
g83
ssg71
g852
sg64
(lp859
g294
asbag57
(g78
g59
NtRp860
(dp861
g62
(dp862
g89
g90
ssg71
g852
sg64
(lp863
S':'
asbag57
(g78
g59
NtRp864
(dp865
g62
(dp866
sg71
g852
sg64
(lp867
g57
(g58
g59
NtRp868
(dp869
g62
(dp870
g70
I3
ssg71
g864
sg64
(lp871
S''
asbasbasbag57
(g73
g59
NtRp872
(dp873
g62
(dp874
sg71
g848
sg64
(lp875
g57
(g78
g59
NtRp876
(dp877
g62
(dp878
g82
g83
ssg71
g872
sg64
(lp879
g315
asbag57
(g78
g59
NtRp880
(dp881
g62
(dp882
g89
g90
ssg71
g872
sg64
(lp883
S':'
asbag57
(g78
g59
NtRp884
(dp885
g62
(dp886
sg71
g872
sg64
(lp887
g57
(g58
g59
NtRp888
(dp889
g62
(dp890
g70
I3
ssg71
g884
sg64
(lp891
S''
asbasbasbag57
(g73
g59
NtRp892
(dp893
g62
(dp894
sg71
g848
sg64
(lp895
g57
(g78
g59
NtRp896
(dp897
g62
(dp898
g82
g83
ssg71
g892
sg64
(lp899
g336
asbag57
(g78
g59
NtRp900
(dp901
g62
(dp902
g89
g90
ssg71
g892
sg64
(lp903
S':'
asbag57
(g78
g59
NtRp904
(dp905
g62
(dp906
sg71
g892
sg64
(lp907
g57
(g58
g59
NtRp908
(dp909
g62
(dp910
g70
I3
ssg71
g904
sg64
(lp911
S''
asbasbasbag57
(g73
g59
NtRp912
(dp913
g62
(dp914
sg71
g848
sg64
(lp915
g57
(g78
g59
NtRp916
(dp917
g62
(dp918
g82
g83
ssg71
g912
sg64
(lp919
g357
asbag57
(g78
g59
NtRp920
(dp921
g62
(dp922
g89
g90
ssg71
g912
sg64
(lp923
S':'
asbag57
(g78
g59
NtRp924
(dp925
g62
(dp926
sg71
g912
sg64
(lp927
g57
(g58
g59
NtRp928
(dp929
g62
(dp930
g70
I3
ssg71
g924
sg64
(lp931
S''
asbasbasbag57
(g73
g59
NtRp932
(dp933
g62
(dp934
sg71
g848
sg64
(lp935
g57
(g78
g59
NtRp936
(dp937
g62
(dp938
g82
g83
ssg71
g932
sg64
(lp939
g378
asbag57
(g78
g59
NtRp940
(dp941
g62
(dp942
g89
g90
ssg71
g932
sg64
(lp943
S':'
asbag57
(g78
g59
NtRp944
(dp945
g62
(dp946
sg71
g932
sg64
(lp947
g57
(g58
g59
NtRp948
(dp949
g62
(dp950
g70
I3
ssg71
g944
sg64
(lp951
S''
asbasbasbag57
(g73
g59
NtRp952
(dp953
g62
(dp954
sg71
g848
sg64
(lp955
g57
(g78
g59
NtRp956
(dp957
g62
(dp958
g82
g83
ssg71
g952
sg64
(lp959
g399
asbag57
(g78
g59
NtRp960
(dp961
g62
(dp962
g89
g90
ssg71
g952
sg64
(lp963
S':'
asbag57
(g78
g59
NtRp964
(dp965
g62
(dp966
sg71
g952
sg64
(lp967
g57
(g58
g59
NtRp968
(dp969
g62
(dp970
g70
I3
ssg71
g964
sg64
(lp971
S''
asbasbasbag57
(g73
g59
NtRp972
(dp973
g62
(dp974
sg71
g848
sg64
(lp975
g57
(g78
g59
NtRp976
(dp977
g62
(dp978
g82
g83
ssg71
g972
sg64
(lp979
g420
asbag57
(g78
g59
NtRp980
(dp981
g62
(dp982
g89
g90
ssg71
g972
sg64
(lp983
S':'
asbag57
(g78
g59
NtRp984
(dp985
g62
(dp986
sg71
g972
sg64
(lp987
g57
(g58
g59
NtRp988
(dp989
g62
(dp990
g70
I3
ssg71
g984
sg64
(lp991
S''
asbasbasbag57
(g73
g59
NtRp992
(dp993
g62
(dp994
sg71
g848
sg64
(lp995
g57
(g78
g59
NtRp996
(dp997
g62
(dp998
g82
g83
ssg71
g992
sg64
(lp999
g441
asbag57
(g78
g59
NtRp1000
(dp1001
g62
(dp1002
g89
g90
ssg71
g992
sg64
(lp1003
S':'
asbag57
(g78
g59
NtRp1004
(dp1005
g62
(dp1006
sg71
g992
sg64
(lp1007
g57
(g58
g59
NtRp1008
(dp1009
g62
(dp1010
g70
I3
ssg71
g1004
sg64
(lp1011
S''
asbasbasbasbasbasbasbag57
(g73
g59
NtRp1012
(dp1013
g62
(dp1014
sg71
g256
sg64
(lp1015
g57
(g78
g59
NtRp1016
(dp1017
g62
(dp1018
g82
g83
ssg71
g1012
sg64
(lp1019
S'session_id_welcome'
p1020
asbag57
(g78
g59
NtRp1021
(dp1022
g62
(dp1023
g89
g90
ssg71
g1012
sg64
(lp1024
S':'
asbag57
(g78
g59
NtRp1025
(dp1026
g62
(dp1027
sg71
g1012
sg64
(lp1028
g57
(g58
g59
NtRp1029
(dp1030
g62
(dp1031
g70
I4
ssg71
g1025
sg64
(lp1032
S'127.0.0.1-718bdbe2-87af-405a-8102-6e2bd21895d0'
p1033
ag57
(g66
g59
NtRp1034
(dp1035
g62
(dp1036
g70
I3
ssg71
Nsg64
(lp1037
g57
(g73
g59
NtRp1038
(dp1039
g62
(dp1040
sg71
g1034
sg64
(lp1041
g57
(g78
g59
NtRp1042
(dp1043
g62
(dp1044
g82
g83
ssg71
g1038
sg64
(lp1045
g294
asbag57
(g78
g59
NtRp1046
(dp1047
g62
(dp1048
g89
g90
ssg71
g1038
sg64
(lp1049
S':'
asbag57
(g78
g59
NtRp1050
(dp1051
g62
(dp1052
sg71
g1038
sg64
(lp1053
g57
(g58
g59
NtRp1054
(dp1055
g62
(dp1056
g70
I3
ssg71
g1050
sg64
(lp1057
S''
asbasbasbag57
(g73
g59
NtRp1058
(dp1059
g62
(dp1060
sg71
g1034
sg64
(lp1061
g57
(g78
g59
NtRp1062
(dp1063
g62
(dp1064
g82
g83
ssg71
g1058
sg64
(lp1065
g315
asbag57
(g78
g59
NtRp1066
(dp1067
g62
(dp1068
g89
g90
ssg71
g1058
sg64
(lp1069
S':'
asbag57
(g78
g59
NtRp1070
(dp1071
g62
(dp1072
sg71
g1058
sg64
(lp1073
g57
(g58
g59
NtRp1074
(dp1075
g62
(dp1076
g70
I3
ssg71
g1070
sg64
(lp1077
S''
asbasbasbag57
(g73
g59
NtRp1078
(dp1079
g62
(dp1080
sg71
g1034
sg64
(lp1081
g57
(g78
g59
NtRp1082
(dp1083
g62
(dp1084
g82
g83
ssg71
g1078
sg64
(lp1085
g336
asbag57
(g78
g59
NtRp1086
(dp1087
g62
(dp1088
g89
g90
ssg71
g1078
sg64
(lp1089
S':'
asbag57
(g78
g59
NtRp1090
(dp1091
g62
(dp1092
sg71
g1078
sg64
(lp1093
g57
(g58
g59
NtRp1094
(dp1095
g62
(dp1096
g70
I3
ssg71
g1090
sg64
(lp1097
S''
asbasbasbag57
(g73
g59
NtRp1098
(dp1099
g62
(dp1100
sg71
g1034
sg64
(lp1101
g57
(g78
g59
NtRp1102
(dp1103
g62
(dp1104
g82
g83
ssg71
g1098
sg64
(lp1105
g357
asbag57
(g78
g59
NtRp1106
(dp1107
g62
(dp1108
g89
g90
ssg71
g1098
sg64
(lp1109
S':'
asbag57
(g78
g59
NtRp1110
(dp1111
g62
(dp1112
sg71
g1098
sg64
(lp1113
g57
(g58
g59
NtRp1114
(dp1115
g62
(dp1116
g70
I3
ssg71
g1110
sg64
(lp1117
S''
asbasbasbag57
(g73
g59
NtRp1118
(dp1119
g62
(dp1120
sg71
g1034
sg64
(lp1121
g57
(g78
g59
NtRp1122
(dp1123
g62
(dp1124
g82
g83
ssg71
g1118
sg64
(lp1125
g378
asbag57
(g78
g59
NtRp1126
(dp1127
g62
(dp1128
g89
g90
ssg71
g1118
sg64
(lp1129
S':'
asbag57
(g78
g59
NtRp1130
(dp1131
g62
(dp1132
sg71
g1118
sg64
(lp1133
g57
(g58
g59
NtRp1134
(dp1135
g62
(dp1136
g70
I3
ssg71
g1130
sg64
(lp1137
S''
asbasbasbag57
(g73
g59
NtRp1138
(dp1139
g62
(dp1140
sg71
g1034
sg64
(lp1141
g57
(g78
g59
NtRp1142
(dp1143
g62
(dp1144
g82
g83
ssg71
g1138
sg64
(lp1145
g399
asbag57
(g78
g59
NtRp1146
(dp1147
g62
(dp1148
g89
g90
ssg71
g1138
sg64
(lp1149
S':'
asbag57
(g78
g59
NtRp1150
(dp1151
g62
(dp1152
sg71
g1138
sg64
(lp1153
g57
(g58
g59
NtRp1154
(dp1155
g62
(dp1156
g70
I3
ssg71
g1150
sg64
(lp1157
S''
asbasbasbag57
(g73
g59
NtRp1158
(dp1159
g62
(dp1160
sg71
g1034
sg64
(lp1161
g57
(g78
g59
NtRp1162
(dp1163
g62
(dp1164
g82
g83
ssg71
g1158
sg64
(lp1165
g420
asbag57
(g78
g59
NtRp1166
(dp1167
g62
(dp1168
g89
g90
ssg71
g1158
sg64
(lp1169
S':'
asbag57
(g78
g59
NtRp1170
(dp1171
g62
(dp1172
sg71
g1158
sg64
(lp1173
g57
(g58
g59
NtRp1174
(dp1175
g62
(dp1176
g70
I3
ssg71
g1170
sg64
(lp1177
S''
asbasbasbag57
(g73
g59
NtRp1178
(dp1179
g62
(dp1180
sg71
g1034
sg64
(lp1181
g57
(g78
g59
NtRp1182
(dp1183
g62
(dp1184
g82
g83
ssg71
g1178
sg64
(lp1185
g441
asbag57
(g78
g59
NtRp1186
(dp1187
g62
(dp1188
g89
g90
ssg71
g1178
sg64
(lp1189
S':'
asbag57
(g78
g59
NtRp1190
(dp1191
g62
(dp1192
sg71
g1178
sg64
(lp1193
g57
(g58
g59
NtRp1194
(dp1195
g62
(dp1196
g70
I3
ssg71
g1190
sg64
(lp1197
S''
asbasbasbasbasbasbasbasbasbasbasbag57
(g73
g59
NtRp1198
(dp1199
g62
(dp1200
sg71
g67
sg64
(lp1201
g57
(g78
g59
NtRp1202
(dp1203
g62
(dp1204
g82
g83
ssg71
g1198
sg64
(lp1205
S'env'
p1206
asbag57
(g78
g59
NtRp1207
(dp1208
g62
(dp1209
g89
g90
ssg71
g1198
sg64
(lp1210
S':'
asbag57
(g78
g59
NtRp1211
(dp1212
g62
(dp1213
sg71
g1198
sg64
(lp1214
g57
(g58
g59
NtRp1215
(dp1216
g62
(dp1217
g70
I5
ssg71
g1211
sg64
(lp1218
g57
(g66
g59
NtRp1219
(dp1220
g62
(dp1221
g70
I4
ssg71
Nsg64
(lp1222
g57
(g73
g59
NtRp1223
(dp1224
g62
(dp1225
sg71
g1219
sg64
(lp1226
g57
(g78
g59
NtRp1227
(dp1228
g62
(dp1229
g82
g83
ssg71
g1223
sg64
(lp1230
S'app_folders'
p1231
asbag57
(g78
g59
NtRp1232
(dp1233
g62
(dp1234
g89
g90
ssg71
g1223
sg64
(lp1235
S':'
asbag57
(g78
g59
NtRp1236
(dp1237
g62
(dp1238
sg71
g1223
sg64
(lp1239
g57
(g58
g59
NtRp1240
(dp1241
g62
(dp1242
g70
I4
ssg71
g1236
sg64
(lp1243
S"set(['/home/gaurav/classwork/WEB_PROGRAMMING/web2py/applications/MUSIC/', '/home/gaurav/classwork/WEB_PROGRAMMING/web2py/applications/admin/', '/home/gaurav/classwork/WEB_PROGRAMMING/web2py/applications/welcome/'])"
p1244
asbasbasbag57
(g73
g59
NtRp1245
(dp1246
g62
(dp1247
sg71
g1219
sg64
(lp1248
g57
(g78
g59
NtRp1249
(dp1250
g62
(dp1251
g82
g83
ssg71
g1245
sg64
(lp1252
S'applications_parent'
p1253
asbag57
(g78
g59
NtRp1254
(dp1255
g62
(dp1256
g89
g90
ssg71
g1245
sg64
(lp1257
S':'
asbag57
(g78
g59
NtRp1258
(dp1259
g62
(dp1260
sg71
g1245
sg64
(lp1261
g57
(g58
g59
NtRp1262
(dp1263
g62
(dp1264
g70
I4
ssg71
g1258
sg64
(lp1265
S'/home/gaurav/classwork/WEB_PROGRAMMING/web2py'
p1266
asbasbasbag57
(g73
g59
NtRp1267
(dp1268
g62
(dp1269
sg71
g1219
sg64
(lp1270
g57
(g78
g59
NtRp1271
(dp1272
g62
(dp1273
g82
g83
ssg71
g1267
sg64
(lp1274
S'cmd_args'
p1275
asbag57
(g78
g59
NtRp1276
(dp1277
g62
(dp1278
g89
g90
ssg71
g1267
sg64
(lp1279
S':'
asbag57
(g78
g59
NtRp1280
(dp1281
g62
(dp1282
sg71
g1267
sg64
(lp1283
g57
(g58
g59
NtRp1284
(dp1285
g62
(dp1286
g70
I4
ssg71
g1280
sg64
(lp1287
g57
(g66
g59
NtRp1288
(dp1289
g62
(dp1290
g70
I3
ssg71
Nsg64
(lp1291
sbasbasbasbag57
(g73
g59
NtRp1292
(dp1293
g62
(dp1294
sg71
g1219
sg64
(lp1295
g57
(g78
g59
NtRp1296
(dp1297
g62
(dp1298
g82
g83
ssg71
g1292
sg64
(lp1299
S'cmd_options'
p1300
asbag57
(g78
g59
NtRp1301
(dp1302
g62
(dp1303
g89
g90
ssg71
g1292
sg64
(lp1304
S':'
asbag57
(g78
g59
NtRp1305
(dp1306
g62
(dp1307
sg71
g1292
sg64
(lp1308
g57
(g58
g59
NtRp1309
(dp1310
g62
(dp1311
g70
I4
ssg71
g1305
sg64
(lp1312
S"<Values at 0x8f0e6ec: {'verbose': False, 'ip': '127.0.0.1', 'with_scheduler': False, 'ips': [], 'shutdown_timeout': 5, 'taskbar': False, 'port': 8000, 'maxthreads': None, 'softcron': False, 'server_name': 'gaurav-Compaq-Presario-C700-Notebook-PC', 'bpython': False, 'nogui': False, 'pid_filename': 'httpserver.pid', 'extcron': False, 'runcron': False, 'run_system_tests': False, 'test': None, 'folder': '/home/gaurav/classwork/WEB_PROGRAMMING/web2py', 'config': '', 'import_models': False, 'winservice': '', 'shell': None, 'run': '', 'log_filename': 'httpserver.log', 'debuglevel': 30, 'args': [''], 'socket_timeout': 5, 'ssl_ca_certificate': None, 'scheduler': None, 'profiler_filename': None, 'ssl_private_key': '', 'scheduler_groups': None, 'password': '<ask>', 'request_queue_size': 5, 'ssl_certificate': '', 'cronjob': False, 'numthreads': None, 'quiet': False, 'interfaces': None, 'minthreads': None, 'timeout': 10, 'plain': False, 'nobanner': False}>"
p1313
asbasbasbag57
(g73
g59
NtRp1314
(dp1315
g62
(dp1316
sg71
g1219
sg64
(lp1317
g57
(g78
g59
NtRp1318
(dp1319
g62
(dp1320
g82
g83
ssg71
g1314
sg64
(lp1321
S'content_length'
p1322
asbag57
(g78
g59
NtRp1323
(dp1324
g62
(dp1325
g89
g90
ssg71
g1314
sg64
(lp1326
S':'
asbag57
(g78
g59
NtRp1327
(dp1328
g62
(dp1329
sg71
g1314
sg64
(lp1330
g57
(g58
g59
NtRp1331
(dp1332
g62
(dp1333
g70
I4
ssg71
g1327
sg64
(lp1334
S'27'
p1335
asbasbasbag57
(g73
g59
NtRp1336
(dp1337
g62
(dp1338
sg71
g1219
sg64
(lp1339
g57
(g78
g59
NtRp1340
(dp1341
g62
(dp1342
g82
g83
ssg71
g1336
sg64
(lp1343
S'content_type'
p1344
asbag57
(g78
g59
NtRp1345
(dp1346
g62
(dp1347
g89
g90
ssg71
g1336
sg64
(lp1348
S':'
asbag57
(g78
g59
NtRp1349
(dp1350
g62
(dp1351
sg71
g1336
sg64
(lp1352
g57
(g58
g59
NtRp1353
(dp1354
g62
(dp1355
g70
I4
ssg71
g1349
sg64
(lp1356
S'application/x-www-form-urlencoded'
p1357
asbasbasbag57
(g73
g59
NtRp1358
(dp1359
g62
(dp1360
sg71
g1219
sg64
(lp1361
g57
(g78
g59
NtRp1362
(dp1363
g62
(dp1364
g82
g83
ssg71
g1358
sg64
(lp1365
S'db_sessions'
p1366
asbag57
(g78
g59
NtRp1367
(dp1368
g62
(dp1369
g89
g90
ssg71
g1358
sg64
(lp1370
S':'
asbag57
(g78
g59
NtRp1371
(dp1372
g62
(dp1373
sg71
g1358
sg64
(lp1374
g57
(g58
g59
NtRp1375
(dp1376
g62
(dp1377
g70
I4
ssg71
g1371
sg64
(lp1378
S'set([])'
p1379
asbasbasbag57
(g73
g59
NtRp1380
(dp1381
g62
(dp1382
sg71
g1219
sg64
(lp1383
g57
(g78
g59
NtRp1384
(dp1385
g62
(dp1386
g82
g83
ssg71
g1380
sg64
(lp1387
S'debugging'
p1388
asbag57
(g78
g59
NtRp1389
(dp1390
g62
(dp1391
g89
g90
ssg71
g1380
sg64
(lp1392
S':'
asbag57
(g78
g59
NtRp1393
(dp1394
g62
(dp1395
sg71
g1380
sg64
(lp1396
g57
(g58
g59
NtRp1397
(dp1398
g62
(dp1399
g70
I4
ssg71
g1393
sg64
(lp1400
g100
asbasbasbag57
(g73
g59
NtRp1401
(dp1402
g62
(dp1403
sg71
g1219
sg64
(lp1404
g57
(g78
g59
NtRp1405
(dp1406
g62
(dp1407
g82
g83
ssg71
g1401
sg64
(lp1408
S'gluon_parent'
p1409
asbag57
(g78
g59
NtRp1410
(dp1411
g62
(dp1412
g89
g90
ssg71
g1401
sg64
(lp1413
S':'
asbag57
(g78
g59
NtRp1414
(dp1415
g62
(dp1416
sg71
g1401
sg64
(lp1417
g57
(g58
g59
NtRp1418
(dp1419
g62
(dp1420
g70
I4
ssg71
g1414
sg64
(lp1421
S'/home/gaurav/classwork/WEB_PROGRAMMING/web2py'
p1422
asbasbasbag57
(g73
g59
NtRp1423
(dp1424
g62
(dp1425
sg71
g1219
sg64
(lp1426
g57
(g78
g59
NtRp1427
(dp1428
g62
(dp1429
g82
g83
ssg71
g1423
sg64
(lp1430
S'http_accept'
p1431
asbag57
(g78
g59
NtRp1432
(dp1433
g62
(dp1434
g89
g90
ssg71
g1423
sg64
(lp1435
S':'
asbag57
(g78
g59
NtRp1436
(dp1437
g62
(dp1438
sg71
g1423
sg64
(lp1439
g57
(g58
g59
NtRp1440
(dp1441
g62
(dp1442
g70
I4
ssg71
g1436
sg64
(lp1443
S'text/html,application/xhtml+xml,application/xml;q=0.9,*/*;q=0.8'
p1444
asbasbasbag57
(g73
g59
NtRp1445
(dp1446
g62
(dp1447
sg71
g1219
sg64
(lp1448
g57
(g78
g59
NtRp1449
(dp1450
g62
(dp1451
g82
g83
ssg71
g1445
sg64
(lp1452
S'http_accept_encoding'
p1453
asbag57
(g78
g59
NtRp1454
(dp1455
g62
(dp1456
g89
g90
ssg71
g1445
sg64
(lp1457
S':'
asbag57
(g78
g59
NtRp1458
(dp1459
g62
(dp1460
sg71
g1445
sg64
(lp1461
g57
(g58
g59
NtRp1462
(dp1463
g62
(dp1464
g70
I4
ssg71
g1458
sg64
(lp1465
S'gzip, deflate'
p1466
asbasbasbag57
(g73
g59
NtRp1467
(dp1468
g62
(dp1469
sg71
g1219
sg64
(lp1470
g57
(g78
g59
NtRp1471
(dp1472
g62
(dp1473
g82
g83
ssg71
g1467
sg64
(lp1474
S'http_accept_language'
p1475
asbag57
(g78
g59
NtRp1476
(dp1477
g62
(dp1478
g89
g90
ssg71
g1467
sg64
(lp1479
S':'
asbag57
(g78
g59
NtRp1480
(dp1481
g62
(dp1482
sg71
g1467
sg64
(lp1483
g57
(g58
g59
NtRp1484
(dp1485
g62
(dp1486
g70
I4
ssg71
g1480
sg64
(lp1487
S'en-US,en;q=0.5'
p1488
asbasbasbag57
(g73
g59
NtRp1489
(dp1490
g62
(dp1491
sg71
g1219
sg64
(lp1492
g57
(g78
g59
NtRp1493
(dp1494
g62
(dp1495
g82
g83
ssg71
g1489
sg64
(lp1496
S'http_cache_control'
p1497
asbag57
(g78
g59
NtRp1498
(dp1499
g62
(dp1500
g89
g90
ssg71
g1489
sg64
(lp1501
S':'
asbag57
(g78
g59
NtRp1502
(dp1503
g62
(dp1504
sg71
g1489
sg64
(lp1505
g57
(g58
g59
NtRp1506
(dp1507
g62
(dp1508
g70
I4
ssg71
g1502
sg64
(lp1509
S'max-age=0'
p1510
asbasbasbag57
(g73
g59
NtRp1511
(dp1512
g62
(dp1513
sg71
g1219
sg64
(lp1514
g57
(g78
g59
NtRp1515
(dp1516
g62
(dp1517
g82
g83
ssg71
g1511
sg64
(lp1518
S'http_connection'
p1519
asbag57
(g78
g59
NtRp1520
(dp1521
g62
(dp1522
g89
g90
ssg71
g1511
sg64
(lp1523
S':'
asbag57
(g78
g59
NtRp1524
(dp1525
g62
(dp1526
sg71
g1511
sg64
(lp1527
g57
(g58
g59
NtRp1528
(dp1529
g62
(dp1530
g70
I4
ssg71
g1524
sg64
(lp1531
S'keep-alive'
p1532
asbasbasbag57
(g73
g59
NtRp1533
(dp1534
g62
(dp1535
sg71
g1219
sg64
(lp1536
g57
(g78
g59
NtRp1537
(dp1538
g62
(dp1539
g82
g83
ssg71
g1533
sg64
(lp1540
S'http_content_length'
p1541
asbag57
(g78
g59
NtRp1542
(dp1543
g62
(dp1544
g89
g90
ssg71
g1533
sg64
(lp1545
S':'
asbag57
(g78
g59
NtRp1546
(dp1547
g62
(dp1548
sg71
g1533
sg64
(lp1549
g57
(g58
g59
NtRp1550
(dp1551
g62
(dp1552
g70
I4
ssg71
g1546
sg64
(lp1553
g1335
asbasbasbag57
(g73
g59
NtRp1554
(dp1555
g62
(dp1556
sg71
g1219
sg64
(lp1557
g57
(g78
g59
NtRp1558
(dp1559
g62
(dp1560
g82
g83
ssg71
g1554
sg64
(lp1561
S'http_content_type'
p1562
asbag57
(g78
g59
NtRp1563
(dp1564
g62
(dp1565
g89
g90
ssg71
g1554
sg64
(lp1566
S':'
asbag57
(g78
g59
NtRp1567
(dp1568
g62
(dp1569
sg71
g1554
sg64
(lp1570
g57
(g58
g59
NtRp1571
(dp1572
g62
(dp1573
g70
I4
ssg71
g1567
sg64
(lp1574
g1357
asbasbasbag57
(g73
g59
NtRp1575
(dp1576
g62
(dp1577
sg71
g1219
sg64
(lp1578
g57
(g78
g59
NtRp1579
(dp1580
g62
(dp1581
g82
g83
ssg71
g1575
sg64
(lp1582
S'http_cookie'
p1583
asbag57
(g78
g59
NtRp1584
(dp1585
g62
(dp1586
g89
g90
ssg71
g1575
sg64
(lp1587
S':'
asbag57
(g78
g59
NtRp1588
(dp1589
g62
(dp1590
sg71
g1575
sg64
(lp1591
g57
(g58
g59
NtRp1592
(dp1593
g62
(dp1594
g70
I4
ssg71
g1588
sg64
(lp1595
S'session_id_welcome=127.0.0.1-718bdbe2-87af-405a-8102-6e2bd21895d0; session_id_admin=127.0.0.1-584f2a84-2dc3-42a6-bc35-74e81db7c554; session_id_music=127.0.0.1-6a75e943-0a20-4bfb-98fe-2a61fdfaa079; session_id_tmp=127.0.0.1-8afdcc3c-287e-46d8-9a6a-83273a0e958d; session_id_image=127.0.0.1-64827972-b9b3-4c6c-8faa-9f77e6b84685'
p1596
asbasbasbag57
(g73
g59
NtRp1597
(dp1598
g62
(dp1599
sg71
g1219
sg64
(lp1600
g57
(g78
g59
NtRp1601
(dp1602
g62
(dp1603
g82
g83
ssg71
g1597
sg64
(lp1604
S'http_host'
p1605
asbag57
(g78
g59
NtRp1606
(dp1607
g62
(dp1608
g89
g90
ssg71
g1597
sg64
(lp1609
S':'
asbag57
(g78
g59
NtRp1610
(dp1611
g62
(dp1612
sg71
g1597
sg64
(lp1613
g57
(g58
g59
NtRp1614
(dp1615
g62
(dp1616
g70
I4
ssg71
g1610
sg64
(lp1617
S'127.0.0.1:8000'
p1618
asbasbasbag57
(g73
g59
NtRp1619
(dp1620
g62
(dp1621
sg71
g1219
sg64
(lp1622
g57
(g78
g59
NtRp1623
(dp1624
g62
(dp1625
g82
g83
ssg71
g1619
sg64
(lp1626
S'http_referer'
p1627
asbag57
(g78
g59
NtRp1628
(dp1629
g62
(dp1630
g89
g90
ssg71
g1619
sg64
(lp1631
S':'
asbag57
(g78
g59
NtRp1632
(dp1633
g62
(dp1634
sg71
g1619
sg64
(lp1635
g57
(g58
g59
NtRp1636
(dp1637
g62
(dp1638
g70
I4
ssg71
g1632
sg64
(lp1639
S'http://127.0.0.1:8000/MUSIC/default/que_1'
p1640
asbasbasbag57
(g73
g59
NtRp1641
(dp1642
g62
(dp1643
sg71
g1219
sg64
(lp1644
g57
(g78
g59
NtRp1645
(dp1646
g62
(dp1647
g82
g83
ssg71
g1641
sg64
(lp1648
S'http_user_agent'
p1649
asbag57
(g78
g59
NtRp1650
(dp1651
g62
(dp1652
g89
g90
ssg71
g1641
sg64
(lp1653
S':'
asbag57
(g78
g59
NtRp1654
(dp1655
g62
(dp1656
sg71
g1641
sg64
(lp1657
g57
(g58
g59
NtRp1658
(dp1659
g62
(dp1660
g70
I4
ssg71
g1654
sg64
(lp1661
S'Mozilla/5.0 (X11; Ubuntu; Linux i686; rv:16.0) Gecko/20100101 Firefox/16.0'
p1662
asbasbasbag57
(g73
g59
NtRp1663
(dp1664
g62
(dp1665
sg71
g1219
sg64
(lp1666
g57
(g78
g59
NtRp1667
(dp1668
g62
(dp1669
g82
g83
ssg71
g1663
sg64
(lp1670
S'is_jython'
p1671
asbag57
(g78
g59
NtRp1672
(dp1673
g62
(dp1674
g89
g90
ssg71
g1663
sg64
(lp1675
S':'
asbag57
(g78
g59
NtRp1676
(dp1677
g62
(dp1678
sg71
g1663
sg64
(lp1679
g57
(g58
g59
NtRp1680
(dp1681
g62
(dp1682
g70
I4
ssg71
g1676
sg64
(lp1683
g100
asbasbasbag57
(g73
g59
NtRp1684
(dp1685
g62
(dp1686
sg71
g1219
sg64
(lp1687
g57
(g78
g59
NtRp1688
(dp1689
g62
(dp1690
g82
g83
ssg71
g1684
sg64
(lp1691
S'is_pypy'
p1692
asbag57
(g78
g59
NtRp1693
(dp1694
g62
(dp1695
g89
g90
ssg71
g1684
sg64
(lp1696
S':'
asbag57
(g78
g59
NtRp1697
(dp1698
g62
(dp1699
sg71
g1684
sg64
(lp1700
g57
(g58
g59
NtRp1701
(dp1702
g62
(dp1703
g70
I4
ssg71
g1697
sg64
(lp1704
g100
asbasbasbag57
(g73
g59
NtRp1705
(dp1706
g62
(dp1707
sg71
g1219
sg64
(lp1708
g57
(g78
g59
NtRp1709
(dp1710
g62
(dp1711
g82
g83
ssg71
g1705
sg64
(lp1712
S'local_hosts'
p1713
asbag57
(g78
g59
NtRp1714
(dp1715
g62
(dp1716
g89
g90
ssg71
g1705
sg64
(lp1717
S':'
asbag57
(g78
g59
NtRp1718
(dp1719
g62
(dp1720
sg71
g1705
sg64
(lp1721
g57
(g58
g59
NtRp1722
(dp1723
g62
(dp1724
g70
I4
ssg71
g1718
sg64
(lp1725
g57
(g66
g59
NtRp1726
(dp1727
g62
(dp1728
g70
I3
ssg71
Nsg64
(lp1729
g57
(g73
g59
NtRp1730
(dp1731
g62
(dp1732
sg71
g1726
sg64
(lp1733
g57
(g78
g59
NtRp1734
(dp1735
g62
(dp1736
sg71
g1730
sg64
(lp1737
g57
(g58
g59
NtRp1738
(dp1739
g62
(dp1740
g70
I3
ssg71
g1734
sg64
(lp1741
S'gaurav-Compaq-Presario-C700-Notebook-PC'
p1742
asbasbasbag57
(g73
g59
NtRp1743
(dp1744
g62
(dp1745
sg71
g1726
sg64
(lp1746
g57
(g78
g59
NtRp1747
(dp1748
g62
(dp1749
sg71
g1743
sg64
(lp1750
g57
(g58
g59
NtRp1751
(dp1752
g62
(dp1753
g70
I3
ssg71
g1747
sg64
(lp1754
S'::1'
p1755
asbasbasbag57
(g73
g59
NtRp1756
(dp1757
g62
(dp1758
sg71
g1726
sg64
(lp1759
g57
(g78
g59
NtRp1760
(dp1761
g62
(dp1762
sg71
g1756
sg64
(lp1763
g57
(g58
g59
NtRp1764
(dp1765
g62
(dp1766
g70
I3
ssg71
g1760
sg64
(lp1767
S'127.0.1.1'
p1768
asbasbasbag57
(g73
g59
NtRp1769
(dp1770
g62
(dp1771
sg71
g1726
sg64
(lp1772
g57
(g78
g59
NtRp1773
(dp1774
g62
(dp1775
sg71
g1769
sg64
(lp1776
g57
(g58
g59
NtRp1777
(dp1778
g62
(dp1779
g70
I3
ssg71
g1773
sg64
(lp1780
S'::ffff:127.0.0.1'
p1781
asbasbasbag57
(g73
g59
NtRp1782
(dp1783
g62
(dp1784
sg71
g1726
sg64
(lp1785
g57
(g78
g59
NtRp1786
(dp1787
g62
(dp1788
sg71
g1782
sg64
(lp1789
g57
(g58
g59
NtRp1790
(dp1791
g62
(dp1792
g70
I3
ssg71
g1786
sg64
(lp1793
S'127.0.0.1'
p1794
asbasbasbasbasbasbasbag57
(g73
g59
NtRp1795
(dp1796
g62
(dp1797
sg71
g1219
sg64
(lp1798
g57
(g78
g59
NtRp1799
(dp1800
g62
(dp1801
g82
g83
ssg71
g1795
sg64
(lp1802
S'path_info'
p1803
asbag57
(g78
g59
NtRp1804
(dp1805
g62
(dp1806
g89
g90
ssg71
g1795
sg64
(lp1807
S':'
asbag57
(g78
g59
NtRp1808
(dp1809
g62
(dp1810
sg71
g1795
sg64
(lp1811
g57
(g58
g59
NtRp1812
(dp1813
g62
(dp1814
g70
I4
ssg71
g1808
sg64
(lp1815
S'/MUSIC/default/ans'
p1816
asbasbasbag57
(g73
g59
NtRp1817
(dp1818
g62
(dp1819
sg71
g1219
sg64
(lp1820
g57
(g78
g59
NtRp1821
(dp1822
g62
(dp1823
g82
g83
ssg71
g1817
sg64
(lp1824
S'query_string'
p1825
asbag57
(g78
g59
NtRp1826
(dp1827
g62
(dp1828
g89
g90
ssg71
g1817
sg64
(lp1829
S':'
asbag57
(g78
g59
NtRp1830
(dp1831
g62
(dp1832
sg71
g1817
sg64
(lp1833
g57
(g58
g59
NtRp1834
(dp1835
g62
(dp1836
g70
I4
ssg71
g1830
sg64
(lp1837
S''
asbasbasbag57
(g73
g59
NtRp1838
(dp1839
g62
(dp1840
sg71
g1219
sg64
(lp1841
g57
(g78
g59
NtRp1842
(dp1843
g62
(dp1844
g82
g83
ssg71
g1838
sg64
(lp1845
S'remote_addr'
p1846
asbag57
(g78
g59
NtRp1847
(dp1848
g62
(dp1849
g89
g90
ssg71
g1838
sg64
(lp1850
S':'
asbag57
(g78
g59
NtRp1851
(dp1852
g62
(dp1853
sg71
g1838
sg64
(lp1854
g57
(g58
g59
NtRp1855
(dp1856
g62
(dp1857
g70
I4
ssg71
g1851
sg64
(lp1858
g212
asbasbasbag57
(g73
g59
NtRp1859
(dp1860
g62
(dp1861
sg71
g1219
sg64
(lp1862
g57
(g78
g59
NtRp1863
(dp1864
g62
(dp1865
g82
g83
ssg71
g1859
sg64
(lp1866
S'remote_port'
p1867
asbag57
(g78
g59
NtRp1868
(dp1869
g62
(dp1870
g89
g90
ssg71
g1859
sg64
(lp1871
S':'
asbag57
(g78
g59
NtRp1872
(dp1873
g62
(dp1874
sg71
g1859
sg64
(lp1875
g57
(g58
g59
NtRp1876
(dp1877
g62
(dp1878
g70
I4
ssg71
g1872
sg64
(lp1879
S'44425'
p1880
asbasbasbag57
(g73
g59
NtRp1881
(dp1882
g62
(dp1883
sg71
g1219
sg64
(lp1884
g57
(g78
g59
NtRp1885
(dp1886
g62
(dp1887
g82
g83
ssg71
g1881
sg64
(lp1888
S'request_method'
p1889
asbag57
(g78
g59
NtRp1890
(dp1891
g62
(dp1892
g89
g90
ssg71
g1881
sg64
(lp1893
S':'
asbag57
(g78
g59
NtRp1894
(dp1895
g62
(dp1896
sg71
g1881
sg64
(lp1897
g57
(g58
g59
NtRp1898
(dp1899
g62
(dp1900
g70
I4
ssg71
g1894
sg64
(lp1901
S'POST'
p1902
asbasbasbag57
(g73
g59
NtRp1903
(dp1904
g62
(dp1905
sg71
g1219
sg64
(lp1906
g57
(g78
g59
NtRp1907
(dp1908
g62
(dp1909
g82
g83
ssg71
g1903
sg64
(lp1910
S'request_uri'
p1911
asbag57
(g78
g59
NtRp1912
(dp1913
g62
(dp1914
g89
g90
ssg71
g1903
sg64
(lp1915
S':'
asbag57
(g78
g59
NtRp1916
(dp1917
g62
(dp1918
sg71
g1903
sg64
(lp1919
g57
(g58
g59
NtRp1920
(dp1921
g62
(dp1922
g70
I4
ssg71
g1916
sg64
(lp1923
g1816
asbasbasbag57
(g73
g59
NtRp1924
(dp1925
g62
(dp1926
sg71
g1219
sg64
(lp1927
g57
(g78
g59
NtRp1928
(dp1929
g62
(dp1930
g82
g83
ssg71
g1924
sg64
(lp1931
S'script_name'
p1932
asbag57
(g78
g59
NtRp1933
(dp1934
g62
(dp1935
g89
g90
ssg71
g1924
sg64
(lp1936
S':'
asbag57
(g78
g59
NtRp1937
(dp1938
g62
(dp1939
sg71
g1924
sg64
(lp1940
g57
(g58
g59
NtRp1941
(dp1942
g62
(dp1943
g70
I4
ssg71
g1937
sg64
(lp1944
S''
asbasbasbag57
(g73
g59
NtRp1945
(dp1946
g62
(dp1947
sg71
g1219
sg64
(lp1948
g57
(g78
g59
NtRp1949
(dp1950
g62
(dp1951
g82
g83
ssg71
g1945
sg64
(lp1952
S'server_name'
p1953
asbag57
(g78
g59
NtRp1954
(dp1955
g62
(dp1956
g89
g90
ssg71
g1945
sg64
(lp1957
S':'
asbag57
(g78
g59
NtRp1958
(dp1959
g62
(dp1960
sg71
g1945
sg64
(lp1961
g57
(g58
g59
NtRp1962
(dp1963
g62
(dp1964
g70
I4
ssg71
g1958
sg64
(lp1965
S'gaurav-Compaq-Presario-C700-Notebook-PC'
p1966
asbasbasbag57
(g73
g59
NtRp1967
(dp1968
g62
(dp1969
sg71
g1219
sg64
(lp1970
g57
(g78
g59
NtRp1971
(dp1972
g62
(dp1973
g82
g83
ssg71
g1967
sg64
(lp1974
S'server_port'
p1975
asbag57
(g78
g59
NtRp1976
(dp1977
g62
(dp1978
g89
g90
ssg71
g1967
sg64
(lp1979
S':'
asbag57
(g78
g59
NtRp1980
(dp1981
g62
(dp1982
sg71
g1967
sg64
(lp1983
g57
(g58
g59
NtRp1984
(dp1985
g62
(dp1986
g70
I4
ssg71
g1980
sg64
(lp1987
S'8000'
p1988
asbasbasbag57
(g73
g59
NtRp1989
(dp1990
g62
(dp1991
sg71
g1219
sg64
(lp1992
g57
(g78
g59
NtRp1993
(dp1994
g62
(dp1995
g82
g83
ssg71
g1989
sg64
(lp1996
S'server_protocol'
p1997
asbag57
(g78
g59
NtRp1998
(dp1999
g62
(dp2000
g89
g90
ssg71
g1989
sg64
(lp2001
S':'
asbag57
(g78
g59
NtRp2002
(dp2003
g62
(dp2004
sg71
g1989
sg64
(lp2005
g57
(g58
g59
NtRp2006
(dp2007
g62
(dp2008
g70
I4
ssg71
g2002
sg64
(lp2009
S'HTTP/1.1'
p2010
asbasbasbag57
(g73
g59
NtRp2011
(dp2012
g62
(dp2013
sg71
g1219
sg64
(lp2014
g57
(g78
g59
NtRp2015
(dp2016
g62
(dp2017
g82
g83
ssg71
g2011
sg64
(lp2018
S'server_software'
p2019
asbag57
(g78
g59
NtRp2020
(dp2021
g62
(dp2022
g89
g90
ssg71
g2011
sg64
(lp2023
S':'
asbag57
(g78
g59
NtRp2024
(dp2025
g62
(dp2026
sg71
g2011
sg64
(lp2027
g57
(g58
g59
NtRp2028
(dp2029
g62
(dp2030
g70
I4
ssg71
g2024
sg64
(lp2031
S'Rocket 1.2.6'
p2032
asbasbasbag57
(g73
g59
NtRp2033
(dp2034
g62
(dp2035
sg71
g1219
sg64
(lp2036
g57
(g78
g59
NtRp2037
(dp2038
g62
(dp2039
g82
g83
ssg71
g2033
sg64
(lp2040
S'web2py_path'
p2041
asbag57
(g78
g59
NtRp2042
(dp2043
g62
(dp2044
g89
g90
ssg71
g2033
sg64
(lp2045
S':'
asbag57
(g78
g59
NtRp2046
(dp2047
g62
(dp2048
sg71
g2033
sg64
(lp2049
g57
(g58
g59
NtRp2050
(dp2051
g62
(dp2052
g70
I4
ssg71
g2046
sg64
(lp2053
g1266
asbasbasbag57
(g73
g59
NtRp2054
(dp2055
g62
(dp2056
sg71
g1219
sg64
(lp2057
g57
(g78
g59
NtRp2058
(dp2059
g62
(dp2060
g82
g83
ssg71
g2054
sg64
(lp2061
S'web2py_version'
p2062
asbag57
(g78
g59
NtRp2063
(dp2064
g62
(dp2065
g89
g90
ssg71
g2054
sg64
(lp2066
S':'
asbag57
(g78
g59
NtRp2067
(dp2068
g62
(dp2069
sg71
g2054
sg64
(lp2070
g57
(g58
g59
NtRp2071
(dp2072
g62
(dp2073
g70
I4
ssg71
g2067
sg64
(lp2074
g57
(g66
g59
NtRp2075
(dp2076
g62
(dp2077
g70
I3
ssg71
Nsg64
(lp2078
g57
(g73
g59
NtRp2079
(dp2080
g62
(dp2081
sg71
g2075
sg64
(lp2082
g57
(g78
g59
NtRp2083
(dp2084
g62
(dp2085
sg71
g2079
sg64
(lp2086
g57
(g58
g59
NtRp2087
(dp2088
g62
(dp2089
g70
I3
ssg71
g2083
sg64
(lp2090
S'2'
asbasbasbag57
(g73
g59
NtRp2091
(dp2092
g62
(dp2093
sg71
g2075
sg64
(lp2094
g57
(g78
g59
NtRp2095
(dp2096
g62
(dp2097
sg71
g2091
sg64
(lp2098
g57
(g58
g59
NtRp2099
(dp2100
g62
(dp2101
g70
I3
ssg71
g2095
sg64
(lp2102
S'3'
asbasbasbag57
(g73
g59
NtRp2103
(dp2104
g62
(dp2105
sg71
g2075
sg64
(lp2106
g57
(g78
g59
NtRp2107
(dp2108
g62
(dp2109
sg71
g2103
sg64
(lp2110
g57
(g58
g59
NtRp2111
(dp2112
g62
(dp2113
g70
I3
ssg71
g2107
sg64
(lp2114
S'2'
asbasbasbag57
(g73
g59
NtRp2115
(dp2116
g62
(dp2117
sg71
g2075
sg64
(lp2118
g57
(g78
g59
NtRp2119
(dp2120
g62
(dp2121
sg71
g2115
sg64
(lp2122
g57
(g58
g59
NtRp2123
(dp2124
g62
(dp2125
g70
I3
ssg71
g2119
sg64
(lp2126
S'datetime.datetime(2012, 12, 17, 15, 3, 30)'
p2127
asbasbasbag57
(g73
g59
NtRp2128
(dp2129
g62
(dp2130
sg71
g2075
sg64
(lp2131
g57
(g78
g59
NtRp2132
(dp2133
g62
(dp2134
sg71
g2128
sg64
(lp2135
g57
(g58
g59
NtRp2136
(dp2137
g62
(dp2138
g70
I3
ssg71
g2132
sg64
(lp2139
S'stable'
p2140
asbasbasbasbasbasbasbag57
(g73
g59
NtRp2141
(dp2142
g62
(dp2143
sg71
g1219
sg64
(lp2144
g57
(g78
g59
NtRp2145
(dp2146
g62
(dp2147
g82
g83
ssg71
g2141
sg64
(lp2148
S'wsgi_errors'
p2149
asbag57
(g78
g59
NtRp2150
(dp2151
g62
(dp2152
g89
g90
ssg71
g2141
sg64
(lp2153
S':'
asbag57
(g78
g59
NtRp2154
(dp2155
g62
(dp2156
sg71
g2141
sg64
(lp2157
g57
(g58
g59
NtRp2158
(dp2159
g62
(dp2160
g70
I4
ssg71
g2154
sg64
(lp2161
S"<open file '<stderr>', mode 'w' at 0xb74d60d0>"
p2162
asbasbasbag57
(g73
g59
NtRp2163
(dp2164
g62
(dp2165
sg71
g1219
sg64
(lp2166
g57
(g78
g59
NtRp2167
(dp2168
g62
(dp2169
g82
g83
ssg71
g2163
sg64
(lp2170
S'wsgi_file_wrapper'
p2171
asbag57
(g78
g59
NtRp2172
(dp2173
g62
(dp2174
g89
g90
ssg71
g2163
sg64
(lp2175
S':'
asbag57
(g78
g59
NtRp2176
(dp2177
g62
(dp2178
sg71
g2163
sg64
(lp2179
g57
(g58
g59
NtRp2180
(dp2181
g62
(dp2182
g70
I4
ssg71
g2176
sg64
(lp2183
S'<class wsgiref.util.FileWrapper at 0x8ec0ecc>'
p2184
asbasbasbag57
(g73
g59
NtRp2185
(dp2186
g62
(dp2187
sg71
g1219
sg64
(lp2188
g57
(g78
g59
NtRp2189
(dp2190
g62
(dp2191
g82
g83
ssg71
g2185
sg64
(lp2192
S'wsgi_input'
p2193
asbag57
(g78
g59
NtRp2194
(dp2195
g62
(dp2196
g89
g90
ssg71
g2185
sg64
(lp2197
S':'
asbag57
(g78
g59
NtRp2198
(dp2199
g62
(dp2200
sg71
g2185
sg64
(lp2201
g57
(g58
g59
NtRp2202
(dp2203
g62
(dp2204
g70
I4
ssg71
g2198
sg64
(lp2205
S'<socket._fileobject object at 0xae8affac>'
p2206
asbasbasbag57
(g73
g59
NtRp2207
(dp2208
g62
(dp2209
sg71
g1219
sg64
(lp2210
g57
(g78
g59
NtRp2211
(dp2212
g62
(dp2213
g82
g83
ssg71
g2207
sg64
(lp2214
S'wsgi_multiprocess'
p2215
asbag57
(g78
g59
NtRp2216
(dp2217
g62
(dp2218
g89
g90
ssg71
g2207
sg64
(lp2219
S':'
asbag57
(g78
g59
NtRp2220
(dp2221
g62
(dp2222
sg71
g2207
sg64
(lp2223
g57
(g58
g59
NtRp2224
(dp2225
g62
(dp2226
g70
I4
ssg71
g2220
sg64
(lp2227
g100
asbasbasbag57
(g73
g59
NtRp2228
(dp2229
g62
(dp2230
sg71
g1219
sg64
(lp2231
g57
(g78
g59
NtRp2232
(dp2233
g62
(dp2234
g82
g83
ssg71
g2228
sg64
(lp2235
S'wsgi_multithread'
p2236
asbag57
(g78
g59
NtRp2237
(dp2238
g62
(dp2239
g89
g90
ssg71
g2228
sg64
(lp2240
S':'
asbag57
(g78
g59
NtRp2241
(dp2242
g62
(dp2243
sg71
g2228
sg64
(lp2244
g57
(g58
g59
NtRp2245
(dp2246
g62
(dp2247
g70
I4
ssg71
g2241
sg64
(lp2248
S'True'
p2249
asbasbasbag57
(g73
g59
NtRp2250
(dp2251
g62
(dp2252
sg71
g1219
sg64
(lp2253
g57
(g78
g59
NtRp2254
(dp2255
g62
(dp2256
g82
g83
ssg71
g2250
sg64
(lp2257
S'wsgi_run_once'
p2258
asbag57
(g78
g59
NtRp2259
(dp2260
g62
(dp2261
g89
g90
ssg71
g2250
sg64
(lp2262
S':'
asbag57
(g78
g59
NtRp2263
(dp2264
g62
(dp2265
sg71
g2250
sg64
(lp2266
g57
(g58
g59
NtRp2267
(dp2268
g62
(dp2269
g70
I4
ssg71
g2263
sg64
(lp2270
g100
asbasbasbag57
(g73
g59
NtRp2271
(dp2272
g62
(dp2273
sg71
g1219
sg64
(lp2274
g57
(g78
g59
NtRp2275
(dp2276
g62
(dp2277
g82
g83
ssg71
g2271
sg64
(lp2278
S'wsgi_url_scheme'
p2279
asbag57
(g78
g59
NtRp2280
(dp2281
g62
(dp2282
g89
g90
ssg71
g2271
sg64
(lp2283
S':'
asbag57
(g78
g59
NtRp2284
(dp2285
g62
(dp2286
sg71
g2271
sg64
(lp2287
g57
(g58
g59
NtRp2288
(dp2289
g62
(dp2290
g70
I4
ssg71
g2284
sg64
(lp2291
S'http'
p2292
asbasbasbag57
(g73
g59
NtRp2293
(dp2294
g62
(dp2295
sg71
g1219
sg64
(lp2296
g57
(g78
g59
NtRp2297
(dp2298
g62
(dp2299
g82
g83
ssg71
g2293
sg64
(lp2300
S'wsgi_version'
p2301
asbag57
(g78
g59
NtRp2302
(dp2303
g62
(dp2304
g89
g90
ssg71
g2293
sg64
(lp2305
S':'
asbag57
(g78
g59
NtRp2306
(dp2307
g62
(dp2308
sg71
g2293
sg64
(lp2309
g57
(g58
g59
NtRp2310
(dp2311
g62
(dp2312
g70
I4
ssg71
g2306
sg64
(lp2313
g57
(g66
g59
NtRp2314
(dp2315
g62
(dp2316
g70
I3
ssg71
Nsg64
(lp2317
g57
(g73
g59
NtRp2318
(dp2319
g62
(dp2320
sg71
g2314
sg64
(lp2321
g57
(g78
g59
NtRp2322
(dp2323
g62
(dp2324
sg71
g2318
sg64
(lp2325
g57
(g58
g59
NtRp2326
(dp2327
g62
(dp2328
g70
I3
ssg71
g2322
sg64
(lp2329
S'1'
asbasbasbag57
(g73
g59
NtRp2330
(dp2331
g62
(dp2332
sg71
g2314
sg64
(lp2333
g57
(g78
g59
NtRp2334
(dp2335
g62
(dp2336
sg71
g2330
sg64
(lp2337
g57
(g58
g59
NtRp2338
(dp2339
g62
(dp2340
g70
I3
ssg71
g2334
sg64
(lp2341
S'0'
asbasbasbasbasbasbasbasbasbasbasbag57
(g73
g59
NtRp2342
(dp2343
g62
(dp2344
sg71
g67
sg64
(lp2345
g57
(g78
g59
NtRp2346
(dp2347
g62
(dp2348
g82
g83
ssg71
g2342
sg64
(lp2349
S'extension'
p2350
asbag57
(g78
g59
NtRp2351
(dp2352
g62
(dp2353
g89
g90
ssg71
g2342
sg64
(lp2354
S':'
asbag57
(g78
g59
NtRp2355
(dp2356
g62
(dp2357
sg71
g2342
sg64
(lp2358
g57
(g58
g59
NtRp2359
(dp2360
g62
(dp2361
g70
I5
ssg71
g2355
sg64
(lp2362
S'html'
p2363
asbasbasbag57
(g73
g59
NtRp2364
(dp2365
g62
(dp2366
sg71
g67
sg64
(lp2367
g57
(g78
g59
NtRp2368
(dp2369
g62
(dp2370
g82
g83
ssg71
g2364
sg64
(lp2371
S'folder'
p2372
asbag57
(g78
g59
NtRp2373
(dp2374
g62
(dp2375
g89
g90
ssg71
g2364
sg64
(lp2376
S':'
asbag57
(g78
g59
NtRp2377
(dp2378
g62
(dp2379
sg71
g2364
sg64
(lp2380
g57
(g58
g59
NtRp2381
(dp2382
g62
(dp2383
g70
I5
ssg71
g2377
sg64
(lp2384
S'/home/gaurav/classwork/WEB_PROGRAMMING/web2py/applications/MUSIC/'
p2385
asbasbasbag57
(g73
g59
NtRp2386
(dp2387
g62
(dp2388
sg71
g67
sg64
(lp2389
g57
(g78
g59
NtRp2390
(dp2391
g62
(dp2392
g82
g83
ssg71
g2386
sg64
(lp2393
S'function'
p2394
asbag57
(g78
g59
NtRp2395
(dp2396
g62
(dp2397
g89
g90
ssg71
g2386
sg64
(lp2398
S':'
asbag57
(g78
g59
NtRp2399
(dp2400
g62
(dp2401
sg71
g2386
sg64
(lp2402
g57
(g58
g59
NtRp2403
(dp2404
g62
(dp2405
g70
I5
ssg71
g2399
sg64
(lp2406
S'ans'
p2407
asbasbasbag57
(g73
g59
NtRp2408
(dp2409
g62
(dp2410
sg71
g67
sg64
(lp2411
g57
(g78
g59
NtRp2412
(dp2413
g62
(dp2414
g82
g83
ssg71
g2408
sg64
(lp2415
S'get_vars'
p2416
asbag57
(g78
g59
NtRp2417
(dp2418
g62
(dp2419
g89
g90
ssg71
g2408
sg64
(lp2420
S':'
asbag57
(g78
g59
NtRp2421
(dp2422
g62
(dp2423
sg71
g2408
sg64
(lp2424
g57
(g58
g59
NtRp2425
(dp2426
g62
(dp2427
g70
I5
ssg71
g2421
sg64
(lp2428
g57
(g66
g59
NtRp2429
(dp2430
g62
(dp2431
g70
I4
ssg71
Nsg64
(lp2432
sbasbasbasbag57
(g73
g59
NtRp2433
(dp2434
g62
(dp2435
sg71
g67
sg64
(lp2436
g57
(g78
g59
NtRp2437
(dp2438
g62
(dp2439
g82
g83
ssg71
g2433
sg64
(lp2440
S'global_settings'
p2441
asbag57
(g78
g59
NtRp2442
(dp2443
g62
(dp2444
g89
g90
ssg71
g2433
sg64
(lp2445
S':'
asbag57
(g78
g59
NtRp2446
(dp2447
g62
(dp2448
sg71
g2433
sg64
(lp2449
g57
(g58
g59
NtRp2450
(dp2451
g62
(dp2452
g70
I5
ssg71
g2446
sg64
(lp2453
g57
(g66
g59
NtRp2454
(dp2455
g62
(dp2456
g70
I4
ssg71
Nsg64
(lp2457
g57
(g73
g59
NtRp2458
(dp2459
g62
(dp2460
sg71
g2454
sg64
(lp2461
g57
(g78
g59
NtRp2462
(dp2463
g62
(dp2464
g82
g83
ssg71
g2458
sg64
(lp2465
g1231
asbag57
(g78
g59
NtRp2466
(dp2467
g62
(dp2468
g89
g90
ssg71
g2458
sg64
(lp2469
S':'
asbag57
(g78
g59
NtRp2470
(dp2471
g62
(dp2472
sg71
g2458
sg64
(lp2473
g57
(g58
g59
NtRp2474
(dp2475
g62
(dp2476
g70
I4
ssg71
g2470
sg64
(lp2477
S"set(['/home/gaurav/classwork/WEB_PROGRAMMING/web2py/applications/MUSIC/', '/home/gaurav/classwork/WEB_PROGRAMMING/web2py/applications/admin/', '/home/gaurav/classwork/WEB_PROGRAMMING/web2py/applications/welcome/'])"
p2478
asbasbasbag57
(g73
g59
NtRp2479
(dp2480
g62
(dp2481
sg71
g2454
sg64
(lp2482
g57
(g78
g59
NtRp2483
(dp2484
g62
(dp2485
g82
g83
ssg71
g2479
sg64
(lp2486
g1253
asbag57
(g78
g59
NtRp2487
(dp2488
g62
(dp2489
g89
g90
ssg71
g2479
sg64
(lp2490
S':'
asbag57
(g78
g59
NtRp2491
(dp2492
g62
(dp2493
sg71
g2479
sg64
(lp2494
g57
(g58
g59
NtRp2495
(dp2496
g62
(dp2497
g70
I4
ssg71
g2491
sg64
(lp2498
g1266
asbasbasbag57
(g73
g59
NtRp2499
(dp2500
g62
(dp2501
sg71
g2454
sg64
(lp2502
g57
(g78
g59
NtRp2503
(dp2504
g62
(dp2505
g82
g83
ssg71
g2499
sg64
(lp2506
g1275
asbag57
(g78
g59
NtRp2507
(dp2508
g62
(dp2509
g89
g90
ssg71
g2499
sg64
(lp2510
S':'
asbag57
(g78
g59
NtRp2511
(dp2512
g62
(dp2513
sg71
g2499
sg64
(lp2514
g57
(g58
g59
NtRp2515
(dp2516
g62
(dp2517
g70
I4
ssg71
g2511
sg64
(lp2518
g57
(g66
g59
NtRp2519
(dp2520
g62
(dp2521
g70
I3
ssg71
Nsg64
(lp2522
sbasbasbasbag57
(g73
g59
NtRp2523
(dp2524
g62
(dp2525
sg71
g2454
sg64
(lp2526
g57
(g78
g59
NtRp2527
(dp2528
g62
(dp2529
g82
g83
ssg71
g2523
sg64
(lp2530
g1300
asbag57
(g78
g59
NtRp2531
(dp2532
g62
(dp2533
g89
g90
ssg71
g2523
sg64
(lp2534
S':'
asbag57
(g78
g59
NtRp2535
(dp2536
g62
(dp2537
sg71
g2523
sg64
(lp2538
g57
(g58
g59
NtRp2539
(dp2540
g62
(dp2541
g70
I4
ssg71
g2535
sg64
(lp2542
S"<Values at 0x8f0e6ec: {'verbose': False, 'ip': '127.0.0.1', 'with_scheduler': False, 'ips': [], 'shutdown_timeout': 5, 'taskbar': False, 'port': 8000, 'maxthreads': None, 'softcron': False, 'server_name': 'gaurav-Compaq-Presario-C700-Notebook-PC', 'bpython': False, 'nogui': False, 'pid_filename': 'httpserver.pid', 'extcron': False, 'runcron': False, 'run_system_tests': False, 'test': None, 'folder': '/home/gaurav/classwork/WEB_PROGRAMMING/web2py', 'config': '', 'import_models': False, 'winservice': '', 'shell': None, 'run': '', 'log_filename': 'httpserver.log', 'debuglevel': 30, 'args': [''], 'socket_timeout': 5, 'ssl_ca_certificate': None, 'scheduler': None, 'profiler_filename': None, 'ssl_private_key': '', 'scheduler_groups': None, 'password': '<ask>', 'request_queue_size': 5, 'ssl_certificate': '', 'cronjob': False, 'numthreads': None, 'quiet': False, 'interfaces': None, 'minthreads': None, 'timeout': 10, 'plain': False, 'nobanner': False}>"
p2543
asbasbasbag57
(g73
g59
NtRp2544
(dp2545
g62
(dp2546
sg71
g2454
sg64
(lp2547
g57
(g78
g59
NtRp2548
(dp2549
g62
(dp2550
g82
g83
ssg71
g2544
sg64
(lp2551
g1366
asbag57
(g78
g59
NtRp2552
(dp2553
g62
(dp2554
g89
g90
ssg71
g2544
sg64
(lp2555
S':'
asbag57
(g78
g59
NtRp2556
(dp2557
g62
(dp2558
sg71
g2544
sg64
(lp2559
g57
(g58
g59
NtRp2560
(dp2561
g62
(dp2562
g70
I4
ssg71
g2556
sg64
(lp2563
S'set([])'
p2564
asbasbasbag57
(g73
g59
NtRp2565
(dp2566
g62
(dp2567
sg71
g2454
sg64
(lp2568
g57
(g78
g59
NtRp2569
(dp2570
g62
(dp2571
g82
g83
ssg71
g2565
sg64
(lp2572
g1388
asbag57
(g78
g59
NtRp2573
(dp2574
g62
(dp2575
g89
g90
ssg71
g2565
sg64
(lp2576
S':'
asbag57
(g78
g59
NtRp2577
(dp2578
g62
(dp2579
sg71
g2565
sg64
(lp2580
g57
(g58
g59
NtRp2581
(dp2582
g62
(dp2583
g70
I4
ssg71
g2577
sg64
(lp2584
g100
asbasbasbag57
(g73
g59
NtRp2585
(dp2586
g62
(dp2587
sg71
g2454
sg64
(lp2588
g57
(g78
g59
NtRp2589
(dp2590
g62
(dp2591
g82
g83
ssg71
g2585
sg64
(lp2592
g1409
asbag57
(g78
g59
NtRp2593
(dp2594
g62
(dp2595
g89
g90
ssg71
g2585
sg64
(lp2596
S':'
asbag57
(g78
g59
NtRp2597
(dp2598
g62
(dp2599
sg71
g2585
sg64
(lp2600
g57
(g58
g59
NtRp2601
(dp2602
g62
(dp2603
g70
I4
ssg71
g2597
sg64
(lp2604
g1422
asbasbasbag57
(g73
g59
NtRp2605
(dp2606
g62
(dp2607
sg71
g2454
sg64
(lp2608
g57
(g78
g59
NtRp2609
(dp2610
g62
(dp2611
g82
g83
ssg71
g2605
sg64
(lp2612
g1671
asbag57
(g78
g59
NtRp2613
(dp2614
g62
(dp2615
g89
g90
ssg71
g2605
sg64
(lp2616
S':'
asbag57
(g78
g59
NtRp2617
(dp2618
g62
(dp2619
sg71
g2605
sg64
(lp2620
g57
(g58
g59
NtRp2621
(dp2622
g62
(dp2623
g70
I4
ssg71
g2617
sg64
(lp2624
g100
asbasbasbag57
(g73
g59
NtRp2625
(dp2626
g62
(dp2627
sg71
g2454
sg64
(lp2628
g57
(g78
g59
NtRp2629
(dp2630
g62
(dp2631
g82
g83
ssg71
g2625
sg64
(lp2632
g1692
asbag57
(g78
g59
NtRp2633
(dp2634
g62
(dp2635
g89
g90
ssg71
g2625
sg64
(lp2636
S':'
asbag57
(g78
g59
NtRp2637
(dp2638
g62
(dp2639
sg71
g2625
sg64
(lp2640
g57
(g58
g59
NtRp2641
(dp2642
g62
(dp2643
g70
I4
ssg71
g2637
sg64
(lp2644
g100
asbasbasbag57
(g73
g59
NtRp2645
(dp2646
g62
(dp2647
sg71
g2454
sg64
(lp2648
g57
(g78
g59
NtRp2649
(dp2650
g62
(dp2651
g82
g83
ssg71
g2645
sg64
(lp2652
g1713
asbag57
(g78
g59
NtRp2653
(dp2654
g62
(dp2655
g89
g90
ssg71
g2645
sg64
(lp2656
S':'
asbag57
(g78
g59
NtRp2657
(dp2658
g62
(dp2659
sg71
g2645
sg64
(lp2660
g57
(g58
g59
NtRp2661
(dp2662
g62
(dp2663
g70
I4
ssg71
g2657
sg64
(lp2664
g57
(g66
g59
NtRp2665
(dp2666
g62
(dp2667
g70
I3
ssg71
Nsg64
(lp2668
g57
(g73
g59
NtRp2669
(dp2670
g62
(dp2671
sg71
g2665
sg64
(lp2672
g57
(g78
g59
NtRp2673
(dp2674
g62
(dp2675
sg71
g2669
sg64
(lp2676
g57
(g58
g59
NtRp2677
(dp2678
g62
(dp2679
g70
I3
ssg71
g2673
sg64
(lp2680
g1742
asbasbasbag57
(g73
g59
NtRp2681
(dp2682
g62
(dp2683
sg71
g2665
sg64
(lp2684
g57
(g78
g59
NtRp2685
(dp2686
g62
(dp2687
sg71
g2681
sg64
(lp2688
g57
(g58
g59
NtRp2689
(dp2690
g62
(dp2691
g70
I3
ssg71
g2685
sg64
(lp2692
g1755
asbasbasbag57
(g73
g59
NtRp2693
(dp2694
g62
(dp2695
sg71
g2665
sg64
(lp2696
g57
(g78
g59
NtRp2697
(dp2698
g62
(dp2699
sg71
g2693
sg64
(lp2700
g57
(g58
g59
NtRp2701
(dp2702
g62
(dp2703
g70
I3
ssg71
g2697
sg64
(lp2704
g1768
asbasbasbag57
(g73
g59
NtRp2705
(dp2706
g62
(dp2707
sg71
g2665
sg64
(lp2708
g57
(g78
g59
NtRp2709
(dp2710
g62
(dp2711
sg71
g2705
sg64
(lp2712
g57
(g58
g59
NtRp2713
(dp2714
g62
(dp2715
g70
I3
ssg71
g2709
sg64
(lp2716
g1781
asbasbasbag57
(g73
g59
NtRp2717
(dp2718
g62
(dp2719
sg71
g2665
sg64
(lp2720
g57
(g78
g59
NtRp2721
(dp2722
g62
(dp2723
sg71
g2717
sg64
(lp2724
g57
(g58
g59
NtRp2725
(dp2726
g62
(dp2727
g70
I3
ssg71
g2721
sg64
(lp2728
g1794
asbasbasbasbasbasbasbag57
(g73
g59
NtRp2729
(dp2730
g62
(dp2731
sg71
g2454
sg64
(lp2732
g57
(g78
g59
NtRp2733
(dp2734
g62
(dp2735
g82
g83
ssg71
g2729
sg64
(lp2736
g2062
asbag57
(g78
g59
NtRp2737
(dp2738
g62
(dp2739
g89
g90
ssg71
g2729
sg64
(lp2740
S':'
asbag57
(g78
g59
NtRp2741
(dp2742
g62
(dp2743
sg71
g2729
sg64
(lp2744
g57
(g58
g59
NtRp2745
(dp2746
g62
(dp2747
g70
I4
ssg71
g2741
sg64
(lp2748
g57
(g66
g59
NtRp2749
(dp2750
g62
(dp2751
g70
I3
ssg71
Nsg64
(lp2752
g57
(g73
g59
NtRp2753
(dp2754
g62
(dp2755
sg71
g2749
sg64
(lp2756
g57
(g78
g59
NtRp2757
(dp2758
g62
(dp2759
sg71
g2753
sg64
(lp2760
g57
(g58
g59
NtRp2761
(dp2762
g62
(dp2763
g70
I3
ssg71
g2757
sg64
(lp2764
S'2'
asbasbasbag57
(g73
g59
NtRp2765
(dp2766
g62
(dp2767
sg71
g2749
sg64
(lp2768
g57
(g78
g59
NtRp2769
(dp2770
g62
(dp2771
sg71
g2765
sg64
(lp2772
g57
(g58
g59
NtRp2773
(dp2774
g62
(dp2775
g70
I3
ssg71
g2769
sg64
(lp2776
S'3'
asbasbasbag57
(g73
g59
NtRp2777
(dp2778
g62
(dp2779
sg71
g2749
sg64
(lp2780
g57
(g78
g59
NtRp2781
(dp2782
g62
(dp2783
sg71
g2777
sg64
(lp2784
g57
(g58
g59
NtRp2785
(dp2786
g62
(dp2787
g70
I3
ssg71
g2781
sg64
(lp2788
S'2'
asbasbasbag57
(g73
g59
NtRp2789
(dp2790
g62
(dp2791
sg71
g2749
sg64
(lp2792
g57
(g78
g59
NtRp2793
(dp2794
g62
(dp2795
sg71
g2789
sg64
(lp2796
g57
(g58
g59
NtRp2797
(dp2798
g62
(dp2799
g70
I3
ssg71
g2793
sg64
(lp2800
S'datetime.datetime(2012, 12, 17, 15, 3, 30)'
p2801
asbasbasbag57
(g73
g59
NtRp2802
(dp2803
g62
(dp2804
sg71
g2749
sg64
(lp2805
g57
(g78
g59
NtRp2806
(dp2807
g62
(dp2808
sg71
g2802
sg64
(lp2809
g57
(g58
g59
NtRp2810
(dp2811
g62
(dp2812
g70
I3
ssg71
g2806
sg64
(lp2813
g2140
asbasbasbasbasbasbasbasbasbasbasbag57
(g73
g59
NtRp2814
(dp2815
g62
(dp2816
sg71
g67
sg64
(lp2817
g57
(g78
g59
NtRp2818
(dp2819
g62
(dp2820
g82
g83
ssg71
g2814
sg64
(lp2821
S'is_https'
p2822
asbag57
(g78
g59
NtRp2823
(dp2824
g62
(dp2825
g89
g90
ssg71
g2814
sg64
(lp2826
S':'
asbag57
(g78
g59
NtRp2827
(dp2828
g62
(dp2829
sg71
g2814
sg64
(lp2830
g57
(g58
g59
NtRp2831
(dp2832
g62
(dp2833
g70
I5
ssg71
g2827
sg64
(lp2834
g100
asbasbasbag57
(g73
g59
NtRp2835
(dp2836
g62
(dp2837
sg71
g67
sg64
(lp2838
g57
(g78
g59
NtRp2839
(dp2840
g62
(dp2841
g82
g83
ssg71
g2835
sg64
(lp2842
S'is_local'
p2843
asbag57
(g78
g59
NtRp2844
(dp2845
g62
(dp2846
g89
g90
ssg71
g2835
sg64
(lp2847
S':'
asbag57
(g78
g59
NtRp2848
(dp2849
g62
(dp2850
sg71
g2835
sg64
(lp2851
g57
(g58
g59
NtRp2852
(dp2853
g62
(dp2854
g70
I5
ssg71
g2848
sg64
(lp2855
g2249
asbasbasbag57
(g73
g59
NtRp2856
(dp2857
g62
(dp2858
sg71
g67
sg64
(lp2859
g57
(g78
g59
NtRp2860
(dp2861
g62
(dp2862
g82
g83
ssg71
g2856
sg64
(lp2863
S'is_restful'
p2864
asbag57
(g78
g59
NtRp2865
(dp2866
g62
(dp2867
g89
g90
ssg71
g2856
sg64
(lp2868
S':'
asbag57
(g78
g59
NtRp2869
(dp2870
g62
(dp2871
sg71
g2856
sg64
(lp2872
g57
(g58
g59
NtRp2873
(dp2874
g62
(dp2875
g70
I5
ssg71
g2869
sg64
(lp2876
g100
asbasbasbag57
(g73
g59
NtRp2877
(dp2878
g62
(dp2879
sg71
g67
sg64
(lp2880
g57
(g78
g59
NtRp2881
(dp2882
g62
(dp2883
g82
g83
ssg71
g2877
sg64
(lp2884
S'now'
p2885
asbag57
(g78
g59
NtRp2886
(dp2887
g62
(dp2888
g89
g90
ssg71
g2877
sg64
(lp2889
S':'
asbag57
(g78
g59
NtRp2890
(dp2891
g62
(dp2892
sg71
g2877
sg64
(lp2893
g57
(g58
g59
NtRp2894
(dp2895
g62
(dp2896
g70
I5
ssg71
g2890
sg64
(lp2897
S'datetime.datetime(2013, 3, 12, 20, 48, 17, 531086)'
p2898
asbasbasbag57
(g73
g59
NtRp2899
(dp2900
g62
(dp2901
sg71
g67
sg64
(lp2902
g57
(g78
g59
NtRp2903
(dp2904
g62
(dp2905
g82
g83
ssg71
g2899
sg64
(lp2906
S'post_vars'
p2907
asbag57
(g78
g59
NtRp2908
(dp2909
g62
(dp2910
g89
g90
ssg71
g2899
sg64
(lp2911
S':'
asbag57
(g78
g59
NtRp2912
(dp2913
g62
(dp2914
sg71
g2899
sg64
(lp2915
g57
(g58
g59
NtRp2916
(dp2917
g62
(dp2918
g70
I5
ssg71
g2912
sg64
(lp2919
g57
(g66
g59
NtRp2920
(dp2921
g62
(dp2922
g70
I4
ssg71
Nsg64
(lp2923
g57
(g73
g59
NtRp2924
(dp2925
g62
(dp2926
sg71
g2920
sg64
(lp2927
g57
(g78
g59
NtRp2928
(dp2929
g62
(dp2930
g82
g83
ssg71
g2924
sg64
(lp2931
S'SUBMIT'
p2932
asbag57
(g78
g59
NtRp2933
(dp2934
g62
(dp2935
g89
g90
ssg71
g2924
sg64
(lp2936
S':'
asbag57
(g78
g59
NtRp2937
(dp2938
g62
(dp2939
sg71
g2924
sg64
(lp2940
g57
(g58
g59
NtRp2941
(dp2942
g62
(dp2943
g70
I4
ssg71
g2937
sg64
(lp2944
S'Submit Query'
p2945
asbasbasbag57
(g73
g59
NtRp2946
(dp2947
g62
(dp2948
sg71
g2920
sg64
(lp2949
g57
(g78
g59
NtRp2950
(dp2951
g62
(dp2952
g82
g83
ssg71
g2946
sg64
(lp2953
S'name'
p2954
asbag57
(g78
g59
NtRp2955
(dp2956
g62
(dp2957
g89
g90
ssg71
g2946
sg64
(lp2958
S':'
asbag57
(g78
g59
NtRp2959
(dp2960
g62
(dp2961
sg71
g2946
sg64
(lp2962
g57
(g58
g59
NtRp2963
(dp2964
g62
(dp2965
g70
I4
ssg71
g2959
sg64
(lp2966
S'23'
p2967
asbasbasbasbasbasbasbag57
(g73
g59
NtRp2968
(dp2969
g62
(dp2970
sg71
g67
sg64
(lp2971
g57
(g78
g59
NtRp2972
(dp2973
g62
(dp2974
g82
g83
ssg71
g2968
sg64
(lp2975
S'raw_args'
p2976
asbag57
(g78
g59
NtRp2977
(dp2978
g62
(dp2979
g89
g90
ssg71
g2968
sg64
(lp2980
S':'
asbag57
(g78
g59
NtRp2981
(dp2982
g62
(dp2983
sg71
g2968
sg64
(lp2984
g57
(g58
g59
NtRp2985
(dp2986
g62
(dp2987
g70
I5
ssg71
g2981
sg64
(lp2988
S''
asbasbasbag57
(g73
g59
NtRp2989
(dp2990
g62
(dp2991
sg71
g67
sg64
(lp2992
g57
(g78
g59
NtRp2993
(dp2994
g62
(dp2995
g82
g83
ssg71
g2989
sg64
(lp2996
S'raw_extension'
p2997
asbag57
(g78
g59
NtRp2998
(dp2999
g62
(dp3000
g89
g90
ssg71
g2989
sg64
(lp3001
S':'
asbag57
(g78
g59
NtRp3002
(dp3003
g62
(dp3004
sg71
g2989
sg64
(lp3005
g57
(g58
g59
NtRp3006
(dp3007
g62
(dp3008
g70
I5
ssg71
g3002
sg64
(lp3009
S'None'
p3010
asbasbasbag57
(g73
g59
NtRp3011
(dp3012
g62
(dp3013
sg71
g67
sg64
(lp3014
g57
(g78
g59
NtRp3015
(dp3016
g62
(dp3017
g82
g83
ssg71
g3011
sg64
(lp3018
S'url'
p3019
asbag57
(g78
g59
NtRp3020
(dp3021
g62
(dp3022
g89
g90
ssg71
g3011
sg64
(lp3023
S':'
asbag57
(g78
g59
NtRp3024
(dp3025
g62
(dp3026
sg71
g3011
sg64
(lp3027
g57
(g58
g59
NtRp3028
(dp3029
g62
(dp3030
g70
I5
ssg71
g3024
sg64
(lp3031
g1816
asbasbasbag57
(g73
g59
NtRp3032
(dp3033
g62
(dp3034
sg71
g67
sg64
(lp3035
g57
(g78
g59
NtRp3036
(dp3037
g62
(dp3038
g82
g83
ssg71
g3032
sg64
(lp3039
S'utcnow'
p3040
asbag57
(g78
g59
NtRp3041
(dp3042
g62
(dp3043
g89
g90
ssg71
g3032
sg64
(lp3044
S':'
asbag57
(g78
g59
NtRp3045
(dp3046
g62
(dp3047
sg71
g3032
sg64
(lp3048
g57
(g58
g59
NtRp3049
(dp3050
g62
(dp3051
g70
I5
ssg71
g3045
sg64
(lp3052
S'datetime.datetime(2013, 3, 12, 15, 18, 17, 531129)'
p3053
asbasbasbag57
(g73
g59
NtRp3054
(dp3055
g62
(dp3056
sg71
g67
sg64
(lp3057
g57
(g78
g59
NtRp3058
(dp3059
g62
(dp3060
g82
g83
ssg71
g3054
sg64
(lp3061
S'uuid'
p3062
asbag57
(g78
g59
NtRp3063
(dp3064
g62
(dp3065
g89
g90
ssg71
g3054
sg64
(lp3066
S':'
asbag57
(g78
g59
NtRp3067
(dp3068
g62
(dp3069
sg71
g3054
sg64
(lp3070
g57
(g58
g59
NtRp3071
(dp3072
g62
(dp3073
g70
I5
ssg71
g3067
sg64
(lp3074
S'MUSIC/127.0.0.1.2013-03-12.20-48-17.a65ab822-66bd-4078-8ff0-81dc8cfdfb5c'
p3075
asbasbasbag57
(g73
g59
NtRp3076
(dp3077
g62
(dp3078
sg71
g67
sg64
(lp3079
g57
(g78
g59
NtRp3080
(dp3081
g62
(dp3082
g82
g83
ssg71
g3076
sg64
(lp3083
S'vars'
p3084
asbag57
(g78
g59
NtRp3085
(dp3086
g62
(dp3087
g89
g90
ssg71
g3076
sg64
(lp3088
S':'
asbag57
(g78
g59
NtRp3089
(dp3090
g62
(dp3091
sg71
g3076
sg64
(lp3092
g57
(g58
g59
NtRp3093
(dp3094
g62
(dp3095
g70
I5
ssg71
g3089
sg64
(lp3096
g57
(g66
g59
NtRp3097
(dp3098
g62
(dp3099
g70
I4
ssg71
Nsg64
(lp3100
g57
(g73
g59
NtRp3101
(dp3102
g62
(dp3103
sg71
g3097
sg64
(lp3104
g57
(g78
g59
NtRp3105
(dp3106
g62
(dp3107
g82
g83
ssg71
g3101
sg64
(lp3108
g2932
asbag57
(g78
g59
NtRp3109
(dp3110
g62
(dp3111
g89
g90
ssg71
g3101
sg64
(lp3112
S':'
asbag57
(g78
g59
NtRp3113
(dp3114
g62
(dp3115
sg71
g3101
sg64
(lp3116
g57
(g58
g59
NtRp3117
(dp3118
g62
(dp3119
g70
I4
ssg71
g3113
sg64
(lp3120
g2945
asbasbasbag57
(g73
g59
NtRp3121
(dp3122
g62
(dp3123
sg71
g3097
sg64
(lp3124
g57
(g78
g59
NtRp3125
(dp3126
g62
(dp3127
g82
g83
ssg71
g3121
sg64
(lp3128
g2954
asbag57
(g78
g59
NtRp3129
(dp3130
g62
(dp3131
g89
g90
ssg71
g3121
sg64
(lp3132
S':'
asbag57
(g78
g59
NtRp3133
(dp3134
g62
(dp3135
sg71
g3121
sg64
(lp3136
g57
(g58
g59
NtRp3137
(dp3138
g62
(dp3139
g70
I4
ssg71
g3133
sg64
(lp3140
g2967
asbasbasbasbasbasbasbag57
(g73
g59
NtRp3141
(dp3142
g62
(dp3143
sg71
g67
sg64
(lp3144
g57
(g78
g59
NtRp3145
(dp3146
g62
(dp3147
g82
g83
ssg71
g3141
sg64
(lp3148
S'wsgi'
p3149
asbag57
(g78
g59
NtRp3150
(dp3151
g62
(dp3152
g89
g90
ssg71
g3141
sg64
(lp3153
S':'
asbag57
(g78
g59
NtRp3154
(dp3155
g62
(dp3156
sg71
g3141
sg64
(lp3157
g57
(g58
g59
NtRp3158
(dp3159
g62
(dp3160
g70
I5
ssg71
g3154
sg64
(lp3161
g57
(g66
g59
NtRp3162
(dp3163
g62
(dp3164
g70
I4
ssg71
Nsg64
(lp3165
g57
(g73
g59
NtRp3166
(dp3167
g62
(dp3168
sg71
g3162
sg64
(lp3169
g57
(g78
g59
NtRp3170
(dp3171
g62
(dp3172
g82
g83
ssg71
g3166
sg64
(lp3173
S'environ'
p3174
asbag57
(g78
g59
NtRp3175
(dp3176
g62
(dp3177
g89
g90
ssg71
g3166
sg64
(lp3178
S':'
asbag57
(g78
g59
NtRp3179
(dp3180
g62
(dp3181
sg71
g3166
sg64
(lp3182
g57
(g58
g59
NtRp3183
(dp3184
g62
(dp3185
g70
I4
ssg71
g3179
sg64
(lp3186
g57
(g66
g59
NtRp3187
(dp3188
g62
(dp3189
g70
I3
ssg71
Nsg64
(lp3190
g57
(g73
g59
NtRp3191
(dp3192
g62
(dp3193
sg71
g3187
sg64
(lp3194
g57
(g78
g59
NtRp3195
(dp3196
g62
(dp3197
g82
g83
ssg71
g3191
sg64
(lp3198
S'CONTENT_LENGTH'
p3199
asbag57
(g78
g59
NtRp3200
(dp3201
g62
(dp3202
g89
g90
ssg71
g3191
sg64
(lp3203
S':'
asbag57
(g78
g59
NtRp3204
(dp3205
g62
(dp3206
sg71
g3191
sg64
(lp3207
g57
(g58
g59
NtRp3208
(dp3209
g62
(dp3210
g70
I3
ssg71
g3204
sg64
(lp3211
g1335
asbasbasbag57
(g73
g59
NtRp3212
(dp3213
g62
(dp3214
sg71
g3187
sg64
(lp3215
g57
(g78
g59
NtRp3216
(dp3217
g62
(dp3218
g82
g83
ssg71
g3212
sg64
(lp3219
S'CONTENT_TYPE'
p3220
asbag57
(g78
g59
NtRp3221
(dp3222
g62
(dp3223
g89
g90
ssg71
g3212
sg64
(lp3224
S':'
asbag57
(g78
g59
NtRp3225
(dp3226
g62
(dp3227
sg71
g3212
sg64
(lp3228
g57
(g58
g59
NtRp3229
(dp3230
g62
(dp3231
g70
I3
ssg71
g3225
sg64
(lp3232
g1357
asbasbasbag57
(g73
g59
NtRp3233
(dp3234
g62
(dp3235
sg71
g3187
sg64
(lp3236
g57
(g78
g59
NtRp3237
(dp3238
g62
(dp3239
g82
g83
ssg71
g3233
sg64
(lp3240
S'HTTP_ACCEPT'
p3241
asbag57
(g78
g59
NtRp3242
(dp3243
g62
(dp3244
g89
g90
ssg71
g3233
sg64
(lp3245
S':'
asbag57
(g78
g59
NtRp3246
(dp3247
g62
(dp3248
sg71
g3233
sg64
(lp3249
g57
(g58
g59
NtRp3250
(dp3251
g62
(dp3252
g70
I3
ssg71
g3246
sg64
(lp3253
g1444
asbasbasbag57
(g73
g59
NtRp3254
(dp3255
g62
(dp3256
sg71
g3187
sg64
(lp3257
g57
(g78
g59
NtRp3258
(dp3259
g62
(dp3260
g82
g83
ssg71
g3254
sg64
(lp3261
S'HTTP_ACCEPT_ENCODING'
p3262
asbag57
(g78
g59
NtRp3263
(dp3264
g62
(dp3265
g89
g90
ssg71
g3254
sg64
(lp3266
S':'
asbag57
(g78
g59
NtRp3267
(dp3268
g62
(dp3269
sg71
g3254
sg64
(lp3270
g57
(g58
g59
NtRp3271
(dp3272
g62
(dp3273
g70
I3
ssg71
g3267
sg64
(lp3274
g1466
asbasbasbag57
(g73
g59
NtRp3275
(dp3276
g62
(dp3277
sg71
g3187
sg64
(lp3278
g57
(g78
g59
NtRp3279
(dp3280
g62
(dp3281
g82
g83
ssg71
g3275
sg64
(lp3282
S'HTTP_ACCEPT_LANGUAGE'
p3283
asbag57
(g78
g59
NtRp3284
(dp3285
g62
(dp3286
g89
g90
ssg71
g3275
sg64
(lp3287
S':'
asbag57
(g78
g59
NtRp3288
(dp3289
g62
(dp3290
sg71
g3275
sg64
(lp3291
g57
(g58
g59
NtRp3292
(dp3293
g62
(dp3294
g70
I3
ssg71
g3288
sg64
(lp3295
g1488
asbasbasbag57
(g73
g59
NtRp3296
(dp3297
g62
(dp3298
sg71
g3187
sg64
(lp3299
g57
(g78
g59
NtRp3300
(dp3301
g62
(dp3302
g82
g83
ssg71
g3296
sg64
(lp3303
S'HTTP_CACHE_CONTROL'
p3304
asbag57
(g78
g59
NtRp3305
(dp3306
g62
(dp3307
g89
g90
ssg71
g3296
sg64
(lp3308
S':'
asbag57
(g78
g59
NtRp3309
(dp3310
g62
(dp3311
sg71
g3296
sg64
(lp3312
g57
(g58
g59
NtRp3313
(dp3314
g62
(dp3315
g70
I3
ssg71
g3309
sg64
(lp3316
g1510
asbasbasbag57
(g73
g59
NtRp3317
(dp3318
g62
(dp3319
sg71
g3187
sg64
(lp3320
g57
(g78
g59
NtRp3321
(dp3322
g62
(dp3323
g82
g83
ssg71
g3317
sg64
(lp3324
S'HTTP_CONNECTION'
p3325
asbag57
(g78
g59
NtRp3326
(dp3327
g62
(dp3328
g89
g90
ssg71
g3317
sg64
(lp3329
S':'
asbag57
(g78
g59
NtRp3330
(dp3331
g62
(dp3332
sg71
g3317
sg64
(lp3333
g57
(g58
g59
NtRp3334
(dp3335
g62
(dp3336
g70
I3
ssg71
g3330
sg64
(lp3337
g1532
asbasbasbag57
(g73
g59
NtRp3338
(dp3339
g62
(dp3340
sg71
g3187
sg64
(lp3341
g57
(g78
g59
NtRp3342
(dp3343
g62
(dp3344
g82
g83
ssg71
g3338
sg64
(lp3345
S'HTTP_CONTENT_LENGTH'
p3346
asbag57
(g78
g59
NtRp3347
(dp3348
g62
(dp3349
g89
g90
ssg71
g3338
sg64
(lp3350
S':'
asbag57
(g78
g59
NtRp3351
(dp3352
g62
(dp3353
sg71
g3338
sg64
(lp3354
g57
(g58
g59
NtRp3355
(dp3356
g62
(dp3357
g70
I3
ssg71
g3351
sg64
(lp3358
g1335
asbasbasbag57
(g73
g59
NtRp3359
(dp3360
g62
(dp3361
sg71
g3187
sg64
(lp3362
g57
(g78
g59
NtRp3363
(dp3364
g62
(dp3365
g82
g83
ssg71
g3359
sg64
(lp3366
S'HTTP_CONTENT_TYPE'
p3367
asbag57
(g78
g59
NtRp3368
(dp3369
g62
(dp3370
g89
g90
ssg71
g3359
sg64
(lp3371
S':'
asbag57
(g78
g59
NtRp3372
(dp3373
g62
(dp3374
sg71
g3359
sg64
(lp3375
g57
(g58
g59
NtRp3376
(dp3377
g62
(dp3378
g70
I3
ssg71
g3372
sg64
(lp3379
g1357
asbasbasbag57
(g73
g59
NtRp3380
(dp3381
g62
(dp3382
sg71
g3187
sg64
(lp3383
g57
(g78
g59
NtRp3384
(dp3385
g62
(dp3386
g82
g83
ssg71
g3380
sg64
(lp3387
S'HTTP_COOKIE'
p3388
asbag57
(g78
g59
NtRp3389
(dp3390
g62
(dp3391
g89
g90
ssg71
g3380
sg64
(lp3392
S':'
asbag57
(g78
g59
NtRp3393
(dp3394
g62
(dp3395
sg71
g3380
sg64
(lp3396
g57
(g58
g59
NtRp3397
(dp3398
g62
(dp3399
g70
I3
ssg71
g3393
sg64
(lp3400
g1596
asbasbasbag57
(g73
g59
NtRp3401
(dp3402
g62
(dp3403
sg71
g3187
sg64
(lp3404
g57
(g78
g59
NtRp3405
(dp3406
g62
(dp3407
g82
g83
ssg71
g3401
sg64
(lp3408
S'HTTP_HOST'
p3409
asbag57
(g78
g59
NtRp3410
(dp3411
g62
(dp3412
g89
g90
ssg71
g3401
sg64
(lp3413
S':'
asbag57
(g78
g59
NtRp3414
(dp3415
g62
(dp3416
sg71
g3401
sg64
(lp3417
g57
(g58
g59
NtRp3418
(dp3419
g62
(dp3420
g70
I3
ssg71
g3414
sg64
(lp3421
g1618
asbasbasbag57
(g73
g59
NtRp3422
(dp3423
g62
(dp3424
sg71
g3187
sg64
(lp3425
g57
(g78
g59
NtRp3426
(dp3427
g62
(dp3428
g82
g83
ssg71
g3422
sg64
(lp3429
S'HTTP_REFERER'
p3430
asbag57
(g78
g59
NtRp3431
(dp3432
g62
(dp3433
g89
g90
ssg71
g3422
sg64
(lp3434
S':'
asbag57
(g78
g59
NtRp3435
(dp3436
g62
(dp3437
sg71
g3422
sg64
(lp3438
g57
(g58
g59
NtRp3439
(dp3440
g62
(dp3441
g70
I3
ssg71
g3435
sg64
(lp3442
g1640
asbasbasbag57
(g73
g59
NtRp3443
(dp3444
g62
(dp3445
sg71
g3187
sg64
(lp3446
g57
(g78
g59
NtRp3447
(dp3448
g62
(dp3449
g82
g83
ssg71
g3443
sg64
(lp3450
S'HTTP_USER_AGENT'
p3451
asbag57
(g78
g59
NtRp3452
(dp3453
g62
(dp3454
g89
g90
ssg71
g3443
sg64
(lp3455
S':'
asbag57
(g78
g59
NtRp3456
(dp3457
g62
(dp3458
sg71
g3443
sg64
(lp3459
g57
(g58
g59
NtRp3460
(dp3461
g62
(dp3462
g70
I3
ssg71
g3456
sg64
(lp3463
g1662
asbasbasbag57
(g73
g59
NtRp3464
(dp3465
g62
(dp3466
sg71
g3187
sg64
(lp3467
g57
(g78
g59
NtRp3468
(dp3469
g62
(dp3470
g82
g83
ssg71
g3464
sg64
(lp3471
S'PATH_INFO'
p3472
asbag57
(g78
g59
NtRp3473
(dp3474
g62
(dp3475
g89
g90
ssg71
g3464
sg64
(lp3476
S':'
asbag57
(g78
g59
NtRp3477
(dp3478
g62
(dp3479
sg71
g3464
sg64
(lp3480
g57
(g58
g59
NtRp3481
(dp3482
g62
(dp3483
g70
I3
ssg71
g3477
sg64
(lp3484
g1816
asbasbasbag57
(g73
g59
NtRp3485
(dp3486
g62
(dp3487
sg71
g3187
sg64
(lp3488
g57
(g78
g59
NtRp3489
(dp3490
g62
(dp3491
g82
g83
ssg71
g3485
sg64
(lp3492
S'QUERY_STRING'
p3493
asbag57
(g78
g59
NtRp3494
(dp3495
g62
(dp3496
g89
g90
ssg71
g3485
sg64
(lp3497
S':'
asbag57
(g78
g59
NtRp3498
(dp3499
g62
(dp3500
sg71
g3485
sg64
(lp3501
g57
(g58
g59
NtRp3502
(dp3503
g62
(dp3504
g70
I3
ssg71
g3498
sg64
(lp3505
S''
asbasbasbag57
(g73
g59
NtRp3506
(dp3507
g62
(dp3508
sg71
g3187
sg64
(lp3509
g57
(g78
g59
NtRp3510
(dp3511
g62
(dp3512
g82
g83
ssg71
g3506
sg64
(lp3513
S'REMOTE_ADDR'
p3514
asbag57
(g78
g59
NtRp3515
(dp3516
g62
(dp3517
g89
g90
ssg71
g3506
sg64
(lp3518
S':'
asbag57
(g78
g59
NtRp3519
(dp3520
g62
(dp3521
sg71
g3506
sg64
(lp3522
g57
(g58
g59
NtRp3523
(dp3524
g62
(dp3525
g70
I3
ssg71
g3519
sg64
(lp3526
g212
asbasbasbag57
(g73
g59
NtRp3527
(dp3528
g62
(dp3529
sg71
g3187
sg64
(lp3530
g57
(g78
g59
NtRp3531
(dp3532
g62
(dp3533
g82
g83
ssg71
g3527
sg64
(lp3534
S'REMOTE_PORT'
p3535
asbag57
(g78
g59
NtRp3536
(dp3537
g62
(dp3538
g89
g90
ssg71
g3527
sg64
(lp3539
S':'
asbag57
(g78
g59
NtRp3540
(dp3541
g62
(dp3542
sg71
g3527
sg64
(lp3543
g57
(g58
g59
NtRp3544
(dp3545
g62
(dp3546
g70
I3
ssg71
g3540
sg64
(lp3547
g1880
asbasbasbag57
(g73
g59
NtRp3548
(dp3549
g62
(dp3550
sg71
g3187
sg64
(lp3551
g57
(g78
g59
NtRp3552
(dp3553
g62
(dp3554
g82
g83
ssg71
g3548
sg64
(lp3555
S'REQUEST_METHOD'
p3556
asbag57
(g78
g59
NtRp3557
(dp3558
g62
(dp3559
g89
g90
ssg71
g3548
sg64
(lp3560
S':'
asbag57
(g78
g59
NtRp3561
(dp3562
g62
(dp3563
sg71
g3548
sg64
(lp3564
g57
(g58
g59
NtRp3565
(dp3566
g62
(dp3567
g70
I3
ssg71
g3561
sg64
(lp3568
g1902
asbasbasbag57
(g73
g59
NtRp3569
(dp3570
g62
(dp3571
sg71
g3187
sg64
(lp3572
g57
(g78
g59
NtRp3573
(dp3574
g62
(dp3575
g82
g83
ssg71
g3569
sg64
(lp3576
S'REQUEST_URI'
p3577
asbag57
(g78
g59
NtRp3578
(dp3579
g62
(dp3580
g89
g90
ssg71
g3569
sg64
(lp3581
S':'
asbag57
(g78
g59
NtRp3582
(dp3583
g62
(dp3584
sg71
g3569
sg64
(lp3585
g57
(g58
g59
NtRp3586
(dp3587
g62
(dp3588
g70
I3
ssg71
g3582
sg64
(lp3589
g1816
asbasbasbag57
(g73
g59
NtRp3590
(dp3591
g62
(dp3592
sg71
g3187
sg64
(lp3593
g57
(g78
g59
NtRp3594
(dp3595
g62
(dp3596
g82
g83
ssg71
g3590
sg64
(lp3597
S'SCRIPT_NAME'
p3598
asbag57
(g78
g59
NtRp3599
(dp3600
g62
(dp3601
g89
g90
ssg71
g3590
sg64
(lp3602
S':'
asbag57
(g78
g59
NtRp3603
(dp3604
g62
(dp3605
sg71
g3590
sg64
(lp3606
g57
(g58
g59
NtRp3607
(dp3608
g62
(dp3609
g70
I3
ssg71
g3603
sg64
(lp3610
S''
asbasbasbag57
(g73
g59
NtRp3611
(dp3612
g62
(dp3613
sg71
g3187
sg64
(lp3614
g57
(g78
g59
NtRp3615
(dp3616
g62
(dp3617
g82
g83
ssg71
g3611
sg64
(lp3618
S'SERVER_NAME'
p3619
asbag57
(g78
g59
NtRp3620
(dp3621
g62
(dp3622
g89
g90
ssg71
g3611
sg64
(lp3623
S':'
asbag57
(g78
g59
NtRp3624
(dp3625
g62
(dp3626
sg71
g3611
sg64
(lp3627
g57
(g58
g59
NtRp3628
(dp3629
g62
(dp3630
g70
I3
ssg71
g3624
sg64
(lp3631
g1966
asbasbasbag57
(g73
g59
NtRp3632
(dp3633
g62
(dp3634
sg71
g3187
sg64
(lp3635
g57
(g78
g59
NtRp3636
(dp3637
g62
(dp3638
g82
g83
ssg71
g3632
sg64
(lp3639
S'SERVER_PORT'
p3640
asbag57
(g78
g59
NtRp3641
(dp3642
g62
(dp3643
g89
g90
ssg71
g3632
sg64
(lp3644
S':'
asbag57
(g78
g59
NtRp3645
(dp3646
g62
(dp3647
sg71
g3632
sg64
(lp3648
g57
(g58
g59
NtRp3649
(dp3650
g62
(dp3651
g70
I3
ssg71
g3645
sg64
(lp3652
g1988
asbasbasbag57
(g73
g59
NtRp3653
(dp3654
g62
(dp3655
sg71
g3187
sg64
(lp3656
g57
(g78
g59
NtRp3657
(dp3658
g62
(dp3659
g82
g83
ssg71
g3653
sg64
(lp3660
S'SERVER_PROTOCOL'
p3661
asbag57
(g78
g59
NtRp3662
(dp3663
g62
(dp3664
g89
g90
ssg71
g3653
sg64
(lp3665
S':'
asbag57
(g78
g59
NtRp3666
(dp3667
g62
(dp3668
sg71
g3653
sg64
(lp3669
g57
(g58
g59
NtRp3670
(dp3671
g62
(dp3672
g70
I3
ssg71
g3666
sg64
(lp3673
g2010
asbasbasbag57
(g73
g59
NtRp3674
(dp3675
g62
(dp3676
sg71
g3187
sg64
(lp3677
g57
(g78
g59
NtRp3678
(dp3679
g62
(dp3680
g82
g83
ssg71
g3674
sg64
(lp3681
S'SERVER_SOFTWARE'
p3682
asbag57
(g78
g59
NtRp3683
(dp3684
g62
(dp3685
g89
g90
ssg71
g3674
sg64
(lp3686
S':'
asbag57
(g78
g59
NtRp3687
(dp3688
g62
(dp3689
sg71
g3674
sg64
(lp3690
g57
(g58
g59
NtRp3691
(dp3692
g62
(dp3693
g70
I3
ssg71
g3687
sg64
(lp3694
g2032
asbasbasbag57
(g73
g59
NtRp3695
(dp3696
g62
(dp3697
sg71
g3187
sg64
(lp3698
g57
(g78
g59
NtRp3699
(dp3700
g62
(dp3701
g82
g83
ssg71
g3695
sg64
(lp3702
S'wsgi.errors'
p3703
asbag57
(g78
g59
NtRp3704
(dp3705
g62
(dp3706
g89
g90
ssg71
g3695
sg64
(lp3707
S':'
asbag57
(g78
g59
NtRp3708
(dp3709
g62
(dp3710
sg71
g3695
sg64
(lp3711
g57
(g58
g59
NtRp3712
(dp3713
g62
(dp3714
g70
I3
ssg71
g3708
sg64
(lp3715
S"<open file '<stderr>', mode 'w' at 0xb74d60d0>"
p3716
asbasbasbag57
(g73
g59
NtRp3717
(dp3718
g62
(dp3719
sg71
g3187
sg64
(lp3720
g57
(g78
g59
NtRp3721
(dp3722
g62
(dp3723
g82
g83
ssg71
g3717
sg64
(lp3724
S'wsgi.file_wrapper'
p3725
asbag57
(g78
g59
NtRp3726
(dp3727
g62
(dp3728
g89
g90
ssg71
g3717
sg64
(lp3729
S':'
asbag57
(g78
g59
NtRp3730
(dp3731
g62
(dp3732
sg71
g3717
sg64
(lp3733
g57
(g58
g59
NtRp3734
(dp3735
g62
(dp3736
g70
I3
ssg71
g3730
sg64
(lp3737
S'<class wsgiref.util.FileWrapper at 0x8ec0ecc>'
p3738
asbasbasbag57
(g73
g59
NtRp3739
(dp3740
g62
(dp3741
sg71
g3187
sg64
(lp3742
g57
(g78
g59
NtRp3743
(dp3744
g62
(dp3745
g82
g83
ssg71
g3739
sg64
(lp3746
S'wsgi.input'
p3747
asbag57
(g78
g59
NtRp3748
(dp3749
g62
(dp3750
g89
g90
ssg71
g3739
sg64
(lp3751
S':'
asbag57
(g78
g59
NtRp3752
(dp3753
g62
(dp3754
sg71
g3739
sg64
(lp3755
g57
(g58
g59
NtRp3756
(dp3757
g62
(dp3758
g70
I3
ssg71
g3752
sg64
(lp3759
S"<open file '<fdopen>', mode 'w+b' at 0xae6125f8>"
p3760
asbasbasbag57
(g73
g59
NtRp3761
(dp3762
g62
(dp3763
sg71
g3187
sg64
(lp3764
g57
(g78
g59
NtRp3765
(dp3766
g62
(dp3767
g82
g83
ssg71
g3761
sg64
(lp3768
S'wsgi.multiprocess'
p3769
asbag57
(g78
g59
NtRp3770
(dp3771
g62
(dp3772
g89
g90
ssg71
g3761
sg64
(lp3773
S':'
asbag57
(g78
g59
NtRp3774
(dp3775
g62
(dp3776
sg71
g3761
sg64
(lp3777
g57
(g58
g59
NtRp3778
(dp3779
g62
(dp3780
g70
I3
ssg71
g3774
sg64
(lp3781
g100
asbasbasbag57
(g73
g59
NtRp3782
(dp3783
g62
(dp3784
sg71
g3187
sg64
(lp3785
g57
(g78
g59
NtRp3786
(dp3787
g62
(dp3788
g82
g83
ssg71
g3782
sg64
(lp3789
S'wsgi.multithread'
p3790
asbag57
(g78
g59
NtRp3791
(dp3792
g62
(dp3793
g89
g90
ssg71
g3782
sg64
(lp3794
S':'
asbag57
(g78
g59
NtRp3795
(dp3796
g62
(dp3797
sg71
g3782
sg64
(lp3798
g57
(g58
g59
NtRp3799
(dp3800
g62
(dp3801
g70
I3
ssg71
g3795
sg64
(lp3802
g2249
asbasbasbag57
(g73
g59
NtRp3803
(dp3804
g62
(dp3805
sg71
g3187
sg64
(lp3806
g57
(g78
g59
NtRp3807
(dp3808
g62
(dp3809
g82
g83
ssg71
g3803
sg64
(lp3810
S'wsgi.run_once'
p3811
asbag57
(g78
g59
NtRp3812
(dp3813
g62
(dp3814
g89
g90
ssg71
g3803
sg64
(lp3815
S':'
asbag57
(g78
g59
NtRp3816
(dp3817
g62
(dp3818
sg71
g3803
sg64
(lp3819
g57
(g58
g59
NtRp3820
(dp3821
g62
(dp3822
g70
I3
ssg71
g3816
sg64
(lp3823
g100
asbasbasbag57
(g73
g59
NtRp3824
(dp3825
g62
(dp3826
sg71
g3187
sg64
(lp3827
g57
(g78
g59
NtRp3828
(dp3829
g62
(dp3830
g82
g83
ssg71
g3824
sg64
(lp3831
S'wsgi.url_scheme'
p3832
asbag57
(g78
g59
NtRp3833
(dp3834
g62
(dp3835
g89
g90
ssg71
g3824
sg64
(lp3836
S':'
asbag57
(g78
g59
NtRp3837
(dp3838
g62
(dp3839
sg71
g3824
sg64
(lp3840
g57
(g58
g59
NtRp3841
(dp3842
g62
(dp3843
g70
I3
ssg71
g3837
sg64
(lp3844
g2292
asbasbasbag57
(g73
g59
NtRp3845
(dp3846
g62
(dp3847
sg71
g3187
sg64
(lp3848
g57
(g78
g59
NtRp3849
(dp3850
g62
(dp3851
g82
g83
ssg71
g3845
sg64
(lp3852
S'wsgi.version'
p3853
asbag57
(g78
g59
NtRp3854
(dp3855
g62
(dp3856
g89
g90
ssg71
g3845
sg64
(lp3857
S':'
asbag57
(g78
g59
NtRp3858
(dp3859
g62
(dp3860
sg71
g3845
sg64
(lp3861
g57
(g58
g59
NtRp3862
(dp3863
g62
(dp3864
g70
I3
ssg71
g3858
sg64
(lp3865
S'1'
asbasbasbasbasbasbasbasbasbasbasbasbasbsS'frames'
p3866
(lp3867
(dp3868
S'file'
p3869
S'/home/gaurav/classwork/WEB_PROGRAMMING/web2py/gluon/restricted.py'
p3870
sS'dump'
p3871
(dp3872
S'environment'
p3873
S"{'A': <class 'gluon.html.A'>, 'Auth': <class 'gluon.tools.Auth'>, 'B': <class 'gluon.html.B'>, 'BEAUTIFY': <class 'gluon.html.BEAUTIFY'>, 'BODY': <class 'gluon.html.BODY'>, 'BR': <class 'gluon.html.BR'>, 'BUTTON': <class 'gluon.html.BUTTON'>, 'CAT': <class 'gluon.html.CAT'>, 'CENTER': <class 'gluon.html.CENTER'>, 'CLEANUP': <class 'gluon.validators.CLEANUP'>, ...}"
p3874
sS'ccode'
p3875
S'<code object <module> at 0xae50e140, file "/home...plications/MUSIC/views/default/ans.html", line 1>'
p3876
ssS'lnum'
p3877
I212
sS'lines'
p3878
(dp3879
I207
S'    try:'
p3880
sI208
S'        if isinstance(code, types.CodeType):'
p3881
sI209
S'            ccode = code'
p3882
sI210
S'        else:'
p3883
sI211
S'            ccode = compile2(code, layer)'
p3884
sI212
S'        exec ccode in environment'
p3885
sI213
S'    except HTTP:'
p3886
sI214
S'        raise'
p3887
sI215
S'    except RestrictedError:'
p3888
sI216
S'        # do not encapsulate (obfuscate) the original RestrictedError'
p3889
ssS'call'
p3890
S'(code="response.write(m[\'name\'])\\nresponse.write(\'\\\\n\', escape=False)", environment={\'A\': <class \'gluon.html.A\'>, \'Auth\': <class \'gluon.tools.Auth\'>, \'B\': <class \'gluon.html.B\'>, \'BEAUTIFY\': <class \'gluon.html.BEAUTIFY\'>, \'BODY\': <class \'gluon.html.BODY\'>, \'BR\': <class \'gluon.html.BR\'>, \'BUTTON\': <class \'gluon.html.BUTTON\'>, \'CAT\': <class \'gluon.html.CAT\'>, \'CENTER\': <class \'gluon.html.CENTER\'>, \'CLEANUP\': <class \'gluon.validators.CLEANUP\'>, ...}, layer=\'/home/gaurav/classwork/WEB_PROGRAMMING/web2py/applications/MUSIC/views/default/ans.html\')'
p3891
sS'func'
p3892
S'restricted'
p3893
sa(dp3894
g3869
S'/home/gaurav/classwork/WEB_PROGRAMMING/web2py/applications/MUSIC/views/default/ans.html'
p3895
sg3871
(dp3896
S'm'
g45
ssg3877
I1
sg3878
(dp3897
I1
S"response.write(m['name'])"
p3898
sI2
S"response.write('\\n', escape=False)"
p3899
ssg3890
S'()'
p3900
sg3892
S'<module>'
p3901
sasS'pyver'
p3902
S'Python 2.7.3: /usr/bin/python'
p3903
sS'session'
p3904
g57
(g58
g59
NtRp3905
(dp3906
g62
(dp3907
sg64
(lp3908
g57
(g66
g59
NtRp3909
(dp3910
g62
(dp3911
g70
I5
ssg71
Nsg64
(lp3912
sbasbsS'etype'
p3913
S"<type 'exceptions.KeyError'>"
p3914
sS'date'
p3915
S'Tue Mar 12 20:48:17 2013'
p3916
sS'response'
p3917
g57
(g58
g59
NtRp3918
(dp3919
g62
(dp3920
sg64
(lp3921
g57
(g66
g59
NtRp3922
(dp3923
g62
(dp3924
g70
I5
ssg71
Nsg64
(lp3925
g57
(g73
g59
NtRp3926
(dp3927
g62
(dp3928
sg71
g3922
sg64
(lp3929
g57
(g78
g59
NtRp3930
(dp3931
g62
(dp3932
g82
g83
ssg71
g3926
sg64
(lp3933
g155
asbag57
(g78
g59
NtRp3934
(dp3935
g62
(dp3936
g89
g90
ssg71
g3926
sg64
(lp3937
S':'
asbag57
(g78
g59
NtRp3938
(dp3939
g62
(dp3940
sg71
g3926
sg64
(lp3941
g57
(g58
g59
NtRp3942
(dp3943
g62
(dp3944
g70
I5
ssg71
g3938
sg64
(lp3945
S'<cStringIO.StringO object at 0x950ba60>'
p3946
asbasbasbag57
(g73
g59
NtRp3947
(dp3948
g62
(dp3949
sg71
g3922
sg64
(lp3950
g57
(g78
g59
NtRp3951
(dp3952
g62
(dp3953
g82
g83
ssg71
g3947
sg64
(lp3954
g243
asbag57
(g78
g59
NtRp3955
(dp3956
g62
(dp3957
g89
g90
ssg71
g3947
sg64
(lp3958
S':'
asbag57
(g78
g59
NtRp3959
(dp3960
g62
(dp3961
sg71
g3947
sg64
(lp3962
g57
(g58
g59
NtRp3963
(dp3964
g62
(dp3965
g70
I5
ssg71
g3959
sg64
(lp3966
g57
(g66
g59
NtRp3967
(dp3968
g62
(dp3969
g70
I4
ssg71
Nsg64
(lp3970
g57
(g73
g59
NtRp3971
(dp3972
g62
(dp3973
sg71
g3967
sg64
(lp3974
g57
(g78
g59
NtRp3975
(dp3976
g62
(dp3977
g82
g83
ssg71
g3971
sg64
(lp3978
S'session_id_music'
p3979
asbag57
(g78
g59
NtRp3980
(dp3981
g62
(dp3982
g89
g90
ssg71
g3971
sg64
(lp3983
S':'
asbag57
(g78
g59
NtRp3984
(dp3985
g62
(dp3986
sg71
g3971
sg64
(lp3987
g57
(g58
g59
NtRp3988
(dp3989
g62
(dp3990
g70
I4
ssg71
g3984
sg64
(lp3991
g661
ag57
(g66
g59
NtRp3992
(dp3993
g62
(dp3994
g70
I3
ssg71
Nsg64
(lp3995
g57
(g73
g59
NtRp3996
(dp3997
g62
(dp3998
sg71
g3992
sg64
(lp3999
g57
(g78
g59
NtRp4000
(dp4001
g62
(dp4002
g82
g83
ssg71
g3996
sg64
(lp4003
g294
asbag57
(g78
g59
NtRp4004
(dp4005
g62
(dp4006
g89
g90
ssg71
g3996
sg64
(lp4007
S':'
asbag57
(g78
g59
NtRp4008
(dp4009
g62
(dp4010
sg71
g3996
sg64
(lp4011
g57
(g58
g59
NtRp4012
(dp4013
g62
(dp4014
g70
I3
ssg71
g4008
sg64
(lp4015
S''
asbasbasbag57
(g73
g59
NtRp4016
(dp4017
g62
(dp4018
sg71
g3992
sg64
(lp4019
g57
(g78
g59
NtRp4020
(dp4021
g62
(dp4022
g82
g83
ssg71
g4016
sg64
(lp4023
g315
asbag57
(g78
g59
NtRp4024
(dp4025
g62
(dp4026
g89
g90
ssg71
g4016
sg64
(lp4027
S':'
asbag57
(g78
g59
NtRp4028
(dp4029
g62
(dp4030
sg71
g4016
sg64
(lp4031
g57
(g58
g59
NtRp4032
(dp4033
g62
(dp4034
g70
I3
ssg71
g4028
sg64
(lp4035
S''
asbasbasbag57
(g73
g59
NtRp4036
(dp4037
g62
(dp4038
sg71
g3992
sg64
(lp4039
g57
(g78
g59
NtRp4040
(dp4041
g62
(dp4042
g82
g83
ssg71
g4036
sg64
(lp4043
g336
asbag57
(g78
g59
NtRp4044
(dp4045
g62
(dp4046
g89
g90
ssg71
g4036
sg64
(lp4047
S':'
asbag57
(g78
g59
NtRp4048
(dp4049
g62
(dp4050
sg71
g4036
sg64
(lp4051
g57
(g58
g59
NtRp4052
(dp4053
g62
(dp4054
g70
I3
ssg71
g4048
sg64
(lp4055
S''
asbasbasbag57
(g73
g59
NtRp4056
(dp4057
g62
(dp4058
sg71
g3992
sg64
(lp4059
g57
(g78
g59
NtRp4060
(dp4061
g62
(dp4062
g82
g83
ssg71
g4056
sg64
(lp4063
g357
asbag57
(g78
g59
NtRp4064
(dp4065
g62
(dp4066
g89
g90
ssg71
g4056
sg64
(lp4067
S':'
asbag57
(g78
g59
NtRp4068
(dp4069
g62
(dp4070
sg71
g4056
sg64
(lp4071
g57
(g58
g59
NtRp4072
(dp4073
g62
(dp4074
g70
I3
ssg71
g4068
sg64
(lp4075
S''
asbasbasbag57
(g73
g59
NtRp4076
(dp4077
g62
(dp4078
sg71
g3992
sg64
(lp4079
g57
(g78
g59
NtRp4080
(dp4081
g62
(dp4082
g82
g83
ssg71
g4076
sg64
(lp4083
g378
asbag57
(g78
g59
NtRp4084
(dp4085
g62
(dp4086
g89
g90
ssg71
g4076
sg64
(lp4087
S':'
asbag57
(g78
g59
NtRp4088
(dp4089
g62
(dp4090
sg71
g4076
sg64
(lp4091
g57
(g58
g59
NtRp4092
(dp4093
g62
(dp4094
g70
I3
ssg71
g4088
sg64
(lp4095
S''
asbasbasbag57
(g73
g59
NtRp4096
(dp4097
g62
(dp4098
sg71
g3992
sg64
(lp4099
g57
(g78
g59
NtRp4100
(dp4101
g62
(dp4102
g82
g83
ssg71
g4096
sg64
(lp4103
g399
asbag57
(g78
g59
NtRp4104
(dp4105
g62
(dp4106
g89
g90
ssg71
g4096
sg64
(lp4107
S':'
asbag57
(g78
g59
NtRp4108
(dp4109
g62
(dp4110
sg71
g4096
sg64
(lp4111
g57
(g58
g59
NtRp4112
(dp4113
g62
(dp4114
g70
I3
ssg71
g4108
sg64
(lp4115
S'/'
asbasbasbag57
(g73
g59
NtRp4116
(dp4117
g62
(dp4118
sg71
g3992
sg64
(lp4119
g57
(g78
g59
NtRp4120
(dp4121
g62
(dp4122
g82
g83
ssg71
g4116
sg64
(lp4123
g420
asbag57
(g78
g59
NtRp4124
(dp4125
g62
(dp4126
g89
g90
ssg71
g4116
sg64
(lp4127
S':'
asbag57
(g78
g59
NtRp4128
(dp4129
g62
(dp4130
sg71
g4116
sg64
(lp4131
g57
(g58
g59
NtRp4132
(dp4133
g62
(dp4134
g70
I3
ssg71
g4128
sg64
(lp4135
S''
asbasbasbag57
(g73
g59
NtRp4136
(dp4137
g62
(dp4138
sg71
g3992
sg64
(lp4139
g57
(g78
g59
NtRp4140
(dp4141
g62
(dp4142
g82
g83
ssg71
g4136
sg64
(lp4143
g441
asbag57
(g78
g59
NtRp4144
(dp4145
g62
(dp4146
g89
g90
ssg71
g4136
sg64
(lp4147
S':'
asbag57
(g78
g59
NtRp4148
(dp4149
g62
(dp4150
sg71
g4136
sg64
(lp4151
g57
(g58
g59
NtRp4152
(dp4153
g62
(dp4154
g70
I3
ssg71
g4148
sg64
(lp4155
S''
asbasbasbasbasbasbasbasbasbasbasbag57
(g73
g59
NtRp4156
(dp4157
g62
(dp4158
sg71
g3922
sg64
(lp4159
g57
(g78
g59
NtRp4160
(dp4161
g62
(dp4162
g82
g83
ssg71
g4156
sg64
(lp4163
S'delimiters'
p4164
asbag57
(g78
g59
NtRp4165
(dp4166
g62
(dp4167
g89
g90
ssg71
g4156
sg64
(lp4168
S':'
asbag57
(g78
g59
NtRp4169
(dp4170
g62
(dp4171
sg71
g4156
sg64
(lp4172
g57
(g58
g59
NtRp4173
(dp4174
g62
(dp4175
g70
I5
ssg71
g4169
sg64
(lp4176
g57
(g66
g59
NtRp4177
(dp4178
g62
(dp4179
g70
I4
ssg71
Nsg64
(lp4180
g57
(g73
g59
NtRp4181
(dp4182
g62
(dp4183
sg71
g4177
sg64
(lp4184
g57
(g78
g59
NtRp4185
(dp4186
g62
(dp4187
sg71
g4181
sg64
(lp4188
g57
(g58
g59
NtRp4189
(dp4190
g62
(dp4191
g70
I4
ssg71
g4185
sg64
(lp4192
S'{{'
p4193
asbasbasbag57
(g73
g59
NtRp4194
(dp4195
g62
(dp4196
sg71
g4177
sg64
(lp4197
g57
(g78
g59
NtRp4198
(dp4199
g62
(dp4200
sg71
g4194
sg64
(lp4201
g57
(g58
g59
NtRp4202
(dp4203
g62
(dp4204
g70
I4
ssg71
g4198
sg64
(lp4205
S'}}'
p4206
asbasbasbasbasbasbasbag57
(g73
g59
NtRp4207
(dp4208
g62
(dp4209
sg71
g3922
sg64
(lp4210
g57
(g78
g59
NtRp4211
(dp4212
g62
(dp4213
g82
g83
ssg71
g4207
sg64
(lp4214
S'files'
p4215
asbag57
(g78
g59
NtRp4216
(dp4217
g62
(dp4218
g89
g90
ssg71
g4207
sg64
(lp4219
S':'
asbag57
(g78
g59
NtRp4220
(dp4221
g62
(dp4222
sg71
g4207
sg64
(lp4223
g57
(g58
g59
NtRp4224
(dp4225
g62
(dp4226
g70
I5
ssg71
g4220
sg64
(lp4227
g57
(g66
g59
NtRp4228
(dp4229
g62
(dp4230
g70
I4
ssg71
Nsg64
(lp4231
sbasbasbasbag57
(g73
g59
NtRp4232
(dp4233
g62
(dp4234
sg71
g3922
sg64
(lp4235
g57
(g78
g59
NtRp4236
(dp4237
g62
(dp4238
g82
g83
ssg71
g4232
sg64
(lp4239
S'flash'
p4240
asbag57
(g78
g59
NtRp4241
(dp4242
g62
(dp4243
g89
g90
ssg71
g4232
sg64
(lp4244
S':'
asbag57
(g78
g59
NtRp4245
(dp4246
g62
(dp4247
sg71
g4232
sg64
(lp4248
g57
(g58
g59
NtRp4249
(dp4250
g62
(dp4251
g70
I5
ssg71
g4245
sg64
(lp4252
S''
asbasbasbag57
(g73
g59
NtRp4253
(dp4254
g62
(dp4255
sg71
g3922
sg64
(lp4256
g57
(g78
g59
NtRp4257
(dp4258
g62
(dp4259
g82
g83
ssg71
g4253
sg64
(lp4260
S'generic_patterns'
p4261
asbag57
(g78
g59
NtRp4262
(dp4263
g62
(dp4264
g89
g90
ssg71
g4253
sg64
(lp4265
S':'
asbag57
(g78
g59
NtRp4266
(dp4267
g62
(dp4268
sg71
g4253
sg64
(lp4269
g57
(g58
g59
NtRp4270
(dp4271
g62
(dp4272
g70
I5
ssg71
g4266
sg64
(lp4273
g57
(g66
g59
NtRp4274
(dp4275
g62
(dp4276
g70
I4
ssg71
Nsg64
(lp4277
g57
(g73
g59
NtRp4278
(dp4279
g62
(dp4280
sg71
g4274
sg64
(lp4281
g57
(g78
g59
NtRp4282
(dp4283
g62
(dp4284
sg71
g4278
sg64
(lp4285
g57
(g58
g59
NtRp4286
(dp4287
g62
(dp4288
g70
I4
ssg71
g4282
sg64
(lp4289
S'*'
asbasbasbasbasbasbasbag57
(g73
g59
NtRp4290
(dp4291
g62
(dp4292
sg71
g3922
sg64
(lp4293
g57
(g78
g59
NtRp4294
(dp4295
g62
(dp4296
g82
g83
ssg71
g4290
sg64
(lp4297
S'google_analytics_id'
p4298
asbag57
(g78
g59
NtRp4299
(dp4300
g62
(dp4301
g89
g90
ssg71
g4290
sg64
(lp4302
S':'
asbag57
(g78
g59
NtRp4303
(dp4304
g62
(dp4305
sg71
g4290
sg64
(lp4306
g57
(g58
g59
NtRp4307
(dp4308
g62
(dp4309
g70
I5
ssg71
g4303
sg64
(lp4310
S'None'
p4311
asbasbasbag57
(g73
g59
NtRp4312
(dp4313
g62
(dp4314
sg71
g3922
sg64
(lp4315
g57
(g78
g59
NtRp4316
(dp4317
g62
(dp4318
g82
g83
ssg71
g4312
sg64
(lp4319
S'headers'
p4320
asbag57
(g78
g59
NtRp4321
(dp4322
g62
(dp4323
g89
g90
ssg71
g4312
sg64
(lp4324
S':'
asbag57
(g78
g59
NtRp4325
(dp4326
g62
(dp4327
sg71
g4312
sg64
(lp4328
g57
(g58
g59
NtRp4329
(dp4330
g62
(dp4331
g70
I5
ssg71
g4325
sg64
(lp4332
g57
(g66
g59
NtRp4333
(dp4334
g62
(dp4335
g70
I4
ssg71
Nsg64
(lp4336
g57
(g73
g59
NtRp4337
(dp4338
g62
(dp4339
sg71
g4333
sg64
(lp4340
g57
(g78
g59
NtRp4341
(dp4342
g62
(dp4343
g82
g83
ssg71
g4337
sg64
(lp4344
S'X-Powered-By'
p4345
asbag57
(g78
g59
NtRp4346
(dp4347
g62
(dp4348
g89
g90
ssg71
g4337
sg64
(lp4349
S':'
asbag57
(g78
g59
NtRp4350
(dp4351
g62
(dp4352
sg71
g4337
sg64
(lp4353
g57
(g58
g59
NtRp4354
(dp4355
g62
(dp4356
g70
I4
ssg71
g4350
sg64
(lp4357
S'web2py'
p4358
asbasbasbasbasbasbasbag57
(g73
g59
NtRp4359
(dp4360
g62
(dp4361
sg71
g3922
sg64
(lp4362
g57
(g78
g59
NtRp4363
(dp4364
g62
(dp4365
g82
g83
ssg71
g4359
sg64
(lp4366
S'logo'
p4367
asbag57
(g78
g59
NtRp4368
(dp4369
g62
(dp4370
g89
g90
ssg71
g4359
sg64
(lp4371
S':'
asbag57
(g78
g59
NtRp4372
(dp4373
g62
(dp4374
sg71
g4359
sg64
(lp4375
g57
(g58
g59
NtRp4376
(dp4377
g62
(dp4378
g70
I5
ssg71
g4372
sg64
(lp4379
g57
(cgluon.html
A
p4380
g59
NtRp4381
(dp4382
g62
(dp4383
S'_class'
p4384
S'brand'
p4385
sS'_href'
p4386
S'http://www.web2py.com/'
p4387
ssg71
Nsg64
(lp4388
g57
(cgluon.html
B
p4389
g59
NtRp4390
(dp4391
g62
(dp4392
sg71
g4381
sg64
(lp4393
S'web'
p4394
ag57
(cgluon.html
SPAN
p4395
g59
NtRp4396
(dp4397
g62
(dp4398
sg71
g4390
sg64
(lp4399
I2
asbaS'py'
p4400
asbacgluon.html
XML_unpickle
p4401
(S's\r\x00\x00\x00&trade;&nbsp;'
tRp4402
asbasbasbasbag57
(g73
g59
NtRp4403
(dp4404
g62
(dp4405
sg71
g3922
sg64
(lp4406
g57
(g78
g59
NtRp4407
(dp4408
g62
(dp4409
g82
g83
ssg71
g4403
sg64
(lp4410
S'menu'
p4411
asbag57
(g78
g59
NtRp4412
(dp4413
g62
(dp4414
g89
g90
ssg71
g4403
sg64
(lp4415
S':'
asbag57
(g78
g59
NtRp4416
(dp4417
g62
(dp4418
sg71
g4403
sg64
(lp4419
g57
(g58
g59
NtRp4420
(dp4421
g62
(dp4422
g70
I5
ssg71
g4416
sg64
(lp4423
g57
(g66
g59
NtRp4424
(dp4425
g62
(dp4426
g70
I4
ssg71
Nsg64
(lp4427
g57
(g73
g59
NtRp4428
(dp4429
g62
(dp4430
sg71
g4424
sg64
(lp4431
g57
(g78
g59
NtRp4432
(dp4433
g62
(dp4434
sg71
g4428
sg64
(lp4435
g57
(g58
g59
NtRp4436
(dp4437
g62
(dp4438
g70
I4
ssg71
g4432
sg64
(lp4439
g57
(g66
g59
NtRp4440
(dp4441
g62
(dp4442
g70
I3
ssg71
Nsg64
(lp4443
g57
(g73
g59
NtRp4444
(dp4445
g62
(dp4446
sg71
g4440
sg64
(lp4447
g57
(g78
g59
NtRp4448
(dp4449
g62
(dp4450
sg71
g4444
sg64
(lp4451
g57
(g58
g59
NtRp4452
(dp4453
g62
(dp4454
g70
I3
ssg71
g4448
sg64
(lp4455
cgluon.languages
lazyT_unpickle
p4456
(S's\x04\x00\x00\x00Home'
tRp4457
asbasbasbag57
(g73
g59
NtRp4458
(dp4459
g62
(dp4460
sg71
g4440
sg64
(lp4461
g57
(g78
g59
NtRp4462
(dp4463
g62
(dp4464
sg71
g4458
sg64
(lp4465
g57
(g58
g59
NtRp4466
(dp4467
g62
(dp4468
g70
I3
ssg71
g4462
sg64
(lp4469
g100
asbasbasbag57
(g73
g59
NtRp4470
(dp4471
g62
(dp4472
sg71
g4440
sg64
(lp4473
g57
(g78
g59
NtRp4474
(dp4475
g62
(dp4476
sg71
g4470
sg64
(lp4477
g57
(g58
g59
NtRp4478
(dp4479
g62
(dp4480
g70
I3
ssg71
g4474
sg64
(lp4481
S'/MUSIC/default/index'
p4482
asbasbasbag57
(g73
g59
NtRp4483
(dp4484
g62
(dp4485
sg71
g4440
sg64
(lp4486
g57
(g78
g59
NtRp4487
(dp4488
g62
(dp4489
sg71
g4483
sg64
(lp4490
g57
(g58
g59
NtRp4491
(dp4492
g62
(dp4493
g70
I3
ssg71
g4487
sg64
(lp4494
g57
(g66
g59
NtRp4495
(dp4496
g62
(dp4497
g70
I2
ssg71
Nsg64
(lp4498
sbasbasbasbasbasbasbasbag57
(g73
g59
NtRp4499
(dp4500
g62
(dp4501
sg71
g4424
sg64
(lp4502
g57
(g78
g59
NtRp4503
(dp4504
g62
(dp4505
sg71
g4499
sg64
(lp4506
g57
(g58
g59
NtRp4507
(dp4508
g62
(dp4509
g70
I4
ssg71
g4503
sg64
(lp4510
g57
(g66
g59
NtRp4511
(dp4512
g62
(dp4513
g70
I3
ssg71
Nsg64
(lp4514
g57
(g73
g59
NtRp4515
(dp4516
g62
(dp4517
sg71
g4511
sg64
(lp4518
g57
(g78
g59
NtRp4519
(dp4520
g62
(dp4521
sg71
g4515
sg64
(lp4522
g57
(g58
g59
NtRp4523
(dp4524
g62
(dp4525
g70
I3
ssg71
g4519
sg64
(lp4526
g57
(g4395
g59
NtRp4527
(dp4528
g62
(dp4529
g4384
S'highlighted'
p4530
ssg71
Nsg64
(lp4531
g4358
asbasbasbasbag57
(g73
g59
NtRp4532
(dp4533
g62
(dp4534
sg71
g4511
sg64
(lp4535
g57
(g78
g59
NtRp4536
(dp4537
g62
(dp4538
sg71
g4532
sg64
(lp4539
g57
(g58
g59
NtRp4540
(dp4541
g62
(dp4542
g70
I3
ssg71
g4536
sg64
(lp4543
g100
asbasbasbag57
(g73
g59
NtRp4544
(dp4545
g62
(dp4546
sg71
g4511
sg64
(lp4547
g57
(g78
g59
NtRp4548
(dp4549
g62
(dp4550
sg71
g4544
sg64
(lp4551
g57
(g58
g59
NtRp4552
(dp4553
g62
(dp4554
g70
I3
ssg71
g4548
sg64
(lp4555
S'http://web2py.com'
p4556
asbasbasbag57
(g73
g59
NtRp4557
(dp4558
g62
(dp4559
sg71
g4511
sg64
(lp4560
g57
(g78
g59
NtRp4561
(dp4562
g62
(dp4563
sg71
g4557
sg64
(lp4564
g57
(g58
g59
NtRp4565
(dp4566
g62
(dp4567
g70
I3
ssg71
g4561
sg64
(lp4568
g57
(g66
g59
NtRp4569
(dp4570
g62
(dp4571
g70
I2
ssg71
Nsg64
(lp4572
g57
(g73
g59
NtRp4573
(dp4574
g62
(dp4575
sg71
g4569
sg64
(lp4576
g57
(g78
g59
NtRp4577
(dp4578
g62
(dp4579
sg71
g4573
sg64
(lp4580
g57
(g58
g59
NtRp4581
(dp4582
g62
(dp4583
g70
I2
ssg71
g4577
sg64
(lp4584
g57
(g66
g59
NtRp4585
(dp4586
g62
(dp4587
g70
I1
ssg71
Nsg64
(lp4588
g57
(g73
g59
NtRp4589
(dp4590
g62
(dp4591
sg71
g4585
sg64
(lp4592
g57
(g78
g59
NtRp4593
(dp4594
g62
(dp4595
sg71
g4589
sg64
(lp4596
g57
(g58
g59
NtRp4597
(dp4598
g62
(dp4599
g70
I1
ssg71
g4593
sg64
(lp4600
g4456
(S's\x08\x00\x00\x00My Sites'
tRp4601
asbasbasbag57
(g73
g59
NtRp4602
(dp4603
g62
(dp4604
sg71
g4585
sg64
(lp4605
g57
(g78
g59
NtRp4606
(dp4607
g62
(dp4608
sg71
g4602
sg64
(lp4609
g57
(g58
g59
NtRp4610
(dp4611
g62
(dp4612
g70
I1
ssg71
g4606
sg64
(lp4613
I00
asbasbasbag57
(g73
g59
NtRp4614
(dp4615
g62
(dp4616
sg71
g4585
sg64
(lp4617
g57
(g78
g59
NtRp4618
(dp4619
g62
(dp4620
sg71
g4614
sg64
(lp4621
g57
(g58
g59
NtRp4622
(dp4623
g62
(dp4624
g70
I1
ssg71
g4618
sg64
(lp4625
S'/admin/default/site'
p4626
asbasbasbasbasbasbasbag57
(g73
g59
NtRp4627
(dp4628
g62
(dp4629
sg71
g4569
sg64
(lp4630
g57
(g78
g59
NtRp4631
(dp4632
g62
(dp4633
sg71
g4627
sg64
(lp4634
g57
(g58
g59
NtRp4635
(dp4636
g62
(dp4637
g70
I2
ssg71
g4631
sg64
(lp4638
g57
(g66
g59
NtRp4639
(dp4640
g62
(dp4641
g70
I1
ssg71
Nsg64
(lp4642
g57
(g73
g59
NtRp4643
(dp4644
g62
(dp4645
sg71
g4639
sg64
(lp4646
g57
(g78
g59
NtRp4647
(dp4648
g62
(dp4649
sg71
g4643
sg64
(lp4650
g57
(g58
g59
NtRp4651
(dp4652
g62
(dp4653
g70
I1
ssg71
g4647
sg64
(lp4654
g4456
(S's\x08\x00\x00\x00This App'
tRp4655
asbasbasbag57
(g73
g59
NtRp4656
(dp4657
g62
(dp4658
sg71
g4639
sg64
(lp4659
g57
(g78
g59
NtRp4660
(dp4661
g62
(dp4662
sg71
g4656
sg64
(lp4663
g57
(g58
g59
NtRp4664
(dp4665
g62
(dp4666
g70
I1
ssg71
g4660
sg64
(lp4667
I00
asbasbasbag57
(g73
g59
NtRp4668
(dp4669
g62
(dp4670
sg71
g4639
sg64
(lp4671
g57
(g78
g59
NtRp4672
(dp4673
g62
(dp4674
sg71
g4668
sg64
(lp4675
g57
(g58
g59
NtRp4676
(dp4677
g62
(dp4678
g70
I1
ssg71
g4672
sg64
(lp4679
S'/admin/default/design/MUSIC'
p4680
asbasbasbag57
(g73
g59
NtRp4681
(dp4682
g62
(dp4683
sg71
g4639
sg64
(lp4684
g57
(g78
g59
NtRp4685
(dp4686
g62
(dp4687
sg71
g4681
sg64
(lp4688
g57
(g58
g59
NtRp4689
(dp4690
g62
(dp4691
g70
I1
ssg71
g4685
sg64
(lp4692
(lp4693
(g4456
(S's\n\x00\x00\x00Controller'
tRp4694
I00
S'/admin/default/edit/MUSIC/controllers/default.py'
tp4695
a(g4456
(S's\x04\x00\x00\x00View'
tRp4696
I00
S'/admin/default/edit/MUSIC/views/default/ans.html'
tp4697
a(g4456
(S's\x06\x00\x00\x00Layout'
tRp4698
I00
S'/admin/default/edit/MUSIC/views/layout.html'
tp4699
a(g4456
(S's\n\x00\x00\x00Stylesheet'
tRp4700
I00
S'/admin/default/edit/MUSIC/static/css/web2py.css'
tp4701
a(g4456
(S's\x08\x00\x00\x00DB Model'
tRp4702
I00
S'/admin/default/edit/MUSIC/models/db.py'
tp4703
a(g4456
(S's\n\x00\x00\x00Menu Model'
tRp4704
I00
S'/admin/default/edit/MUSIC/models/menu.py'
tp4705
a(g4456
(S's\x08\x00\x00\x00Database'
tRp4706
I00
S'/MUSIC/appadmin/index'
tp4707
a(g4456
(S's\x06\x00\x00\x00Errors'
tRp4708
I00
S'/admin/default/errors/MUSIC'
tp4709
a(g4456
(S's\x05\x00\x00\x00About'
tRp4710
I00
S'/admin/default/about/MUSIC'
tp4711
aasbasbasbasbasbasbasbag57
(g73
g59
NtRp4712
(dp4713
g62
(dp4714
sg71
g4569
sg64
(lp4715
g57
(g78
g59
NtRp4716
(dp4717
g62
(dp4718
sg71
g4712
sg64
(lp4719
g57
(g58
g59
NtRp4720
(dp4721
g62
(dp4722
g70
I2
ssg71
g4716
sg64
(lp4723
g57
(g66
g59
NtRp4724
(dp4725
g62
(dp4726
g70
I1
ssg71
Nsg64
(lp4727
g57
(g73
g59
NtRp4728
(dp4729
g62
(dp4730
sg71
g4724
sg64
(lp4731
g57
(g78
g59
NtRp4732
(dp4733
g62
(dp4734
sg71
g4728
sg64
(lp4735
g57
(g58
g59
NtRp4736
(dp4737
g62
(dp4738
g70
I1
ssg71
g4732
sg64
(lp4739
S'web2py.com'
p4740
asbasbasbag57
(g73
g59
NtRp4741
(dp4742
g62
(dp4743
sg71
g4724
sg64
(lp4744
g57
(g78
g59
NtRp4745
(dp4746
g62
(dp4747
sg71
g4741
sg64
(lp4748
g57
(g58
g59
NtRp4749
(dp4750
g62
(dp4751
g70
I1
ssg71
g4745
sg64
(lp4752
I00
asbasbasbag57
(g73
g59
NtRp4753
(dp4754
g62
(dp4755
sg71
g4724
sg64
(lp4756
g57
(g78
g59
NtRp4757
(dp4758
g62
(dp4759
sg71
g4753
sg64
(lp4760
g57
(g58
g59
NtRp4761
(dp4762
g62
(dp4763
g70
I1
ssg71
g4757
sg64
(lp4764
S'http://www.web2py.com'
p4765
asbasbasbag57
(g73
g59
NtRp4766
(dp4767
g62
(dp4768
sg71
g4724
sg64
(lp4769
g57
(g78
g59
NtRp4770
(dp4771
g62
(dp4772
sg71
g4766
sg64
(lp4773
g57
(g58
g59
NtRp4774
(dp4775
g62
(dp4776
g70
I1
ssg71
g4770
sg64
(lp4777
(lp4778
(g4456
(S's\x08\x00\x00\x00Download'
tRp4779
I00
S'http://www.web2py.com/examples/default/download'
p4780
tp4781
a(g4456
(S's\x07\x00\x00\x00Support'
tRp4782
I00
S'http://www.web2py.com/examples/default/support'
p4783
tp4784
a(g4456
(S's\x04\x00\x00\x00Demo'
tRp4785
I00
S'http://web2py.com/demo_admin'
p4786
tp4787
a(g4456
(S's\x0e\x00\x00\x00Quick Examples'
tRp4788
I00
S'http://web2py.com/examples/default/examples'
p4789
tp4790
a(g4456
(S's\x03\x00\x00\x00FAQ'
tRp4791
I00
S'http://web2py.com/AlterEgo'
p4792
tp4793
a(g4456
(S's\x06\x00\x00\x00Videos'
tRp4794
I00
S'http://www.web2py.com/examples/default/videos/'
p4795
tp4796
a(g4456
(S's\x11\x00\x00\x00Free Applications'
tRp4797
I00
S'http://web2py.com/appliances'
p4798
tp4799
a(g4456
(S's\x07\x00\x00\x00Plugins'
tRp4800
I00
S'http://web2py.com/plugins'
p4801
tp4802
a(g4456
(S's\x07\x00\x00\x00Layouts'
tRp4803
I00
S'http://web2py.com/layouts'
p4804
tp4805
a(g4456
(S's\x07\x00\x00\x00Recipes'
tRp4806
I00
S'http://web2pyslices.com/'
p4807
tp4808
a(g4456
(S's\x08\x00\x00\x00Semantic'
tRp4809
I00
S'http://web2py.com/semantic'
p4810
tp4811
aasbasbasbasbasbasbasbag57
(g73
g59
NtRp4812
(dp4813
g62
(dp4814
sg71
g4569
sg64
(lp4815
g57
(g78
g59
NtRp4816
(dp4817
g62
(dp4818
sg71
g4812
sg64
(lp4819
g57
(g58
g59
NtRp4820
(dp4821
g62
(dp4822
g70
I2
ssg71
g4816
sg64
(lp4823
g57
(g66
g59
NtRp4824
(dp4825
g62
(dp4826
g70
I1
ssg71
Nsg64
(lp4827
g57
(g73
g59
NtRp4828
(dp4829
g62
(dp4830
sg71
g4824
sg64
(lp4831
g57
(g78
g59
NtRp4832
(dp4833
g62
(dp4834
sg71
g4828
sg64
(lp4835
g57
(g58
g59
NtRp4836
(dp4837
g62
(dp4838
g70
I1
ssg71
g4832
sg64
(lp4839
g4456
(S's\r\x00\x00\x00Documentation'
tRp4840
asbasbasbag57
(g73
g59
NtRp4841
(dp4842
g62
(dp4843
sg71
g4824
sg64
(lp4844
g57
(g78
g59
NtRp4845
(dp4846
g62
(dp4847
sg71
g4841
sg64
(lp4848
g57
(g58
g59
NtRp4849
(dp4850
g62
(dp4851
g70
I1
ssg71
g4845
sg64
(lp4852
I00
asbasbasbag57
(g73
g59
NtRp4853
(dp4854
g62
(dp4855
sg71
g4824
sg64
(lp4856
g57
(g78
g59
NtRp4857
(dp4858
g62
(dp4859
sg71
g4853
sg64
(lp4860
g57
(g58
g59
NtRp4861
(dp4862
g62
(dp4863
g70
I1
ssg71
g4857
sg64
(lp4864
S'http://www.web2py.com/book'
p4865
asbasbasbag57
(g73
g59
NtRp4866
(dp4867
g62
(dp4868
sg71
g4824
sg64
(lp4869
g57
(g78
g59
NtRp4870
(dp4871
g62
(dp4872
sg71
g4866
sg64
(lp4873
g57
(g58
g59
NtRp4874
(dp4875
g62
(dp4876
g70
I1
ssg71
g4870
sg64
(lp4877
(lp4878
(g4456
(S's\x07\x00\x00\x00Preface'
tRp4879
I00
S'http://www.web2py.com/book/default/chapter/00'
p4880
tp4881
a(g4456
(S's\x0c\x00\x00\x00Introduction'
tRp4882
I00
S'http://www.web2py.com/book/default/chapter/01'
p4883
tp4884
a(g4456
(S's\x06\x00\x00\x00Python'
tRp4885
I00
S'http://www.web2py.com/book/default/chapter/02'
p4886
tp4887
a(g4456
(S's\x08\x00\x00\x00Overview'
tRp4888
I00
S'http://www.web2py.com/book/default/chapter/03'
p4889
tp4890
a(g4456
(S's\x08\x00\x00\x00The Core'
tRp4891
I00
S'http://www.web2py.com/book/default/chapter/04'
p4892
tp4893
a(g4456
(S's\t\x00\x00\x00The Views'
tRp4894
I00
S'http://www.web2py.com/book/default/chapter/05'
p4895
tp4896
a(g4456
(S's\x08\x00\x00\x00Database'
tRp4897
I00
S'http://www.web2py.com/book/default/chapter/06'
p4898
tp4899
a(g4456
(S's\x14\x00\x00\x00Forms and Validators'
tRp4900
I00
S'http://www.web2py.com/book/default/chapter/07'
p4901
tp4902
a(g4456
(S's\r\x00\x00\x00Email and SMS'
tRp4903
I00
S'http://www.web2py.com/book/default/chapter/08'
p4904
tp4905
a(g4456
(S's\x0e\x00\x00\x00Access Control'
tRp4906
I00
S'http://www.web2py.com/book/default/chapter/09'
p4907
tp4908
a(g4456
(S's\x08\x00\x00\x00Services'
tRp4909
I00
S'http://www.web2py.com/book/default/chapter/10'
p4910
tp4911
a(g4456
(S's\x0c\x00\x00\x00Ajax Recipes'
tRp4912
I00
S'http://www.web2py.com/book/default/chapter/11'
p4913
tp4914
a(g4456
(S's\x16\x00\x00\x00Components and Plugins'
tRp4915
I00
S'http://www.web2py.com/book/default/chapter/12'
p4916
tp4917
a(g4456
(S's\x12\x00\x00\x00Deployment Recipes'
tRp4918
I00
S'http://www.web2py.com/book/default/chapter/13'
p4919
tp4920
a(g4456
(S's\r\x00\x00\x00Other Recipes'
tRp4921
I00
S'http://www.web2py.com/book/default/chapter/14'
p4922
tp4923
a(g4456
(S's\r\x00\x00\x00Buy this book'
tRp4924
I00
S'http://stores.lulu.com/web2py'
p4925
tp4926
aasbasbasbasbasbasbasbag57
(g73
g59
NtRp4927
(dp4928
g62
(dp4929
sg71
g4569
sg64
(lp4930
g57
(g78
g59
NtRp4931
(dp4932
g62
(dp4933
sg71
g4927
sg64
(lp4934
g57
(g58
g59
NtRp4935
(dp4936
g62
(dp4937
g70
I2
ssg71
g4931
sg64
(lp4938
g57
(g66
g59
NtRp4939
(dp4940
g62
(dp4941
g70
I1
ssg71
Nsg64
(lp4942
g57
(g73
g59
NtRp4943
(dp4944
g62
(dp4945
sg71
g4939
sg64
(lp4946
g57
(g78
g59
NtRp4947
(dp4948
g62
(dp4949
sg71
g4943
sg64
(lp4950
g57
(g58
g59
NtRp4951
(dp4952
g62
(dp4953
g70
I1
ssg71
g4947
sg64
(lp4954
g4456
(S's\t\x00\x00\x00Community'
tRp4955
asbasbasbag57
(g73
g59
NtRp4956
(dp4957
g62
(dp4958
sg71
g4939
sg64
(lp4959
g57
(g78
g59
NtRp4960
(dp4961
g62
(dp4962
sg71
g4956
sg64
(lp4963
g57
(g58
g59
NtRp4964
(dp4965
g62
(dp4966
g70
I1
ssg71
g4960
sg64
(lp4967
I00
asbasbasbag57
(g73
g59
NtRp4968
(dp4969
g62
(dp4970
sg71
g4939
sg64
(lp4971
g57
(g78
g59
NtRp4972
(dp4973
g62
(dp4974
sg71
g4968
sg64
(lp4975
g57
(g58
g59
NtRp4976
(dp4977
g62
(dp4978
g70
I1
ssg71
g4972
sg64
(lp4979
Nasbasbasbag57
(g73
g59
NtRp4980
(dp4981
g62
(dp4982
sg71
g4939
sg64
(lp4983
g57
(g78
g59
NtRp4984
(dp4985
g62
(dp4986
sg71
g4980
sg64
(lp4987
g57
(g58
g59
NtRp4988
(dp4989
g62
(dp4990
g70
I1
ssg71
g4984
sg64
(lp4991
(lp4992
(g4456
(S's\x06\x00\x00\x00Groups'
tRp4993
I00
S'http://www.web2py.com/examples/default/usergroups'
p4994
tp4995
a(g4456
(S's\x07\x00\x00\x00Twitter'
tRp4996
I00
S'http://twitter.com/web2py'
p4997
tp4998
a(g4456
(S's\t\x00\x00\x00Live Chat'
tRp4999
I00
S'http://webchat.freenode.net/?channels=web2py'
p5000
tp5001
aasbasbasbasbasbasbasbag57
(g73
g59
NtRp5002
(dp5003
g62
(dp5004
sg71
g4569
sg64
(lp5005
g57
(g78
g59
NtRp5006
(dp5007
g62
(dp5008
sg71
g5002
sg64
(lp5009
g57
(g58
g59
NtRp5010
(dp5011
g62
(dp5012
g70
I2
ssg71
g5006
sg64
(lp5013
g57
(g66
g59
NtRp5014
(dp5015
g62
(dp5016
g70
I1
ssg71
Nsg64
(lp5017
g57
(g73
g59
NtRp5018
(dp5019
g62
(dp5020
sg71
g5014
sg64
(lp5021
g57
(g78
g59
NtRp5022
(dp5023
g62
(dp5024
sg71
g5018
sg64
(lp5025
g57
(g58
g59
NtRp5026
(dp5027
g62
(dp5028
g70
I1
ssg71
g5022
sg64
(lp5029
g4456
(S's\x07\x00\x00\x00Plugins'
tRp5030
asbasbasbag57
(g73
g59
NtRp5031
(dp5032
g62
(dp5033
sg71
g5014
sg64
(lp5034
g57
(g78
g59
NtRp5035
(dp5036
g62
(dp5037
sg71
g5031
sg64
(lp5038
g57
(g58
g59
NtRp5039
(dp5040
g62
(dp5041
g70
I1
ssg71
g5035
sg64
(lp5042
I00
asbasbasbag57
(g73
g59
NtRp5043
(dp5044
g62
(dp5045
sg71
g5014
sg64
(lp5046
g57
(g78
g59
NtRp5047
(dp5048
g62
(dp5049
sg71
g5043
sg64
(lp5050
g57
(g58
g59
NtRp5051
(dp5052
g62
(dp5053
g70
I1
ssg71
g5047
sg64
(lp5054
Nasbasbasbag57
(g73
g59
NtRp5055
(dp5056
g62
(dp5057
sg71
g5014
sg64
(lp5058
g57
(g78
g59
NtRp5059
(dp5060
g62
(dp5061
sg71
g5055
sg64
(lp5062
g57
(g58
g59
NtRp5063
(dp5064
g62
(dp5065
g70
I1
ssg71
g5059
sg64
(lp5066
(lp5067
(S'plugin_wiki'
p5068
I00
S'http://web2py.com/examples/default/download'
p5069
tp5070
a(g4456
(S's\r\x00\x00\x00Other Plugins'
tRp5071
I00
g4801
tp5072
a(g4456
(S's\x0e\x00\x00\x00Layout Plugins'
tRp5073
I00
g4804
tp5074
aasbasbasbasbasbasbasbasbasbasbasbasbasbasbasbasbasbasbasbag57
(g73
g59
NtRp5075
(dp5076
g62
(dp5077
sg71
g3922
sg64
(lp5078
g57
(g78
g59
NtRp5079
(dp5080
g62
(dp5081
g82
g83
ssg71
g5075
sg64
(lp5082
S'meta'
p5083
asbag57
(g78
g59
NtRp5084
(dp5085
g62
(dp5086
g89
g90
ssg71
g5075
sg64
(lp5087
S':'
asbag57
(g78
g59
NtRp5088
(dp5089
g62
(dp5090
sg71
g5075
sg64
(lp5091
g57
(g58
g59
NtRp5092
(dp5093
g62
(dp5094
g70
I5
ssg71
g5088
sg64
(lp5095
g57
(g66
g59
NtRp5096
(dp5097
g62
(dp5098
g70
I4
ssg71
Nsg64
(lp5099
g57
(g73
g59
NtRp5100
(dp5101
g62
(dp5102
sg71
g5096
sg64
(lp5103
g57
(g78
g59
NtRp5104
(dp5105
g62
(dp5106
g82
g83
ssg71
g5100
sg64
(lp5107
S'author'
p5108
asbag57
(g78
g59
NtRp5109
(dp5110
g62
(dp5111
g89
g90
ssg71
g5100
sg64
(lp5112
S':'
asbag57
(g78
g59
NtRp5113
(dp5114
g62
(dp5115
sg71
g5100
sg64
(lp5116
g57
(g58
g59
NtRp5117
(dp5118
g62
(dp5119
g70
I4
ssg71
g5113
sg64
(lp5120
S'Your Name <you@example.com>'
p5121
asbasbasbag57
(g73
g59
NtRp5122
(dp5123
g62
(dp5124
sg71
g5096
sg64
(lp5125
g57
(g78
g59
NtRp5126
(dp5127
g62
(dp5128
g82
g83
ssg71
g5122
sg64
(lp5129
S'description'
p5130
asbag57
(g78
g59
NtRp5131
(dp5132
g62
(dp5133
g89
g90
ssg71
g5122
sg64
(lp5134
S':'
asbag57
(g78
g59
NtRp5135
(dp5136
g62
(dp5137
sg71
g5122
sg64
(lp5138
g57
(g58
g59
NtRp5139
(dp5140
g62
(dp5141
g70
I4
ssg71
g5135
sg64
(lp5142
S'a cool new app'
p5143
asbasbasbag57
(g73
g59
NtRp5144
(dp5145
g62
(dp5146
sg71
g5096
sg64
(lp5147
g57
(g78
g59
NtRp5148
(dp5149
g62
(dp5150
g82
g83
ssg71
g5144
sg64
(lp5151
S'generator'
p5152
asbag57
(g78
g59
NtRp5153
(dp5154
g62
(dp5155
g89
g90
ssg71
g5144
sg64
(lp5156
S':'
asbag57
(g78
g59
NtRp5157
(dp5158
g62
(dp5159
sg71
g5144
sg64
(lp5160
g57
(g58
g59
NtRp5161
(dp5162
g62
(dp5163
g70
I4
ssg71
g5157
sg64
(lp5164
S'Web2py Web Framework'
p5165
asbasbasbag57
(g73
g59
NtRp5166
(dp5167
g62
(dp5168
sg71
g5096
sg64
(lp5169
g57
(g78
g59
NtRp5170
(dp5171
g62
(dp5172
g82
g83
ssg71
g5166
sg64
(lp5173
S'keywords'
p5174
asbag57
(g78
g59
NtRp5175
(dp5176
g62
(dp5177
g89
g90
ssg71
g5166
sg64
(lp5178
S':'
asbag57
(g78
g59
NtRp5179
(dp5180
g62
(dp5181
sg71
g5166
sg64
(lp5182
g57
(g58
g59
NtRp5183
(dp5184
g62
(dp5185
g70
I4
ssg71
g5179
sg64
(lp5186
S'web2py, python, framework'
p5187
asbasbasbasbasbasbasbag57
(g73
g59
NtRp5188
(dp5189
g62
(dp5190
sg71
g3922
sg64
(lp5191
g57
(g78
g59
NtRp5192
(dp5193
g62
(dp5194
g82
g83
ssg71
g5188
sg64
(lp5195
S'models_to_run'
p5196
asbag57
(g78
g59
NtRp5197
(dp5198
g62
(dp5199
g89
g90
ssg71
g5188
sg64
(lp5200
S':'
asbag57
(g78
g59
NtRp5201
(dp5202
g62
(dp5203
sg71
g5188
sg64
(lp5204
g57
(g58
g59
NtRp5205
(dp5206
g62
(dp5207
g70
I5
ssg71
g5201
sg64
(lp5208
g57
(g66
g59
NtRp5209
(dp5210
g62
(dp5211
g70
I4
ssg71
Nsg64
(lp5212
g57
(g73
g59
NtRp5213
(dp5214
g62
(dp5215
sg71
g5209
sg64
(lp5216
g57
(g78
g59
NtRp5217
(dp5218
g62
(dp5219
sg71
g5213
sg64
(lp5220
g57
(g58
g59
NtRp5221
(dp5222
g62
(dp5223
g70
I4
ssg71
g5217
sg64
(lp5224
S'^\\w+\\.py$'
p5225
asbasbasbag57
(g73
g59
NtRp5226
(dp5227
g62
(dp5228
sg71
g5209
sg64
(lp5229
g57
(g78
g59
NtRp5230
(dp5231
g62
(dp5232
sg71
g5226
sg64
(lp5233
g57
(g58
g59
NtRp5234
(dp5235
g62
(dp5236
g70
I4
ssg71
g5230
sg64
(lp5237
S'^default/\\w+\\.py$'
p5238
asbasbasbag57
(g73
g59
NtRp5239
(dp5240
g62
(dp5241
sg71
g5209
sg64
(lp5242
g57
(g78
g59
NtRp5243
(dp5244
g62
(dp5245
sg71
g5239
sg64
(lp5246
g57
(g58
g59
NtRp5247
(dp5248
g62
(dp5249
g70
I4
ssg71
g5243
sg64
(lp5250
S'^default/ans/\\w+\\.py$'
p5251
asbasbasbasbasbasbasbag57
(g73
g59
NtRp5252
(dp5253
g62
(dp5254
sg71
g3922
sg64
(lp5255
g57
(g78
g59
NtRp5256
(dp5257
g62
(dp5258
g82
g83
ssg71
g5252
sg64
(lp5259
S'postprocessing'
p5260
asbag57
(g78
g59
NtRp5261
(dp5262
g62
(dp5263
g89
g90
ssg71
g5252
sg64
(lp5264
S':'
asbag57
(g78
g59
NtRp5265
(dp5266
g62
(dp5267
sg71
g5252
sg64
(lp5268
g57
(g58
g59
NtRp5269
(dp5270
g62
(dp5271
g70
I5
ssg71
g5265
sg64
(lp5272
g57
(g66
g59
NtRp5273
(dp5274
g62
(dp5275
g70
I4
ssg71
Nsg64
(lp5276
sbasbasbasbag57
(g73
g59
NtRp5277
(dp5278
g62
(dp5279
sg71
g3922
sg64
(lp5280
g57
(g78
g59
NtRp5281
(dp5282
g62
(dp5283
g82
g83
ssg71
g5277
sg64
(lp5284
S'session_cookie_expires'
p5285
asbag57
(g78
g59
NtRp5286
(dp5287
g62
(dp5288
g89
g90
ssg71
g5277
sg64
(lp5289
S':'
asbag57
(g78
g59
NtRp5290
(dp5291
g62
(dp5292
sg71
g5277
sg64
(lp5293
g57
(g58
g59
NtRp5294
(dp5295
g62
(dp5296
g70
I5
ssg71
g5290
sg64
(lp5297
S'None'
p5298
asbasbasbag57
(g73
g59
NtRp5299
(dp5300
g62
(dp5301
sg71
g3922
sg64
(lp5302
g57
(g78
g59
NtRp5303
(dp5304
g62
(dp5305
g82
g83
ssg71
g5299
sg64
(lp5306
S'session_data_name'
p5307
asbag57
(g78
g59
NtRp5308
(dp5309
g62
(dp5310
g89
g90
ssg71
g5299
sg64
(lp5311
S':'
asbag57
(g78
g59
NtRp5312
(dp5313
g62
(dp5314
sg71
g5299
sg64
(lp5315
g57
(g58
g59
NtRp5316
(dp5317
g62
(dp5318
g70
I5
ssg71
g5312
sg64
(lp5319
S'session_data_music'
p5320
asbasbasbag57
(g73
g59
NtRp5321
(dp5322
g62
(dp5323
sg71
g3922
sg64
(lp5324
g57
(g78
g59
NtRp5325
(dp5326
g62
(dp5327
g82
g83
ssg71
g5321
sg64
(lp5328
S'session_file'
p5329
asbag57
(g78
g59
NtRp5330
(dp5331
g62
(dp5332
g89
g90
ssg71
g5321
sg64
(lp5333
S':'
asbag57
(g78
g59
NtRp5334
(dp5335
g62
(dp5336
sg71
g5321
sg64
(lp5337
g57
(g58
g59
NtRp5338
(dp5339
g62
(dp5340
g70
I5
ssg71
g5334
sg64
(lp5341
S"<open file '/home/gaurav/classwork/WEB_PROGRAMMING/web2py/applications/MUSIC/sessions/127.0.0.1-6a75e943-0a20-4bfb-98fe-2a61fdfaa079', mode 'rb+' at 0xae612b20>"
p5342
asbasbasbag57
(g73
g59
NtRp5343
(dp5344
g62
(dp5345
sg71
g3922
sg64
(lp5346
g57
(g78
g59
NtRp5347
(dp5348
g62
(dp5349
g82
g83
ssg71
g5343
sg64
(lp5350
S'session_filename'
p5351
asbag57
(g78
g59
NtRp5352
(dp5353
g62
(dp5354
g89
g90
ssg71
g5343
sg64
(lp5355
S':'
asbag57
(g78
g59
NtRp5356
(dp5357
g62
(dp5358
sg71
g5343
sg64
(lp5359
g57
(g58
g59
NtRp5360
(dp5361
g62
(dp5362
g70
I5
ssg71
g5356
sg64
(lp5363
S'/home/gaurav/classwork/WEB_PROGRAMMING/web2py/applications/MUSIC/sessions/127.0.0.1-6a75e943-0a20-4bfb-98fe-2a61fdfaa079'
p5364
asbasbasbag57
(g73
g59
NtRp5365
(dp5366
g62
(dp5367
sg71
g3922
sg64
(lp5368
g57
(g78
g59
NtRp5369
(dp5370
g62
(dp5371
g82
g83
ssg71
g5365
sg64
(lp5372
S'session_id'
p5373
asbag57
(g78
g59
NtRp5374
(dp5375
g62
(dp5376
g89
g90
ssg71
g5365
sg64
(lp5377
S':'
asbag57
(g78
g59
NtRp5378
(dp5379
g62
(dp5380
sg71
g5365
sg64
(lp5381
g57
(g58
g59
NtRp5382
(dp5383
g62
(dp5384
g70
I5
ssg71
g5378
sg64
(lp5385
g661
asbasbasbag57
(g73
g59
NtRp5386
(dp5387
g62
(dp5388
sg71
g3922
sg64
(lp5389
g57
(g78
g59
NtRp5390
(dp5391
g62
(dp5392
g82
g83
ssg71
g5386
sg64
(lp5393
S'session_id_name'
p5394
asbag57
(g78
g59
NtRp5395
(dp5396
g62
(dp5397
g89
g90
ssg71
g5386
sg64
(lp5398
S':'
asbag57
(g78
g59
NtRp5399
(dp5400
g62
(dp5401
sg71
g5386
sg64
(lp5402
g57
(g58
g59
NtRp5403
(dp5404
g62
(dp5405
g70
I5
ssg71
g5399
sg64
(lp5406
g3979
asbasbasbag57
(g73
g59
NtRp5407
(dp5408
g62
(dp5409
sg71
g3922
sg64
(lp5410
g57
(g78
g59
NtRp5411
(dp5412
g62
(dp5413
g82
g83
ssg71
g5407
sg64
(lp5414
S'session_locked'
p5415
asbag57
(g78
g59
NtRp5416
(dp5417
g62
(dp5418
g89
g90
ssg71
g5407
sg64
(lp5419
S':'
asbag57
(g78
g59
NtRp5420
(dp5421
g62
(dp5422
sg71
g5407
sg64
(lp5423
g57
(g58
g59
NtRp5424
(dp5425
g62
(dp5426
g70
I5
ssg71
g5420
sg64
(lp5427
g2249
asbasbasbag57
(g73
g59
NtRp5428
(dp5429
g62
(dp5430
sg71
g3922
sg64
(lp5431
g57
(g78
g59
NtRp5432
(dp5433
g62
(dp5434
g82
g83
ssg71
g5428
sg64
(lp5435
S'session_new'
p5436
asbag57
(g78
g59
NtRp5437
(dp5438
g62
(dp5439
g89
g90
ssg71
g5428
sg64
(lp5440
S':'
asbag57
(g78
g59
NtRp5441
(dp5442
g62
(dp5443
sg71
g5428
sg64
(lp5444
g57
(g58
g59
NtRp5445
(dp5446
g62
(dp5447
g70
I5
ssg71
g5441
sg64
(lp5448
g100
asbasbasbag57
(g73
g59
NtRp5449
(dp5450
g62
(dp5451
sg71
g3922
sg64
(lp5452
g57
(g78
g59
NtRp5453
(dp5454
g62
(dp5455
g82
g83
ssg71
g5449
sg64
(lp5456
S'session_storage_type'
p5457
asbag57
(g78
g59
NtRp5458
(dp5459
g62
(dp5460
g89
g90
ssg71
g5449
sg64
(lp5461
S':'
asbag57
(g78
g59
NtRp5462
(dp5463
g62
(dp5464
sg71
g5449
sg64
(lp5465
g57
(g58
g59
NtRp5466
(dp5467
g62
(dp5468
g70
I5
ssg71
g5462
sg64
(lp5469
g3869
asbasbasbag57
(g73
g59
NtRp5470
(dp5471
g62
(dp5472
sg71
g3922
sg64
(lp5473
g57
(g78
g59
NtRp5474
(dp5475
g62
(dp5476
g82
g83
ssg71
g5470
sg64
(lp5477
S'status'
p5478
asbag57
(g78
g59
NtRp5479
(dp5480
g62
(dp5481
g89
g90
ssg71
g5470
sg64
(lp5482
S':'
asbag57
(g78
g59
NtRp5483
(dp5484
g62
(dp5485
sg71
g5470
sg64
(lp5486
g57
(g58
g59
NtRp5487
(dp5488
g62
(dp5489
g70
I5
ssg71
g5483
sg64
(lp5490
S'200'
p5491
asbasbasbag57
(g73
g59
NtRp5492
(dp5493
g62
(dp5494
sg71
g3922
sg64
(lp5495
g57
(g78
g59
NtRp5496
(dp5497
g62
(dp5498
g82
g83
ssg71
g5492
sg64
(lp5499
S'subtitle'
p5500
asbag57
(g78
g59
NtRp5501
(dp5502
g62
(dp5503
g89
g90
ssg71
g5492
sg64
(lp5504
S':'
asbag57
(g78
g59
NtRp5505
(dp5506
g62
(dp5507
sg71
g5492
sg64
(lp5508
g57
(g58
g59
NtRp5509
(dp5510
g62
(dp5511
g70
I5
ssg71
g5505
sg64
(lp5512
g4456
(S's\r\x00\x00\x00customize me!'
tRp5513
asbasbasbag57
(g73
g59
NtRp5514
(dp5515
g62
(dp5516
sg71
g3922
sg64
(lp5517
g57
(g78
g59
NtRp5518
(dp5519
g62
(dp5520
g82
g83
ssg71
g5514
sg64
(lp5521
S'title'
p5522
asbag57
(g78
g59
NtRp5523
(dp5524
g62
(dp5525
g89
g90
ssg71
g5514
sg64
(lp5526
S':'
asbag57
(g78
g59
NtRp5527
(dp5528
g62
(dp5529
sg71
g5514
sg64
(lp5530
g57
(g58
g59
NtRp5531
(dp5532
g62
(dp5533
g70
I5
ssg71
g5527
sg64
(lp5534
S'Music'
p5535
asbasbasbag57
(g73
g59
NtRp5536
(dp5537
g62
(dp5538
sg71
g3922
sg64
(lp5539
g57
(g78
g59
NtRp5540
(dp5541
g62
(dp5542
g82
g83
ssg71
g5536
sg64
(lp5543
S'view'
p5544
asbag57
(g78
g59
NtRp5545
(dp5546
g62
(dp5547
g89
g90
ssg71
g5536
sg64
(lp5548
S':'
asbag57
(g78
g59
NtRp5549
(dp5550
g62
(dp5551
sg71
g5536
sg64
(lp5552
g57
(g58
g59
NtRp5553
(dp5554
g62
(dp5555
g70
I5
ssg71
g5549
sg64
(lp5556
S'default/ans.html'
p5557
asbasbasbasbasbsS'locals'
p5558
(dp5559
S'Service'
p5560
S"<class 'gluon.tools.Service'>"
p5561
sS'OBJECT'
p5562
S"<class 'gluon.html.OBJECT'>"
p5563
sS'SQLDB'
p5564
S"<class 'gluon.dal.DAL'>"
p5565
sg3904
S"<Storage {'_formkey[song/create]': 'b402b5ef-0b2...owser': {'version': '16.0', 'name': 'Firefox'}}}>"
p5566
sS'LINK'
p5567
S"<class 'gluon.html.LINK'>"
p5568
sS'BR'
p5569
S"<class 'gluon.html.BR'>"
p5570
sS'local_import'
p5571
S'<function <lambda>>'
p5572
sS'OPTGROUP'
p5573
S"<class 'gluon.html.OPTGROUP'>"
p5574
sS'__package__'
p5575
S'None'
p5576
sS'PRE'
p5577
S"<class 'gluon.html.PRE'>"
p5578
sS'IS_INT_IN_RANGE'
p5579
S"<class 'gluon.validators.IS_INT_IN_RANGE'>"
p5580
sS'IS_LOWER'
p5581
S"<class 'gluon.validators.IS_LOWER'>"
p5582
sS'IS_STRONG'
p5583
S"<class 'gluon.validators.IS_STRONG'>"
p5584
sS'cache'
p5585
S'<gluon.cache.Cache object>'
p5586
sS'IS_IN_DB'
p5587
S"<class 'gluon.validators.IS_IN_DB'>"
p5588
sS'TAG'
p5589
S'<gluon.html.__TAG__ object>'
p5590
sS'SQLField'
p5591
S"<class 'gluon.dal.Field'>"
p5592
sS'mail'
p5593
S'<gluon.tools.Mail object>'
p5594
sS'BODY'
p5595
S"<class 'gluon.html.BODY'>"
p5596
sS'IS_DATE_IN_RANGE'
p5597
S"<class 'gluon.validators.IS_DATE_IN_RANGE'>"
p5598
sS'IFRAME'
p5599
S"<class 'gluon.html.IFRAME'>"
p5600
sS'URL'
p5601
S'<function URL>'
p5602
sS'__file__'
p5603
S"'/home/gaurav/classwork/WEB_PROGRAMMING/web2py/applications/MUSIC/views/default/ans.html'"
p5604
sS'db'
p5605
S'<DAL uri="sqlite://storage.sqlite">'
p5606
sS'auth'
p5607
S'<gluon.tools.Auth object>'
p5608
sS'P'
S"<class 'gluon.html.P'>"
p5609
sS'TFOOT'
p5610
S"<class 'gluon.html.TFOOT'>"
p5611
sS'XHTML'
p5612
S"<class 'gluon.html.XHTML'>"
p5613
sS'ON'
p5614
g2249
sS'OL'
p5615
S"<class 'gluon.html.OL'>"
p5616
sS'TEXTAREA'
p5617
S"<class 'gluon.html.TEXTAREA'>"
p5618
sS'MENU'
p5619
S"<class 'gluon.html.MENU'>"
p5620
sS'IS_IMAGE'
p5621
S"<class 'gluon.validators.IS_IMAGE'>"
p5622
sS'EM'
p5623
S"<class 'gluon.html.EM'>"
p5624
sS'CODE'
p5625
S"<class 'gluon.html.CODE'>"
p5626
sS'HTTP'
p5627
S"<class 'gluon.http.HTTP'>"
p5628
sS'HR'
p5629
S"<class 'gluon.html.HR'>"
p5630
sS'IS_DATETIME'
p5631
S"<class 'gluon.validators.IS_DATETIME'>"
p5632
sS'STYLE'
p5633
S"<class 'gluon.html.STYLE'>"
p5634
sS'LABEL'
p5635
S"<class 'gluon.html.LABEL'>"
p5636
sS'CLEANUP'
p5637
S"<class 'gluon.validators.CLEANUP'>"
p5638
sS'plugins'
p5639
S'<gluon.tools.PluginManager object>'
p5640
sS'SELECT'
p5641
S"<class 'gluon.html.SELECT'>"
p5642
sS'use_janrain'
p5643
S'<function use_janrain>'
p5644
sS'CENTER'
p5645
S"<class 'gluon.html.CENTER'>"
p5646
sS'prettydate'
p5647
S'<function prettydate>'
p5648
sS'Crud'
p5649
S"<class 'gluon.tools.Crud'>"
p5650
sS'Auth'
p5651
S"<class 'gluon.tools.Auth'>"
p5652
sS'DEVELOPMENT_MENU'
p5653
g2249
sS'__builtins__'
p5654
S"{'ArithmeticError': <type 'exceptions.ArithmeticError'>, 'AssertionError': <type 'exceptions.AssertionError'>, 'AttributeError': <type 'exceptions.AttributeError'>, 'BaseException': <type 'exceptions.BaseException'>, 'BufferError': <type 'exceptions.BufferError'>, 'BytesWarning': <type 'exceptions.BytesWarning'>, 'DeprecationWarning': <type 'exceptions.DeprecationWarning'>, 'EOFError': <type 'exceptions.EOFError'>, 'Ellipsis': Ellipsis, 'EnvironmentError': <type 'exceptions.EnvironmentError'>, ...}"
p5655
sS'HTML'
p5656
S"<class 'gluon.html.HTML'>"
p5657
sS'SQLFORM'
p5658
S"<class 'gluon.sqlhtml.SQLFORM'>"
p5659
sS'LOAD'
p5660
S'<function LOAD>'
p5661
sS'redirect'
p5662
S'<function redirect>'
p5663
sS'FIELDSET'
p5664
S"<class 'gluon.html.FIELDSET'>"
p5665
sS'IS_EQUAL_TO'
p5666
S"<class 'gluon.validators.IS_EQUAL_TO'>"
p5667
sS'embed64'
p5668
S'<function embed64>'
p5669
sS'IS_LIST_OF'
p5670
S"<class 'gluon.validators.IS_LIST_OF'>"
p5671
sS'INPUT'
p5672
S"<class 'gluon.html.INPUT'>"
p5673
sS'EMBED'
p5674
S"<class 'gluon.html.EMBED'>"
p5675
sS'_'
S'<function _>'
p5676
sS'H2'
p5677
S"<class 'gluon.html.H2'>"
p5678
sS'H3'
p5679
S"<class 'gluon.html.H3'>"
p5680
sS'BUTTON'
p5681
S"<class 'gluon.html.BUTTON'>"
p5682
sS'H1'
p5683
S"<class 'gluon.html.H1'>"
p5684
sS'H6'
p5685
S"<class 'gluon.html.H6'>"
p5686
sS'H4'
p5687
S"<class 'gluon.html.H4'>"
p5688
sS'H5'
p5689
S"<class 'gluon.html.H5'>"
p5690
sS'UL'
p5691
S"<class 'gluon.html.UL'>"
p5692
sS's'
S'<Rows (0)>'
p5693
sS'IS_UPPER'
p5694
S"<class 'gluon.validators.IS_UPPER'>"
p5695
sS'xmlescape'
p5696
S'<function xmlescape>'
p5697
sS'IS_TIME'
p5698
S"<class 'gluon.validators.IS_TIME'>"
p5699
sS'OPTION'
p5700
S"<class 'gluon.html.OPTION'>"
p5701
sS'TITLE'
p5702
S"<class 'gluon.html.TITLE'>"
p5703
sS'CRYPT'
p5704
S"<class 'gluon.validators.CRYPT'>"
p5705
sS'IS_EMPTY_OR'
p5706
S"<class 'gluon.validators.IS_EMPTY_OR'>"
p5707
sS'MARKMIN'
p5708
S"<class 'gluon.html.MARKMIN'>"
p5709
sS'__name__'
p5710
S"'__restricted__'"
p5711
sS'STRONG'
p5712
S"<class 'gluon.html.STRONG'>"
p5713
sS'COL'
p5714
S"<class 'gluon.html.COL'>"
p5715
sS'service'
p5716
S'<gluon.tools.Service object>'
p5717
sS'SCRIPT'
p5718
S"<class 'gluon.html.SCRIPT'>"
p5719
sS'TABLE'
p5720
S"<class 'gluon.html.TABLE'>"
p5721
sS'IS_IPV4'
p5722
S"<class 'gluon.validators.IS_IPV4'>"
p5723
sS'IS_LENGTH'
p5724
S"<class 'gluon.validators.IS_LENGTH'>"
p5725
sS'XML'
p5726
S"<class 'gluon.html.XML'>"
p5727
sS'B'
S"<class 'gluon.html.B'>"
p5728
sS'IMG'
p5729
S"<class 'gluon.html.IMG'>"
p5730
sS'SQLTABLE'
p5731
S"<class 'gluon.sqlhtml.SQLTABLE'>"
p5732
sS'IS_MATCH'
p5733
S"<class 'gluon.validators.IS_MATCH'>"
p5734
sS'IS_ALPHANUMERIC'
p5735
S"<class 'gluon.validators.IS_ALPHANUMERIC'>"
p5736
sS'SPAN'
p5737
S"<class 'gluon.html.SPAN'>"
p5738
sS'IS_SLUG'
p5739
S"<class 'gluon.validators.IS_SLUG'>"
p5740
sS'BEAUTIFY'
p5741
S"<class 'gluon.html.BEAUTIFY'>"
p5742
sS'META'
p5743
S"<class 'gluon.html.META'>"
p5744
sS'k'
S'<Rows (1)>'
p5745
sS'IS_DATE'
p5746
S"<class 'gluon.validators.IS_DATE'>"
p5747
sS'IS_EMAIL'
p5748
S"<class 'gluon.validators.IS_EMAIL'>"
p5749
sS'IS_NOT_EMPTY'
p5750
S"<class 'gluon.validators.IS_NOT_EMPTY'>"
p5751
sS'm'
g45
sS'TBODY'
p5752
S"<class 'gluon.html.TBODY'>"
p5753
sS'CAT'
p5754
S"<class 'gluon.html.CAT'>"
p5755
sS'Field'
p5756
S"<class 'gluon.dal.Field'>"
p5757
sS'DIV'
p5758
S"<class 'gluon.html.DIV'>"
p5759
sS'LEGEND'
p5760
S"<class 'gluon.html.LEGEND'>"
p5761
sS'COLGROUP'
p5762
S"<class 'gluon.html.COLGROUP'>"
p5763
sS'DAL'
p5764
S"<class 'gluon.dal.DAL'>"
p5765
sS'TT'
p5766
S"<class 'gluon.html.TT'>"
p5767
sS'TR'
p5768
S"<class 'gluon.html.TR'>"
p5769
sS'LI'
p5770
S"<class 'gluon.html.LI'>"
p5771
sS'TH'
p5772
S"<class 'gluon.html.TH'>"
p5773
sS'TD'
p5774
S"<class 'gluon.html.TD'>"
p5775
sS'PluginManager'
p5776
S"<class 'gluon.tools.PluginManager'>"
p5777
sS'IS_URL'
p5778
S"<class 'gluon.validators.IS_URL'>"
p5779
sS'A'
S"<class 'gluon.html.A'>"
p5780
sS'HEAD'
p5781
S"<class 'gluon.html.HEAD'>"
p5782
sS'IS_DATETIME_IN_RANGE'
p5783
S"<class 'gluon.validators.IS_DATETIME_IN_RANGE'>"
p5784
sS'FORM'
p5785
S"<class 'gluon.html.FORM'>"
p5786
sS'I'
S"<class 'gluon.html.I'>"
p5787
sS'crud'
p5788
S'<gluon.tools.Crud object>'
p5789
sS'IS_NOT_IN_DB'
p5790
S"<class 'gluon.validators.IS_NOT_IN_DB'>"
p5791
sg3917
S"<Storage {'body': <cStringIO.StringO object at 0...bda> at 0xae95a294>, 'view': 'default/ans.html'}>"
p5792
sS'THEAD'
p5793
S"<class 'gluon.html.THEAD'>"
p5794
sS'IS_NULL_OR'
p5795
S"<class 'gluon.validators.IS_EMPTY_OR'>"
p5796
sS'IS_FLOAT_IN_RANGE'
p5797
S"<class 'gluon.validators.IS_FLOAT_IN_RANGE'>"
p5798
sg56
S"<Storage {'function': 'ans', 'body': <open file ...orage {'name': '23', 'SUBMIT': 'Submit Query'}>}>"
p5799
sS'IS_EXPR'
p5800
S"<class 'gluon.validators.IS_EXPR'>"
p5801
sS'T'
S'<gluon.languages.translator object>'
p5802
sS'IS_IN_SET'
p5803
S"<class 'gluon.validators.IS_IN_SET'>"
p5804
sS'IS_UPLOAD_FILENAME'
p5805
S"<class 'gluon.validators.IS_UPLOAD_FILENAME'>"
p5806
sS'IS_DECIMAL_IN_RANGE'
p5807
S"<class 'gluon.validators.IS_DECIMAL_IN_RANGE'>"
p5808
sssS'traceback'
p5809
S'Traceback (most recent call last):\n  File "/home/gaurav/classwork/WEB_PROGRAMMING/web2py/gluon/restricted.py", line 212, in restricted\n    exec ccode in environment\n  File "/home/gaurav/classwork/WEB_PROGRAMMING/web2py/applications/MUSIC/views/default/ans.html", line 1, in <module>\n    {{=m[\'name\']}}\nKeyError: \'name\'\n'
p5810
s.