(dp1
S'output'
p2
S"<type 'exceptions.SyntaxError'> invalid syntax (default.py, line 132)"
p3
sS'layer'
p4
S'/home/gaurav/classwork/WEB_PROGRAMMING/web2py/applications/ggg/controllers/default.py'
p5
sS'code'
p6
S'# -*- coding: utf-8 -*-\n# this file is released under public domain and you can use without limitations\n\n#########################################################################\n## This is a samples controller\n## - index is the default action of any application\n## - user is required for authentication and authorization\n## - download is for downloading files uploaded in the db (does streaming)\n## - call exposes all registered services (none by default)\n#########################################################################\n\n\n@auth.requires_login()\ndef index():\n    """\n    example action using the internationalization operator T and flash\n    rendered by views/default/index.html or views/generic.html\n\n    if you need a simple wiki simple replace the two lines below with:\n    return auth.wiki()\n    """\n    response.flash = T("Online Examination")\n    if(auth.user):\n\t db(auth.user.email==db.student.email).update(coun=1)\n    return dict(message=T(\'Hello World\'))\n   \n\n\ndef user():\n    """\n    exposes:\n    http://..../[app]/default/user/login\n    http://..../[app]/default/user/logout\n    http://..../[app]/default/user/register\n    http://..../[app]/default/user/profile\n    http://..../[app]/default/user/retrieve_password\n    http://..../[app]/default/user/change_password\n    use @auth.requires_login()\n        @auth.requires_membership(\'group name\')\n        @auth.requires_permission(\'read\',\'table name\',record_id)\n\n    to decorate functions that need access control\n    """\n    return dict(form=auth())\n\n\ndef download():\n    """\n    allows downloading of uploaded files\n    http://..../[app]/default/download/[filename]\n    """\n    return response.download(request, db)\n\n\ndef call():\n    """\n    exposes services. for example:\n    http://..../[app]/default/call/jsonrpc\n    decorate with @services.jsonrpc the functions to expose\n    supports xml, json, xmlrpc, jsonrpc, amfrpc, rss, csv\n    """\n    return service()\n\n\n@auth.requires_signature()\ndef data():\n    """\n    http://..../[app]/default/data/tables\n    http://..../[app]/default/data/create/[table]\n    http://..../[app]/default/data/read/[table]/[id]\n    http://..../[app]/default/data/update/[table]/[id]\n    http://..../[app]/default/data/delete/[table]/[id]\n    http://..../[app]/default/data/select/[table]\n    http://..../[app]/default/data/search/[table]\n    but URLs must be signed, i.e. linked with\n      A(\'table\',_href=URL(\'data/tables\',user_signature=True))\n    or with the signed load operator\n      LOAD(\'default\',\'data.load\',args=\'tables\',ajax=True,user_signature=True)\n    """\n    return dict(form=crud())\n\n\n\n\n\n#------------------------------------------------------------------------------------------------------------------------------#\n\n\n@auth.requires_login()\ndef student_info():\n     a=auth.user.email\n     b=auth.user.first_name\n     c=auth.user.last_name\n     response.flash=\'Logged in as \'+b+\' \'+c\n     form=SQLFORM(db.student)\n     form.vars.email=a\n     if (form.accepts(request,session)):\n\t  response.flash="Personal Information Successfully Added"\n     return dict(form=form)\n\n@auth.requires_login()\n@auth.requires_membership(\'IIIT_FACULTY_DEPARTMENT\')\ndef set_paper():\n     form=SQLFORM(db.questions)\n     form.vars.faculty_id=auth.user.email\n     if form.accepts(request,session):\n\t  response.flash="Question Inserted"\n     return dict(form=form)\n\n\n@auth.requires_login()\ndef exam():\n               \n     p={}\n     x=db(db.see.id==8).select(db.see.course)\n     x=x[0][\'course\']\n     k=db(auth.user.email==db.student.email).select(db.student.email)\n     if k:\n          p=db(auth.user.email==db.student.email).select(db.student.coun)\n          n=p[0][\'coun\']\n          que={}\n          que=db((db.questions.course==x)&(db.questions.que_number==n)).select(db.questions.que_number,\n\t       \t\t\t\t            db.questions.question,\n\t\t\t\t\t            db.questions.option_a,\n\t                                            db.questions.option_b,\n\t                                            db.questions.option_c,\n\t                                            db.questions.option_d,\n\t  \t\t\t\t            )\n          if (db((auth.user.id==db.auth_membership.user_id)&(db.auth_membership.group_id==17)).select(db.auth_user.ALL)):\n\t       form=SQLFORM.factory(\n\t\t\t Field(\'ans\',requires=IS_IN_SET([\'A\',\'B\',\'C\',\'D\'],multiple=True),widget=SQLFORM.widgets.checkboxes.widget)\n\t\t\t Field(\'com\',\'text\'))\n\t\t\t      \n\t\t\t \n\t       \n\t  else:\n\t       form=SQLFORM.factory(\n\t\t\t Field(\'ans\',requires=IS_IN_SET([\'A\',\'B\',\'C\',\'D\'],multiple=True),widget=SQLFORM.widgets.checkboxes.widget\n\t\t\t      )\n\t\t\t )\n\t  check=db((auth.user.email==db.answer.stid)&(n==db.answer.que_num)&(db.see.course==db.answer.course)).select(db.answer.ALL)\n\t  if(form.accepts(request,session)):\n\t       response.flash="Answer Submitted"\n\t       if check:\n\t\t    db((auth.user.email==db.answer.stid)&(n==db.answer.que_num)&(x==db.answer.course)).update(op= form.vars.ans,course=x)\n\t       else:\n\t\t    db.answer.insert(que_num=n,stid=auth.user.email,op=form.vars.ans,course=x)\n\t       response.flash=str(form.vars.ans)+"asdasd"\n\t       redirect(\'next\')\n\n     if k:\n\t  if que:\n\t       return dict(que=que,form=form)\n\t  else:\n\t       redirect(URL(\'default\',\'show\'))\n     else:\n\t  redirect(URL(\'default\',\'student_info\'))\n\t  \n\n\n@auth.requires_login()\ndef next():\n     p=db(auth.user.email==db.student.email).select(db.student.coun)\n     x=db(db.see.id==8).select(db.see.course)\n     x=x[0][\'course\']\n     n=p[0][\'coun\']\n     correct=db((db.questions.que_number==n)&(db.questions.course==x)).select(db.questions.ans)\n     given=db((db.answer.stid==auth.user.email)&(db.answer.que_num==n)&(db.answer.course==x)).select(db.answer.op)\n     if given:\n\t  if(given!=None and correct[0][\'ans\']==given[0][\'op\']):\n\t       db(db.questions.que_number==n).update(stid=auth.user.email)\n\t       db((db.questions.stid==auth.user.email)&(db.questions.que_number==n)).update(obtained_marks=4)\n\t  elif(correct!=given and given!=None):\n\t       db(db.questions.que_number==n).update(stid=auth.user.email)\n\t       db((db.questions.stid==auth.user.email)&(db.questions.que_number==n)).update(obtained_marks=-1)\n     \n     db(auth.user.email==db.student.email).update(coun=n+1)\n     que=db(db.questions.que_number>0).select(db.questions.que_number)\n     redirect(URL(\'default\',\'exam\'))\n\n\ndef prev():\n     p=db(auth.user.email==db.student.email).select(db.student.coun)\n     n=p[0][\'coun\']\n     if(n-1>0):\n\t  db(auth.user.email==db.student.email).update(coun=n-1)\n     if(n-1>0):\n\t  redirect(URL(\'default\',\'exam\'))\n     else:\n\t  redirect(URL(\'default\',\'exam\'))\ndef courses():\n     return locals()\ndef noq():\n     return locals()\n\ndef list():\n     k=db((db.auth_membership.user_id==db.auth_user.id)&(db.auth_membership.group_id!=17)).select(db.auth_user.first_name,db.auth_user.last_name)\n     return dict(k=k)\n\n\ndef faculty():\n     f=db((db.auth_membership.user_id==db.auth_user.id)&(db.auth_membership.group_id==17)).select(db.auth_user.first_name,db.auth_user.last_name)\n     return dict(f=f)\n\ndef show():\n     x=db(db.see.id==8).select(db.see.course)\n     x=x[0][\'course\']\n     a=auth.user.email\n     k=db((db.questions.stid==a)&(db.questions.course==x)).select(db.questions.obtained_marks)\n     marks=0\n     for i in range(len(k)):\n\t  marks=marks+k[i][\'obtained_marks\']\n     db(auth.user.email==db.student.email).update(final_marks=marks,given=0)\n     return dict(marks=marks)\n     if (db((auth.user.id==db.auth_membership.user_id)&(db.auth_membership.group_id==17)).select(db.auth_user.ALL)):\n\t  print\'wallah\'\n\ndef give_exam():\n     return locals()\n\ndef which_one():\n     p=request.post_vars[\'id\']\n     db(db.see.id==8).update(course=p)\n     redirect(URL(\'exam\'))\n\n@auth.requires_login()\ndef show_paper():\n     if (db((auth.user.id==db.auth_membership.user_id)&(db.auth_membership.group_id==17)).select(db.auth_user.ALL)):\n\t  query=db(db.questions.faculty_id==auth.user.email).select(db.questions.ALL)\t  \n\t  grid=SQLFORM.grid(db.questions)\n\t  return locals()\n     else:\n\t  query=db(db.answer.stid==auth.user.email).select(db.answer.ALL)\t  \n\t  grid=SQLFORM.grid(db.answer,editable=False,deletable=False)\n\t  return locals()\n\n\nresponse._vars=response._caller(exam)\n'
p7
sS'snapshot'
p8
(dp9
S'exception'
p10
(dp11
S'__getslice__'
p12
S"<method-wrapper '__getslice__' of exceptions.SyntaxError object>"
p13
sS'text'
p14
S'"\\t\\t\\t Field(\'com\',\'text\'))\\n"'
p15
sS'__str__'
p16
S"<method-wrapper '__str__' of exceptions.SyntaxError object>"
p17
sS'__reduce__'
p18
S'<built-in method __reduce__ of exceptions.SyntaxError object>'
p19
sS'__dict__'
p20
S'{}'
p21
sS'__sizeof__'
p22
S'<built-in method __sizeof__ of exceptions.SyntaxError object>'
p23
sS'__init__'
p24
S"<method-wrapper '__init__' of exceptions.SyntaxError object>"
p25
sS'__setattr__'
p26
S"<method-wrapper '__setattr__' of exceptions.SyntaxError object>"
p27
sS'__reduce_ex__'
p28
S'<built-in method __reduce_ex__ of exceptions.SyntaxError object>'
p29
sS'__new__'
p30
S'<built-in method __new__ of type object>'
p31
sS'__format__'
p32
S'<built-in method __format__ of exceptions.SyntaxError object>'
p33
sS'__class__'
p34
S"<type 'exceptions.SyntaxError'>"
p35
sS'filename'
p36
S"'/home/gaurav/classwork/WEB_PROGRAMMING/web2py/applications/ggg/controllers/default.py'"
p37
sS'lineno'
p38
S'132'
p39
sS'msg'
p40
S"'invalid syntax'"
p41
sS'__doc__'
p42
S"'Invalid syntax.'"
p43
sS'__getitem__'
p44
S"<method-wrapper '__getitem__' of exceptions.SyntaxError object>"
p45
sS'__setstate__'
p46
S'<built-in method __setstate__ of exceptions.SyntaxError object>'
p47
sS'__getattribute__'
p48
S"<method-wrapper '__getattribute__' of exceptions.SyntaxError object>"
p49
sS'print_file_and_line'
p50
S'None'
p51
sS'args'
p52
S'(\'invalid syntax\', (\'/home/gaurav/classwork/WEB_PROGRAMMING/web2py/applications/ggg/controllers/default.py\', 132, 9, "\\t\\t\\t Field(\'com\',\'text\'))\\n"))'
p53
sS'__subclasshook__'
p54
S'<built-in method __subclasshook__ of type object>'
p55
sS'offset'
p56
S'9'
sS'__unicode__'
p57
S'<built-in method __unicode__ of exceptions.SyntaxError object>'
p58
sS'__delattr__'
p59
S"<method-wrapper '__delattr__' of exceptions.SyntaxError object>"
p60
sS'__repr__'
p61
S"<method-wrapper '__repr__' of exceptions.SyntaxError object>"
p62
sS'__hash__'
p63
S"<method-wrapper '__hash__' of exceptions.SyntaxError object>"
p64
ssS'evalue'
p65
S'invalid syntax (default.py, line 132)'
p66
sS'request'
p67
ccopy_reg
_reconstructor
p68
(cgluon.html
BEAUTIFY
p69
c__builtin__
object
p70
NtRp71
(dp72
S'attributes'
p73
(dp74
sS'components'
p75
(lp76
g68
(cgluon.html
TABLE
p77
g70
NtRp78
(dp79
g73
(dp80
S'level'
p81
I5
ssS'parent'
p82
Nsg75
(lp83
g68
(cgluon.html
TR
p84
g70
NtRp85
(dp86
g73
(dp87
sg82
g78
sg75
(lp88
g68
(cgluon.html
TD
p89
g70
NtRp90
(dp91
g73
(dp92
S'_style'
p93
S'font-weight:bold;vertical-align:top'
p94
ssg82
g85
sg75
(lp95
S'ajax'
p96
asbag68
(g89
g70
NtRp97
(dp98
g73
(dp99
S'_valign'
p100
S'top'
p101
ssg82
g85
sg75
(lp102
S':'
asbag68
(g89
g70
NtRp103
(dp104
g73
(dp105
sg82
g85
sg75
(lp106
g68
(g69
g70
NtRp107
(dp108
g73
(dp109
g81
I5
ssg82
g103
sg75
(lp110
S'False'
p111
asbasbasbag68
(g84
g70
NtRp112
(dp113
g73
(dp114
sg82
g78
sg75
(lp115
g68
(g89
g70
NtRp116
(dp117
g73
(dp118
g93
g94
ssg82
g112
sg75
(lp119
S'application'
p120
asbag68
(g89
g70
NtRp121
(dp122
g73
(dp123
g100
g101
ssg82
g112
sg75
(lp124
S':'
asbag68
(g89
g70
NtRp125
(dp126
g73
(dp127
sg82
g112
sg75
(lp128
g68
(g69
g70
NtRp129
(dp130
g73
(dp131
g81
I5
ssg82
g125
sg75
(lp132
S'ggg'
p133
asbasbasbag68
(g84
g70
NtRp134
(dp135
g73
(dp136
sg82
g78
sg75
(lp137
g68
(g89
g70
NtRp138
(dp139
g73
(dp140
g93
g94
ssg82
g134
sg75
(lp141
g52
asbag68
(g89
g70
NtRp142
(dp143
g73
(dp144
g100
g101
ssg82
g134
sg75
(lp145
S':'
asbag68
(g89
g70
NtRp146
(dp147
g73
(dp148
sg82
g134
sg75
(lp149
g68
(g69
g70
NtRp150
(dp151
g73
(dp152
g81
I5
ssg82
g146
sg75
(lp153
g68
(g77
g70
NtRp154
(dp155
g73
(dp156
g81
I4
ssg82
Nsg75
(lp157
sbasbasbasbag68
(g84
g70
NtRp158
(dp159
g73
(dp160
sg82
g78
sg75
(lp161
g68
(g89
g70
NtRp162
(dp163
g73
(dp164
g93
g94
ssg82
g158
sg75
(lp165
S'body'
p166
asbag68
(g89
g70
NtRp167
(dp168
g73
(dp169
g100
g101
ssg82
g158
sg75
(lp170
S':'
asbag68
(g89
g70
NtRp171
(dp172
g73
(dp173
sg82
g158
sg75
(lp174
g68
(g69
g70
NtRp175
(dp176
g73
(dp177
g81
I5
ssg82
g171
sg75
(lp178
S'<cStringIO.StringO object at 0xac1ad80>'
p179
asbasbasbag68
(g84
g70
NtRp180
(dp181
g73
(dp182
sg82
g78
sg75
(lp183
g68
(g89
g70
NtRp184
(dp185
g73
(dp186
g93
g94
ssg82
g180
sg75
(lp187
S'cid'
p188
asbag68
(g89
g70
NtRp189
(dp190
g73
(dp191
g100
g101
ssg82
g180
sg75
(lp192
S':'
asbag68
(g89
g70
NtRp193
(dp194
g73
(dp195
sg82
g180
sg75
(lp196
g68
(g69
g70
NtRp197
(dp198
g73
(dp199
g81
I5
ssg82
g193
sg75
(lp200
S'None'
p201
asbasbasbag68
(g84
g70
NtRp202
(dp203
g73
(dp204
sg82
g78
sg75
(lp205
g68
(g89
g70
NtRp206
(dp207
g73
(dp208
g93
g94
ssg82
g202
sg75
(lp209
S'client'
p210
asbag68
(g89
g70
NtRp211
(dp212
g73
(dp213
g100
g101
ssg82
g202
sg75
(lp214
S':'
asbag68
(g89
g70
NtRp215
(dp216
g73
(dp217
sg82
g202
sg75
(lp218
g68
(g69
g70
NtRp219
(dp220
g73
(dp221
g81
I5
ssg82
g215
sg75
(lp222
S'127.0.0.1'
p223
asbasbasbag68
(g84
g70
NtRp224
(dp225
g73
(dp226
sg82
g78
sg75
(lp227
g68
(g89
g70
NtRp228
(dp229
g73
(dp230
g93
g94
ssg82
g224
sg75
(lp231
S'controller'
p232
asbag68
(g89
g70
NtRp233
(dp234
g73
(dp235
g100
g101
ssg82
g224
sg75
(lp236
S':'
asbag68
(g89
g70
NtRp237
(dp238
g73
(dp239
sg82
g224
sg75
(lp240
g68
(g69
g70
NtRp241
(dp242
g73
(dp243
g81
I5
ssg82
g237
sg75
(lp244
S'default'
p245
asbasbasbag68
(g84
g70
NtRp246
(dp247
g73
(dp248
sg82
g78
sg75
(lp249
g68
(g89
g70
NtRp250
(dp251
g73
(dp252
g93
g94
ssg82
g246
sg75
(lp253
S'cookies'
p254
asbag68
(g89
g70
NtRp255
(dp256
g73
(dp257
g100
g101
ssg82
g246
sg75
(lp258
S':'
asbag68
(g89
g70
NtRp259
(dp260
g73
(dp261
sg82
g246
sg75
(lp262
g68
(g69
g70
NtRp263
(dp264
g73
(dp265
g81
I5
ssg82
g259
sg75
(lp266
g68
(g77
g70
NtRp267
(dp268
g73
(dp269
g81
I4
ssg82
Nsg75
(lp270
g68
(g84
g70
NtRp271
(dp272
g73
(dp273
sg82
g267
sg75
(lp274
g68
(g89
g70
NtRp275
(dp276
g73
(dp277
g93
g94
ssg82
g271
sg75
(lp278
S'session_id_admin'
p279
asbag68
(g89
g70
NtRp280
(dp281
g73
(dp282
g100
g101
ssg82
g271
sg75
(lp283
S':'
asbag68
(g89
g70
NtRp284
(dp285
g73
(dp286
sg82
g271
sg75
(lp287
g68
(g69
g70
NtRp288
(dp289
g73
(dp290
g81
I4
ssg82
g284
sg75
(lp291
S'127.0.0.1-d6576af6-7437-48f9-bfd0-b2764c0d97b4'
p292
ag68
(g77
g70
NtRp293
(dp294
g73
(dp295
g81
I3
ssg82
Nsg75
(lp296
g68
(g84
g70
NtRp297
(dp298
g73
(dp299
sg82
g293
sg75
(lp300
g68
(g89
g70
NtRp301
(dp302
g73
(dp303
g93
g94
ssg82
g297
sg75
(lp304
S'comment'
p305
asbag68
(g89
g70
NtRp306
(dp307
g73
(dp308
g100
g101
ssg82
g297
sg75
(lp309
S':'
asbag68
(g89
g70
NtRp310
(dp311
g73
(dp312
sg82
g297
sg75
(lp313
g68
(g69
g70
NtRp314
(dp315
g73
(dp316
g81
I3
ssg82
g310
sg75
(lp317
S''
asbasbasbag68
(g84
g70
NtRp318
(dp319
g73
(dp320
sg82
g293
sg75
(lp321
g68
(g89
g70
NtRp322
(dp323
g73
(dp324
g93
g94
ssg82
g318
sg75
(lp325
S'domain'
p326
asbag68
(g89
g70
NtRp327
(dp328
g73
(dp329
g100
g101
ssg82
g318
sg75
(lp330
S':'
asbag68
(g89
g70
NtRp331
(dp332
g73
(dp333
sg82
g318
sg75
(lp334
g68
(g69
g70
NtRp335
(dp336
g73
(dp337
g81
I3
ssg82
g331
sg75
(lp338
S''
asbasbasbag68
(g84
g70
NtRp339
(dp340
g73
(dp341
sg82
g293
sg75
(lp342
g68
(g89
g70
NtRp343
(dp344
g73
(dp345
g93
g94
ssg82
g339
sg75
(lp346
S'expires'
p347
asbag68
(g89
g70
NtRp348
(dp349
g73
(dp350
g100
g101
ssg82
g339
sg75
(lp351
S':'
asbag68
(g89
g70
NtRp352
(dp353
g73
(dp354
sg82
g339
sg75
(lp355
g68
(g69
g70
NtRp356
(dp357
g73
(dp358
g81
I3
ssg82
g352
sg75
(lp359
S''
asbasbasbag68
(g84
g70
NtRp360
(dp361
g73
(dp362
sg82
g293
sg75
(lp363
g68
(g89
g70
NtRp364
(dp365
g73
(dp366
g93
g94
ssg82
g360
sg75
(lp367
S'httponly'
p368
asbag68
(g89
g70
NtRp369
(dp370
g73
(dp371
g100
g101
ssg82
g360
sg75
(lp372
S':'
asbag68
(g89
g70
NtRp373
(dp374
g73
(dp375
sg82
g360
sg75
(lp376
g68
(g69
g70
NtRp377
(dp378
g73
(dp379
g81
I3
ssg82
g373
sg75
(lp380
S''
asbasbasbag68
(g84
g70
NtRp381
(dp382
g73
(dp383
sg82
g293
sg75
(lp384
g68
(g89
g70
NtRp385
(dp386
g73
(dp387
g93
g94
ssg82
g381
sg75
(lp388
S'max-age'
p389
asbag68
(g89
g70
NtRp390
(dp391
g73
(dp392
g100
g101
ssg82
g381
sg75
(lp393
S':'
asbag68
(g89
g70
NtRp394
(dp395
g73
(dp396
sg82
g381
sg75
(lp397
g68
(g69
g70
NtRp398
(dp399
g73
(dp400
g81
I3
ssg82
g394
sg75
(lp401
S''
asbasbasbag68
(g84
g70
NtRp402
(dp403
g73
(dp404
sg82
g293
sg75
(lp405
g68
(g89
g70
NtRp406
(dp407
g73
(dp408
g93
g94
ssg82
g402
sg75
(lp409
S'path'
p410
asbag68
(g89
g70
NtRp411
(dp412
g73
(dp413
g100
g101
ssg82
g402
sg75
(lp414
S':'
asbag68
(g89
g70
NtRp415
(dp416
g73
(dp417
sg82
g402
sg75
(lp418
g68
(g69
g70
NtRp419
(dp420
g73
(dp421
g81
I3
ssg82
g415
sg75
(lp422
S''
asbasbasbag68
(g84
g70
NtRp423
(dp424
g73
(dp425
sg82
g293
sg75
(lp426
g68
(g89
g70
NtRp427
(dp428
g73
(dp429
g93
g94
ssg82
g423
sg75
(lp430
S'secure'
p431
asbag68
(g89
g70
NtRp432
(dp433
g73
(dp434
g100
g101
ssg82
g423
sg75
(lp435
S':'
asbag68
(g89
g70
NtRp436
(dp437
g73
(dp438
sg82
g423
sg75
(lp439
g68
(g69
g70
NtRp440
(dp441
g73
(dp442
g81
I3
ssg82
g436
sg75
(lp443
S''
asbasbasbag68
(g84
g70
NtRp444
(dp445
g73
(dp446
sg82
g293
sg75
(lp447
g68
(g89
g70
NtRp448
(dp449
g73
(dp450
g93
g94
ssg82
g444
sg75
(lp451
S'version'
p452
asbag68
(g89
g70
NtRp453
(dp454
g73
(dp455
g100
g101
ssg82
g444
sg75
(lp456
S':'
asbag68
(g89
g70
NtRp457
(dp458
g73
(dp459
sg82
g444
sg75
(lp460
g68
(g69
g70
NtRp461
(dp462
g73
(dp463
g81
I3
ssg82
g457
sg75
(lp464
S''
asbasbasbasbasbasbasbag68
(g84
g70
NtRp465
(dp466
g73
(dp467
sg82
g267
sg75
(lp468
g68
(g89
g70
NtRp469
(dp470
g73
(dp471
g93
g94
ssg82
g465
sg75
(lp472
S'session_id_ggg'
p473
asbag68
(g89
g70
NtRp474
(dp475
g73
(dp476
g100
g101
ssg82
g465
sg75
(lp477
S':'
asbag68
(g89
g70
NtRp478
(dp479
g73
(dp480
sg82
g465
sg75
(lp481
g68
(g69
g70
NtRp482
(dp483
g73
(dp484
g81
I4
ssg82
g478
sg75
(lp485
S'127.0.0.1-1f9d9cde-c5ed-462e-bb67-5fd73c401849'
p486
ag68
(g77
g70
NtRp487
(dp488
g73
(dp489
g81
I3
ssg82
Nsg75
(lp490
g68
(g84
g70
NtRp491
(dp492
g73
(dp493
sg82
g487
sg75
(lp494
g68
(g89
g70
NtRp495
(dp496
g73
(dp497
g93
g94
ssg82
g491
sg75
(lp498
g305
asbag68
(g89
g70
NtRp499
(dp500
g73
(dp501
g100
g101
ssg82
g491
sg75
(lp502
S':'
asbag68
(g89
g70
NtRp503
(dp504
g73
(dp505
sg82
g491
sg75
(lp506
g68
(g69
g70
NtRp507
(dp508
g73
(dp509
g81
I3
ssg82
g503
sg75
(lp510
S''
asbasbasbag68
(g84
g70
NtRp511
(dp512
g73
(dp513
sg82
g487
sg75
(lp514
g68
(g89
g70
NtRp515
(dp516
g73
(dp517
g93
g94
ssg82
g511
sg75
(lp518
g326
asbag68
(g89
g70
NtRp519
(dp520
g73
(dp521
g100
g101
ssg82
g511
sg75
(lp522
S':'
asbag68
(g89
g70
NtRp523
(dp524
g73
(dp525
sg82
g511
sg75
(lp526
g68
(g69
g70
NtRp527
(dp528
g73
(dp529
g81
I3
ssg82
g523
sg75
(lp530
S''
asbasbasbag68
(g84
g70
NtRp531
(dp532
g73
(dp533
sg82
g487
sg75
(lp534
g68
(g89
g70
NtRp535
(dp536
g73
(dp537
g93
g94
ssg82
g531
sg75
(lp538
g347
asbag68
(g89
g70
NtRp539
(dp540
g73
(dp541
g100
g101
ssg82
g531
sg75
(lp542
S':'
asbag68
(g89
g70
NtRp543
(dp544
g73
(dp545
sg82
g531
sg75
(lp546
g68
(g69
g70
NtRp547
(dp548
g73
(dp549
g81
I3
ssg82
g543
sg75
(lp550
S''
asbasbasbag68
(g84
g70
NtRp551
(dp552
g73
(dp553
sg82
g487
sg75
(lp554
g68
(g89
g70
NtRp555
(dp556
g73
(dp557
g93
g94
ssg82
g551
sg75
(lp558
g368
asbag68
(g89
g70
NtRp559
(dp560
g73
(dp561
g100
g101
ssg82
g551
sg75
(lp562
S':'
asbag68
(g89
g70
NtRp563
(dp564
g73
(dp565
sg82
g551
sg75
(lp566
g68
(g69
g70
NtRp567
(dp568
g73
(dp569
g81
I3
ssg82
g563
sg75
(lp570
S''
asbasbasbag68
(g84
g70
NtRp571
(dp572
g73
(dp573
sg82
g487
sg75
(lp574
g68
(g89
g70
NtRp575
(dp576
g73
(dp577
g93
g94
ssg82
g571
sg75
(lp578
g389
asbag68
(g89
g70
NtRp579
(dp580
g73
(dp581
g100
g101
ssg82
g571
sg75
(lp582
S':'
asbag68
(g89
g70
NtRp583
(dp584
g73
(dp585
sg82
g571
sg75
(lp586
g68
(g69
g70
NtRp587
(dp588
g73
(dp589
g81
I3
ssg82
g583
sg75
(lp590
S''
asbasbasbag68
(g84
g70
NtRp591
(dp592
g73
(dp593
sg82
g487
sg75
(lp594
g68
(g89
g70
NtRp595
(dp596
g73
(dp597
g93
g94
ssg82
g591
sg75
(lp598
g410
asbag68
(g89
g70
NtRp599
(dp600
g73
(dp601
g100
g101
ssg82
g591
sg75
(lp602
S':'
asbag68
(g89
g70
NtRp603
(dp604
g73
(dp605
sg82
g591
sg75
(lp606
g68
(g69
g70
NtRp607
(dp608
g73
(dp609
g81
I3
ssg82
g603
sg75
(lp610
S''
asbasbasbag68
(g84
g70
NtRp611
(dp612
g73
(dp613
sg82
g487
sg75
(lp614
g68
(g89
g70
NtRp615
(dp616
g73
(dp617
g93
g94
ssg82
g611
sg75
(lp618
g431
asbag68
(g89
g70
NtRp619
(dp620
g73
(dp621
g100
g101
ssg82
g611
sg75
(lp622
S':'
asbag68
(g89
g70
NtRp623
(dp624
g73
(dp625
sg82
g611
sg75
(lp626
g68
(g69
g70
NtRp627
(dp628
g73
(dp629
g81
I3
ssg82
g623
sg75
(lp630
S''
asbasbasbag68
(g84
g70
NtRp631
(dp632
g73
(dp633
sg82
g487
sg75
(lp634
g68
(g89
g70
NtRp635
(dp636
g73
(dp637
g93
g94
ssg82
g631
sg75
(lp638
g452
asbag68
(g89
g70
NtRp639
(dp640
g73
(dp641
g100
g101
ssg82
g631
sg75
(lp642
S':'
asbag68
(g89
g70
NtRp643
(dp644
g73
(dp645
sg82
g631
sg75
(lp646
g68
(g69
g70
NtRp647
(dp648
g73
(dp649
g81
I3
ssg82
g643
sg75
(lp650
S''
asbasbasbasbasbasbasbag68
(g84
g70
NtRp651
(dp652
g73
(dp653
sg82
g267
sg75
(lp654
g68
(g89
g70
NtRp655
(dp656
g73
(dp657
g93
g94
ssg82
g651
sg75
(lp658
S'session_id_welcome'
p659
asbag68
(g89
g70
NtRp660
(dp661
g73
(dp662
g100
g101
ssg82
g651
sg75
(lp663
S':'
asbag68
(g89
g70
NtRp664
(dp665
g73
(dp666
sg82
g651
sg75
(lp667
g68
(g69
g70
NtRp668
(dp669
g73
(dp670
g81
I4
ssg82
g664
sg75
(lp671
S'127.0.0.1-40f6db4f-9293-4ced-a7e8-33ed8cf6a9f1'
p672
ag68
(g77
g70
NtRp673
(dp674
g73
(dp675
g81
I3
ssg82
Nsg75
(lp676
g68
(g84
g70
NtRp677
(dp678
g73
(dp679
sg82
g673
sg75
(lp680
g68
(g89
g70
NtRp681
(dp682
g73
(dp683
g93
g94
ssg82
g677
sg75
(lp684
g305
asbag68
(g89
g70
NtRp685
(dp686
g73
(dp687
g100
g101
ssg82
g677
sg75
(lp688
S':'
asbag68
(g89
g70
NtRp689
(dp690
g73
(dp691
sg82
g677
sg75
(lp692
g68
(g69
g70
NtRp693
(dp694
g73
(dp695
g81
I3
ssg82
g689
sg75
(lp696
S''
asbasbasbag68
(g84
g70
NtRp697
(dp698
g73
(dp699
sg82
g673
sg75
(lp700
g68
(g89
g70
NtRp701
(dp702
g73
(dp703
g93
g94
ssg82
g697
sg75
(lp704
g326
asbag68
(g89
g70
NtRp705
(dp706
g73
(dp707
g100
g101
ssg82
g697
sg75
(lp708
S':'
asbag68
(g89
g70
NtRp709
(dp710
g73
(dp711
sg82
g697
sg75
(lp712
g68
(g69
g70
NtRp713
(dp714
g73
(dp715
g81
I3
ssg82
g709
sg75
(lp716
S''
asbasbasbag68
(g84
g70
NtRp717
(dp718
g73
(dp719
sg82
g673
sg75
(lp720
g68
(g89
g70
NtRp721
(dp722
g73
(dp723
g93
g94
ssg82
g717
sg75
(lp724
g347
asbag68
(g89
g70
NtRp725
(dp726
g73
(dp727
g100
g101
ssg82
g717
sg75
(lp728
S':'
asbag68
(g89
g70
NtRp729
(dp730
g73
(dp731
sg82
g717
sg75
(lp732
g68
(g69
g70
NtRp733
(dp734
g73
(dp735
g81
I3
ssg82
g729
sg75
(lp736
S''
asbasbasbag68
(g84
g70
NtRp737
(dp738
g73
(dp739
sg82
g673
sg75
(lp740
g68
(g89
g70
NtRp741
(dp742
g73
(dp743
g93
g94
ssg82
g737
sg75
(lp744
g368
asbag68
(g89
g70
NtRp745
(dp746
g73
(dp747
g100
g101
ssg82
g737
sg75
(lp748
S':'
asbag68
(g89
g70
NtRp749
(dp750
g73
(dp751
sg82
g737
sg75
(lp752
g68
(g69
g70
NtRp753
(dp754
g73
(dp755
g81
I3
ssg82
g749
sg75
(lp756
S''
asbasbasbag68
(g84
g70
NtRp757
(dp758
g73
(dp759
sg82
g673
sg75
(lp760
g68
(g89
g70
NtRp761
(dp762
g73
(dp763
g93
g94
ssg82
g757
sg75
(lp764
g389
asbag68
(g89
g70
NtRp765
(dp766
g73
(dp767
g100
g101
ssg82
g757
sg75
(lp768
S':'
asbag68
(g89
g70
NtRp769
(dp770
g73
(dp771
sg82
g757
sg75
(lp772
g68
(g69
g70
NtRp773
(dp774
g73
(dp775
g81
I3
ssg82
g769
sg75
(lp776
S''
asbasbasbag68
(g84
g70
NtRp777
(dp778
g73
(dp779
sg82
g673
sg75
(lp780
g68
(g89
g70
NtRp781
(dp782
g73
(dp783
g93
g94
ssg82
g777
sg75
(lp784
g410
asbag68
(g89
g70
NtRp785
(dp786
g73
(dp787
g100
g101
ssg82
g777
sg75
(lp788
S':'
asbag68
(g89
g70
NtRp789
(dp790
g73
(dp791
sg82
g777
sg75
(lp792
g68
(g69
g70
NtRp793
(dp794
g73
(dp795
g81
I3
ssg82
g789
sg75
(lp796
S''
asbasbasbag68
(g84
g70
NtRp797
(dp798
g73
(dp799
sg82
g673
sg75
(lp800
g68
(g89
g70
NtRp801
(dp802
g73
(dp803
g93
g94
ssg82
g797
sg75
(lp804
g431
asbag68
(g89
g70
NtRp805
(dp806
g73
(dp807
g100
g101
ssg82
g797
sg75
(lp808
S':'
asbag68
(g89
g70
NtRp809
(dp810
g73
(dp811
sg82
g797
sg75
(lp812
g68
(g69
g70
NtRp813
(dp814
g73
(dp815
g81
I3
ssg82
g809
sg75
(lp816
S''
asbasbasbag68
(g84
g70
NtRp817
(dp818
g73
(dp819
sg82
g673
sg75
(lp820
g68
(g89
g70
NtRp821
(dp822
g73
(dp823
g93
g94
ssg82
g817
sg75
(lp824
g452
asbag68
(g89
g70
NtRp825
(dp826
g73
(dp827
g100
g101
ssg82
g817
sg75
(lp828
S':'
asbag68
(g89
g70
NtRp829
(dp830
g73
(dp831
sg82
g817
sg75
(lp832
g68
(g69
g70
NtRp833
(dp834
g73
(dp835
g81
I3
ssg82
g829
sg75
(lp836
S''
asbasbasbasbasbasbasbasbasbasbasbag68
(g84
g70
NtRp837
(dp838
g73
(dp839
sg82
g78
sg75
(lp840
g68
(g89
g70
NtRp841
(dp842
g73
(dp843
g93
g94
ssg82
g837
sg75
(lp844
S'env'
p845
asbag68
(g89
g70
NtRp846
(dp847
g73
(dp848
g100
g101
ssg82
g837
sg75
(lp849
S':'
asbag68
(g89
g70
NtRp850
(dp851
g73
(dp852
sg82
g837
sg75
(lp853
g68
(g69
g70
NtRp854
(dp855
g73
(dp856
g81
I5
ssg82
g850
sg75
(lp857
g68
(g77
g70
NtRp858
(dp859
g73
(dp860
g81
I4
ssg82
Nsg75
(lp861
g68
(g84
g70
NtRp862
(dp863
g73
(dp864
sg82
g858
sg75
(lp865
g68
(g89
g70
NtRp866
(dp867
g73
(dp868
g93
g94
ssg82
g862
sg75
(lp869
S'app_folders'
p870
asbag68
(g89
g70
NtRp871
(dp872
g73
(dp873
g100
g101
ssg82
g862
sg75
(lp874
S':'
asbag68
(g89
g70
NtRp875
(dp876
g73
(dp877
sg82
g862
sg75
(lp878
g68
(g69
g70
NtRp879
(dp880
g73
(dp881
g81
I4
ssg82
g875
sg75
(lp882
S"set(['/home/gaurav/classwork/WEB_PROGRAMMING/web2py/applications/ggg/', '/home/gaurav/classwork/WEB_PROGRAMMING/web2py/applications/admin/', '/home/gaurav/classwork/WEB_PROGRAMMING/web2py/applications/welcome/'])"
p883
asbasbasbag68
(g84
g70
NtRp884
(dp885
g73
(dp886
sg82
g858
sg75
(lp887
g68
(g89
g70
NtRp888
(dp889
g73
(dp890
g93
g94
ssg82
g884
sg75
(lp891
S'applications_parent'
p892
asbag68
(g89
g70
NtRp893
(dp894
g73
(dp895
g100
g101
ssg82
g884
sg75
(lp896
S':'
asbag68
(g89
g70
NtRp897
(dp898
g73
(dp899
sg82
g884
sg75
(lp900
g68
(g69
g70
NtRp901
(dp902
g73
(dp903
g81
I4
ssg82
g897
sg75
(lp904
S'/home/gaurav/classwork/WEB_PROGRAMMING/web2py'
p905
asbasbasbag68
(g84
g70
NtRp906
(dp907
g73
(dp908
sg82
g858
sg75
(lp909
g68
(g89
g70
NtRp910
(dp911
g73
(dp912
g93
g94
ssg82
g906
sg75
(lp913
S'cmd_args'
p914
asbag68
(g89
g70
NtRp915
(dp916
g73
(dp917
g100
g101
ssg82
g906
sg75
(lp918
S':'
asbag68
(g89
g70
NtRp919
(dp920
g73
(dp921
sg82
g906
sg75
(lp922
g68
(g69
g70
NtRp923
(dp924
g73
(dp925
g81
I4
ssg82
g919
sg75
(lp926
g68
(g77
g70
NtRp927
(dp928
g73
(dp929
g81
I3
ssg82
Nsg75
(lp930
sbasbasbasbag68
(g84
g70
NtRp931
(dp932
g73
(dp933
sg82
g858
sg75
(lp934
g68
(g89
g70
NtRp935
(dp936
g73
(dp937
g93
g94
ssg82
g931
sg75
(lp938
S'cmd_options'
p939
asbag68
(g89
g70
NtRp940
(dp941
g73
(dp942
g100
g101
ssg82
g931
sg75
(lp943
S':'
asbag68
(g89
g70
NtRp944
(dp945
g73
(dp946
sg82
g931
sg75
(lp947
g68
(g69
g70
NtRp948
(dp949
g73
(dp950
g81
I4
ssg82
g944
sg75
(lp951
S"<Values at 0xa6446ec: {'verbose': False, 'ip': '127.0.0.1', 'with_scheduler': False, 'ips': [], 'shutdown_timeout': 5, 'taskbar': False, 'port': 8000, 'maxthreads': None, 'softcron': False, 'server_name': 'gaurav-Compaq-Presario-C700-Notebook-PC', 'bpython': False, 'nogui': False, 'pid_filename': 'httpserver.pid', 'extcron': False, 'runcron': False, 'run_system_tests': False, 'test': None, 'folder': '/home/gaurav/classwork/WEB_PROGRAMMING/web2py', 'config': '', 'import_models': False, 'winservice': '', 'shell': None, 'run': '', 'log_filename': 'httpserver.log', 'debuglevel': 30, 'args': [''], 'socket_timeout': 5, 'ssl_ca_certificate': None, 'scheduler': None, 'profiler_filename': None, 'ssl_private_key': '', 'scheduler_groups': None, 'password': '<ask>', 'request_queue_size': 5, 'ssl_certificate': '', 'cronjob': False, 'numthreads': None, 'quiet': False, 'interfaces': None, 'minthreads': None, 'timeout': 10, 'plain': False, 'nobanner': False}>"
p952
asbasbasbag68
(g84
g70
NtRp953
(dp954
g73
(dp955
sg82
g858
sg75
(lp956
g68
(g89
g70
NtRp957
(dp958
g73
(dp959
g93
g94
ssg82
g953
sg75
(lp960
S'db_sessions'
p961
asbag68
(g89
g70
NtRp962
(dp963
g73
(dp964
g100
g101
ssg82
g953
sg75
(lp965
S':'
asbag68
(g89
g70
NtRp966
(dp967
g73
(dp968
sg82
g953
sg75
(lp969
g68
(g69
g70
NtRp970
(dp971
g73
(dp972
g81
I4
ssg82
g966
sg75
(lp973
S'set([])'
p974
asbasbasbag68
(g84
g70
NtRp975
(dp976
g73
(dp977
sg82
g858
sg75
(lp978
g68
(g89
g70
NtRp979
(dp980
g73
(dp981
g93
g94
ssg82
g975
sg75
(lp982
S'debugging'
p983
asbag68
(g89
g70
NtRp984
(dp985
g73
(dp986
g100
g101
ssg82
g975
sg75
(lp987
S':'
asbag68
(g89
g70
NtRp988
(dp989
g73
(dp990
sg82
g975
sg75
(lp991
g68
(g69
g70
NtRp992
(dp993
g73
(dp994
g81
I4
ssg82
g988
sg75
(lp995
g111
asbasbasbag68
(g84
g70
NtRp996
(dp997
g73
(dp998
sg82
g858
sg75
(lp999
g68
(g89
g70
NtRp1000
(dp1001
g73
(dp1002
g93
g94
ssg82
g996
sg75
(lp1003
S'gluon_parent'
p1004
asbag68
(g89
g70
NtRp1005
(dp1006
g73
(dp1007
g100
g101
ssg82
g996
sg75
(lp1008
S':'
asbag68
(g89
g70
NtRp1009
(dp1010
g73
(dp1011
sg82
g996
sg75
(lp1012
g68
(g69
g70
NtRp1013
(dp1014
g73
(dp1015
g81
I4
ssg82
g1009
sg75
(lp1016
S'/home/gaurav/classwork/WEB_PROGRAMMING/web2py'
p1017
asbasbasbag68
(g84
g70
NtRp1018
(dp1019
g73
(dp1020
sg82
g858
sg75
(lp1021
g68
(g89
g70
NtRp1022
(dp1023
g73
(dp1024
g93
g94
ssg82
g1018
sg75
(lp1025
S'http_accept'
p1026
asbag68
(g89
g70
NtRp1027
(dp1028
g73
(dp1029
g100
g101
ssg82
g1018
sg75
(lp1030
S':'
asbag68
(g89
g70
NtRp1031
(dp1032
g73
(dp1033
sg82
g1018
sg75
(lp1034
g68
(g69
g70
NtRp1035
(dp1036
g73
(dp1037
g81
I4
ssg82
g1031
sg75
(lp1038
S'text/html,application/xhtml+xml,application/xml;q=0.9,*/*;q=0.8'
p1039
asbasbasbag68
(g84
g70
NtRp1040
(dp1041
g73
(dp1042
sg82
g858
sg75
(lp1043
g68
(g89
g70
NtRp1044
(dp1045
g73
(dp1046
g93
g94
ssg82
g1040
sg75
(lp1047
S'http_accept_encoding'
p1048
asbag68
(g89
g70
NtRp1049
(dp1050
g73
(dp1051
g100
g101
ssg82
g1040
sg75
(lp1052
S':'
asbag68
(g89
g70
NtRp1053
(dp1054
g73
(dp1055
sg82
g1040
sg75
(lp1056
g68
(g69
g70
NtRp1057
(dp1058
g73
(dp1059
g81
I4
ssg82
g1053
sg75
(lp1060
S'gzip, deflate'
p1061
asbasbasbag68
(g84
g70
NtRp1062
(dp1063
g73
(dp1064
sg82
g858
sg75
(lp1065
g68
(g89
g70
NtRp1066
(dp1067
g73
(dp1068
g93
g94
ssg82
g1062
sg75
(lp1069
S'http_accept_language'
p1070
asbag68
(g89
g70
NtRp1071
(dp1072
g73
(dp1073
g100
g101
ssg82
g1062
sg75
(lp1074
S':'
asbag68
(g89
g70
NtRp1075
(dp1076
g73
(dp1077
sg82
g1062
sg75
(lp1078
g68
(g69
g70
NtRp1079
(dp1080
g73
(dp1081
g81
I4
ssg82
g1075
sg75
(lp1082
S'en-US,en;q=0.5'
p1083
asbasbasbag68
(g84
g70
NtRp1084
(dp1085
g73
(dp1086
sg82
g858
sg75
(lp1087
g68
(g89
g70
NtRp1088
(dp1089
g73
(dp1090
g93
g94
ssg82
g1084
sg75
(lp1091
S'http_connection'
p1092
asbag68
(g89
g70
NtRp1093
(dp1094
g73
(dp1095
g100
g101
ssg82
g1084
sg75
(lp1096
S':'
asbag68
(g89
g70
NtRp1097
(dp1098
g73
(dp1099
sg82
g1084
sg75
(lp1100
g68
(g69
g70
NtRp1101
(dp1102
g73
(dp1103
g81
I4
ssg82
g1097
sg75
(lp1104
S'keep-alive'
p1105
asbasbasbag68
(g84
g70
NtRp1106
(dp1107
g73
(dp1108
sg82
g858
sg75
(lp1109
g68
(g89
g70
NtRp1110
(dp1111
g73
(dp1112
g93
g94
ssg82
g1106
sg75
(lp1113
S'http_cookie'
p1114
asbag68
(g89
g70
NtRp1115
(dp1116
g73
(dp1117
g100
g101
ssg82
g1106
sg75
(lp1118
S':'
asbag68
(g89
g70
NtRp1119
(dp1120
g73
(dp1121
sg82
g1106
sg75
(lp1122
g68
(g69
g70
NtRp1123
(dp1124
g73
(dp1125
g81
I4
ssg82
g1119
sg75
(lp1126
S'session_id_welcome=127.0.0.1-40f6db4f-9293-4ced-a7e8-33ed8cf6a9f1; session_id_admin=127.0.0.1-d6576af6-7437-48f9-bfd0-b2764c0d97b4; session_id_ggg=127.0.0.1-1f9d9cde-c5ed-462e-bb67-5fd73c401849'
p1127
asbasbasbag68
(g84
g70
NtRp1128
(dp1129
g73
(dp1130
sg82
g858
sg75
(lp1131
g68
(g89
g70
NtRp1132
(dp1133
g73
(dp1134
g93
g94
ssg82
g1128
sg75
(lp1135
S'http_host'
p1136
asbag68
(g89
g70
NtRp1137
(dp1138
g73
(dp1139
g100
g101
ssg82
g1128
sg75
(lp1140
S':'
asbag68
(g89
g70
NtRp1141
(dp1142
g73
(dp1143
sg82
g1128
sg75
(lp1144
g68
(g69
g70
NtRp1145
(dp1146
g73
(dp1147
g81
I4
ssg82
g1141
sg75
(lp1148
S'127.0.0.1:8000'
p1149
asbasbasbag68
(g84
g70
NtRp1150
(dp1151
g73
(dp1152
sg82
g858
sg75
(lp1153
g68
(g89
g70
NtRp1154
(dp1155
g73
(dp1156
g93
g94
ssg82
g1150
sg75
(lp1157
S'http_user_agent'
p1158
asbag68
(g89
g70
NtRp1159
(dp1160
g73
(dp1161
g100
g101
ssg82
g1150
sg75
(lp1162
S':'
asbag68
(g89
g70
NtRp1163
(dp1164
g73
(dp1165
sg82
g1150
sg75
(lp1166
g68
(g69
g70
NtRp1167
(dp1168
g73
(dp1169
g81
I4
ssg82
g1163
sg75
(lp1170
S'Mozilla/5.0 (X11; Ubuntu; Linux i686; rv:16.0) Gecko/20100101 Firefox/16.0'
p1171
asbasbasbag68
(g84
g70
NtRp1172
(dp1173
g73
(dp1174
sg82
g858
sg75
(lp1175
g68
(g89
g70
NtRp1176
(dp1177
g73
(dp1178
g93
g94
ssg82
g1172
sg75
(lp1179
S'is_jython'
p1180
asbag68
(g89
g70
NtRp1181
(dp1182
g73
(dp1183
g100
g101
ssg82
g1172
sg75
(lp1184
S':'
asbag68
(g89
g70
NtRp1185
(dp1186
g73
(dp1187
sg82
g1172
sg75
(lp1188
g68
(g69
g70
NtRp1189
(dp1190
g73
(dp1191
g81
I4
ssg82
g1185
sg75
(lp1192
g111
asbasbasbag68
(g84
g70
NtRp1193
(dp1194
g73
(dp1195
sg82
g858
sg75
(lp1196
g68
(g89
g70
NtRp1197
(dp1198
g73
(dp1199
g93
g94
ssg82
g1193
sg75
(lp1200
S'is_pypy'
p1201
asbag68
(g89
g70
NtRp1202
(dp1203
g73
(dp1204
g100
g101
ssg82
g1193
sg75
(lp1205
S':'
asbag68
(g89
g70
NtRp1206
(dp1207
g73
(dp1208
sg82
g1193
sg75
(lp1209
g68
(g69
g70
NtRp1210
(dp1211
g73
(dp1212
g81
I4
ssg82
g1206
sg75
(lp1213
g111
asbasbasbag68
(g84
g70
NtRp1214
(dp1215
g73
(dp1216
sg82
g858
sg75
(lp1217
g68
(g89
g70
NtRp1218
(dp1219
g73
(dp1220
g93
g94
ssg82
g1214
sg75
(lp1221
S'local_hosts'
p1222
asbag68
(g89
g70
NtRp1223
(dp1224
g73
(dp1225
g100
g101
ssg82
g1214
sg75
(lp1226
S':'
asbag68
(g89
g70
NtRp1227
(dp1228
g73
(dp1229
sg82
g1214
sg75
(lp1230
g68
(g69
g70
NtRp1231
(dp1232
g73
(dp1233
g81
I4
ssg82
g1227
sg75
(lp1234
g68
(g77
g70
NtRp1235
(dp1236
g73
(dp1237
g81
I3
ssg82
Nsg75
(lp1238
g68
(g84
g70
NtRp1239
(dp1240
g73
(dp1241
sg82
g1235
sg75
(lp1242
g68
(g89
g70
NtRp1243
(dp1244
g73
(dp1245
sg82
g1239
sg75
(lp1246
g68
(g69
g70
NtRp1247
(dp1248
g73
(dp1249
g81
I3
ssg82
g1243
sg75
(lp1250
S'gaurav-Compaq-Presario-C700-Notebook-PC'
p1251
asbasbasbag68
(g84
g70
NtRp1252
(dp1253
g73
(dp1254
sg82
g1235
sg75
(lp1255
g68
(g89
g70
NtRp1256
(dp1257
g73
(dp1258
sg82
g1252
sg75
(lp1259
g68
(g69
g70
NtRp1260
(dp1261
g73
(dp1262
g81
I3
ssg82
g1256
sg75
(lp1263
S'::1'
p1264
asbasbasbag68
(g84
g70
NtRp1265
(dp1266
g73
(dp1267
sg82
g1235
sg75
(lp1268
g68
(g89
g70
NtRp1269
(dp1270
g73
(dp1271
sg82
g1265
sg75
(lp1272
g68
(g69
g70
NtRp1273
(dp1274
g73
(dp1275
g81
I3
ssg82
g1269
sg75
(lp1276
S'127.0.1.1'
p1277
asbasbasbag68
(g84
g70
NtRp1278
(dp1279
g73
(dp1280
sg82
g1235
sg75
(lp1281
g68
(g89
g70
NtRp1282
(dp1283
g73
(dp1284
sg82
g1278
sg75
(lp1285
g68
(g69
g70
NtRp1286
(dp1287
g73
(dp1288
g81
I3
ssg82
g1282
sg75
(lp1289
S'::ffff:127.0.0.1'
p1290
asbasbasbag68
(g84
g70
NtRp1291
(dp1292
g73
(dp1293
sg82
g1235
sg75
(lp1294
g68
(g89
g70
NtRp1295
(dp1296
g73
(dp1297
sg82
g1291
sg75
(lp1298
g68
(g69
g70
NtRp1299
(dp1300
g73
(dp1301
g81
I3
ssg82
g1295
sg75
(lp1302
S'127.0.0.1'
p1303
asbasbasbasbasbasbasbag68
(g84
g70
NtRp1304
(dp1305
g73
(dp1306
sg82
g858
sg75
(lp1307
g68
(g89
g70
NtRp1308
(dp1309
g73
(dp1310
g93
g94
ssg82
g1304
sg75
(lp1311
S'path_info'
p1312
asbag68
(g89
g70
NtRp1313
(dp1314
g73
(dp1315
g100
g101
ssg82
g1304
sg75
(lp1316
S':'
asbag68
(g89
g70
NtRp1317
(dp1318
g73
(dp1319
sg82
g1304
sg75
(lp1320
g68
(g69
g70
NtRp1321
(dp1322
g73
(dp1323
g81
I4
ssg82
g1317
sg75
(lp1324
S'/ggg/default/exam.html'
p1325
asbasbasbag68
(g84
g70
NtRp1326
(dp1327
g73
(dp1328
sg82
g858
sg75
(lp1329
g68
(g89
g70
NtRp1330
(dp1331
g73
(dp1332
g93
g94
ssg82
g1326
sg75
(lp1333
S'query_string'
p1334
asbag68
(g89
g70
NtRp1335
(dp1336
g73
(dp1337
g100
g101
ssg82
g1326
sg75
(lp1338
S':'
asbag68
(g89
g70
NtRp1339
(dp1340
g73
(dp1341
sg82
g1326
sg75
(lp1342
g68
(g69
g70
NtRp1343
(dp1344
g73
(dp1345
g81
I4
ssg82
g1339
sg75
(lp1346
S''
asbasbasbag68
(g84
g70
NtRp1347
(dp1348
g73
(dp1349
sg82
g858
sg75
(lp1350
g68
(g89
g70
NtRp1351
(dp1352
g73
(dp1353
g93
g94
ssg82
g1347
sg75
(lp1354
S'remote_addr'
p1355
asbag68
(g89
g70
NtRp1356
(dp1357
g73
(dp1358
g100
g101
ssg82
g1347
sg75
(lp1359
S':'
asbag68
(g89
g70
NtRp1360
(dp1361
g73
(dp1362
sg82
g1347
sg75
(lp1363
g68
(g69
g70
NtRp1364
(dp1365
g73
(dp1366
g81
I4
ssg82
g1360
sg75
(lp1367
g223
asbasbasbag68
(g84
g70
NtRp1368
(dp1369
g73
(dp1370
sg82
g858
sg75
(lp1371
g68
(g89
g70
NtRp1372
(dp1373
g73
(dp1374
g93
g94
ssg82
g1368
sg75
(lp1375
S'remote_port'
p1376
asbag68
(g89
g70
NtRp1377
(dp1378
g73
(dp1379
g100
g101
ssg82
g1368
sg75
(lp1380
S':'
asbag68
(g89
g70
NtRp1381
(dp1382
g73
(dp1383
sg82
g1368
sg75
(lp1384
g68
(g69
g70
NtRp1385
(dp1386
g73
(dp1387
g81
I4
ssg82
g1381
sg75
(lp1388
S'41506'
p1389
asbasbasbag68
(g84
g70
NtRp1390
(dp1391
g73
(dp1392
sg82
g858
sg75
(lp1393
g68
(g89
g70
NtRp1394
(dp1395
g73
(dp1396
g93
g94
ssg82
g1390
sg75
(lp1397
S'request_method'
p1398
asbag68
(g89
g70
NtRp1399
(dp1400
g73
(dp1401
g100
g101
ssg82
g1390
sg75
(lp1402
S':'
asbag68
(g89
g70
NtRp1403
(dp1404
g73
(dp1405
sg82
g1390
sg75
(lp1406
g68
(g69
g70
NtRp1407
(dp1408
g73
(dp1409
g81
I4
ssg82
g1403
sg75
(lp1410
S'GET'
p1411
asbasbasbag68
(g84
g70
NtRp1412
(dp1413
g73
(dp1414
sg82
g858
sg75
(lp1415
g68
(g89
g70
NtRp1416
(dp1417
g73
(dp1418
g93
g94
ssg82
g1412
sg75
(lp1419
S'request_uri'
p1420
asbag68
(g89
g70
NtRp1421
(dp1422
g73
(dp1423
g100
g101
ssg82
g1412
sg75
(lp1424
S':'
asbag68
(g89
g70
NtRp1425
(dp1426
g73
(dp1427
sg82
g1412
sg75
(lp1428
g68
(g69
g70
NtRp1429
(dp1430
g73
(dp1431
g81
I4
ssg82
g1425
sg75
(lp1432
g1325
asbasbasbag68
(g84
g70
NtRp1433
(dp1434
g73
(dp1435
sg82
g858
sg75
(lp1436
g68
(g89
g70
NtRp1437
(dp1438
g73
(dp1439
g93
g94
ssg82
g1433
sg75
(lp1440
S'script_name'
p1441
asbag68
(g89
g70
NtRp1442
(dp1443
g73
(dp1444
g100
g101
ssg82
g1433
sg75
(lp1445
S':'
asbag68
(g89
g70
NtRp1446
(dp1447
g73
(dp1448
sg82
g1433
sg75
(lp1449
g68
(g69
g70
NtRp1450
(dp1451
g73
(dp1452
g81
I4
ssg82
g1446
sg75
(lp1453
S''
asbasbasbag68
(g84
g70
NtRp1454
(dp1455
g73
(dp1456
sg82
g858
sg75
(lp1457
g68
(g89
g70
NtRp1458
(dp1459
g73
(dp1460
g93
g94
ssg82
g1454
sg75
(lp1461
S'server_name'
p1462
asbag68
(g89
g70
NtRp1463
(dp1464
g73
(dp1465
g100
g101
ssg82
g1454
sg75
(lp1466
S':'
asbag68
(g89
g70
NtRp1467
(dp1468
g73
(dp1469
sg82
g1454
sg75
(lp1470
g68
(g69
g70
NtRp1471
(dp1472
g73
(dp1473
g81
I4
ssg82
g1467
sg75
(lp1474
S'gaurav-Compaq-Presario-C700-Notebook-PC'
p1475
asbasbasbag68
(g84
g70
NtRp1476
(dp1477
g73
(dp1478
sg82
g858
sg75
(lp1479
g68
(g89
g70
NtRp1480
(dp1481
g73
(dp1482
g93
g94
ssg82
g1476
sg75
(lp1483
S'server_port'
p1484
asbag68
(g89
g70
NtRp1485
(dp1486
g73
(dp1487
g100
g101
ssg82
g1476
sg75
(lp1488
S':'
asbag68
(g89
g70
NtRp1489
(dp1490
g73
(dp1491
sg82
g1476
sg75
(lp1492
g68
(g69
g70
NtRp1493
(dp1494
g73
(dp1495
g81
I4
ssg82
g1489
sg75
(lp1496
S'8000'
p1497
asbasbasbag68
(g84
g70
NtRp1498
(dp1499
g73
(dp1500
sg82
g858
sg75
(lp1501
g68
(g89
g70
NtRp1502
(dp1503
g73
(dp1504
g93
g94
ssg82
g1498
sg75
(lp1505
S'server_protocol'
p1506
asbag68
(g89
g70
NtRp1507
(dp1508
g73
(dp1509
g100
g101
ssg82
g1498
sg75
(lp1510
S':'
asbag68
(g89
g70
NtRp1511
(dp1512
g73
(dp1513
sg82
g1498
sg75
(lp1514
g68
(g69
g70
NtRp1515
(dp1516
g73
(dp1517
g81
I4
ssg82
g1511
sg75
(lp1518
S'HTTP/1.1'
p1519
asbasbasbag68
(g84
g70
NtRp1520
(dp1521
g73
(dp1522
sg82
g858
sg75
(lp1523
g68
(g89
g70
NtRp1524
(dp1525
g73
(dp1526
g93
g94
ssg82
g1520
sg75
(lp1527
S'server_software'
p1528
asbag68
(g89
g70
NtRp1529
(dp1530
g73
(dp1531
g100
g101
ssg82
g1520
sg75
(lp1532
S':'
asbag68
(g89
g70
NtRp1533
(dp1534
g73
(dp1535
sg82
g1520
sg75
(lp1536
g68
(g69
g70
NtRp1537
(dp1538
g73
(dp1539
g81
I4
ssg82
g1533
sg75
(lp1540
S'Rocket 1.2.6'
p1541
asbasbasbag68
(g84
g70
NtRp1542
(dp1543
g73
(dp1544
sg82
g858
sg75
(lp1545
g68
(g89
g70
NtRp1546
(dp1547
g73
(dp1548
g93
g94
ssg82
g1542
sg75
(lp1549
S'web2py_path'
p1550
asbag68
(g89
g70
NtRp1551
(dp1552
g73
(dp1553
g100
g101
ssg82
g1542
sg75
(lp1554
S':'
asbag68
(g89
g70
NtRp1555
(dp1556
g73
(dp1557
sg82
g1542
sg75
(lp1558
g68
(g69
g70
NtRp1559
(dp1560
g73
(dp1561
g81
I4
ssg82
g1555
sg75
(lp1562
g905
asbasbasbag68
(g84
g70
NtRp1563
(dp1564
g73
(dp1565
sg82
g858
sg75
(lp1566
g68
(g89
g70
NtRp1567
(dp1568
g73
(dp1569
g93
g94
ssg82
g1563
sg75
(lp1570
S'web2py_version'
p1571
asbag68
(g89
g70
NtRp1572
(dp1573
g73
(dp1574
g100
g101
ssg82
g1563
sg75
(lp1575
S':'
asbag68
(g89
g70
NtRp1576
(dp1577
g73
(dp1578
sg82
g1563
sg75
(lp1579
g68
(g69
g70
NtRp1580
(dp1581
g73
(dp1582
g81
I4
ssg82
g1576
sg75
(lp1583
g68
(g77
g70
NtRp1584
(dp1585
g73
(dp1586
g81
I3
ssg82
Nsg75
(lp1587
g68
(g84
g70
NtRp1588
(dp1589
g73
(dp1590
sg82
g1584
sg75
(lp1591
g68
(g89
g70
NtRp1592
(dp1593
g73
(dp1594
sg82
g1588
sg75
(lp1595
g68
(g69
g70
NtRp1596
(dp1597
g73
(dp1598
g81
I3
ssg82
g1592
sg75
(lp1599
S'2'
asbasbasbag68
(g84
g70
NtRp1600
(dp1601
g73
(dp1602
sg82
g1584
sg75
(lp1603
g68
(g89
g70
NtRp1604
(dp1605
g73
(dp1606
sg82
g1600
sg75
(lp1607
g68
(g69
g70
NtRp1608
(dp1609
g73
(dp1610
g81
I3
ssg82
g1604
sg75
(lp1611
S'3'
asbasbasbag68
(g84
g70
NtRp1612
(dp1613
g73
(dp1614
sg82
g1584
sg75
(lp1615
g68
(g89
g70
NtRp1616
(dp1617
g73
(dp1618
sg82
g1612
sg75
(lp1619
g68
(g69
g70
NtRp1620
(dp1621
g73
(dp1622
g81
I3
ssg82
g1616
sg75
(lp1623
S'2'
asbasbasbag68
(g84
g70
NtRp1624
(dp1625
g73
(dp1626
sg82
g1584
sg75
(lp1627
g68
(g89
g70
NtRp1628
(dp1629
g73
(dp1630
sg82
g1624
sg75
(lp1631
g68
(g69
g70
NtRp1632
(dp1633
g73
(dp1634
g81
I3
ssg82
g1628
sg75
(lp1635
S'datetime.datetime(2012, 12, 17, 15, 3, 30)'
p1636
asbasbasbag68
(g84
g70
NtRp1637
(dp1638
g73
(dp1639
sg82
g1584
sg75
(lp1640
g68
(g89
g70
NtRp1641
(dp1642
g73
(dp1643
sg82
g1637
sg75
(lp1644
g68
(g69
g70
NtRp1645
(dp1646
g73
(dp1647
g81
I3
ssg82
g1641
sg75
(lp1648
S'stable'
p1649
asbasbasbasbasbasbasbag68
(g84
g70
NtRp1650
(dp1651
g73
(dp1652
sg82
g858
sg75
(lp1653
g68
(g89
g70
NtRp1654
(dp1655
g73
(dp1656
g93
g94
ssg82
g1650
sg75
(lp1657
S'wsgi_errors'
p1658
asbag68
(g89
g70
NtRp1659
(dp1660
g73
(dp1661
g100
g101
ssg82
g1650
sg75
(lp1662
S':'
asbag68
(g89
g70
NtRp1663
(dp1664
g73
(dp1665
sg82
g1650
sg75
(lp1666
g68
(g69
g70
NtRp1667
(dp1668
g73
(dp1669
g81
I4
ssg82
g1663
sg75
(lp1670
S"<open file '<stderr>', mode 'w' at 0xb747b0d0>"
p1671
asbasbasbag68
(g84
g70
NtRp1672
(dp1673
g73
(dp1674
sg82
g858
sg75
(lp1675
g68
(g89
g70
NtRp1676
(dp1677
g73
(dp1678
g93
g94
ssg82
g1672
sg75
(lp1679
S'wsgi_file_wrapper'
p1680
asbag68
(g89
g70
NtRp1681
(dp1682
g73
(dp1683
g100
g101
ssg82
g1672
sg75
(lp1684
S':'
asbag68
(g89
g70
NtRp1685
(dp1686
g73
(dp1687
sg82
g1672
sg75
(lp1688
g68
(g69
g70
NtRp1689
(dp1690
g73
(dp1691
g81
I4
ssg82
g1685
sg75
(lp1692
S'<class wsgiref.util.FileWrapper at 0xa5f6ecc>'
p1693
asbasbasbag68
(g84
g70
NtRp1694
(dp1695
g73
(dp1696
sg82
g858
sg75
(lp1697
g68
(g89
g70
NtRp1698
(dp1699
g73
(dp1700
g93
g94
ssg82
g1694
sg75
(lp1701
S'wsgi_input'
p1702
asbag68
(g89
g70
NtRp1703
(dp1704
g73
(dp1705
g100
g101
ssg82
g1694
sg75
(lp1706
S':'
asbag68
(g89
g70
NtRp1707
(dp1708
g73
(dp1709
sg82
g1694
sg75
(lp1710
g68
(g69
g70
NtRp1711
(dp1712
g73
(dp1713
g81
I4
ssg82
g1707
sg75
(lp1714
S'<socket._fileobject object at 0xadc33dec>'
p1715
asbasbasbag68
(g84
g70
NtRp1716
(dp1717
g73
(dp1718
sg82
g858
sg75
(lp1719
g68
(g89
g70
NtRp1720
(dp1721
g73
(dp1722
g93
g94
ssg82
g1716
sg75
(lp1723
S'wsgi_multiprocess'
p1724
asbag68
(g89
g70
NtRp1725
(dp1726
g73
(dp1727
g100
g101
ssg82
g1716
sg75
(lp1728
S':'
asbag68
(g89
g70
NtRp1729
(dp1730
g73
(dp1731
sg82
g1716
sg75
(lp1732
g68
(g69
g70
NtRp1733
(dp1734
g73
(dp1735
g81
I4
ssg82
g1729
sg75
(lp1736
g111
asbasbasbag68
(g84
g70
NtRp1737
(dp1738
g73
(dp1739
sg82
g858
sg75
(lp1740
g68
(g89
g70
NtRp1741
(dp1742
g73
(dp1743
g93
g94
ssg82
g1737
sg75
(lp1744
S'wsgi_multithread'
p1745
asbag68
(g89
g70
NtRp1746
(dp1747
g73
(dp1748
g100
g101
ssg82
g1737
sg75
(lp1749
S':'
asbag68
(g89
g70
NtRp1750
(dp1751
g73
(dp1752
sg82
g1737
sg75
(lp1753
g68
(g69
g70
NtRp1754
(dp1755
g73
(dp1756
g81
I4
ssg82
g1750
sg75
(lp1757
S'True'
p1758
asbasbasbag68
(g84
g70
NtRp1759
(dp1760
g73
(dp1761
sg82
g858
sg75
(lp1762
g68
(g89
g70
NtRp1763
(dp1764
g73
(dp1765
g93
g94
ssg82
g1759
sg75
(lp1766
S'wsgi_run_once'
p1767
asbag68
(g89
g70
NtRp1768
(dp1769
g73
(dp1770
g100
g101
ssg82
g1759
sg75
(lp1771
S':'
asbag68
(g89
g70
NtRp1772
(dp1773
g73
(dp1774
sg82
g1759
sg75
(lp1775
g68
(g69
g70
NtRp1776
(dp1777
g73
(dp1778
g81
I4
ssg82
g1772
sg75
(lp1779
g111
asbasbasbag68
(g84
g70
NtRp1780
(dp1781
g73
(dp1782
sg82
g858
sg75
(lp1783
g68
(g89
g70
NtRp1784
(dp1785
g73
(dp1786
g93
g94
ssg82
g1780
sg75
(lp1787
S'wsgi_url_scheme'
p1788
asbag68
(g89
g70
NtRp1789
(dp1790
g73
(dp1791
g100
g101
ssg82
g1780
sg75
(lp1792
S':'
asbag68
(g89
g70
NtRp1793
(dp1794
g73
(dp1795
sg82
g1780
sg75
(lp1796
g68
(g69
g70
NtRp1797
(dp1798
g73
(dp1799
g81
I4
ssg82
g1793
sg75
(lp1800
S'http'
p1801
asbasbasbag68
(g84
g70
NtRp1802
(dp1803
g73
(dp1804
sg82
g858
sg75
(lp1805
g68
(g89
g70
NtRp1806
(dp1807
g73
(dp1808
g93
g94
ssg82
g1802
sg75
(lp1809
S'wsgi_version'
p1810
asbag68
(g89
g70
NtRp1811
(dp1812
g73
(dp1813
g100
g101
ssg82
g1802
sg75
(lp1814
S':'
asbag68
(g89
g70
NtRp1815
(dp1816
g73
(dp1817
sg82
g1802
sg75
(lp1818
g68
(g69
g70
NtRp1819
(dp1820
g73
(dp1821
g81
I4
ssg82
g1815
sg75
(lp1822
g68
(g77
g70
NtRp1823
(dp1824
g73
(dp1825
g81
I3
ssg82
Nsg75
(lp1826
g68
(g84
g70
NtRp1827
(dp1828
g73
(dp1829
sg82
g1823
sg75
(lp1830
g68
(g89
g70
NtRp1831
(dp1832
g73
(dp1833
sg82
g1827
sg75
(lp1834
g68
(g69
g70
NtRp1835
(dp1836
g73
(dp1837
g81
I3
ssg82
g1831
sg75
(lp1838
S'1'
asbasbasbag68
(g84
g70
NtRp1839
(dp1840
g73
(dp1841
sg82
g1823
sg75
(lp1842
g68
(g89
g70
NtRp1843
(dp1844
g73
(dp1845
sg82
g1839
sg75
(lp1846
g68
(g69
g70
NtRp1847
(dp1848
g73
(dp1849
g81
I3
ssg82
g1843
sg75
(lp1850
S'0'
asbasbasbasbasbasbasbasbasbasbasbag68
(g84
g70
NtRp1851
(dp1852
g73
(dp1853
sg82
g78
sg75
(lp1854
g68
(g89
g70
NtRp1855
(dp1856
g73
(dp1857
g93
g94
ssg82
g1851
sg75
(lp1858
S'extension'
p1859
asbag68
(g89
g70
NtRp1860
(dp1861
g73
(dp1862
g100
g101
ssg82
g1851
sg75
(lp1863
S':'
asbag68
(g89
g70
NtRp1864
(dp1865
g73
(dp1866
sg82
g1851
sg75
(lp1867
g68
(g69
g70
NtRp1868
(dp1869
g73
(dp1870
g81
I5
ssg82
g1864
sg75
(lp1871
S'html'
p1872
asbasbasbag68
(g84
g70
NtRp1873
(dp1874
g73
(dp1875
sg82
g78
sg75
(lp1876
g68
(g89
g70
NtRp1877
(dp1878
g73
(dp1879
g93
g94
ssg82
g1873
sg75
(lp1880
S'folder'
p1881
asbag68
(g89
g70
NtRp1882
(dp1883
g73
(dp1884
g100
g101
ssg82
g1873
sg75
(lp1885
S':'
asbag68
(g89
g70
NtRp1886
(dp1887
g73
(dp1888
sg82
g1873
sg75
(lp1889
g68
(g69
g70
NtRp1890
(dp1891
g73
(dp1892
g81
I5
ssg82
g1886
sg75
(lp1893
S'/home/gaurav/classwork/WEB_PROGRAMMING/web2py/applications/ggg/'
p1894
asbasbasbag68
(g84
g70
NtRp1895
(dp1896
g73
(dp1897
sg82
g78
sg75
(lp1898
g68
(g89
g70
NtRp1899
(dp1900
g73
(dp1901
g93
g94
ssg82
g1895
sg75
(lp1902
S'function'
p1903
asbag68
(g89
g70
NtRp1904
(dp1905
g73
(dp1906
g100
g101
ssg82
g1895
sg75
(lp1907
S':'
asbag68
(g89
g70
NtRp1908
(dp1909
g73
(dp1910
sg82
g1895
sg75
(lp1911
g68
(g69
g70
NtRp1912
(dp1913
g73
(dp1914
g81
I5
ssg82
g1908
sg75
(lp1915
S'exam'
p1916
asbasbasbag68
(g84
g70
NtRp1917
(dp1918
g73
(dp1919
sg82
g78
sg75
(lp1920
g68
(g89
g70
NtRp1921
(dp1922
g73
(dp1923
g93
g94
ssg82
g1917
sg75
(lp1924
S'get_vars'
p1925
asbag68
(g89
g70
NtRp1926
(dp1927
g73
(dp1928
g100
g101
ssg82
g1917
sg75
(lp1929
S':'
asbag68
(g89
g70
NtRp1930
(dp1931
g73
(dp1932
sg82
g1917
sg75
(lp1933
g68
(g69
g70
NtRp1934
(dp1935
g73
(dp1936
g81
I5
ssg82
g1930
sg75
(lp1937
g68
(g77
g70
NtRp1938
(dp1939
g73
(dp1940
g81
I4
ssg82
Nsg75
(lp1941
sbasbasbasbag68
(g84
g70
NtRp1942
(dp1943
g73
(dp1944
sg82
g78
sg75
(lp1945
g68
(g89
g70
NtRp1946
(dp1947
g73
(dp1948
g93
g94
ssg82
g1942
sg75
(lp1949
S'global_settings'
p1950
asbag68
(g89
g70
NtRp1951
(dp1952
g73
(dp1953
g100
g101
ssg82
g1942
sg75
(lp1954
S':'
asbag68
(g89
g70
NtRp1955
(dp1956
g73
(dp1957
sg82
g1942
sg75
(lp1958
g68
(g69
g70
NtRp1959
(dp1960
g73
(dp1961
g81
I5
ssg82
g1955
sg75
(lp1962
g68
(g77
g70
NtRp1963
(dp1964
g73
(dp1965
g81
I4
ssg82
Nsg75
(lp1966
g68
(g84
g70
NtRp1967
(dp1968
g73
(dp1969
sg82
g1963
sg75
(lp1970
g68
(g89
g70
NtRp1971
(dp1972
g73
(dp1973
g93
g94
ssg82
g1967
sg75
(lp1974
g870
asbag68
(g89
g70
NtRp1975
(dp1976
g73
(dp1977
g100
g101
ssg82
g1967
sg75
(lp1978
S':'
asbag68
(g89
g70
NtRp1979
(dp1980
g73
(dp1981
sg82
g1967
sg75
(lp1982
g68
(g69
g70
NtRp1983
(dp1984
g73
(dp1985
g81
I4
ssg82
g1979
sg75
(lp1986
S"set(['/home/gaurav/classwork/WEB_PROGRAMMING/web2py/applications/ggg/', '/home/gaurav/classwork/WEB_PROGRAMMING/web2py/applications/admin/', '/home/gaurav/classwork/WEB_PROGRAMMING/web2py/applications/welcome/'])"
p1987
asbasbasbag68
(g84
g70
NtRp1988
(dp1989
g73
(dp1990
sg82
g1963
sg75
(lp1991
g68
(g89
g70
NtRp1992
(dp1993
g73
(dp1994
g93
g94
ssg82
g1988
sg75
(lp1995
g892
asbag68
(g89
g70
NtRp1996
(dp1997
g73
(dp1998
g100
g101
ssg82
g1988
sg75
(lp1999
S':'
asbag68
(g89
g70
NtRp2000
(dp2001
g73
(dp2002
sg82
g1988
sg75
(lp2003
g68
(g69
g70
NtRp2004
(dp2005
g73
(dp2006
g81
I4
ssg82
g2000
sg75
(lp2007
g905
asbasbasbag68
(g84
g70
NtRp2008
(dp2009
g73
(dp2010
sg82
g1963
sg75
(lp2011
g68
(g89
g70
NtRp2012
(dp2013
g73
(dp2014
g93
g94
ssg82
g2008
sg75
(lp2015
g914
asbag68
(g89
g70
NtRp2016
(dp2017
g73
(dp2018
g100
g101
ssg82
g2008
sg75
(lp2019
S':'
asbag68
(g89
g70
NtRp2020
(dp2021
g73
(dp2022
sg82
g2008
sg75
(lp2023
g68
(g69
g70
NtRp2024
(dp2025
g73
(dp2026
g81
I4
ssg82
g2020
sg75
(lp2027
g68
(g77
g70
NtRp2028
(dp2029
g73
(dp2030
g81
I3
ssg82
Nsg75
(lp2031
sbasbasbasbag68
(g84
g70
NtRp2032
(dp2033
g73
(dp2034
sg82
g1963
sg75
(lp2035
g68
(g89
g70
NtRp2036
(dp2037
g73
(dp2038
g93
g94
ssg82
g2032
sg75
(lp2039
g939
asbag68
(g89
g70
NtRp2040
(dp2041
g73
(dp2042
g100
g101
ssg82
g2032
sg75
(lp2043
S':'
asbag68
(g89
g70
NtRp2044
(dp2045
g73
(dp2046
sg82
g2032
sg75
(lp2047
g68
(g69
g70
NtRp2048
(dp2049
g73
(dp2050
g81
I4
ssg82
g2044
sg75
(lp2051
S"<Values at 0xa6446ec: {'verbose': False, 'ip': '127.0.0.1', 'with_scheduler': False, 'ips': [], 'shutdown_timeout': 5, 'taskbar': False, 'port': 8000, 'maxthreads': None, 'softcron': False, 'server_name': 'gaurav-Compaq-Presario-C700-Notebook-PC', 'bpython': False, 'nogui': False, 'pid_filename': 'httpserver.pid', 'extcron': False, 'runcron': False, 'run_system_tests': False, 'test': None, 'folder': '/home/gaurav/classwork/WEB_PROGRAMMING/web2py', 'config': '', 'import_models': False, 'winservice': '', 'shell': None, 'run': '', 'log_filename': 'httpserver.log', 'debuglevel': 30, 'args': [''], 'socket_timeout': 5, 'ssl_ca_certificate': None, 'scheduler': None, 'profiler_filename': None, 'ssl_private_key': '', 'scheduler_groups': None, 'password': '<ask>', 'request_queue_size': 5, 'ssl_certificate': '', 'cronjob': False, 'numthreads': None, 'quiet': False, 'interfaces': None, 'minthreads': None, 'timeout': 10, 'plain': False, 'nobanner': False}>"
p2052
asbasbasbag68
(g84
g70
NtRp2053
(dp2054
g73
(dp2055
sg82
g1963
sg75
(lp2056
g68
(g89
g70
NtRp2057
(dp2058
g73
(dp2059
g93
g94
ssg82
g2053
sg75
(lp2060
g961
asbag68
(g89
g70
NtRp2061
(dp2062
g73
(dp2063
g100
g101
ssg82
g2053
sg75
(lp2064
S':'
asbag68
(g89
g70
NtRp2065
(dp2066
g73
(dp2067
sg82
g2053
sg75
(lp2068
g68
(g69
g70
NtRp2069
(dp2070
g73
(dp2071
g81
I4
ssg82
g2065
sg75
(lp2072
S'set([])'
p2073
asbasbasbag68
(g84
g70
NtRp2074
(dp2075
g73
(dp2076
sg82
g1963
sg75
(lp2077
g68
(g89
g70
NtRp2078
(dp2079
g73
(dp2080
g93
g94
ssg82
g2074
sg75
(lp2081
g983
asbag68
(g89
g70
NtRp2082
(dp2083
g73
(dp2084
g100
g101
ssg82
g2074
sg75
(lp2085
S':'
asbag68
(g89
g70
NtRp2086
(dp2087
g73
(dp2088
sg82
g2074
sg75
(lp2089
g68
(g69
g70
NtRp2090
(dp2091
g73
(dp2092
g81
I4
ssg82
g2086
sg75
(lp2093
g111
asbasbasbag68
(g84
g70
NtRp2094
(dp2095
g73
(dp2096
sg82
g1963
sg75
(lp2097
g68
(g89
g70
NtRp2098
(dp2099
g73
(dp2100
g93
g94
ssg82
g2094
sg75
(lp2101
g1004
asbag68
(g89
g70
NtRp2102
(dp2103
g73
(dp2104
g100
g101
ssg82
g2094
sg75
(lp2105
S':'
asbag68
(g89
g70
NtRp2106
(dp2107
g73
(dp2108
sg82
g2094
sg75
(lp2109
g68
(g69
g70
NtRp2110
(dp2111
g73
(dp2112
g81
I4
ssg82
g2106
sg75
(lp2113
g1017
asbasbasbag68
(g84
g70
NtRp2114
(dp2115
g73
(dp2116
sg82
g1963
sg75
(lp2117
g68
(g89
g70
NtRp2118
(dp2119
g73
(dp2120
g93
g94
ssg82
g2114
sg75
(lp2121
g1180
asbag68
(g89
g70
NtRp2122
(dp2123
g73
(dp2124
g100
g101
ssg82
g2114
sg75
(lp2125
S':'
asbag68
(g89
g70
NtRp2126
(dp2127
g73
(dp2128
sg82
g2114
sg75
(lp2129
g68
(g69
g70
NtRp2130
(dp2131
g73
(dp2132
g81
I4
ssg82
g2126
sg75
(lp2133
g111
asbasbasbag68
(g84
g70
NtRp2134
(dp2135
g73
(dp2136
sg82
g1963
sg75
(lp2137
g68
(g89
g70
NtRp2138
(dp2139
g73
(dp2140
g93
g94
ssg82
g2134
sg75
(lp2141
g1201
asbag68
(g89
g70
NtRp2142
(dp2143
g73
(dp2144
g100
g101
ssg82
g2134
sg75
(lp2145
S':'
asbag68
(g89
g70
NtRp2146
(dp2147
g73
(dp2148
sg82
g2134
sg75
(lp2149
g68
(g69
g70
NtRp2150
(dp2151
g73
(dp2152
g81
I4
ssg82
g2146
sg75
(lp2153
g111
asbasbasbag68
(g84
g70
NtRp2154
(dp2155
g73
(dp2156
sg82
g1963
sg75
(lp2157
g68
(g89
g70
NtRp2158
(dp2159
g73
(dp2160
g93
g94
ssg82
g2154
sg75
(lp2161
g1222
asbag68
(g89
g70
NtRp2162
(dp2163
g73
(dp2164
g100
g101
ssg82
g2154
sg75
(lp2165
S':'
asbag68
(g89
g70
NtRp2166
(dp2167
g73
(dp2168
sg82
g2154
sg75
(lp2169
g68
(g69
g70
NtRp2170
(dp2171
g73
(dp2172
g81
I4
ssg82
g2166
sg75
(lp2173
g68
(g77
g70
NtRp2174
(dp2175
g73
(dp2176
g81
I3
ssg82
Nsg75
(lp2177
g68
(g84
g70
NtRp2178
(dp2179
g73
(dp2180
sg82
g2174
sg75
(lp2181
g68
(g89
g70
NtRp2182
(dp2183
g73
(dp2184
sg82
g2178
sg75
(lp2185
g68
(g69
g70
NtRp2186
(dp2187
g73
(dp2188
g81
I3
ssg82
g2182
sg75
(lp2189
g1251
asbasbasbag68
(g84
g70
NtRp2190
(dp2191
g73
(dp2192
sg82
g2174
sg75
(lp2193
g68
(g89
g70
NtRp2194
(dp2195
g73
(dp2196
sg82
g2190
sg75
(lp2197
g68
(g69
g70
NtRp2198
(dp2199
g73
(dp2200
g81
I3
ssg82
g2194
sg75
(lp2201
g1264
asbasbasbag68
(g84
g70
NtRp2202
(dp2203
g73
(dp2204
sg82
g2174
sg75
(lp2205
g68
(g89
g70
NtRp2206
(dp2207
g73
(dp2208
sg82
g2202
sg75
(lp2209
g68
(g69
g70
NtRp2210
(dp2211
g73
(dp2212
g81
I3
ssg82
g2206
sg75
(lp2213
g1277
asbasbasbag68
(g84
g70
NtRp2214
(dp2215
g73
(dp2216
sg82
g2174
sg75
(lp2217
g68
(g89
g70
NtRp2218
(dp2219
g73
(dp2220
sg82
g2214
sg75
(lp2221
g68
(g69
g70
NtRp2222
(dp2223
g73
(dp2224
g81
I3
ssg82
g2218
sg75
(lp2225
g1290
asbasbasbag68
(g84
g70
NtRp2226
(dp2227
g73
(dp2228
sg82
g2174
sg75
(lp2229
g68
(g89
g70
NtRp2230
(dp2231
g73
(dp2232
sg82
g2226
sg75
(lp2233
g68
(g69
g70
NtRp2234
(dp2235
g73
(dp2236
g81
I3
ssg82
g2230
sg75
(lp2237
g1303
asbasbasbasbasbasbasbag68
(g84
g70
NtRp2238
(dp2239
g73
(dp2240
sg82
g1963
sg75
(lp2241
g68
(g89
g70
NtRp2242
(dp2243
g73
(dp2244
g93
g94
ssg82
g2238
sg75
(lp2245
g1571
asbag68
(g89
g70
NtRp2246
(dp2247
g73
(dp2248
g100
g101
ssg82
g2238
sg75
(lp2249
S':'
asbag68
(g89
g70
NtRp2250
(dp2251
g73
(dp2252
sg82
g2238
sg75
(lp2253
g68
(g69
g70
NtRp2254
(dp2255
g73
(dp2256
g81
I4
ssg82
g2250
sg75
(lp2257
g68
(g77
g70
NtRp2258
(dp2259
g73
(dp2260
g81
I3
ssg82
Nsg75
(lp2261
g68
(g84
g70
NtRp2262
(dp2263
g73
(dp2264
sg82
g2258
sg75
(lp2265
g68
(g89
g70
NtRp2266
(dp2267
g73
(dp2268
sg82
g2262
sg75
(lp2269
g68
(g69
g70
NtRp2270
(dp2271
g73
(dp2272
g81
I3
ssg82
g2266
sg75
(lp2273
S'2'
asbasbasbag68
(g84
g70
NtRp2274
(dp2275
g73
(dp2276
sg82
g2258
sg75
(lp2277
g68
(g89
g70
NtRp2278
(dp2279
g73
(dp2280
sg82
g2274
sg75
(lp2281
g68
(g69
g70
NtRp2282
(dp2283
g73
(dp2284
g81
I3
ssg82
g2278
sg75
(lp2285
S'3'
asbasbasbag68
(g84
g70
NtRp2286
(dp2287
g73
(dp2288
sg82
g2258
sg75
(lp2289
g68
(g89
g70
NtRp2290
(dp2291
g73
(dp2292
sg82
g2286
sg75
(lp2293
g68
(g69
g70
NtRp2294
(dp2295
g73
(dp2296
g81
I3
ssg82
g2290
sg75
(lp2297
S'2'
asbasbasbag68
(g84
g70
NtRp2298
(dp2299
g73
(dp2300
sg82
g2258
sg75
(lp2301
g68
(g89
g70
NtRp2302
(dp2303
g73
(dp2304
sg82
g2298
sg75
(lp2305
g68
(g69
g70
NtRp2306
(dp2307
g73
(dp2308
g81
I3
ssg82
g2302
sg75
(lp2309
S'datetime.datetime(2012, 12, 17, 15, 3, 30)'
p2310
asbasbasbag68
(g84
g70
NtRp2311
(dp2312
g73
(dp2313
sg82
g2258
sg75
(lp2314
g68
(g89
g70
NtRp2315
(dp2316
g73
(dp2317
sg82
g2311
sg75
(lp2318
g68
(g69
g70
NtRp2319
(dp2320
g73
(dp2321
g81
I3
ssg82
g2315
sg75
(lp2322
g1649
asbasbasbasbasbasbasbasbasbasbasbag68
(g84
g70
NtRp2323
(dp2324
g73
(dp2325
sg82
g78
sg75
(lp2326
g68
(g89
g70
NtRp2327
(dp2328
g73
(dp2329
g93
g94
ssg82
g2323
sg75
(lp2330
S'is_https'
p2331
asbag68
(g89
g70
NtRp2332
(dp2333
g73
(dp2334
g100
g101
ssg82
g2323
sg75
(lp2335
S':'
asbag68
(g89
g70
NtRp2336
(dp2337
g73
(dp2338
sg82
g2323
sg75
(lp2339
g68
(g69
g70
NtRp2340
(dp2341
g73
(dp2342
g81
I5
ssg82
g2336
sg75
(lp2343
g111
asbasbasbag68
(g84
g70
NtRp2344
(dp2345
g73
(dp2346
sg82
g78
sg75
(lp2347
g68
(g89
g70
NtRp2348
(dp2349
g73
(dp2350
g93
g94
ssg82
g2344
sg75
(lp2351
S'is_local'
p2352
asbag68
(g89
g70
NtRp2353
(dp2354
g73
(dp2355
g100
g101
ssg82
g2344
sg75
(lp2356
S':'
asbag68
(g89
g70
NtRp2357
(dp2358
g73
(dp2359
sg82
g2344
sg75
(lp2360
g68
(g69
g70
NtRp2361
(dp2362
g73
(dp2363
g81
I5
ssg82
g2357
sg75
(lp2364
g1758
asbasbasbag68
(g84
g70
NtRp2365
(dp2366
g73
(dp2367
sg82
g78
sg75
(lp2368
g68
(g89
g70
NtRp2369
(dp2370
g73
(dp2371
g93
g94
ssg82
g2365
sg75
(lp2372
S'is_restful'
p2373
asbag68
(g89
g70
NtRp2374
(dp2375
g73
(dp2376
g100
g101
ssg82
g2365
sg75
(lp2377
S':'
asbag68
(g89
g70
NtRp2378
(dp2379
g73
(dp2380
sg82
g2365
sg75
(lp2381
g68
(g69
g70
NtRp2382
(dp2383
g73
(dp2384
g81
I5
ssg82
g2378
sg75
(lp2385
g111
asbasbasbag68
(g84
g70
NtRp2386
(dp2387
g73
(dp2388
sg82
g78
sg75
(lp2389
g68
(g89
g70
NtRp2390
(dp2391
g73
(dp2392
g93
g94
ssg82
g2386
sg75
(lp2393
S'now'
p2394
asbag68
(g89
g70
NtRp2395
(dp2396
g73
(dp2397
g100
g101
ssg82
g2386
sg75
(lp2398
S':'
asbag68
(g89
g70
NtRp2399
(dp2400
g73
(dp2401
sg82
g2386
sg75
(lp2402
g68
(g69
g70
NtRp2403
(dp2404
g73
(dp2405
g81
I5
ssg82
g2399
sg75
(lp2406
S'datetime.datetime(2013, 3, 20, 21, 4, 34, 45984)'
p2407
asbasbasbag68
(g84
g70
NtRp2408
(dp2409
g73
(dp2410
sg82
g78
sg75
(lp2411
g68
(g89
g70
NtRp2412
(dp2413
g73
(dp2414
g93
g94
ssg82
g2408
sg75
(lp2415
S'post_vars'
p2416
asbag68
(g89
g70
NtRp2417
(dp2418
g73
(dp2419
g100
g101
ssg82
g2408
sg75
(lp2420
S':'
asbag68
(g89
g70
NtRp2421
(dp2422
g73
(dp2423
sg82
g2408
sg75
(lp2424
g68
(g69
g70
NtRp2425
(dp2426
g73
(dp2427
g81
I5
ssg82
g2421
sg75
(lp2428
g68
(g77
g70
NtRp2429
(dp2430
g73
(dp2431
g81
I4
ssg82
Nsg75
(lp2432
sbasbasbasbag68
(g84
g70
NtRp2433
(dp2434
g73
(dp2435
sg82
g78
sg75
(lp2436
g68
(g89
g70
NtRp2437
(dp2438
g73
(dp2439
g93
g94
ssg82
g2433
sg75
(lp2440
S'raw_args'
p2441
asbag68
(g89
g70
NtRp2442
(dp2443
g73
(dp2444
g100
g101
ssg82
g2433
sg75
(lp2445
S':'
asbag68
(g89
g70
NtRp2446
(dp2447
g73
(dp2448
sg82
g2433
sg75
(lp2449
g68
(g69
g70
NtRp2450
(dp2451
g73
(dp2452
g81
I5
ssg82
g2446
sg75
(lp2453
S''
asbasbasbag68
(g84
g70
NtRp2454
(dp2455
g73
(dp2456
sg82
g78
sg75
(lp2457
g68
(g89
g70
NtRp2458
(dp2459
g73
(dp2460
g93
g94
ssg82
g2454
sg75
(lp2461
S'raw_extension'
p2462
asbag68
(g89
g70
NtRp2463
(dp2464
g73
(dp2465
g100
g101
ssg82
g2454
sg75
(lp2466
S':'
asbag68
(g89
g70
NtRp2467
(dp2468
g73
(dp2469
sg82
g2454
sg75
(lp2470
g68
(g69
g70
NtRp2471
(dp2472
g73
(dp2473
g81
I5
ssg82
g2467
sg75
(lp2474
g1872
asbasbasbag68
(g84
g70
NtRp2475
(dp2476
g73
(dp2477
sg82
g78
sg75
(lp2478
g68
(g89
g70
NtRp2479
(dp2480
g73
(dp2481
g93
g94
ssg82
g2475
sg75
(lp2482
S'url'
p2483
asbag68
(g89
g70
NtRp2484
(dp2485
g73
(dp2486
g100
g101
ssg82
g2475
sg75
(lp2487
S':'
asbag68
(g89
g70
NtRp2488
(dp2489
g73
(dp2490
sg82
g2475
sg75
(lp2491
g68
(g69
g70
NtRp2492
(dp2493
g73
(dp2494
g81
I5
ssg82
g2488
sg75
(lp2495
g1325
asbasbasbag68
(g84
g70
NtRp2496
(dp2497
g73
(dp2498
sg82
g78
sg75
(lp2499
g68
(g89
g70
NtRp2500
(dp2501
g73
(dp2502
g93
g94
ssg82
g2496
sg75
(lp2503
S'utcnow'
p2504
asbag68
(g89
g70
NtRp2505
(dp2506
g73
(dp2507
g100
g101
ssg82
g2496
sg75
(lp2508
S':'
asbag68
(g89
g70
NtRp2509
(dp2510
g73
(dp2511
sg82
g2496
sg75
(lp2512
g68
(g69
g70
NtRp2513
(dp2514
g73
(dp2515
g81
I5
ssg82
g2509
sg75
(lp2516
S'datetime.datetime(2013, 3, 20, 15, 34, 34, 46032)'
p2517
asbasbasbag68
(g84
g70
NtRp2518
(dp2519
g73
(dp2520
sg82
g78
sg75
(lp2521
g68
(g89
g70
NtRp2522
(dp2523
g73
(dp2524
g93
g94
ssg82
g2518
sg75
(lp2525
S'uuid'
p2526
asbag68
(g89
g70
NtRp2527
(dp2528
g73
(dp2529
g100
g101
ssg82
g2518
sg75
(lp2530
S':'
asbag68
(g89
g70
NtRp2531
(dp2532
g73
(dp2533
sg82
g2518
sg75
(lp2534
g68
(g69
g70
NtRp2535
(dp2536
g73
(dp2537
g81
I5
ssg82
g2531
sg75
(lp2538
S'ggg/127.0.0.1.2013-03-20.21-04-34.562260e3-cf0b-4444-b45e-9e5444083bd4'
p2539
asbasbasbag68
(g84
g70
NtRp2540
(dp2541
g73
(dp2542
sg82
g78
sg75
(lp2543
g68
(g89
g70
NtRp2544
(dp2545
g73
(dp2546
g93
g94
ssg82
g2540
sg75
(lp2547
S'vars'
p2548
asbag68
(g89
g70
NtRp2549
(dp2550
g73
(dp2551
g100
g101
ssg82
g2540
sg75
(lp2552
S':'
asbag68
(g89
g70
NtRp2553
(dp2554
g73
(dp2555
sg82
g2540
sg75
(lp2556
g68
(g69
g70
NtRp2557
(dp2558
g73
(dp2559
g81
I5
ssg82
g2553
sg75
(lp2560
g68
(g77
g70
NtRp2561
(dp2562
g73
(dp2563
g81
I4
ssg82
Nsg75
(lp2564
sbasbasbasbag68
(g84
g70
NtRp2565
(dp2566
g73
(dp2567
sg82
g78
sg75
(lp2568
g68
(g89
g70
NtRp2569
(dp2570
g73
(dp2571
g93
g94
ssg82
g2565
sg75
(lp2572
S'wsgi'
p2573
asbag68
(g89
g70
NtRp2574
(dp2575
g73
(dp2576
g100
g101
ssg82
g2565
sg75
(lp2577
S':'
asbag68
(g89
g70
NtRp2578
(dp2579
g73
(dp2580
sg82
g2565
sg75
(lp2581
g68
(g69
g70
NtRp2582
(dp2583
g73
(dp2584
g81
I5
ssg82
g2578
sg75
(lp2585
g68
(g77
g70
NtRp2586
(dp2587
g73
(dp2588
g81
I4
ssg82
Nsg75
(lp2589
g68
(g84
g70
NtRp2590
(dp2591
g73
(dp2592
sg82
g2586
sg75
(lp2593
g68
(g89
g70
NtRp2594
(dp2595
g73
(dp2596
g93
g94
ssg82
g2590
sg75
(lp2597
S'environ'
p2598
asbag68
(g89
g70
NtRp2599
(dp2600
g73
(dp2601
g100
g101
ssg82
g2590
sg75
(lp2602
S':'
asbag68
(g89
g70
NtRp2603
(dp2604
g73
(dp2605
sg82
g2590
sg75
(lp2606
g68
(g69
g70
NtRp2607
(dp2608
g73
(dp2609
g81
I4
ssg82
g2603
sg75
(lp2610
g68
(g77
g70
NtRp2611
(dp2612
g73
(dp2613
g81
I3
ssg82
Nsg75
(lp2614
g68
(g84
g70
NtRp2615
(dp2616
g73
(dp2617
sg82
g2611
sg75
(lp2618
g68
(g89
g70
NtRp2619
(dp2620
g73
(dp2621
g93
g94
ssg82
g2615
sg75
(lp2622
S'HTTP_ACCEPT'
p2623
asbag68
(g89
g70
NtRp2624
(dp2625
g73
(dp2626
g100
g101
ssg82
g2615
sg75
(lp2627
S':'
asbag68
(g89
g70
NtRp2628
(dp2629
g73
(dp2630
sg82
g2615
sg75
(lp2631
g68
(g69
g70
NtRp2632
(dp2633
g73
(dp2634
g81
I3
ssg82
g2628
sg75
(lp2635
g1039
asbasbasbag68
(g84
g70
NtRp2636
(dp2637
g73
(dp2638
sg82
g2611
sg75
(lp2639
g68
(g89
g70
NtRp2640
(dp2641
g73
(dp2642
g93
g94
ssg82
g2636
sg75
(lp2643
S'HTTP_ACCEPT_ENCODING'
p2644
asbag68
(g89
g70
NtRp2645
(dp2646
g73
(dp2647
g100
g101
ssg82
g2636
sg75
(lp2648
S':'
asbag68
(g89
g70
NtRp2649
(dp2650
g73
(dp2651
sg82
g2636
sg75
(lp2652
g68
(g69
g70
NtRp2653
(dp2654
g73
(dp2655
g81
I3
ssg82
g2649
sg75
(lp2656
g1061
asbasbasbag68
(g84
g70
NtRp2657
(dp2658
g73
(dp2659
sg82
g2611
sg75
(lp2660
g68
(g89
g70
NtRp2661
(dp2662
g73
(dp2663
g93
g94
ssg82
g2657
sg75
(lp2664
S'HTTP_ACCEPT_LANGUAGE'
p2665
asbag68
(g89
g70
NtRp2666
(dp2667
g73
(dp2668
g100
g101
ssg82
g2657
sg75
(lp2669
S':'
asbag68
(g89
g70
NtRp2670
(dp2671
g73
(dp2672
sg82
g2657
sg75
(lp2673
g68
(g69
g70
NtRp2674
(dp2675
g73
(dp2676
g81
I3
ssg82
g2670
sg75
(lp2677
g1083
asbasbasbag68
(g84
g70
NtRp2678
(dp2679
g73
(dp2680
sg82
g2611
sg75
(lp2681
g68
(g89
g70
NtRp2682
(dp2683
g73
(dp2684
g93
g94
ssg82
g2678
sg75
(lp2685
S'HTTP_CONNECTION'
p2686
asbag68
(g89
g70
NtRp2687
(dp2688
g73
(dp2689
g100
g101
ssg82
g2678
sg75
(lp2690
S':'
asbag68
(g89
g70
NtRp2691
(dp2692
g73
(dp2693
sg82
g2678
sg75
(lp2694
g68
(g69
g70
NtRp2695
(dp2696
g73
(dp2697
g81
I3
ssg82
g2691
sg75
(lp2698
g1105
asbasbasbag68
(g84
g70
NtRp2699
(dp2700
g73
(dp2701
sg82
g2611
sg75
(lp2702
g68
(g89
g70
NtRp2703
(dp2704
g73
(dp2705
g93
g94
ssg82
g2699
sg75
(lp2706
S'HTTP_COOKIE'
p2707
asbag68
(g89
g70
NtRp2708
(dp2709
g73
(dp2710
g100
g101
ssg82
g2699
sg75
(lp2711
S':'
asbag68
(g89
g70
NtRp2712
(dp2713
g73
(dp2714
sg82
g2699
sg75
(lp2715
g68
(g69
g70
NtRp2716
(dp2717
g73
(dp2718
g81
I3
ssg82
g2712
sg75
(lp2719
g1127
asbasbasbag68
(g84
g70
NtRp2720
(dp2721
g73
(dp2722
sg82
g2611
sg75
(lp2723
g68
(g89
g70
NtRp2724
(dp2725
g73
(dp2726
g93
g94
ssg82
g2720
sg75
(lp2727
S'HTTP_HOST'
p2728
asbag68
(g89
g70
NtRp2729
(dp2730
g73
(dp2731
g100
g101
ssg82
g2720
sg75
(lp2732
S':'
asbag68
(g89
g70
NtRp2733
(dp2734
g73
(dp2735
sg82
g2720
sg75
(lp2736
g68
(g69
g70
NtRp2737
(dp2738
g73
(dp2739
g81
I3
ssg82
g2733
sg75
(lp2740
g1149
asbasbasbag68
(g84
g70
NtRp2741
(dp2742
g73
(dp2743
sg82
g2611
sg75
(lp2744
g68
(g89
g70
NtRp2745
(dp2746
g73
(dp2747
g93
g94
ssg82
g2741
sg75
(lp2748
S'HTTP_USER_AGENT'
p2749
asbag68
(g89
g70
NtRp2750
(dp2751
g73
(dp2752
g100
g101
ssg82
g2741
sg75
(lp2753
S':'
asbag68
(g89
g70
NtRp2754
(dp2755
g73
(dp2756
sg82
g2741
sg75
(lp2757
g68
(g69
g70
NtRp2758
(dp2759
g73
(dp2760
g81
I3
ssg82
g2754
sg75
(lp2761
g1171
asbasbasbag68
(g84
g70
NtRp2762
(dp2763
g73
(dp2764
sg82
g2611
sg75
(lp2765
g68
(g89
g70
NtRp2766
(dp2767
g73
(dp2768
g93
g94
ssg82
g2762
sg75
(lp2769
S'PATH_INFO'
p2770
asbag68
(g89
g70
NtRp2771
(dp2772
g73
(dp2773
g100
g101
ssg82
g2762
sg75
(lp2774
S':'
asbag68
(g89
g70
NtRp2775
(dp2776
g73
(dp2777
sg82
g2762
sg75
(lp2778
g68
(g69
g70
NtRp2779
(dp2780
g73
(dp2781
g81
I3
ssg82
g2775
sg75
(lp2782
g1325
asbasbasbag68
(g84
g70
NtRp2783
(dp2784
g73
(dp2785
sg82
g2611
sg75
(lp2786
g68
(g89
g70
NtRp2787
(dp2788
g73
(dp2789
g93
g94
ssg82
g2783
sg75
(lp2790
S'QUERY_STRING'
p2791
asbag68
(g89
g70
NtRp2792
(dp2793
g73
(dp2794
g100
g101
ssg82
g2783
sg75
(lp2795
S':'
asbag68
(g89
g70
NtRp2796
(dp2797
g73
(dp2798
sg82
g2783
sg75
(lp2799
g68
(g69
g70
NtRp2800
(dp2801
g73
(dp2802
g81
I3
ssg82
g2796
sg75
(lp2803
S''
asbasbasbag68
(g84
g70
NtRp2804
(dp2805
g73
(dp2806
sg82
g2611
sg75
(lp2807
g68
(g89
g70
NtRp2808
(dp2809
g73
(dp2810
g93
g94
ssg82
g2804
sg75
(lp2811
S'REMOTE_ADDR'
p2812
asbag68
(g89
g70
NtRp2813
(dp2814
g73
(dp2815
g100
g101
ssg82
g2804
sg75
(lp2816
S':'
asbag68
(g89
g70
NtRp2817
(dp2818
g73
(dp2819
sg82
g2804
sg75
(lp2820
g68
(g69
g70
NtRp2821
(dp2822
g73
(dp2823
g81
I3
ssg82
g2817
sg75
(lp2824
g223
asbasbasbag68
(g84
g70
NtRp2825
(dp2826
g73
(dp2827
sg82
g2611
sg75
(lp2828
g68
(g89
g70
NtRp2829
(dp2830
g73
(dp2831
g93
g94
ssg82
g2825
sg75
(lp2832
S'REMOTE_PORT'
p2833
asbag68
(g89
g70
NtRp2834
(dp2835
g73
(dp2836
g100
g101
ssg82
g2825
sg75
(lp2837
S':'
asbag68
(g89
g70
NtRp2838
(dp2839
g73
(dp2840
sg82
g2825
sg75
(lp2841
g68
(g69
g70
NtRp2842
(dp2843
g73
(dp2844
g81
I3
ssg82
g2838
sg75
(lp2845
g1389
asbasbasbag68
(g84
g70
NtRp2846
(dp2847
g73
(dp2848
sg82
g2611
sg75
(lp2849
g68
(g89
g70
NtRp2850
(dp2851
g73
(dp2852
g93
g94
ssg82
g2846
sg75
(lp2853
S'REQUEST_METHOD'
p2854
asbag68
(g89
g70
NtRp2855
(dp2856
g73
(dp2857
g100
g101
ssg82
g2846
sg75
(lp2858
S':'
asbag68
(g89
g70
NtRp2859
(dp2860
g73
(dp2861
sg82
g2846
sg75
(lp2862
g68
(g69
g70
NtRp2863
(dp2864
g73
(dp2865
g81
I3
ssg82
g2859
sg75
(lp2866
g1411
asbasbasbag68
(g84
g70
NtRp2867
(dp2868
g73
(dp2869
sg82
g2611
sg75
(lp2870
g68
(g89
g70
NtRp2871
(dp2872
g73
(dp2873
g93
g94
ssg82
g2867
sg75
(lp2874
S'REQUEST_URI'
p2875
asbag68
(g89
g70
NtRp2876
(dp2877
g73
(dp2878
g100
g101
ssg82
g2867
sg75
(lp2879
S':'
asbag68
(g89
g70
NtRp2880
(dp2881
g73
(dp2882
sg82
g2867
sg75
(lp2883
g68
(g69
g70
NtRp2884
(dp2885
g73
(dp2886
g81
I3
ssg82
g2880
sg75
(lp2887
g1325
asbasbasbag68
(g84
g70
NtRp2888
(dp2889
g73
(dp2890
sg82
g2611
sg75
(lp2891
g68
(g89
g70
NtRp2892
(dp2893
g73
(dp2894
g93
g94
ssg82
g2888
sg75
(lp2895
S'SCRIPT_NAME'
p2896
asbag68
(g89
g70
NtRp2897
(dp2898
g73
(dp2899
g100
g101
ssg82
g2888
sg75
(lp2900
S':'
asbag68
(g89
g70
NtRp2901
(dp2902
g73
(dp2903
sg82
g2888
sg75
(lp2904
g68
(g69
g70
NtRp2905
(dp2906
g73
(dp2907
g81
I3
ssg82
g2901
sg75
(lp2908
S''
asbasbasbag68
(g84
g70
NtRp2909
(dp2910
g73
(dp2911
sg82
g2611
sg75
(lp2912
g68
(g89
g70
NtRp2913
(dp2914
g73
(dp2915
g93
g94
ssg82
g2909
sg75
(lp2916
S'SERVER_NAME'
p2917
asbag68
(g89
g70
NtRp2918
(dp2919
g73
(dp2920
g100
g101
ssg82
g2909
sg75
(lp2921
S':'
asbag68
(g89
g70
NtRp2922
(dp2923
g73
(dp2924
sg82
g2909
sg75
(lp2925
g68
(g69
g70
NtRp2926
(dp2927
g73
(dp2928
g81
I3
ssg82
g2922
sg75
(lp2929
g1475
asbasbasbag68
(g84
g70
NtRp2930
(dp2931
g73
(dp2932
sg82
g2611
sg75
(lp2933
g68
(g89
g70
NtRp2934
(dp2935
g73
(dp2936
g93
g94
ssg82
g2930
sg75
(lp2937
S'SERVER_PORT'
p2938
asbag68
(g89
g70
NtRp2939
(dp2940
g73
(dp2941
g100
g101
ssg82
g2930
sg75
(lp2942
S':'
asbag68
(g89
g70
NtRp2943
(dp2944
g73
(dp2945
sg82
g2930
sg75
(lp2946
g68
(g69
g70
NtRp2947
(dp2948
g73
(dp2949
g81
I3
ssg82
g2943
sg75
(lp2950
g1497
asbasbasbag68
(g84
g70
NtRp2951
(dp2952
g73
(dp2953
sg82
g2611
sg75
(lp2954
g68
(g89
g70
NtRp2955
(dp2956
g73
(dp2957
g93
g94
ssg82
g2951
sg75
(lp2958
S'SERVER_PROTOCOL'
p2959
asbag68
(g89
g70
NtRp2960
(dp2961
g73
(dp2962
g100
g101
ssg82
g2951
sg75
(lp2963
S':'
asbag68
(g89
g70
NtRp2964
(dp2965
g73
(dp2966
sg82
g2951
sg75
(lp2967
g68
(g69
g70
NtRp2968
(dp2969
g73
(dp2970
g81
I3
ssg82
g2964
sg75
(lp2971
g1519
asbasbasbag68
(g84
g70
NtRp2972
(dp2973
g73
(dp2974
sg82
g2611
sg75
(lp2975
g68
(g89
g70
NtRp2976
(dp2977
g73
(dp2978
g93
g94
ssg82
g2972
sg75
(lp2979
S'SERVER_SOFTWARE'
p2980
asbag68
(g89
g70
NtRp2981
(dp2982
g73
(dp2983
g100
g101
ssg82
g2972
sg75
(lp2984
S':'
asbag68
(g89
g70
NtRp2985
(dp2986
g73
(dp2987
sg82
g2972
sg75
(lp2988
g68
(g69
g70
NtRp2989
(dp2990
g73
(dp2991
g81
I3
ssg82
g2985
sg75
(lp2992
g1541
asbasbasbag68
(g84
g70
NtRp2993
(dp2994
g73
(dp2995
sg82
g2611
sg75
(lp2996
g68
(g89
g70
NtRp2997
(dp2998
g73
(dp2999
g93
g94
ssg82
g2993
sg75
(lp3000
S'wsgi.errors'
p3001
asbag68
(g89
g70
NtRp3002
(dp3003
g73
(dp3004
g100
g101
ssg82
g2993
sg75
(lp3005
S':'
asbag68
(g89
g70
NtRp3006
(dp3007
g73
(dp3008
sg82
g2993
sg75
(lp3009
g68
(g69
g70
NtRp3010
(dp3011
g73
(dp3012
g81
I3
ssg82
g3006
sg75
(lp3013
S"<open file '<stderr>', mode 'w' at 0xb747b0d0>"
p3014
asbasbasbag68
(g84
g70
NtRp3015
(dp3016
g73
(dp3017
sg82
g2611
sg75
(lp3018
g68
(g89
g70
NtRp3019
(dp3020
g73
(dp3021
g93
g94
ssg82
g3015
sg75
(lp3022
S'wsgi.file_wrapper'
p3023
asbag68
(g89
g70
NtRp3024
(dp3025
g73
(dp3026
g100
g101
ssg82
g3015
sg75
(lp3027
S':'
asbag68
(g89
g70
NtRp3028
(dp3029
g73
(dp3030
sg82
g3015
sg75
(lp3031
g68
(g69
g70
NtRp3032
(dp3033
g73
(dp3034
g81
I3
ssg82
g3028
sg75
(lp3035
S'<class wsgiref.util.FileWrapper at 0xa5f6ecc>'
p3036
asbasbasbag68
(g84
g70
NtRp3037
(dp3038
g73
(dp3039
sg82
g2611
sg75
(lp3040
g68
(g89
g70
NtRp3041
(dp3042
g73
(dp3043
g93
g94
ssg82
g3037
sg75
(lp3044
S'wsgi.input'
p3045
asbag68
(g89
g70
NtRp3046
(dp3047
g73
(dp3048
g100
g101
ssg82
g3037
sg75
(lp3049
S':'
asbag68
(g89
g70
NtRp3050
(dp3051
g73
(dp3052
sg82
g3037
sg75
(lp3053
g68
(g69
g70
NtRp3054
(dp3055
g73
(dp3056
g81
I3
ssg82
g3050
sg75
(lp3057
S'<cStringIO.StringO object at 0xac1ad80>'
p3058
asbasbasbag68
(g84
g70
NtRp3059
(dp3060
g73
(dp3061
sg82
g2611
sg75
(lp3062
g68
(g89
g70
NtRp3063
(dp3064
g73
(dp3065
g93
g94
ssg82
g3059
sg75
(lp3066
S'wsgi.multiprocess'
p3067
asbag68
(g89
g70
NtRp3068
(dp3069
g73
(dp3070
g100
g101
ssg82
g3059
sg75
(lp3071
S':'
asbag68
(g89
g70
NtRp3072
(dp3073
g73
(dp3074
sg82
g3059
sg75
(lp3075
g68
(g69
g70
NtRp3076
(dp3077
g73
(dp3078
g81
I3
ssg82
g3072
sg75
(lp3079
g111
asbasbasbag68
(g84
g70
NtRp3080
(dp3081
g73
(dp3082
sg82
g2611
sg75
(lp3083
g68
(g89
g70
NtRp3084
(dp3085
g73
(dp3086
g93
g94
ssg82
g3080
sg75
(lp3087
S'wsgi.multithread'
p3088
asbag68
(g89
g70
NtRp3089
(dp3090
g73
(dp3091
g100
g101
ssg82
g3080
sg75
(lp3092
S':'
asbag68
(g89
g70
NtRp3093
(dp3094
g73
(dp3095
sg82
g3080
sg75
(lp3096
g68
(g69
g70
NtRp3097
(dp3098
g73
(dp3099
g81
I3
ssg82
g3093
sg75
(lp3100
g1758
asbasbasbag68
(g84
g70
NtRp3101
(dp3102
g73
(dp3103
sg82
g2611
sg75
(lp3104
g68
(g89
g70
NtRp3105
(dp3106
g73
(dp3107
g93
g94
ssg82
g3101
sg75
(lp3108
S'wsgi.run_once'
p3109
asbag68
(g89
g70
NtRp3110
(dp3111
g73
(dp3112
g100
g101
ssg82
g3101
sg75
(lp3113
S':'
asbag68
(g89
g70
NtRp3114
(dp3115
g73
(dp3116
sg82
g3101
sg75
(lp3117
g68
(g69
g70
NtRp3118
(dp3119
g73
(dp3120
g81
I3
ssg82
g3114
sg75
(lp3121
g111
asbasbasbag68
(g84
g70
NtRp3122
(dp3123
g73
(dp3124
sg82
g2611
sg75
(lp3125
g68
(g89
g70
NtRp3126
(dp3127
g73
(dp3128
g93
g94
ssg82
g3122
sg75
(lp3129
S'wsgi.url_scheme'
p3130
asbag68
(g89
g70
NtRp3131
(dp3132
g73
(dp3133
g100
g101
ssg82
g3122
sg75
(lp3134
S':'
asbag68
(g89
g70
NtRp3135
(dp3136
g73
(dp3137
sg82
g3122
sg75
(lp3138
g68
(g69
g70
NtRp3139
(dp3140
g73
(dp3141
g81
I3
ssg82
g3135
sg75
(lp3142
g1801
asbasbasbag68
(g84
g70
NtRp3143
(dp3144
g73
(dp3145
sg82
g2611
sg75
(lp3146
g68
(g89
g70
NtRp3147
(dp3148
g73
(dp3149
g93
g94
ssg82
g3143
sg75
(lp3150
S'wsgi.version'
p3151
asbag68
(g89
g70
NtRp3152
(dp3153
g73
(dp3154
g100
g101
ssg82
g3143
sg75
(lp3155
S':'
asbag68
(g89
g70
NtRp3156
(dp3157
g73
(dp3158
sg82
g3143
sg75
(lp3159
g68
(g69
g70
NtRp3160
(dp3161
g73
(dp3162
g81
I3
ssg82
g3156
sg75
(lp3163
S'1'
asbasbasbasbasbasbasbasbasbasbasbasbasbsS'frames'
p3164
(lp3165
(dp3166
S'file'
p3167
S'/home/gaurav/classwork/WEB_PROGRAMMING/web2py/gluon/restricted.py'
p3168
sS'dump'
p3169
(dp3170
S'code'
p3171
S"'# -*- coding: utf-8 -*-\\n# this file is released ...locals()\\n\\n\\nresponse._vars=response._caller(exam)\\n'"
p3172
sS'layer'
p3173
S"'/home/gaurav/classwork/WEB_PROGRAMMING/web2py/applications/ggg/controllers/default.py'"
p3174
sS'global compile2'
p3175
S'<function compile2>'
p3176
sS'ccode'
p3177
S'undefined'
p3178
ssS'lnum'
p3179
I211
sS'lines'
p3180
(dp3181
I206
S"    environment['__name__'] = '__restricted__'"
p3182
sI207
S'    try:'
p3183
sI208
S'        if isinstance(code, types.CodeType):'
p3184
sI209
S'            ccode = code'
p3185
sI210
S'        else:'
p3186
sI211
S'            ccode = compile2(code, layer)'
p3187
sI212
S'        exec ccode in environment'
p3188
sI213
S'    except HTTP:'
p3189
sI214
S'        raise'
p3190
sI215
S'    except RestrictedError:'
p3191
ssS'call'
p3192
S"(code='# -*- coding: utf-8 -*-\\n# this file is released ...locals()\\n\\n\\nresponse._vars=response._caller(exam)\\n', environment={'A': <class 'gluon.html.A'>, 'Auth': <class 'gluon.tools.Auth'>, 'B': <class 'gluon.html.B'>, 'BEAUTIFY': <class 'gluon.html.BEAUTIFY'>, 'BODY': <class 'gluon.html.BODY'>, 'BR': <class 'gluon.html.BR'>, 'BUTTON': <class 'gluon.html.BUTTON'>, 'CAT': <class 'gluon.html.CAT'>, 'CENTER': <class 'gluon.html.CENTER'>, 'CLEANUP': <class 'gluon.validators.CLEANUP'>, ...}, layer='/home/gaurav/classwork/WEB_PROGRAMMING/web2py/applications/ggg/controllers/default.py')"
p3193
sS'func'
p3194
S'restricted'
p3195
sa(dp3196
g3167
S'/home/gaurav/classwork/WEB_PROGRAMMING/web2py/gluon/restricted.py'
p3197
sg3169
(dp3198
S'builtincompile'
p3199
S'<built-in function compile>'
p3200
sS'code'
p3201
S"'# -*- coding: utf-8 -*-\\n# this file is released ...locals()\\n\\n\\nresponse._vars=response._caller(exam)\\n'"
p3202
sS'code.rstrip'
p3203
S'<built-in method rstrip of str object>'
p3204
sS').replace'
p3205
g3178
sS'layer'
p3206
S"'/home/gaurav/classwork/WEB_PROGRAMMING/web2py/applications/ggg/controllers/default.py'"
p3207
ssg3179
I194
sg3180
(dp3208
I192
S"    The +'\\n' is necessary else compile fails when code ends in a comment."
p3209
sI193
S'    """'
p3210
sI194
S"    return compile(code.rstrip().replace('\\r\\n', '\\n') + '\\n', layer, 'exec')"
p3211
sI195
S''
sI196
S''
sI197
S"def restricted(code, environment=None, layer='Unknown'):"
p3212
sI198
S'    """'
p3213
sI189
S''
sI190
S'def compile2(code, layer):'
p3214
sI191
S'    """'
p3215
ssg3192
S"(code='# -*- coding: utf-8 -*-\\n# this file is released ...locals()\\n\\n\\nresponse._vars=response._caller(exam)\\n', layer='/home/gaurav/classwork/WEB_PROGRAMMING/web2py/applications/ggg/controllers/default.py')"
p3216
sg3194
S'compile2'
p3217
sasS'pyver'
p3218
S'Python 2.7.3: /usr/bin/python'
p3219
sS'session'
p3220
g68
(g69
g70
NtRp3221
(dp3222
g73
(dp3223
sg75
(lp3224
g68
(g77
g70
NtRp3225
(dp3226
g73
(dp3227
g81
I5
ssg82
Nsg75
(lp3228
g68
(g84
g70
NtRp3229
(dp3230
g73
(dp3231
sg82
g3225
sg75
(lp3232
g68
(g89
g70
NtRp3233
(dp3234
g73
(dp3235
g93
g94
ssg82
g3229
sg75
(lp3236
S'auth'
p3237
asbag68
(g89
g70
NtRp3238
(dp3239
g73
(dp3240
g100
g101
ssg82
g3229
sg75
(lp3241
S':'
asbag68
(g89
g70
NtRp3242
(dp3243
g73
(dp3244
sg82
g3229
sg75
(lp3245
g68
(g69
g70
NtRp3246
(dp3247
g73
(dp3248
g81
I5
ssg82
g3242
sg75
(lp3249
g68
(g77
g70
NtRp3250
(dp3251
g73
(dp3252
g81
I4
ssg82
Nsg75
(lp3253
g68
(g84
g70
NtRp3254
(dp3255
g73
(dp3256
sg82
g3250
sg75
(lp3257
g68
(g89
g70
NtRp3258
(dp3259
g73
(dp3260
g93
g94
ssg82
g3254
sg75
(lp3261
S'expiration'
p3262
asbag68
(g89
g70
NtRp3263
(dp3264
g73
(dp3265
g100
g101
ssg82
g3254
sg75
(lp3266
S':'
asbag68
(g89
g70
NtRp3267
(dp3268
g73
(dp3269
sg82
g3254
sg75
(lp3270
g68
(g69
g70
NtRp3271
(dp3272
g73
(dp3273
g81
I4
ssg82
g3267
sg75
(lp3274
S'3600'
p3275
asbasbasbag68
(g84
g70
NtRp3276
(dp3277
g73
(dp3278
sg82
g3250
sg75
(lp3279
g68
(g89
g70
NtRp3280
(dp3281
g73
(dp3282
g93
g94
ssg82
g3276
sg75
(lp3283
S'hmac_key'
p3284
asbag68
(g89
g70
NtRp3285
(dp3286
g73
(dp3287
g100
g101
ssg82
g3276
sg75
(lp3288
S':'
asbag68
(g89
g70
NtRp3289
(dp3290
g73
(dp3291
sg82
g3276
sg75
(lp3292
g68
(g69
g70
NtRp3293
(dp3294
g73
(dp3295
g81
I4
ssg82
g3289
sg75
(lp3296
S'2f28b16a-7d27-4bfe-93f1-dee57df37d3b'
p3297
asbasbasbag68
(g84
g70
NtRp3298
(dp3299
g73
(dp3300
sg82
g3250
sg75
(lp3301
g68
(g89
g70
NtRp3302
(dp3303
g73
(dp3304
g93
g94
ssg82
g3298
sg75
(lp3305
S'last_visit'
p3306
asbag68
(g89
g70
NtRp3307
(dp3308
g73
(dp3309
g100
g101
ssg82
g3298
sg75
(lp3310
S':'
asbag68
(g89
g70
NtRp3311
(dp3312
g73
(dp3313
sg82
g3298
sg75
(lp3314
g68
(g69
g70
NtRp3315
(dp3316
g73
(dp3317
g81
I4
ssg82
g3311
sg75
(lp3318
S'datetime.datetime(2013, 3, 20, 21, 4, 34, 45984)'
p3319
asbasbasbag68
(g84
g70
NtRp3320
(dp3321
g73
(dp3322
sg82
g3250
sg75
(lp3323
g68
(g89
g70
NtRp3324
(dp3325
g73
(dp3326
g93
g94
ssg82
g3320
sg75
(lp3327
S'remember'
p3328
asbag68
(g89
g70
NtRp3329
(dp3330
g73
(dp3331
g100
g101
ssg82
g3320
sg75
(lp3332
S':'
asbag68
(g89
g70
NtRp3333
(dp3334
g73
(dp3335
sg82
g3320
sg75
(lp3336
g68
(g69
g70
NtRp3337
(dp3338
g73
(dp3339
g81
I4
ssg82
g3333
sg75
(lp3340
g111
asbasbasbag68
(g84
g70
NtRp3341
(dp3342
g73
(dp3343
sg82
g3250
sg75
(lp3344
g68
(g89
g70
NtRp3345
(dp3346
g73
(dp3347
g93
g94
ssg82
g3341
sg75
(lp3348
S'user'
p3349
asbag68
(g89
g70
NtRp3350
(dp3351
g73
(dp3352
g100
g101
ssg82
g3341
sg75
(lp3353
S':'
asbag68
(g89
g70
NtRp3354
(dp3355
g73
(dp3356
sg82
g3341
sg75
(lp3357
g68
(g69
g70
NtRp3358
(dp3359
g73
(dp3360
g81
I4
ssg82
g3354
sg75
(lp3361
g68
(g77
g70
NtRp3362
(dp3363
g73
(dp3364
g81
I3
ssg82
Nsg75
(lp3365
g68
(g84
g70
NtRp3366
(dp3367
g73
(dp3368
sg82
g3362
sg75
(lp3369
g68
(g89
g70
NtRp3370
(dp3371
g73
(dp3372
g93
g94
ssg82
g3366
sg75
(lp3373
S'email'
p3374
asbag68
(g89
g70
NtRp3375
(dp3376
g73
(dp3377
g100
g101
ssg82
g3366
sg75
(lp3378
S':'
asbag68
(g89
g70
NtRp3379
(dp3380
g73
(dp3381
sg82
g3366
sg75
(lp3382
g68
(g69
g70
NtRp3383
(dp3384
g73
(dp3385
g81
I3
ssg82
g3379
sg75
(lp3386
S'gaurav@gmail.com'
p3387
asbasbasbag68
(g84
g70
NtRp3388
(dp3389
g73
(dp3390
sg82
g3362
sg75
(lp3391
g68
(g89
g70
NtRp3392
(dp3393
g73
(dp3394
g93
g94
ssg82
g3388
sg75
(lp3395
S'first_name'
p3396
asbag68
(g89
g70
NtRp3397
(dp3398
g73
(dp3399
g100
g101
ssg82
g3388
sg75
(lp3400
S':'
asbag68
(g89
g70
NtRp3401
(dp3402
g73
(dp3403
sg82
g3388
sg75
(lp3404
g68
(g69
g70
NtRp3405
(dp3406
g73
(dp3407
g81
I3
ssg82
g3401
sg75
(lp3408
S'Gaurav'
p3409
asbasbasbag68
(g84
g70
NtRp3410
(dp3411
g73
(dp3412
sg82
g3362
sg75
(lp3413
g68
(g89
g70
NtRp3414
(dp3415
g73
(dp3416
g93
g94
ssg82
g3410
sg75
(lp3417
S'id'
p3418
asbag68
(g89
g70
NtRp3419
(dp3420
g73
(dp3421
g100
g101
ssg82
g3410
sg75
(lp3422
S':'
asbag68
(g89
g70
NtRp3423
(dp3424
g73
(dp3425
sg82
g3410
sg75
(lp3426
g68
(g69
g70
NtRp3427
(dp3428
g73
(dp3429
g81
I3
ssg82
g3423
sg75
(lp3430
S'15'
p3431
asbasbasbag68
(g84
g70
NtRp3432
(dp3433
g73
(dp3434
sg82
g3362
sg75
(lp3435
g68
(g89
g70
NtRp3436
(dp3437
g73
(dp3438
g93
g94
ssg82
g3432
sg75
(lp3439
S'last_name'
p3440
asbag68
(g89
g70
NtRp3441
(dp3442
g73
(dp3443
g100
g101
ssg82
g3432
sg75
(lp3444
S':'
asbag68
(g89
g70
NtRp3445
(dp3446
g73
(dp3447
sg82
g3432
sg75
(lp3448
g68
(g69
g70
NtRp3449
(dp3450
g73
(dp3451
g81
I3
ssg82
g3445
sg75
(lp3452
S'Mishra'
p3453
asbasbasbag68
(g84
g70
NtRp3454
(dp3455
g73
(dp3456
sg82
g3362
sg75
(lp3457
g68
(g89
g70
NtRp3458
(dp3459
g73
(dp3460
g93
g94
ssg82
g3454
sg75
(lp3461
S'registration_id'
p3462
asbag68
(g89
g70
NtRp3463
(dp3464
g73
(dp3465
g100
g101
ssg82
g3454
sg75
(lp3466
S':'
asbag68
(g89
g70
NtRp3467
(dp3468
g73
(dp3469
sg82
g3454
sg75
(lp3470
g68
(g69
g70
NtRp3471
(dp3472
g73
(dp3473
g81
I3
ssg82
g3467
sg75
(lp3474
S''
asbasbasbag68
(g84
g70
NtRp3475
(dp3476
g73
(dp3477
sg82
g3362
sg75
(lp3478
g68
(g89
g70
NtRp3479
(dp3480
g73
(dp3481
g93
g94
ssg82
g3475
sg75
(lp3482
S'registration_key'
p3483
asbag68
(g89
g70
NtRp3484
(dp3485
g73
(dp3486
g100
g101
ssg82
g3475
sg75
(lp3487
S':'
asbag68
(g89
g70
NtRp3488
(dp3489
g73
(dp3490
sg82
g3475
sg75
(lp3491
g68
(g69
g70
NtRp3492
(dp3493
g73
(dp3494
g81
I3
ssg82
g3488
sg75
(lp3495
S''
asbasbasbag68
(g84
g70
NtRp3496
(dp3497
g73
(dp3498
sg82
g3362
sg75
(lp3499
g68
(g89
g70
NtRp3500
(dp3501
g73
(dp3502
g93
g94
ssg82
g3496
sg75
(lp3503
S'reset_password_key'
p3504
asbag68
(g89
g70
NtRp3505
(dp3506
g73
(dp3507
g100
g101
ssg82
g3496
sg75
(lp3508
S':'
asbag68
(g89
g70
NtRp3509
(dp3510
g73
(dp3511
sg82
g3496
sg75
(lp3512
g68
(g69
g70
NtRp3513
(dp3514
g73
(dp3515
g81
I3
ssg82
g3509
sg75
(lp3516
S''
asbasbasbasbasbasbasbag68
(g84
g70
NtRp3517
(dp3518
g73
(dp3519
sg82
g3250
sg75
(lp3520
g68
(g89
g70
NtRp3521
(dp3522
g73
(dp3523
g93
g94
ssg82
g3517
sg75
(lp3524
S'user_groups'
p3525
asbag68
(g89
g70
NtRp3526
(dp3527
g73
(dp3528
g100
g101
ssg82
g3517
sg75
(lp3529
S':'
asbag68
(g89
g70
NtRp3530
(dp3531
g73
(dp3532
sg82
g3517
sg75
(lp3533
g68
(g69
g70
NtRp3534
(dp3535
g73
(dp3536
g81
I4
ssg82
g3530
sg75
(lp3537
g68
(g77
g70
NtRp3538
(dp3539
g73
(dp3540
g81
I3
ssg82
Nsg75
(lp3541
g68
(g84
g70
NtRp3542
(dp3543
g73
(dp3544
sg82
g3538
sg75
(lp3545
g68
(g89
g70
NtRp3546
(dp3547
g73
(dp3548
g93
g94
ssg82
g3542
sg75
(lp3549
S'15'
p3550
asbag68
(g89
g70
NtRp3551
(dp3552
g73
(dp3553
g100
g101
ssg82
g3542
sg75
(lp3554
S':'
asbag68
(g89
g70
NtRp3555
(dp3556
g73
(dp3557
sg82
g3542
sg75
(lp3558
g68
(g69
g70
NtRp3559
(dp3560
g73
(dp3561
g81
I3
ssg82
g3555
sg75
(lp3562
S'user_15'
p3563
asbasbasbasbasbasbasbasbasbasbasbag68
(g84
g70
NtRp3564
(dp3565
g73
(dp3566
sg82
g3225
sg75
(lp3567
g68
(g89
g70
NtRp3568
(dp3569
g73
(dp3570
g93
g94
ssg82
g3564
sg75
(lp3571
S'flash'
p3572
asbag68
(g89
g70
NtRp3573
(dp3574
g73
(dp3575
g100
g101
ssg82
g3564
sg75
(lp3576
S':'
asbag68
(g89
g70
NtRp3577
(dp3578
g73
(dp3579
sg82
g3564
sg75
(lp3580
g68
(g69
g70
NtRp3581
(dp3582
g73
(dp3583
g81
I5
ssg82
g3577
sg75
(lp3584
S'None'
p3585
asbasbasbag68
(g84
g70
NtRp3586
(dp3587
g73
(dp3588
sg82
g3225
sg75
(lp3589
g68
(g89
g70
NtRp3590
(dp3591
g73
(dp3592
g93
g94
ssg82
g3586
sg75
(lp3593
S'last_orderby'
p3594
asbag68
(g89
g70
NtRp3595
(dp3596
g73
(dp3597
g100
g101
ssg82
g3586
sg75
(lp3598
S':'
asbag68
(g89
g70
NtRp3599
(dp3600
g73
(dp3601
sg82
g3586
sg75
(lp3602
g68
(g69
g70
NtRp3603
(dp3604
g73
(dp3605
g81
I5
ssg82
g3599
sg75
(lp3606
S'None'
p3607
asbasbasbag68
(g84
g70
NtRp3608
(dp3609
g73
(dp3610
sg82
g3225
sg75
(lp3611
g68
(g89
g70
NtRp3612
(dp3613
g73
(dp3614
g93
g94
ssg82
g3608
sg75
(lp3615
S'last_query'
p3616
asbag68
(g89
g70
NtRp3617
(dp3618
g73
(dp3619
g100
g101
ssg82
g3608
sg75
(lp3620
S':'
asbag68
(g89
g70
NtRp3621
(dp3622
g73
(dp3623
sg82
g3608
sg75
(lp3624
g68
(g69
g70
NtRp3625
(dp3626
g73
(dp3627
g81
I5
ssg82
g3621
sg75
(lp3628
S'db.questions.id>0'
p3629
asbasbasbasbasbsS'etype'
p3630
S"<type 'exceptions.SyntaxError'>"
p3631
sS'date'
p3632
S'Wed Mar 20 21:04:34 2013'
p3633
sS'response'
p3634
g68
(g69
g70
NtRp3635
(dp3636
g73
(dp3637
sg75
(lp3638
g68
(g77
g70
NtRp3639
(dp3640
g73
(dp3641
g81
I5
ssg82
Nsg75
(lp3642
g68
(g84
g70
NtRp3643
(dp3644
g73
(dp3645
sg82
g3639
sg75
(lp3646
g68
(g89
g70
NtRp3647
(dp3648
g73
(dp3649
g93
g94
ssg82
g3643
sg75
(lp3650
g166
asbag68
(g89
g70
NtRp3651
(dp3652
g73
(dp3653
g100
g101
ssg82
g3643
sg75
(lp3654
S':'
asbag68
(g89
g70
NtRp3655
(dp3656
g73
(dp3657
sg82
g3643
sg75
(lp3658
g68
(g69
g70
NtRp3659
(dp3660
g73
(dp3661
g81
I5
ssg82
g3655
sg75
(lp3662
S'<cStringIO.StringO object at 0xac1abc0>'
p3663
asbasbasbag68
(g84
g70
NtRp3664
(dp3665
g73
(dp3666
sg82
g3639
sg75
(lp3667
g68
(g89
g70
NtRp3668
(dp3669
g73
(dp3670
g93
g94
ssg82
g3664
sg75
(lp3671
g254
asbag68
(g89
g70
NtRp3672
(dp3673
g73
(dp3674
g100
g101
ssg82
g3664
sg75
(lp3675
S':'
asbag68
(g89
g70
NtRp3676
(dp3677
g73
(dp3678
sg82
g3664
sg75
(lp3679
g68
(g69
g70
NtRp3680
(dp3681
g73
(dp3682
g81
I5
ssg82
g3676
sg75
(lp3683
g68
(g77
g70
NtRp3684
(dp3685
g73
(dp3686
g81
I4
ssg82
Nsg75
(lp3687
g68
(g84
g70
NtRp3688
(dp3689
g73
(dp3690
sg82
g3684
sg75
(lp3691
g68
(g89
g70
NtRp3692
(dp3693
g73
(dp3694
g93
g94
ssg82
g3688
sg75
(lp3695
S'session_id_ggg'
p3696
asbag68
(g89
g70
NtRp3697
(dp3698
g73
(dp3699
g100
g101
ssg82
g3688
sg75
(lp3700
S':'
asbag68
(g89
g70
NtRp3701
(dp3702
g73
(dp3703
sg82
g3688
sg75
(lp3704
g68
(g69
g70
NtRp3705
(dp3706
g73
(dp3707
g81
I4
ssg82
g3701
sg75
(lp3708
g486
ag68
(g77
g70
NtRp3709
(dp3710
g73
(dp3711
g81
I3
ssg82
Nsg75
(lp3712
g68
(g84
g70
NtRp3713
(dp3714
g73
(dp3715
sg82
g3709
sg75
(lp3716
g68
(g89
g70
NtRp3717
(dp3718
g73
(dp3719
g93
g94
ssg82
g3713
sg75
(lp3720
g305
asbag68
(g89
g70
NtRp3721
(dp3722
g73
(dp3723
g100
g101
ssg82
g3713
sg75
(lp3724
S':'
asbag68
(g89
g70
NtRp3725
(dp3726
g73
(dp3727
sg82
g3713
sg75
(lp3728
g68
(g69
g70
NtRp3729
(dp3730
g73
(dp3731
g81
I3
ssg82
g3725
sg75
(lp3732
S''
asbasbasbag68
(g84
g70
NtRp3733
(dp3734
g73
(dp3735
sg82
g3709
sg75
(lp3736
g68
(g89
g70
NtRp3737
(dp3738
g73
(dp3739
g93
g94
ssg82
g3733
sg75
(lp3740
g326
asbag68
(g89
g70
NtRp3741
(dp3742
g73
(dp3743
g100
g101
ssg82
g3733
sg75
(lp3744
S':'
asbag68
(g89
g70
NtRp3745
(dp3746
g73
(dp3747
sg82
g3733
sg75
(lp3748
g68
(g69
g70
NtRp3749
(dp3750
g73
(dp3751
g81
I3
ssg82
g3745
sg75
(lp3752
S''
asbasbasbag68
(g84
g70
NtRp3753
(dp3754
g73
(dp3755
sg82
g3709
sg75
(lp3756
g68
(g89
g70
NtRp3757
(dp3758
g73
(dp3759
g93
g94
ssg82
g3753
sg75
(lp3760
g347
asbag68
(g89
g70
NtRp3761
(dp3762
g73
(dp3763
g100
g101
ssg82
g3753
sg75
(lp3764
S':'
asbag68
(g89
g70
NtRp3765
(dp3766
g73
(dp3767
sg82
g3753
sg75
(lp3768
g68
(g69
g70
NtRp3769
(dp3770
g73
(dp3771
g81
I3
ssg82
g3765
sg75
(lp3772
S''
asbasbasbag68
(g84
g70
NtRp3773
(dp3774
g73
(dp3775
sg82
g3709
sg75
(lp3776
g68
(g89
g70
NtRp3777
(dp3778
g73
(dp3779
g93
g94
ssg82
g3773
sg75
(lp3780
g368
asbag68
(g89
g70
NtRp3781
(dp3782
g73
(dp3783
g100
g101
ssg82
g3773
sg75
(lp3784
S':'
asbag68
(g89
g70
NtRp3785
(dp3786
g73
(dp3787
sg82
g3773
sg75
(lp3788
g68
(g69
g70
NtRp3789
(dp3790
g73
(dp3791
g81
I3
ssg82
g3785
sg75
(lp3792
S''
asbasbasbag68
(g84
g70
NtRp3793
(dp3794
g73
(dp3795
sg82
g3709
sg75
(lp3796
g68
(g89
g70
NtRp3797
(dp3798
g73
(dp3799
g93
g94
ssg82
g3793
sg75
(lp3800
g389
asbag68
(g89
g70
NtRp3801
(dp3802
g73
(dp3803
g100
g101
ssg82
g3793
sg75
(lp3804
S':'
asbag68
(g89
g70
NtRp3805
(dp3806
g73
(dp3807
sg82
g3793
sg75
(lp3808
g68
(g69
g70
NtRp3809
(dp3810
g73
(dp3811
g81
I3
ssg82
g3805
sg75
(lp3812
S''
asbasbasbag68
(g84
g70
NtRp3813
(dp3814
g73
(dp3815
sg82
g3709
sg75
(lp3816
g68
(g89
g70
NtRp3817
(dp3818
g73
(dp3819
g93
g94
ssg82
g3813
sg75
(lp3820
g410
asbag68
(g89
g70
NtRp3821
(dp3822
g73
(dp3823
g100
g101
ssg82
g3813
sg75
(lp3824
S':'
asbag68
(g89
g70
NtRp3825
(dp3826
g73
(dp3827
sg82
g3813
sg75
(lp3828
g68
(g69
g70
NtRp3829
(dp3830
g73
(dp3831
g81
I3
ssg82
g3825
sg75
(lp3832
S'/'
asbasbasbag68
(g84
g70
NtRp3833
(dp3834
g73
(dp3835
sg82
g3709
sg75
(lp3836
g68
(g89
g70
NtRp3837
(dp3838
g73
(dp3839
g93
g94
ssg82
g3833
sg75
(lp3840
g431
asbag68
(g89
g70
NtRp3841
(dp3842
g73
(dp3843
g100
g101
ssg82
g3833
sg75
(lp3844
S':'
asbag68
(g89
g70
NtRp3845
(dp3846
g73
(dp3847
sg82
g3833
sg75
(lp3848
g68
(g69
g70
NtRp3849
(dp3850
g73
(dp3851
g81
I3
ssg82
g3845
sg75
(lp3852
S''
asbasbasbag68
(g84
g70
NtRp3853
(dp3854
g73
(dp3855
sg82
g3709
sg75
(lp3856
g68
(g89
g70
NtRp3857
(dp3858
g73
(dp3859
g93
g94
ssg82
g3853
sg75
(lp3860
g452
asbag68
(g89
g70
NtRp3861
(dp3862
g73
(dp3863
g100
g101
ssg82
g3853
sg75
(lp3864
S':'
asbag68
(g89
g70
NtRp3865
(dp3866
g73
(dp3867
sg82
g3853
sg75
(lp3868
g68
(g69
g70
NtRp3869
(dp3870
g73
(dp3871
g81
I3
ssg82
g3865
sg75
(lp3872
S''
asbasbasbasbasbasbasbasbasbasbasbag68
(g84
g70
NtRp3873
(dp3874
g73
(dp3875
sg82
g3639
sg75
(lp3876
g68
(g89
g70
NtRp3877
(dp3878
g73
(dp3879
g93
g94
ssg82
g3873
sg75
(lp3880
S'delimiters'
p3881
asbag68
(g89
g70
NtRp3882
(dp3883
g73
(dp3884
g100
g101
ssg82
g3873
sg75
(lp3885
S':'
asbag68
(g89
g70
NtRp3886
(dp3887
g73
(dp3888
sg82
g3873
sg75
(lp3889
g68
(g69
g70
NtRp3890
(dp3891
g73
(dp3892
g81
I5
ssg82
g3886
sg75
(lp3893
g68
(g77
g70
NtRp3894
(dp3895
g73
(dp3896
g81
I4
ssg82
Nsg75
(lp3897
g68
(g84
g70
NtRp3898
(dp3899
g73
(dp3900
sg82
g3894
sg75
(lp3901
g68
(g89
g70
NtRp3902
(dp3903
g73
(dp3904
sg82
g3898
sg75
(lp3905
g68
(g69
g70
NtRp3906
(dp3907
g73
(dp3908
g81
I4
ssg82
g3902
sg75
(lp3909
S'{{'
p3910
asbasbasbag68
(g84
g70
NtRp3911
(dp3912
g73
(dp3913
sg82
g3894
sg75
(lp3914
g68
(g89
g70
NtRp3915
(dp3916
g73
(dp3917
sg82
g3911
sg75
(lp3918
g68
(g69
g70
NtRp3919
(dp3920
g73
(dp3921
g81
I4
ssg82
g3915
sg75
(lp3922
S'}}'
p3923
asbasbasbasbasbasbasbag68
(g84
g70
NtRp3924
(dp3925
g73
(dp3926
sg82
g3639
sg75
(lp3927
g68
(g89
g70
NtRp3928
(dp3929
g73
(dp3930
g93
g94
ssg82
g3924
sg75
(lp3931
S'files'
p3932
asbag68
(g89
g70
NtRp3933
(dp3934
g73
(dp3935
g100
g101
ssg82
g3924
sg75
(lp3936
S':'
asbag68
(g89
g70
NtRp3937
(dp3938
g73
(dp3939
sg82
g3924
sg75
(lp3940
g68
(g69
g70
NtRp3941
(dp3942
g73
(dp3943
g81
I5
ssg82
g3937
sg75
(lp3944
g68
(g77
g70
NtRp3945
(dp3946
g73
(dp3947
g81
I4
ssg82
Nsg75
(lp3948
sbasbasbasbag68
(g84
g70
NtRp3949
(dp3950
g73
(dp3951
sg82
g3639
sg75
(lp3952
g68
(g89
g70
NtRp3953
(dp3954
g73
(dp3955
g93
g94
ssg82
g3949
sg75
(lp3956
S'flash'
p3957
asbag68
(g89
g70
NtRp3958
(dp3959
g73
(dp3960
g100
g101
ssg82
g3949
sg75
(lp3961
S':'
asbag68
(g89
g70
NtRp3962
(dp3963
g73
(dp3964
sg82
g3949
sg75
(lp3965
g68
(g69
g70
NtRp3966
(dp3967
g73
(dp3968
g81
I5
ssg82
g3962
sg75
(lp3969
S''
asbasbasbag68
(g84
g70
NtRp3970
(dp3971
g73
(dp3972
sg82
g3639
sg75
(lp3973
g68
(g89
g70
NtRp3974
(dp3975
g73
(dp3976
g93
g94
ssg82
g3970
sg75
(lp3977
S'generic_patterns'
p3978
asbag68
(g89
g70
NtRp3979
(dp3980
g73
(dp3981
g100
g101
ssg82
g3970
sg75
(lp3982
S':'
asbag68
(g89
g70
NtRp3983
(dp3984
g73
(dp3985
sg82
g3970
sg75
(lp3986
g68
(g69
g70
NtRp3987
(dp3988
g73
(dp3989
g81
I5
ssg82
g3983
sg75
(lp3990
g68
(g77
g70
NtRp3991
(dp3992
g73
(dp3993
g81
I4
ssg82
Nsg75
(lp3994
g68
(g84
g70
NtRp3995
(dp3996
g73
(dp3997
sg82
g3991
sg75
(lp3998
g68
(g89
g70
NtRp3999
(dp4000
g73
(dp4001
sg82
g3995
sg75
(lp4002
g68
(g69
g70
NtRp4003
(dp4004
g73
(dp4005
g81
I4
ssg82
g3999
sg75
(lp4006
S'*'
asbasbasbasbasbasbasbag68
(g84
g70
NtRp4007
(dp4008
g73
(dp4009
sg82
g3639
sg75
(lp4010
g68
(g89
g70
NtRp4011
(dp4012
g73
(dp4013
g93
g94
ssg82
g4007
sg75
(lp4014
S'google_analytics_id'
p4015
asbag68
(g89
g70
NtRp4016
(dp4017
g73
(dp4018
g100
g101
ssg82
g4007
sg75
(lp4019
S':'
asbag68
(g89
g70
NtRp4020
(dp4021
g73
(dp4022
sg82
g4007
sg75
(lp4023
g68
(g69
g70
NtRp4024
(dp4025
g73
(dp4026
g81
I5
ssg82
g4020
sg75
(lp4027
S'None'
p4028
asbasbasbag68
(g84
g70
NtRp4029
(dp4030
g73
(dp4031
sg82
g3639
sg75
(lp4032
g68
(g89
g70
NtRp4033
(dp4034
g73
(dp4035
g93
g94
ssg82
g4029
sg75
(lp4036
S'headers'
p4037
asbag68
(g89
g70
NtRp4038
(dp4039
g73
(dp4040
g100
g101
ssg82
g4029
sg75
(lp4041
S':'
asbag68
(g89
g70
NtRp4042
(dp4043
g73
(dp4044
sg82
g4029
sg75
(lp4045
g68
(g69
g70
NtRp4046
(dp4047
g73
(dp4048
g81
I5
ssg82
g4042
sg75
(lp4049
g68
(g77
g70
NtRp4050
(dp4051
g73
(dp4052
g81
I4
ssg82
Nsg75
(lp4053
g68
(g84
g70
NtRp4054
(dp4055
g73
(dp4056
sg82
g4050
sg75
(lp4057
g68
(g89
g70
NtRp4058
(dp4059
g73
(dp4060
g93
g94
ssg82
g4054
sg75
(lp4061
S'X-Powered-By'
p4062
asbag68
(g89
g70
NtRp4063
(dp4064
g73
(dp4065
g100
g101
ssg82
g4054
sg75
(lp4066
S':'
asbag68
(g89
g70
NtRp4067
(dp4068
g73
(dp4069
sg82
g4054
sg75
(lp4070
g68
(g69
g70
NtRp4071
(dp4072
g73
(dp4073
g81
I4
ssg82
g4067
sg75
(lp4074
S'web2py'
p4075
asbasbasbasbasbasbasbag68
(g84
g70
NtRp4076
(dp4077
g73
(dp4078
sg82
g3639
sg75
(lp4079
g68
(g89
g70
NtRp4080
(dp4081
g73
(dp4082
g93
g94
ssg82
g4076
sg75
(lp4083
S'logo'
p4084
asbag68
(g89
g70
NtRp4085
(dp4086
g73
(dp4087
g100
g101
ssg82
g4076
sg75
(lp4088
S':'
asbag68
(g89
g70
NtRp4089
(dp4090
g73
(dp4091
sg82
g4076
sg75
(lp4092
g68
(g69
g70
NtRp4093
(dp4094
g73
(dp4095
g81
I5
ssg82
g4089
sg75
(lp4096
g68
(cgluon.html
A
p4097
g70
NtRp4098
(dp4099
g73
(dp4100
S'_class'
p4101
S'brand'
p4102
sS'_href'
p4103
S'http://www.web2py.com/'
p4104
ssg82
Nsg75
(lp4105
g68
(cgluon.html
B
p4106
g70
NtRp4107
(dp4108
g73
(dp4109
sg82
g4098
sg75
(lp4110
S'web'
p4111
ag68
(cgluon.html
SPAN
p4112
g70
NtRp4113
(dp4114
g73
(dp4115
sg82
g4107
sg75
(lp4116
I2
asbaS'py'
p4117
asbacgluon.html
XML_unpickle
p4118
(S's\r\x00\x00\x00&trade;&nbsp;'
tRp4119
asbasbasbasbag68
(g84
g70
NtRp4120
(dp4121
g73
(dp4122
sg82
g3639
sg75
(lp4123
g68
(g89
g70
NtRp4124
(dp4125
g73
(dp4126
g93
g94
ssg82
g4120
sg75
(lp4127
S'menu'
p4128
asbag68
(g89
g70
NtRp4129
(dp4130
g73
(dp4131
g100
g101
ssg82
g4120
sg75
(lp4132
S':'
asbag68
(g89
g70
NtRp4133
(dp4134
g73
(dp4135
sg82
g4120
sg75
(lp4136
g68
(g69
g70
NtRp4137
(dp4138
g73
(dp4139
g81
I5
ssg82
g4133
sg75
(lp4140
g68
(g77
g70
NtRp4141
(dp4142
g73
(dp4143
g81
I4
ssg82
Nsg75
(lp4144
g68
(g84
g70
NtRp4145
(dp4146
g73
(dp4147
sg82
g4141
sg75
(lp4148
g68
(g89
g70
NtRp4149
(dp4150
g73
(dp4151
sg82
g4145
sg75
(lp4152
g68
(g69
g70
NtRp4153
(dp4154
g73
(dp4155
g81
I4
ssg82
g4149
sg75
(lp4156
g68
(g77
g70
NtRp4157
(dp4158
g73
(dp4159
g81
I3
ssg82
Nsg75
(lp4160
g68
(g84
g70
NtRp4161
(dp4162
g73
(dp4163
sg82
g4157
sg75
(lp4164
g68
(g89
g70
NtRp4165
(dp4166
g73
(dp4167
sg82
g4161
sg75
(lp4168
g68
(g69
g70
NtRp4169
(dp4170
g73
(dp4171
g81
I3
ssg82
g4165
sg75
(lp4172
cgluon.languages
lazyT_unpickle
p4173
(S's\x04\x00\x00\x00Home'
tRp4174
asbasbasbag68
(g84
g70
NtRp4175
(dp4176
g73
(dp4177
sg82
g4157
sg75
(lp4178
g68
(g89
g70
NtRp4179
(dp4180
g73
(dp4181
sg82
g4175
sg75
(lp4182
g68
(g69
g70
NtRp4183
(dp4184
g73
(dp4185
g81
I3
ssg82
g4179
sg75
(lp4186
g111
asbasbasbag68
(g84
g70
NtRp4187
(dp4188
g73
(dp4189
sg82
g4157
sg75
(lp4190
g68
(g89
g70
NtRp4191
(dp4192
g73
(dp4193
sg82
g4187
sg75
(lp4194
g68
(g69
g70
NtRp4195
(dp4196
g73
(dp4197
g81
I3
ssg82
g4191
sg75
(lp4198
S'/ggg/default/index'
p4199
asbasbasbag68
(g84
g70
NtRp4200
(dp4201
g73
(dp4202
sg82
g4157
sg75
(lp4203
g68
(g89
g70
NtRp4204
(dp4205
g73
(dp4206
sg82
g4200
sg75
(lp4207
g68
(g69
g70
NtRp4208
(dp4209
g73
(dp4210
g81
I3
ssg82
g4204
sg75
(lp4211
g68
(g77
g70
NtRp4212
(dp4213
g73
(dp4214
g81
I2
ssg82
Nsg75
(lp4215
sbasbasbasbasbasbasbasbag68
(g84
g70
NtRp4216
(dp4217
g73
(dp4218
sg82
g4141
sg75
(lp4219
g68
(g89
g70
NtRp4220
(dp4221
g73
(dp4222
sg82
g4216
sg75
(lp4223
g68
(g69
g70
NtRp4224
(dp4225
g73
(dp4226
g81
I4
ssg82
g4220
sg75
(lp4227
g68
(g77
g70
NtRp4228
(dp4229
g73
(dp4230
g81
I3
ssg82
Nsg75
(lp4231
g68
(g84
g70
NtRp4232
(dp4233
g73
(dp4234
sg82
g4228
sg75
(lp4235
g68
(g89
g70
NtRp4236
(dp4237
g73
(dp4238
sg82
g4232
sg75
(lp4239
g68
(g69
g70
NtRp4240
(dp4241
g73
(dp4242
g81
I3
ssg82
g4236
sg75
(lp4243
g68
(g4112
g70
NtRp4244
(dp4245
g73
(dp4246
g4101
S'highlighted'
p4247
ssg82
Nsg75
(lp4248
g4075
asbasbasbasbag68
(g84
g70
NtRp4249
(dp4250
g73
(dp4251
sg82
g4228
sg75
(lp4252
g68
(g89
g70
NtRp4253
(dp4254
g73
(dp4255
sg82
g4249
sg75
(lp4256
g68
(g69
g70
NtRp4257
(dp4258
g73
(dp4259
g81
I3
ssg82
g4253
sg75
(lp4260
g111
asbasbasbag68
(g84
g70
NtRp4261
(dp4262
g73
(dp4263
sg82
g4228
sg75
(lp4264
g68
(g89
g70
NtRp4265
(dp4266
g73
(dp4267
sg82
g4261
sg75
(lp4268
g68
(g69
g70
NtRp4269
(dp4270
g73
(dp4271
g81
I3
ssg82
g4265
sg75
(lp4272
S'http://web2py.com'
p4273
asbasbasbag68
(g84
g70
NtRp4274
(dp4275
g73
(dp4276
sg82
g4228
sg75
(lp4277
g68
(g89
g70
NtRp4278
(dp4279
g73
(dp4280
sg82
g4274
sg75
(lp4281
g68
(g69
g70
NtRp4282
(dp4283
g73
(dp4284
g81
I3
ssg82
g4278
sg75
(lp4285
g68
(g77
g70
NtRp4286
(dp4287
g73
(dp4288
g81
I2
ssg82
Nsg75
(lp4289
g68
(g84
g70
NtRp4290
(dp4291
g73
(dp4292
sg82
g4286
sg75
(lp4293
g68
(g89
g70
NtRp4294
(dp4295
g73
(dp4296
sg82
g4290
sg75
(lp4297
g68
(g69
g70
NtRp4298
(dp4299
g73
(dp4300
g81
I2
ssg82
g4294
sg75
(lp4301
g68
(g77
g70
NtRp4302
(dp4303
g73
(dp4304
g81
I1
ssg82
Nsg75
(lp4305
g68
(g84
g70
NtRp4306
(dp4307
g73
(dp4308
sg82
g4302
sg75
(lp4309
g68
(g89
g70
NtRp4310
(dp4311
g73
(dp4312
sg82
g4306
sg75
(lp4313
g68
(g69
g70
NtRp4314
(dp4315
g73
(dp4316
g81
I1
ssg82
g4310
sg75
(lp4317
g4173
(S's\x08\x00\x00\x00My Sites'
tRp4318
asbasbasbag68
(g84
g70
NtRp4319
(dp4320
g73
(dp4321
sg82
g4302
sg75
(lp4322
g68
(g89
g70
NtRp4323
(dp4324
g73
(dp4325
sg82
g4319
sg75
(lp4326
g68
(g69
g70
NtRp4327
(dp4328
g73
(dp4329
g81
I1
ssg82
g4323
sg75
(lp4330
I00
asbasbasbag68
(g84
g70
NtRp4331
(dp4332
g73
(dp4333
sg82
g4302
sg75
(lp4334
g68
(g89
g70
NtRp4335
(dp4336
g73
(dp4337
sg82
g4331
sg75
(lp4338
g68
(g69
g70
NtRp4339
(dp4340
g73
(dp4341
g81
I1
ssg82
g4335
sg75
(lp4342
S'/admin/default/site'
p4343
asbasbasbasbasbasbasbag68
(g84
g70
NtRp4344
(dp4345
g73
(dp4346
sg82
g4286
sg75
(lp4347
g68
(g89
g70
NtRp4348
(dp4349
g73
(dp4350
sg82
g4344
sg75
(lp4351
g68
(g69
g70
NtRp4352
(dp4353
g73
(dp4354
g81
I2
ssg82
g4348
sg75
(lp4355
g68
(g77
g70
NtRp4356
(dp4357
g73
(dp4358
g81
I1
ssg82
Nsg75
(lp4359
g68
(g84
g70
NtRp4360
(dp4361
g73
(dp4362
sg82
g4356
sg75
(lp4363
g68
(g89
g70
NtRp4364
(dp4365
g73
(dp4366
sg82
g4360
sg75
(lp4367
g68
(g69
g70
NtRp4368
(dp4369
g73
(dp4370
g81
I1
ssg82
g4364
sg75
(lp4371
g4173
(S's\x08\x00\x00\x00This App'
tRp4372
asbasbasbag68
(g84
g70
NtRp4373
(dp4374
g73
(dp4375
sg82
g4356
sg75
(lp4376
g68
(g89
g70
NtRp4377
(dp4378
g73
(dp4379
sg82
g4373
sg75
(lp4380
g68
(g69
g70
NtRp4381
(dp4382
g73
(dp4383
g81
I1
ssg82
g4377
sg75
(lp4384
I00
asbasbasbag68
(g84
g70
NtRp4385
(dp4386
g73
(dp4387
sg82
g4356
sg75
(lp4388
g68
(g89
g70
NtRp4389
(dp4390
g73
(dp4391
sg82
g4385
sg75
(lp4392
g68
(g69
g70
NtRp4393
(dp4394
g73
(dp4395
g81
I1
ssg82
g4389
sg75
(lp4396
S'/admin/default/design/ggg'
p4397
asbasbasbag68
(g84
g70
NtRp4398
(dp4399
g73
(dp4400
sg82
g4356
sg75
(lp4401
g68
(g89
g70
NtRp4402
(dp4403
g73
(dp4404
sg82
g4398
sg75
(lp4405
g68
(g69
g70
NtRp4406
(dp4407
g73
(dp4408
g81
I1
ssg82
g4402
sg75
(lp4409
(lp4410
(g4173
(S's\n\x00\x00\x00Controller'
tRp4411
I00
S'/admin/default/edit/ggg/controllers/default.py'
tp4412
a(g4173
(S's\x04\x00\x00\x00View'
tRp4413
I00
S'/admin/default/edit/ggg/views/default/exam.html'
tp4414
a(g4173
(S's\x06\x00\x00\x00Layout'
tRp4415
I00
S'/admin/default/edit/ggg/views/layout.html'
tp4416
a(g4173
(S's\n\x00\x00\x00Stylesheet'
tRp4417
I00
S'/admin/default/edit/ggg/static/css/web2py.css'
tp4418
a(g4173
(S's\x08\x00\x00\x00DB Model'
tRp4419
I00
S'/admin/default/edit/ggg/models/db.py'
tp4420
a(g4173
(S's\n\x00\x00\x00Menu Model'
tRp4421
I00
S'/admin/default/edit/ggg/models/menu.py'
tp4422
a(g4173
(S's\x08\x00\x00\x00Database'
tRp4423
I00
S'/ggg/appadmin/index'
tp4424
a(g4173
(S's\x06\x00\x00\x00Errors'
tRp4425
I00
S'/admin/default/errors/ggg'
tp4426
a(g4173
(S's\x05\x00\x00\x00About'
tRp4427
I00
S'/admin/default/about/ggg'
tp4428
aasbasbasbasbasbasbasbag68
(g84
g70
NtRp4429
(dp4430
g73
(dp4431
sg82
g4286
sg75
(lp4432
g68
(g89
g70
NtRp4433
(dp4434
g73
(dp4435
sg82
g4429
sg75
(lp4436
g68
(g69
g70
NtRp4437
(dp4438
g73
(dp4439
g81
I2
ssg82
g4433
sg75
(lp4440
g68
(g77
g70
NtRp4441
(dp4442
g73
(dp4443
g81
I1
ssg82
Nsg75
(lp4444
g68
(g84
g70
NtRp4445
(dp4446
g73
(dp4447
sg82
g4441
sg75
(lp4448
g68
(g89
g70
NtRp4449
(dp4450
g73
(dp4451
sg82
g4445
sg75
(lp4452
g68
(g69
g70
NtRp4453
(dp4454
g73
(dp4455
g81
I1
ssg82
g4449
sg75
(lp4456
S'web2py.com'
p4457
asbasbasbag68
(g84
g70
NtRp4458
(dp4459
g73
(dp4460
sg82
g4441
sg75
(lp4461
g68
(g89
g70
NtRp4462
(dp4463
g73
(dp4464
sg82
g4458
sg75
(lp4465
g68
(g69
g70
NtRp4466
(dp4467
g73
(dp4468
g81
I1
ssg82
g4462
sg75
(lp4469
I00
asbasbasbag68
(g84
g70
NtRp4470
(dp4471
g73
(dp4472
sg82
g4441
sg75
(lp4473
g68
(g89
g70
NtRp4474
(dp4475
g73
(dp4476
sg82
g4470
sg75
(lp4477
g68
(g69
g70
NtRp4478
(dp4479
g73
(dp4480
g81
I1
ssg82
g4474
sg75
(lp4481
S'http://www.web2py.com'
p4482
asbasbasbag68
(g84
g70
NtRp4483
(dp4484
g73
(dp4485
sg82
g4441
sg75
(lp4486
g68
(g89
g70
NtRp4487
(dp4488
g73
(dp4489
sg82
g4483
sg75
(lp4490
g68
(g69
g70
NtRp4491
(dp4492
g73
(dp4493
g81
I1
ssg82
g4487
sg75
(lp4494
(lp4495
(g4173
(S's\x08\x00\x00\x00Download'
tRp4496
I00
S'http://www.web2py.com/examples/default/download'
p4497
tp4498
a(g4173
(S's\x07\x00\x00\x00Support'
tRp4499
I00
S'http://www.web2py.com/examples/default/support'
p4500
tp4501
a(g4173
(S's\x04\x00\x00\x00Demo'
tRp4502
I00
S'http://web2py.com/demo_admin'
p4503
tp4504
a(g4173
(S's\x0e\x00\x00\x00Quick Examples'
tRp4505
I00
S'http://web2py.com/examples/default/examples'
p4506
tp4507
a(g4173
(S's\x03\x00\x00\x00FAQ'
tRp4508
I00
S'http://web2py.com/AlterEgo'
p4509
tp4510
a(g4173
(S's\x06\x00\x00\x00Videos'
tRp4511
I00
S'http://www.web2py.com/examples/default/videos/'
p4512
tp4513
a(g4173
(S's\x11\x00\x00\x00Free Applications'
tRp4514
I00
S'http://web2py.com/appliances'
p4515
tp4516
a(g4173
(S's\x07\x00\x00\x00Plugins'
tRp4517
I00
S'http://web2py.com/plugins'
p4518
tp4519
a(g4173
(S's\x07\x00\x00\x00Layouts'
tRp4520
I00
S'http://web2py.com/layouts'
p4521
tp4522
a(g4173
(S's\x07\x00\x00\x00Recipes'
tRp4523
I00
S'http://web2pyslices.com/'
p4524
tp4525
a(g4173
(S's\x08\x00\x00\x00Semantic'
tRp4526
I00
S'http://web2py.com/semantic'
p4527
tp4528
aasbasbasbasbasbasbasbag68
(g84
g70
NtRp4529
(dp4530
g73
(dp4531
sg82
g4286
sg75
(lp4532
g68
(g89
g70
NtRp4533
(dp4534
g73
(dp4535
sg82
g4529
sg75
(lp4536
g68
(g69
g70
NtRp4537
(dp4538
g73
(dp4539
g81
I2
ssg82
g4533
sg75
(lp4540
g68
(g77
g70
NtRp4541
(dp4542
g73
(dp4543
g81
I1
ssg82
Nsg75
(lp4544
g68
(g84
g70
NtRp4545
(dp4546
g73
(dp4547
sg82
g4541
sg75
(lp4548
g68
(g89
g70
NtRp4549
(dp4550
g73
(dp4551
sg82
g4545
sg75
(lp4552
g68
(g69
g70
NtRp4553
(dp4554
g73
(dp4555
g81
I1
ssg82
g4549
sg75
(lp4556
g4173
(S's\r\x00\x00\x00Documentation'
tRp4557
asbasbasbag68
(g84
g70
NtRp4558
(dp4559
g73
(dp4560
sg82
g4541
sg75
(lp4561
g68
(g89
g70
NtRp4562
(dp4563
g73
(dp4564
sg82
g4558
sg75
(lp4565
g68
(g69
g70
NtRp4566
(dp4567
g73
(dp4568
g81
I1
ssg82
g4562
sg75
(lp4569
I00
asbasbasbag68
(g84
g70
NtRp4570
(dp4571
g73
(dp4572
sg82
g4541
sg75
(lp4573
g68
(g89
g70
NtRp4574
(dp4575
g73
(dp4576
sg82
g4570
sg75
(lp4577
g68
(g69
g70
NtRp4578
(dp4579
g73
(dp4580
g81
I1
ssg82
g4574
sg75
(lp4581
S'http://www.web2py.com/book'
p4582
asbasbasbag68
(g84
g70
NtRp4583
(dp4584
g73
(dp4585
sg82
g4541
sg75
(lp4586
g68
(g89
g70
NtRp4587
(dp4588
g73
(dp4589
sg82
g4583
sg75
(lp4590
g68
(g69
g70
NtRp4591
(dp4592
g73
(dp4593
g81
I1
ssg82
g4587
sg75
(lp4594
(lp4595
(g4173
(S's\x07\x00\x00\x00Preface'
tRp4596
I00
S'http://www.web2py.com/book/default/chapter/00'
p4597
tp4598
a(g4173
(S's\x0c\x00\x00\x00Introduction'
tRp4599
I00
S'http://www.web2py.com/book/default/chapter/01'
p4600
tp4601
a(g4173
(S's\x06\x00\x00\x00Python'
tRp4602
I00
S'http://www.web2py.com/book/default/chapter/02'
p4603
tp4604
a(g4173
(S's\x08\x00\x00\x00Overview'
tRp4605
I00
S'http://www.web2py.com/book/default/chapter/03'
p4606
tp4607
a(g4173
(S's\x08\x00\x00\x00The Core'
tRp4608
I00
S'http://www.web2py.com/book/default/chapter/04'
p4609
tp4610
a(g4173
(S's\t\x00\x00\x00The Views'
tRp4611
I00
S'http://www.web2py.com/book/default/chapter/05'
p4612
tp4613
a(g4173
(S's\x08\x00\x00\x00Database'
tRp4614
I00
S'http://www.web2py.com/book/default/chapter/06'
p4615
tp4616
a(g4173
(S's\x14\x00\x00\x00Forms and Validators'
tRp4617
I00
S'http://www.web2py.com/book/default/chapter/07'
p4618
tp4619
a(g4173
(S's\r\x00\x00\x00Email and SMS'
tRp4620
I00
S'http://www.web2py.com/book/default/chapter/08'
p4621
tp4622
a(g4173
(S's\x0e\x00\x00\x00Access Control'
tRp4623
I00
S'http://www.web2py.com/book/default/chapter/09'
p4624
tp4625
a(g4173
(S's\x08\x00\x00\x00Services'
tRp4626
I00
S'http://www.web2py.com/book/default/chapter/10'
p4627
tp4628
a(g4173
(S's\x0c\x00\x00\x00Ajax Recipes'
tRp4629
I00
S'http://www.web2py.com/book/default/chapter/11'
p4630
tp4631
a(g4173
(S's\x16\x00\x00\x00Components and Plugins'
tRp4632
I00
S'http://www.web2py.com/book/default/chapter/12'
p4633
tp4634
a(g4173
(S's\x12\x00\x00\x00Deployment Recipes'
tRp4635
I00
S'http://www.web2py.com/book/default/chapter/13'
p4636
tp4637
a(g4173
(S's\r\x00\x00\x00Other Recipes'
tRp4638
I00
S'http://www.web2py.com/book/default/chapter/14'
p4639
tp4640
a(g4173
(S's\r\x00\x00\x00Buy this book'
tRp4641
I00
S'http://stores.lulu.com/web2py'
p4642
tp4643
aasbasbasbasbasbasbasbag68
(g84
g70
NtRp4644
(dp4645
g73
(dp4646
sg82
g4286
sg75
(lp4647
g68
(g89
g70
NtRp4648
(dp4649
g73
(dp4650
sg82
g4644
sg75
(lp4651
g68
(g69
g70
NtRp4652
(dp4653
g73
(dp4654
g81
I2
ssg82
g4648
sg75
(lp4655
g68
(g77
g70
NtRp4656
(dp4657
g73
(dp4658
g81
I1
ssg82
Nsg75
(lp4659
g68
(g84
g70
NtRp4660
(dp4661
g73
(dp4662
sg82
g4656
sg75
(lp4663
g68
(g89
g70
NtRp4664
(dp4665
g73
(dp4666
sg82
g4660
sg75
(lp4667
g68
(g69
g70
NtRp4668
(dp4669
g73
(dp4670
g81
I1
ssg82
g4664
sg75
(lp4671
g4173
(S's\t\x00\x00\x00Community'
tRp4672
asbasbasbag68
(g84
g70
NtRp4673
(dp4674
g73
(dp4675
sg82
g4656
sg75
(lp4676
g68
(g89
g70
NtRp4677
(dp4678
g73
(dp4679
sg82
g4673
sg75
(lp4680
g68
(g69
g70
NtRp4681
(dp4682
g73
(dp4683
g81
I1
ssg82
g4677
sg75
(lp4684
I00
asbasbasbag68
(g84
g70
NtRp4685
(dp4686
g73
(dp4687
sg82
g4656
sg75
(lp4688
g68
(g89
g70
NtRp4689
(dp4690
g73
(dp4691
sg82
g4685
sg75
(lp4692
g68
(g69
g70
NtRp4693
(dp4694
g73
(dp4695
g81
I1
ssg82
g4689
sg75
(lp4696
Nasbasbasbag68
(g84
g70
NtRp4697
(dp4698
g73
(dp4699
sg82
g4656
sg75
(lp4700
g68
(g89
g70
NtRp4701
(dp4702
g73
(dp4703
sg82
g4697
sg75
(lp4704
g68
(g69
g70
NtRp4705
(dp4706
g73
(dp4707
g81
I1
ssg82
g4701
sg75
(lp4708
(lp4709
(g4173
(S's\x06\x00\x00\x00Groups'
tRp4710
I00
S'http://www.web2py.com/examples/default/usergroups'
p4711
tp4712
a(g4173
(S's\x07\x00\x00\x00Twitter'
tRp4713
I00
S'http://twitter.com/web2py'
p4714
tp4715
a(g4173
(S's\t\x00\x00\x00Live Chat'
tRp4716
I00
S'http://webchat.freenode.net/?channels=web2py'
p4717
tp4718
aasbasbasbasbasbasbasbag68
(g84
g70
NtRp4719
(dp4720
g73
(dp4721
sg82
g4286
sg75
(lp4722
g68
(g89
g70
NtRp4723
(dp4724
g73
(dp4725
sg82
g4719
sg75
(lp4726
g68
(g69
g70
NtRp4727
(dp4728
g73
(dp4729
g81
I2
ssg82
g4723
sg75
(lp4730
g68
(g77
g70
NtRp4731
(dp4732
g73
(dp4733
g81
I1
ssg82
Nsg75
(lp4734
g68
(g84
g70
NtRp4735
(dp4736
g73
(dp4737
sg82
g4731
sg75
(lp4738
g68
(g89
g70
NtRp4739
(dp4740
g73
(dp4741
sg82
g4735
sg75
(lp4742
g68
(g69
g70
NtRp4743
(dp4744
g73
(dp4745
g81
I1
ssg82
g4739
sg75
(lp4746
g4173
(S's\x07\x00\x00\x00Plugins'
tRp4747
asbasbasbag68
(g84
g70
NtRp4748
(dp4749
g73
(dp4750
sg82
g4731
sg75
(lp4751
g68
(g89
g70
NtRp4752
(dp4753
g73
(dp4754
sg82
g4748
sg75
(lp4755
g68
(g69
g70
NtRp4756
(dp4757
g73
(dp4758
g81
I1
ssg82
g4752
sg75
(lp4759
I00
asbasbasbag68
(g84
g70
NtRp4760
(dp4761
g73
(dp4762
sg82
g4731
sg75
(lp4763
g68
(g89
g70
NtRp4764
(dp4765
g73
(dp4766
sg82
g4760
sg75
(lp4767
g68
(g69
g70
NtRp4768
(dp4769
g73
(dp4770
g81
I1
ssg82
g4764
sg75
(lp4771
Nasbasbasbag68
(g84
g70
NtRp4772
(dp4773
g73
(dp4774
sg82
g4731
sg75
(lp4775
g68
(g89
g70
NtRp4776
(dp4777
g73
(dp4778
sg82
g4772
sg75
(lp4779
g68
(g69
g70
NtRp4780
(dp4781
g73
(dp4782
g81
I1
ssg82
g4776
sg75
(lp4783
(lp4784
(S'plugin_wiki'
p4785
I00
S'http://web2py.com/examples/default/download'
p4786
tp4787
a(g4173
(S's\r\x00\x00\x00Other Plugins'
tRp4788
I00
g4518
tp4789
a(g4173
(S's\x0e\x00\x00\x00Layout Plugins'
tRp4790
I00
g4521
tp4791
aasbasbasbasbasbasbasbasbasbasbasbasbasbasbasbasbasbasbasbag68
(g84
g70
NtRp4792
(dp4793
g73
(dp4794
sg82
g3639
sg75
(lp4795
g68
(g89
g70
NtRp4796
(dp4797
g73
(dp4798
g93
g94
ssg82
g4792
sg75
(lp4799
S'meta'
p4800
asbag68
(g89
g70
NtRp4801
(dp4802
g73
(dp4803
g100
g101
ssg82
g4792
sg75
(lp4804
S':'
asbag68
(g89
g70
NtRp4805
(dp4806
g73
(dp4807
sg82
g4792
sg75
(lp4808
g68
(g69
g70
NtRp4809
(dp4810
g73
(dp4811
g81
I5
ssg82
g4805
sg75
(lp4812
g68
(g77
g70
NtRp4813
(dp4814
g73
(dp4815
g81
I4
ssg82
Nsg75
(lp4816
g68
(g84
g70
NtRp4817
(dp4818
g73
(dp4819
sg82
g4813
sg75
(lp4820
g68
(g89
g70
NtRp4821
(dp4822
g73
(dp4823
g93
g94
ssg82
g4817
sg75
(lp4824
S'author'
p4825
asbag68
(g89
g70
NtRp4826
(dp4827
g73
(dp4828
g100
g101
ssg82
g4817
sg75
(lp4829
S':'
asbag68
(g89
g70
NtRp4830
(dp4831
g73
(dp4832
sg82
g4817
sg75
(lp4833
g68
(g69
g70
NtRp4834
(dp4835
g73
(dp4836
g81
I4
ssg82
g4830
sg75
(lp4837
S'Your Name <you@example.com>'
p4838
asbasbasbag68
(g84
g70
NtRp4839
(dp4840
g73
(dp4841
sg82
g4813
sg75
(lp4842
g68
(g89
g70
NtRp4843
(dp4844
g73
(dp4845
g93
g94
ssg82
g4839
sg75
(lp4846
S'description'
p4847
asbag68
(g89
g70
NtRp4848
(dp4849
g73
(dp4850
g100
g101
ssg82
g4839
sg75
(lp4851
S':'
asbag68
(g89
g70
NtRp4852
(dp4853
g73
(dp4854
sg82
g4839
sg75
(lp4855
g68
(g69
g70
NtRp4856
(dp4857
g73
(dp4858
g81
I4
ssg82
g4852
sg75
(lp4859
S'a cool new app'
p4860
asbasbasbag68
(g84
g70
NtRp4861
(dp4862
g73
(dp4863
sg82
g4813
sg75
(lp4864
g68
(g89
g70
NtRp4865
(dp4866
g73
(dp4867
g93
g94
ssg82
g4861
sg75
(lp4868
S'generator'
p4869
asbag68
(g89
g70
NtRp4870
(dp4871
g73
(dp4872
g100
g101
ssg82
g4861
sg75
(lp4873
S':'
asbag68
(g89
g70
NtRp4874
(dp4875
g73
(dp4876
sg82
g4861
sg75
(lp4877
g68
(g69
g70
NtRp4878
(dp4879
g73
(dp4880
g81
I4
ssg82
g4874
sg75
(lp4881
S'Web2py Web Framework'
p4882
asbasbasbag68
(g84
g70
NtRp4883
(dp4884
g73
(dp4885
sg82
g4813
sg75
(lp4886
g68
(g89
g70
NtRp4887
(dp4888
g73
(dp4889
g93
g94
ssg82
g4883
sg75
(lp4890
S'keywords'
p4891
asbag68
(g89
g70
NtRp4892
(dp4893
g73
(dp4894
g100
g101
ssg82
g4883
sg75
(lp4895
S':'
asbag68
(g89
g70
NtRp4896
(dp4897
g73
(dp4898
sg82
g4883
sg75
(lp4899
g68
(g69
g70
NtRp4900
(dp4901
g73
(dp4902
g81
I4
ssg82
g4896
sg75
(lp4903
S'web2py, python, framework'
p4904
asbasbasbasbasbasbasbag68
(g84
g70
NtRp4905
(dp4906
g73
(dp4907
sg82
g3639
sg75
(lp4908
g68
(g89
g70
NtRp4909
(dp4910
g73
(dp4911
g93
g94
ssg82
g4905
sg75
(lp4912
S'models_to_run'
p4913
asbag68
(g89
g70
NtRp4914
(dp4915
g73
(dp4916
g100
g101
ssg82
g4905
sg75
(lp4917
S':'
asbag68
(g89
g70
NtRp4918
(dp4919
g73
(dp4920
sg82
g4905
sg75
(lp4921
g68
(g69
g70
NtRp4922
(dp4923
g73
(dp4924
g81
I5
ssg82
g4918
sg75
(lp4925
g68
(g77
g70
NtRp4926
(dp4927
g73
(dp4928
g81
I4
ssg82
Nsg75
(lp4929
g68
(g84
g70
NtRp4930
(dp4931
g73
(dp4932
sg82
g4926
sg75
(lp4933
g68
(g89
g70
NtRp4934
(dp4935
g73
(dp4936
sg82
g4930
sg75
(lp4937
g68
(g69
g70
NtRp4938
(dp4939
g73
(dp4940
g81
I4
ssg82
g4934
sg75
(lp4941
S'^\\w+\\.py$'
p4942
asbasbasbag68
(g84
g70
NtRp4943
(dp4944
g73
(dp4945
sg82
g4926
sg75
(lp4946
g68
(g89
g70
NtRp4947
(dp4948
g73
(dp4949
sg82
g4943
sg75
(lp4950
g68
(g69
g70
NtRp4951
(dp4952
g73
(dp4953
g81
I4
ssg82
g4947
sg75
(lp4954
S'^default/\\w+\\.py$'
p4955
asbasbasbag68
(g84
g70
NtRp4956
(dp4957
g73
(dp4958
sg82
g4926
sg75
(lp4959
g68
(g89
g70
NtRp4960
(dp4961
g73
(dp4962
sg82
g4956
sg75
(lp4963
g68
(g69
g70
NtRp4964
(dp4965
g73
(dp4966
g81
I4
ssg82
g4960
sg75
(lp4967
S'^default/exam/\\w+\\.py$'
p4968
asbasbasbasbasbasbasbag68
(g84
g70
NtRp4969
(dp4970
g73
(dp4971
sg82
g3639
sg75
(lp4972
g68
(g89
g70
NtRp4973
(dp4974
g73
(dp4975
g93
g94
ssg82
g4969
sg75
(lp4976
S'postprocessing'
p4977
asbag68
(g89
g70
NtRp4978
(dp4979
g73
(dp4980
g100
g101
ssg82
g4969
sg75
(lp4981
S':'
asbag68
(g89
g70
NtRp4982
(dp4983
g73
(dp4984
sg82
g4969
sg75
(lp4985
g68
(g69
g70
NtRp4986
(dp4987
g73
(dp4988
g81
I5
ssg82
g4982
sg75
(lp4989
g68
(g77
g70
NtRp4990
(dp4991
g73
(dp4992
g81
I4
ssg82
Nsg75
(lp4993
sbasbasbasbag68
(g84
g70
NtRp4994
(dp4995
g73
(dp4996
sg82
g3639
sg75
(lp4997
g68
(g89
g70
NtRp4998
(dp4999
g73
(dp5000
g93
g94
ssg82
g4994
sg75
(lp5001
S'session_cookie_expires'
p5002
asbag68
(g89
g70
NtRp5003
(dp5004
g73
(dp5005
g100
g101
ssg82
g4994
sg75
(lp5006
S':'
asbag68
(g89
g70
NtRp5007
(dp5008
g73
(dp5009
sg82
g4994
sg75
(lp5010
g68
(g69
g70
NtRp5011
(dp5012
g73
(dp5013
g81
I5
ssg82
g5007
sg75
(lp5014
S'None'
p5015
asbasbasbag68
(g84
g70
NtRp5016
(dp5017
g73
(dp5018
sg82
g3639
sg75
(lp5019
g68
(g89
g70
NtRp5020
(dp5021
g73
(dp5022
g93
g94
ssg82
g5016
sg75
(lp5023
S'session_data_name'
p5024
asbag68
(g89
g70
NtRp5025
(dp5026
g73
(dp5027
g100
g101
ssg82
g5016
sg75
(lp5028
S':'
asbag68
(g89
g70
NtRp5029
(dp5030
g73
(dp5031
sg82
g5016
sg75
(lp5032
g68
(g69
g70
NtRp5033
(dp5034
g73
(dp5035
g81
I5
ssg82
g5029
sg75
(lp5036
S'session_data_ggg'
p5037
asbasbasbag68
(g84
g70
NtRp5038
(dp5039
g73
(dp5040
sg82
g3639
sg75
(lp5041
g68
(g89
g70
NtRp5042
(dp5043
g73
(dp5044
g93
g94
ssg82
g5038
sg75
(lp5045
S'session_file'
p5046
asbag68
(g89
g70
NtRp5047
(dp5048
g73
(dp5049
g100
g101
ssg82
g5038
sg75
(lp5050
S':'
asbag68
(g89
g70
NtRp5051
(dp5052
g73
(dp5053
sg82
g5038
sg75
(lp5054
g68
(g69
g70
NtRp5055
(dp5056
g73
(dp5057
g81
I5
ssg82
g5051
sg75
(lp5058
S"<open file '/home/gaurav/classwork/WEB_PROGRAMMING/web2py/applications/ggg/sessions/127.0.0.1-1f9d9cde-c5ed-462e-bb67-5fd73c401849', mode 'rb+' at 0xaa9bb78>"
p5059
asbasbasbag68
(g84
g70
NtRp5060
(dp5061
g73
(dp5062
sg82
g3639
sg75
(lp5063
g68
(g89
g70
NtRp5064
(dp5065
g73
(dp5066
g93
g94
ssg82
g5060
sg75
(lp5067
S'session_filename'
p5068
asbag68
(g89
g70
NtRp5069
(dp5070
g73
(dp5071
g100
g101
ssg82
g5060
sg75
(lp5072
S':'
asbag68
(g89
g70
NtRp5073
(dp5074
g73
(dp5075
sg82
g5060
sg75
(lp5076
g68
(g69
g70
NtRp5077
(dp5078
g73
(dp5079
g81
I5
ssg82
g5073
sg75
(lp5080
S'/home/gaurav/classwork/WEB_PROGRAMMING/web2py/applications/ggg/sessions/127.0.0.1-1f9d9cde-c5ed-462e-bb67-5fd73c401849'
p5081
asbasbasbag68
(g84
g70
NtRp5082
(dp5083
g73
(dp5084
sg82
g3639
sg75
(lp5085
g68
(g89
g70
NtRp5086
(dp5087
g73
(dp5088
g93
g94
ssg82
g5082
sg75
(lp5089
S'session_id'
p5090
asbag68
(g89
g70
NtRp5091
(dp5092
g73
(dp5093
g100
g101
ssg82
g5082
sg75
(lp5094
S':'
asbag68
(g89
g70
NtRp5095
(dp5096
g73
(dp5097
sg82
g5082
sg75
(lp5098
g68
(g69
g70
NtRp5099
(dp5100
g73
(dp5101
g81
I5
ssg82
g5095
sg75
(lp5102
g486
asbasbasbag68
(g84
g70
NtRp5103
(dp5104
g73
(dp5105
sg82
g3639
sg75
(lp5106
g68
(g89
g70
NtRp5107
(dp5108
g73
(dp5109
g93
g94
ssg82
g5103
sg75
(lp5110
S'session_id_name'
p5111
asbag68
(g89
g70
NtRp5112
(dp5113
g73
(dp5114
g100
g101
ssg82
g5103
sg75
(lp5115
S':'
asbag68
(g89
g70
NtRp5116
(dp5117
g73
(dp5118
sg82
g5103
sg75
(lp5119
g68
(g69
g70
NtRp5120
(dp5121
g73
(dp5122
g81
I5
ssg82
g5116
sg75
(lp5123
g3696
asbasbasbag68
(g84
g70
NtRp5124
(dp5125
g73
(dp5126
sg82
g3639
sg75
(lp5127
g68
(g89
g70
NtRp5128
(dp5129
g73
(dp5130
g93
g94
ssg82
g5124
sg75
(lp5131
S'session_locked'
p5132
asbag68
(g89
g70
NtRp5133
(dp5134
g73
(dp5135
g100
g101
ssg82
g5124
sg75
(lp5136
S':'
asbag68
(g89
g70
NtRp5137
(dp5138
g73
(dp5139
sg82
g5124
sg75
(lp5140
g68
(g69
g70
NtRp5141
(dp5142
g73
(dp5143
g81
I5
ssg82
g5137
sg75
(lp5144
g1758
asbasbasbag68
(g84
g70
NtRp5145
(dp5146
g73
(dp5147
sg82
g3639
sg75
(lp5148
g68
(g89
g70
NtRp5149
(dp5150
g73
(dp5151
g93
g94
ssg82
g5145
sg75
(lp5152
S'session_new'
p5153
asbag68
(g89
g70
NtRp5154
(dp5155
g73
(dp5156
g100
g101
ssg82
g5145
sg75
(lp5157
S':'
asbag68
(g89
g70
NtRp5158
(dp5159
g73
(dp5160
sg82
g5145
sg75
(lp5161
g68
(g69
g70
NtRp5162
(dp5163
g73
(dp5164
g81
I5
ssg82
g5158
sg75
(lp5165
g111
asbasbasbag68
(g84
g70
NtRp5166
(dp5167
g73
(dp5168
sg82
g3639
sg75
(lp5169
g68
(g89
g70
NtRp5170
(dp5171
g73
(dp5172
g93
g94
ssg82
g5166
sg75
(lp5173
S'session_storage_type'
p5174
asbag68
(g89
g70
NtRp5175
(dp5176
g73
(dp5177
g100
g101
ssg82
g5166
sg75
(lp5178
S':'
asbag68
(g89
g70
NtRp5179
(dp5180
g73
(dp5181
sg82
g5166
sg75
(lp5182
g68
(g69
g70
NtRp5183
(dp5184
g73
(dp5185
g81
I5
ssg82
g5179
sg75
(lp5186
g3167
asbasbasbag68
(g84
g70
NtRp5187
(dp5188
g73
(dp5189
sg82
g3639
sg75
(lp5190
g68
(g89
g70
NtRp5191
(dp5192
g73
(dp5193
g93
g94
ssg82
g5187
sg75
(lp5194
S'status'
p5195
asbag68
(g89
g70
NtRp5196
(dp5197
g73
(dp5198
g100
g101
ssg82
g5187
sg75
(lp5199
S':'
asbag68
(g89
g70
NtRp5200
(dp5201
g73
(dp5202
sg82
g5187
sg75
(lp5203
g68
(g69
g70
NtRp5204
(dp5205
g73
(dp5206
g81
I5
ssg82
g5200
sg75
(lp5207
S'200'
p5208
asbasbasbag68
(g84
g70
NtRp5209
(dp5210
g73
(dp5211
sg82
g3639
sg75
(lp5212
g68
(g89
g70
NtRp5213
(dp5214
g73
(dp5215
g93
g94
ssg82
g5209
sg75
(lp5216
S'subtitle'
p5217
asbag68
(g89
g70
NtRp5218
(dp5219
g73
(dp5220
g100
g101
ssg82
g5209
sg75
(lp5221
S':'
asbag68
(g89
g70
NtRp5222
(dp5223
g73
(dp5224
sg82
g5209
sg75
(lp5225
g68
(g69
g70
NtRp5226
(dp5227
g73
(dp5228
g81
I5
ssg82
g5222
sg75
(lp5229
g4173
(S's\r\x00\x00\x00customize me!'
tRp5230
asbasbasbag68
(g84
g70
NtRp5231
(dp5232
g73
(dp5233
sg82
g3639
sg75
(lp5234
g68
(g89
g70
NtRp5235
(dp5236
g73
(dp5237
g93
g94
ssg82
g5231
sg75
(lp5238
S'title'
p5239
asbag68
(g89
g70
NtRp5240
(dp5241
g73
(dp5242
g100
g101
ssg82
g5231
sg75
(lp5243
S':'
asbag68
(g89
g70
NtRp5244
(dp5245
g73
(dp5246
sg82
g5231
sg75
(lp5247
g68
(g69
g70
NtRp5248
(dp5249
g73
(dp5250
g81
I5
ssg82
g5244
sg75
(lp5251
S'Ggg'
p5252
asbasbasbag68
(g84
g70
NtRp5253
(dp5254
g73
(dp5255
sg82
g3639
sg75
(lp5256
g68
(g89
g70
NtRp5257
(dp5258
g73
(dp5259
g93
g94
ssg82
g5253
sg75
(lp5260
S'view'
p5261
asbag68
(g89
g70
NtRp5262
(dp5263
g73
(dp5264
g100
g101
ssg82
g5253
sg75
(lp5265
S':'
asbag68
(g89
g70
NtRp5266
(dp5267
g73
(dp5268
sg82
g5253
sg75
(lp5269
g68
(g69
g70
NtRp5270
(dp5271
g73
(dp5272
g81
I5
ssg82
g5266
sg75
(lp5273
S'default/exam.html'
p5274
asbasbasbasbasbsS'locals'
p5275
(dp5276
g4
S"'/home/gaurav/classwork/WEB_PROGRAMMING/web2py/applications/ggg/controllers/default.py'"
p5277
sg6
S"'# -*- coding: utf-8 -*-\\n# this file is released ...locals()\\n\\n\\nresponse._vars=response._caller(exam)\\n'"
p5278
sssS'traceback'
p5279
S'Traceback (most recent call last):\n  File "/home/gaurav/classwork/WEB_PROGRAMMING/web2py/gluon/restricted.py", line 211, in restricted\n    ccode = compile2(code, layer)\n  File "/home/gaurav/classwork/WEB_PROGRAMMING/web2py/gluon/restricted.py", line 194, in compile2\n    return compile(code.rstrip().replace(\'\\r\\n\', \'\\n\') + \'\\n\', layer, \'exec\')\n  File "/home/gaurav/classwork/WEB_PROGRAMMING/web2py/applications/ggg/controllers/default.py", line 132\n    Field(\'com\',\'text\'))\n        ^\nSyntaxError: invalid syntax\n'
p5280
s.