(dp1
S'output'
p2
S"<type 'exceptions.IndentationError'> expected an indented block (default.py, line 174)"
p3
sS'layer'
p4
S'/home/saurabh/web2py/applications/ggg/controllers/default.py'
p5
sS'code'
p6
S'# -*- coding: utf-8 -*-\n# this file is released under public domain and you can use without limitations\n\n#########################################################################\n## This is a samples controller\n## - index is the default action of any application\n## - user is required for authentication and authorization\n## - download is for downloading files uploaded in the db (does streaming)\n## - call exposes all registered services (none by default)\n#########################################################################\n\n\ndef index():\n    """\n    example action using the internationalization operator T and flash\n    rendered by views/default/index.html or views/generic.html\n\n    if you need a simple wiki simple replace the two lines below with:\n    return auth.wiki()\n    """\n    response.flash = T("Welcome to web2py!")\n    if(auth.user):\n\t db(auth.user.email==db.student.email).update(coun=1)\n    return dict(message=T(\'Hello World\'))\n   \n\n\ndef user():\n    """\n    exposes:\n    http://..../[app]/default/user/login\n    http://..../[app]/default/user/logout\n    http://..../[app]/default/user/register\n    http://..../[app]/default/user/profile\n    http://..../[app]/default/user/retrieve_password\n    http://..../[app]/default/user/change_password\n    use @auth.requires_login()\n        @auth.requires_membership(\'group name\')\n        @auth.requires_permission(\'read\',\'table name\',record_id)\n    to decorate functions that need access control\n    """\n    return dict(form=auth())\n\n\ndef download():\n    """\n    allows downloading of uploaded files\n    http://..../[app]/default/download/[filename]\n    """\n    return response.download(request, db)\n\n\ndef call():\n    """\n    exposes services. for example:\n    http://..../[app]/default/call/jsonrpc\n    decorate with @services.jsonrpc the functions to expose\n    supports xml, json, xmlrpc, jsonrpc, amfrpc, rss, csv\n    """\n    return service()\n\n\n@auth.requires_signature()\ndef data():\n    """\n    http://..../[app]/default/data/tables\n    http://..../[app]/default/data/create/[table]\n    http://..../[app]/default/data/read/[table]/[id]\n    http://..../[app]/default/data/update/[table]/[id]\n    http://..../[app]/default/data/delete/[table]/[id]\n    http://..../[app]/default/data/select/[table]\n    http://..../[app]/default/data/search/[table]\n    but URLs must be signed, i.e. linked with\n      A(\'table\',_href=URL(\'data/tables\',user_signature=True))\n    or with the signed load operator\n      LOAD(\'default\',\'data.load\',args=\'tables\',ajax=True,user_signature=True)\n    """\n    return dict(form=crud())\n\n\n\n\n\n#------------------------------------------------------------------------------------------------------------------------------#\n\n\n@auth.requires_login()\ndef student_info():\n     a=auth.user.email\n     response.flash=a\n     form=SQLFORM(db.student)\n     form.vars.email=a\n     form.vars.marks=0\n     if (form.accepts(request,session)):\n\t  response.flash="Personal Information Successfully Added"\n     return dict(form=form)\n\n@auth.requires_login()\n@auth.requires_membership(\'IIIT_FACULTY_DEPARTMENT\')\ndef set_paper():\n     form=SQLFORM(db.questions)\n     if form.accepts(request,session):\n\t  response.flash="Question Inserted"\n     return dict(form=form)\n\n\n@auth.requires_login()\ndef exam():\n     p=db(auth.user.email==db.student.email).select(db.student.coun)\n     n=p[0][\'coun\']\n     que={}\n     que=db(db.questions.que_number==n).select(db.questions.que_number,\n\t       \t\t\t\t       db.questions.question,\n\t\t\t\t\t       db.questions.option_a,\n\t                                       db.questions.option_b,\n\t                                       db.questions.option_c,\n\t                                       db.questions.option_d,\n\t\t\t\t\t       )\n     if que:\n          print "hello"\n          return dict(que=que)\n     else:\n          redirect(URL(\'default\',\'index\'))\n\t  \n\n\n\n\n@auth.requires_login()\ndef next():\n     p=db(auth.user.email==db.student.email).select(db.student.coun)\n     n=p[0][\'coun\']\n     correct=db(db.questions.que_number==n).select(db.questions.ans)\n     given=request.post_vars[\'ans\']\n     correct=correct[0][\'ans\']\n     db(db.questions.que_number==n).update(stid=auth.user.email)\n     if(correct==given):\n\t  db((db.questions.stid==auth.user.email)&(db.questions.que_number==n)).update(obtained_marks=4)\n     else:\n\t  db((db.questions.stid==auth.user.email)&(db.questions.que_number==n)).update(obtained_marks=-1)\n     \n     db(auth.user.email==db.student.email).update(coun=n+1)\n     que=db(db.questions.que_number>0).select(db.questions.que_number)\n     redirect(URL(\'default\',\'exam\'))\n\n\ndef prev():\n     p=db(auth.user.email==db.student.email).select(db.student.coun)\n     n=p[0][\'coun\']\n     if(n-1>0):\n\t  db(auth.user.email==db.student.email).update(coun=n-1)\n     if(n-1>0):\n\t  redirect(URL(\'default\',\'exam\'))\n     else:\n\t  redirect(URL(\'default\',\'noq\'))\ndef courses():\n     return locals()\ndef noq():\n     return locals()\n\ndef list():\n     k=db(db.auth_user.id>0).select(db.auth_user.first_name,db.auth_user.last_name)\n     return dict(k=k)\n\n\ndef faculty():\n     f=db(db.faculty.name==db.auth_user.id).select(db.auth_user.first_name,db.faculty.name,db.faculty.courses,db.faculty.designation)\n     return dict(f=f) \n\n\ndef see():\n     \n\nresponse._vars=response._caller(exam)\n'
p7
sS'snapshot'
p8
(dp9
S'exception'
p10
(dp11
S'__getslice__'
p12
S"<method-wrapper '__getslice__' of exceptions.IndentationError object>"
p13
sS'text'
p14
S"'response._vars=response._caller(exam)\\n'"
p15
sS'__str__'
p16
S"<method-wrapper '__str__' of exceptions.IndentationError object>"
p17
sS'__reduce__'
p18
S'<built-in method __reduce__ of exceptions.IndentationError object>'
p19
sS'__dict__'
p20
S'{}'
p21
sS'__sizeof__'
p22
S'<built-in method __sizeof__ of exceptions.IndentationError object>'
p23
sS'__init__'
p24
S"<method-wrapper '__init__' of exceptions.IndentationError object>"
p25
sS'__setattr__'
p26
S"<method-wrapper '__setattr__' of exceptions.IndentationError object>"
p27
sS'__reduce_ex__'
p28
S'<built-in method __reduce_ex__ of exceptions.IndentationError object>'
p29
sS'__new__'
p30
S'<built-in method __new__ of type object>'
p31
sS'__format__'
p32
S'<built-in method __format__ of exceptions.IndentationError object>'
p33
sS'__class__'
p34
S"<type 'exceptions.IndentationError'>"
p35
sS'filename'
p36
S"'/home/saurabh/web2py/applications/ggg/controllers/default.py'"
p37
sS'lineno'
p38
S'174'
p39
sS'msg'
p40
S"'expected an indented block'"
p41
sS'__doc__'
p42
S"'Improper indentation.'"
p43
sS'__getitem__'
p44
S"<method-wrapper '__getitem__' of exceptions.IndentationError object>"
p45
sS'__setstate__'
p46
S'<built-in method __setstate__ of exceptions.IndentationError object>'
p47
sS'__getattribute__'
p48
S"<method-wrapper '__getattribute__' of exceptions.IndentationError object>"
p49
sS'print_file_and_line'
p50
S'None'
p51
sS'args'
p52
S"('expected an indented block', ('/home/saurabh/web2py/applications/ggg/controllers/default.py', 174, 8, 'response._vars=response._caller(exam)\\n'))"
p53
sS'__subclasshook__'
p54
S'<built-in method __subclasshook__ of type object>'
p55
sS'offset'
p56
S'8'
sS'__unicode__'
p57
S'<built-in method __unicode__ of exceptions.IndentationError object>'
p58
sS'__delattr__'
p59
S"<method-wrapper '__delattr__' of exceptions.IndentationError object>"
p60
sS'__repr__'
p61
S"<method-wrapper '__repr__' of exceptions.IndentationError object>"
p62
sS'__hash__'
p63
S"<method-wrapper '__hash__' of exceptions.IndentationError object>"
p64
ssS'evalue'
p65
S'expected an indented block (default.py, line 174)'
p66
sS'request'
p67
ccopy_reg
_reconstructor
p68
(cgluon.html
BEAUTIFY
p69
c__builtin__
object
p70
NtRp71
(dp72
S'attributes'
p73
(dp74
sS'components'
p75
(lp76
g68
(cgluon.html
TABLE
p77
g70
NtRp78
(dp79
g73
(dp80
S'level'
p81
I5
ssS'parent'
p82
Nsg75
(lp83
g68
(cgluon.html
TR
p84
g70
NtRp85
(dp86
g73
(dp87
sg82
g78
sg75
(lp88
g68
(cgluon.html
TD
p89
g70
NtRp90
(dp91
g73
(dp92
S'_style'
p93
S'font-weight:bold;vertical-align:top'
p94
ssg82
g85
sg75
(lp95
S'ajax'
p96
asbag68
(g89
g70
NtRp97
(dp98
g73
(dp99
S'_valign'
p100
S'top'
p101
ssg82
g85
sg75
(lp102
S':'
asbag68
(g89
g70
NtRp103
(dp104
g73
(dp105
sg82
g85
sg75
(lp106
g68
(g69
g70
NtRp107
(dp108
g73
(dp109
g81
I5
ssg82
g103
sg75
(lp110
S'False'
p111
asbasbasbag68
(g84
g70
NtRp112
(dp113
g73
(dp114
sg82
g78
sg75
(lp115
g68
(g89
g70
NtRp116
(dp117
g73
(dp118
g93
g94
ssg82
g112
sg75
(lp119
S'application'
p120
asbag68
(g89
g70
NtRp121
(dp122
g73
(dp123
g100
g101
ssg82
g112
sg75
(lp124
S':'
asbag68
(g89
g70
NtRp125
(dp126
g73
(dp127
sg82
g112
sg75
(lp128
g68
(g69
g70
NtRp129
(dp130
g73
(dp131
g81
I5
ssg82
g125
sg75
(lp132
S'ggg'
p133
asbasbasbag68
(g84
g70
NtRp134
(dp135
g73
(dp136
sg82
g78
sg75
(lp137
g68
(g89
g70
NtRp138
(dp139
g73
(dp140
g93
g94
ssg82
g134
sg75
(lp141
g52
asbag68
(g89
g70
NtRp142
(dp143
g73
(dp144
g100
g101
ssg82
g134
sg75
(lp145
S':'
asbag68
(g89
g70
NtRp146
(dp147
g73
(dp148
sg82
g134
sg75
(lp149
g68
(g69
g70
NtRp150
(dp151
g73
(dp152
g81
I5
ssg82
g146
sg75
(lp153
g68
(g77
g70
NtRp154
(dp155
g73
(dp156
g81
I4
ssg82
Nsg75
(lp157
sbasbasbasbag68
(g84
g70
NtRp158
(dp159
g73
(dp160
sg82
g78
sg75
(lp161
g68
(g89
g70
NtRp162
(dp163
g73
(dp164
g93
g94
ssg82
g158
sg75
(lp165
S'body'
p166
asbag68
(g89
g70
NtRp167
(dp168
g73
(dp169
g100
g101
ssg82
g158
sg75
(lp170
S':'
asbag68
(g89
g70
NtRp171
(dp172
g73
(dp173
sg82
g158
sg75
(lp174
g68
(g69
g70
NtRp175
(dp176
g73
(dp177
g81
I5
ssg82
g171
sg75
(lp178
S'<cStringIO.StringO object at 0x7fdcfc4b5ae8>'
p179
asbasbasbag68
(g84
g70
NtRp180
(dp181
g73
(dp182
sg82
g78
sg75
(lp183
g68
(g89
g70
NtRp184
(dp185
g73
(dp186
g93
g94
ssg82
g180
sg75
(lp187
S'cid'
p188
asbag68
(g89
g70
NtRp189
(dp190
g73
(dp191
g100
g101
ssg82
g180
sg75
(lp192
S':'
asbag68
(g89
g70
NtRp193
(dp194
g73
(dp195
sg82
g180
sg75
(lp196
g68
(g69
g70
NtRp197
(dp198
g73
(dp199
g81
I5
ssg82
g193
sg75
(lp200
S'None'
p201
asbasbasbag68
(g84
g70
NtRp202
(dp203
g73
(dp204
sg82
g78
sg75
(lp205
g68
(g89
g70
NtRp206
(dp207
g73
(dp208
g93
g94
ssg82
g202
sg75
(lp209
S'client'
p210
asbag68
(g89
g70
NtRp211
(dp212
g73
(dp213
g100
g101
ssg82
g202
sg75
(lp214
S':'
asbag68
(g89
g70
NtRp215
(dp216
g73
(dp217
sg82
g202
sg75
(lp218
g68
(g69
g70
NtRp219
(dp220
g73
(dp221
g81
I5
ssg82
g215
sg75
(lp222
S'127.0.0.1'
p223
asbasbasbag68
(g84
g70
NtRp224
(dp225
g73
(dp226
sg82
g78
sg75
(lp227
g68
(g89
g70
NtRp228
(dp229
g73
(dp230
g93
g94
ssg82
g224
sg75
(lp231
S'controller'
p232
asbag68
(g89
g70
NtRp233
(dp234
g73
(dp235
g100
g101
ssg82
g224
sg75
(lp236
S':'
asbag68
(g89
g70
NtRp237
(dp238
g73
(dp239
sg82
g224
sg75
(lp240
g68
(g69
g70
NtRp241
(dp242
g73
(dp243
g81
I5
ssg82
g237
sg75
(lp244
S'default'
p245
asbasbasbag68
(g84
g70
NtRp246
(dp247
g73
(dp248
sg82
g78
sg75
(lp249
g68
(g89
g70
NtRp250
(dp251
g73
(dp252
g93
g94
ssg82
g246
sg75
(lp253
S'cookies'
p254
asbag68
(g89
g70
NtRp255
(dp256
g73
(dp257
g100
g101
ssg82
g246
sg75
(lp258
S':'
asbag68
(g89
g70
NtRp259
(dp260
g73
(dp261
sg82
g246
sg75
(lp262
g68
(g69
g70
NtRp263
(dp264
g73
(dp265
g81
I5
ssg82
g259
sg75
(lp266
g68
(g77
g70
NtRp267
(dp268
g73
(dp269
g81
I4
ssg82
Nsg75
(lp270
g68
(g84
g70
NtRp271
(dp272
g73
(dp273
sg82
g267
sg75
(lp274
g68
(g89
g70
NtRp275
(dp276
g73
(dp277
g93
g94
ssg82
g271
sg75
(lp278
S'session_id_admin'
p279
asbag68
(g89
g70
NtRp280
(dp281
g73
(dp282
g100
g101
ssg82
g271
sg75
(lp283
S':'
asbag68
(g89
g70
NtRp284
(dp285
g73
(dp286
sg82
g271
sg75
(lp287
g68
(g69
g70
NtRp288
(dp289
g73
(dp290
g81
I4
ssg82
g284
sg75
(lp291
S'127.0.0.1-6c32ab8a-6fb4-4262-bdd0-7e49bdd282a5'
p292
ag68
(g77
g70
NtRp293
(dp294
g73
(dp295
g81
I3
ssg82
Nsg75
(lp296
g68
(g84
g70
NtRp297
(dp298
g73
(dp299
sg82
g293
sg75
(lp300
g68
(g89
g70
NtRp301
(dp302
g73
(dp303
g93
g94
ssg82
g297
sg75
(lp304
S'comment'
p305
asbag68
(g89
g70
NtRp306
(dp307
g73
(dp308
g100
g101
ssg82
g297
sg75
(lp309
S':'
asbag68
(g89
g70
NtRp310
(dp311
g73
(dp312
sg82
g297
sg75
(lp313
g68
(g69
g70
NtRp314
(dp315
g73
(dp316
g81
I3
ssg82
g310
sg75
(lp317
S''
asbasbasbag68
(g84
g70
NtRp318
(dp319
g73
(dp320
sg82
g293
sg75
(lp321
g68
(g89
g70
NtRp322
(dp323
g73
(dp324
g93
g94
ssg82
g318
sg75
(lp325
S'domain'
p326
asbag68
(g89
g70
NtRp327
(dp328
g73
(dp329
g100
g101
ssg82
g318
sg75
(lp330
S':'
asbag68
(g89
g70
NtRp331
(dp332
g73
(dp333
sg82
g318
sg75
(lp334
g68
(g69
g70
NtRp335
(dp336
g73
(dp337
g81
I3
ssg82
g331
sg75
(lp338
S''
asbasbasbag68
(g84
g70
NtRp339
(dp340
g73
(dp341
sg82
g293
sg75
(lp342
g68
(g89
g70
NtRp343
(dp344
g73
(dp345
g93
g94
ssg82
g339
sg75
(lp346
S'expires'
p347
asbag68
(g89
g70
NtRp348
(dp349
g73
(dp350
g100
g101
ssg82
g339
sg75
(lp351
S':'
asbag68
(g89
g70
NtRp352
(dp353
g73
(dp354
sg82
g339
sg75
(lp355
g68
(g69
g70
NtRp356
(dp357
g73
(dp358
g81
I3
ssg82
g352
sg75
(lp359
S''
asbasbasbag68
(g84
g70
NtRp360
(dp361
g73
(dp362
sg82
g293
sg75
(lp363
g68
(g89
g70
NtRp364
(dp365
g73
(dp366
g93
g94
ssg82
g360
sg75
(lp367
S'httponly'
p368
asbag68
(g89
g70
NtRp369
(dp370
g73
(dp371
g100
g101
ssg82
g360
sg75
(lp372
S':'
asbag68
(g89
g70
NtRp373
(dp374
g73
(dp375
sg82
g360
sg75
(lp376
g68
(g69
g70
NtRp377
(dp378
g73
(dp379
g81
I3
ssg82
g373
sg75
(lp380
S''
asbasbasbag68
(g84
g70
NtRp381
(dp382
g73
(dp383
sg82
g293
sg75
(lp384
g68
(g89
g70
NtRp385
(dp386
g73
(dp387
g93
g94
ssg82
g381
sg75
(lp388
S'max-age'
p389
asbag68
(g89
g70
NtRp390
(dp391
g73
(dp392
g100
g101
ssg82
g381
sg75
(lp393
S':'
asbag68
(g89
g70
NtRp394
(dp395
g73
(dp396
sg82
g381
sg75
(lp397
g68
(g69
g70
NtRp398
(dp399
g73
(dp400
g81
I3
ssg82
g394
sg75
(lp401
S''
asbasbasbag68
(g84
g70
NtRp402
(dp403
g73
(dp404
sg82
g293
sg75
(lp405
g68
(g89
g70
NtRp406
(dp407
g73
(dp408
g93
g94
ssg82
g402
sg75
(lp409
S'path'
p410
asbag68
(g89
g70
NtRp411
(dp412
g73
(dp413
g100
g101
ssg82
g402
sg75
(lp414
S':'
asbag68
(g89
g70
NtRp415
(dp416
g73
(dp417
sg82
g402
sg75
(lp418
g68
(g69
g70
NtRp419
(dp420
g73
(dp421
g81
I3
ssg82
g415
sg75
(lp422
S''
asbasbasbag68
(g84
g70
NtRp423
(dp424
g73
(dp425
sg82
g293
sg75
(lp426
g68
(g89
g70
NtRp427
(dp428
g73
(dp429
g93
g94
ssg82
g423
sg75
(lp430
S'secure'
p431
asbag68
(g89
g70
NtRp432
(dp433
g73
(dp434
g100
g101
ssg82
g423
sg75
(lp435
S':'
asbag68
(g89
g70
NtRp436
(dp437
g73
(dp438
sg82
g423
sg75
(lp439
g68
(g69
g70
NtRp440
(dp441
g73
(dp442
g81
I3
ssg82
g436
sg75
(lp443
S''
asbasbasbag68
(g84
g70
NtRp444
(dp445
g73
(dp446
sg82
g293
sg75
(lp447
g68
(g89
g70
NtRp448
(dp449
g73
(dp450
g93
g94
ssg82
g444
sg75
(lp451
S'version'
p452
asbag68
(g89
g70
NtRp453
(dp454
g73
(dp455
g100
g101
ssg82
g444
sg75
(lp456
S':'
asbag68
(g89
g70
NtRp457
(dp458
g73
(dp459
sg82
g444
sg75
(lp460
g68
(g69
g70
NtRp461
(dp462
g73
(dp463
g81
I3
ssg82
g457
sg75
(lp464
S''
asbasbasbasbasbasbasbag68
(g84
g70
NtRp465
(dp466
g73
(dp467
sg82
g267
sg75
(lp468
g68
(g89
g70
NtRp469
(dp470
g73
(dp471
g93
g94
ssg82
g465
sg75
(lp472
S'session_id_ggg'
p473
asbag68
(g89
g70
NtRp474
(dp475
g73
(dp476
g100
g101
ssg82
g465
sg75
(lp477
S':'
asbag68
(g89
g70
NtRp478
(dp479
g73
(dp480
sg82
g465
sg75
(lp481
g68
(g69
g70
NtRp482
(dp483
g73
(dp484
g81
I4
ssg82
g478
sg75
(lp485
S'127.0.0.1-929b9b0c-f53b-49f1-97f4-7c5cb217c3d8'
p486
ag68
(g77
g70
NtRp487
(dp488
g73
(dp489
g81
I3
ssg82
Nsg75
(lp490
g68
(g84
g70
NtRp491
(dp492
g73
(dp493
sg82
g487
sg75
(lp494
g68
(g89
g70
NtRp495
(dp496
g73
(dp497
g93
g94
ssg82
g491
sg75
(lp498
g305
asbag68
(g89
g70
NtRp499
(dp500
g73
(dp501
g100
g101
ssg82
g491
sg75
(lp502
S':'
asbag68
(g89
g70
NtRp503
(dp504
g73
(dp505
sg82
g491
sg75
(lp506
g68
(g69
g70
NtRp507
(dp508
g73
(dp509
g81
I3
ssg82
g503
sg75
(lp510
S''
asbasbasbag68
(g84
g70
NtRp511
(dp512
g73
(dp513
sg82
g487
sg75
(lp514
g68
(g89
g70
NtRp515
(dp516
g73
(dp517
g93
g94
ssg82
g511
sg75
(lp518
g326
asbag68
(g89
g70
NtRp519
(dp520
g73
(dp521
g100
g101
ssg82
g511
sg75
(lp522
S':'
asbag68
(g89
g70
NtRp523
(dp524
g73
(dp525
sg82
g511
sg75
(lp526
g68
(g69
g70
NtRp527
(dp528
g73
(dp529
g81
I3
ssg82
g523
sg75
(lp530
S''
asbasbasbag68
(g84
g70
NtRp531
(dp532
g73
(dp533
sg82
g487
sg75
(lp534
g68
(g89
g70
NtRp535
(dp536
g73
(dp537
g93
g94
ssg82
g531
sg75
(lp538
g347
asbag68
(g89
g70
NtRp539
(dp540
g73
(dp541
g100
g101
ssg82
g531
sg75
(lp542
S':'
asbag68
(g89
g70
NtRp543
(dp544
g73
(dp545
sg82
g531
sg75
(lp546
g68
(g69
g70
NtRp547
(dp548
g73
(dp549
g81
I3
ssg82
g543
sg75
(lp550
S''
asbasbasbag68
(g84
g70
NtRp551
(dp552
g73
(dp553
sg82
g487
sg75
(lp554
g68
(g89
g70
NtRp555
(dp556
g73
(dp557
g93
g94
ssg82
g551
sg75
(lp558
g368
asbag68
(g89
g70
NtRp559
(dp560
g73
(dp561
g100
g101
ssg82
g551
sg75
(lp562
S':'
asbag68
(g89
g70
NtRp563
(dp564
g73
(dp565
sg82
g551
sg75
(lp566
g68
(g69
g70
NtRp567
(dp568
g73
(dp569
g81
I3
ssg82
g563
sg75
(lp570
S''
asbasbasbag68
(g84
g70
NtRp571
(dp572
g73
(dp573
sg82
g487
sg75
(lp574
g68
(g89
g70
NtRp575
(dp576
g73
(dp577
g93
g94
ssg82
g571
sg75
(lp578
g389
asbag68
(g89
g70
NtRp579
(dp580
g73
(dp581
g100
g101
ssg82
g571
sg75
(lp582
S':'
asbag68
(g89
g70
NtRp583
(dp584
g73
(dp585
sg82
g571
sg75
(lp586
g68
(g69
g70
NtRp587
(dp588
g73
(dp589
g81
I3
ssg82
g583
sg75
(lp590
S''
asbasbasbag68
(g84
g70
NtRp591
(dp592
g73
(dp593
sg82
g487
sg75
(lp594
g68
(g89
g70
NtRp595
(dp596
g73
(dp597
g93
g94
ssg82
g591
sg75
(lp598
g410
asbag68
(g89
g70
NtRp599
(dp600
g73
(dp601
g100
g101
ssg82
g591
sg75
(lp602
S':'
asbag68
(g89
g70
NtRp603
(dp604
g73
(dp605
sg82
g591
sg75
(lp606
g68
(g69
g70
NtRp607
(dp608
g73
(dp609
g81
I3
ssg82
g603
sg75
(lp610
S''
asbasbasbag68
(g84
g70
NtRp611
(dp612
g73
(dp613
sg82
g487
sg75
(lp614
g68
(g89
g70
NtRp615
(dp616
g73
(dp617
g93
g94
ssg82
g611
sg75
(lp618
g431
asbag68
(g89
g70
NtRp619
(dp620
g73
(dp621
g100
g101
ssg82
g611
sg75
(lp622
S':'
asbag68
(g89
g70
NtRp623
(dp624
g73
(dp625
sg82
g611
sg75
(lp626
g68
(g69
g70
NtRp627
(dp628
g73
(dp629
g81
I3
ssg82
g623
sg75
(lp630
S''
asbasbasbag68
(g84
g70
NtRp631
(dp632
g73
(dp633
sg82
g487
sg75
(lp634
g68
(g89
g70
NtRp635
(dp636
g73
(dp637
g93
g94
ssg82
g631
sg75
(lp638
g452
asbag68
(g89
g70
NtRp639
(dp640
g73
(dp641
g100
g101
ssg82
g631
sg75
(lp642
S':'
asbag68
(g89
g70
NtRp643
(dp644
g73
(dp645
sg82
g631
sg75
(lp646
g68
(g69
g70
NtRp647
(dp648
g73
(dp649
g81
I3
ssg82
g643
sg75
(lp650
S''
asbasbasbasbasbasbasbag68
(g84
g70
NtRp651
(dp652
g73
(dp653
sg82
g267
sg75
(lp654
g68
(g89
g70
NtRp655
(dp656
g73
(dp657
g93
g94
ssg82
g651
sg75
(lp658
S'session_id_welcome'
p659
asbag68
(g89
g70
NtRp660
(dp661
g73
(dp662
g100
g101
ssg82
g651
sg75
(lp663
S':'
asbag68
(g89
g70
NtRp664
(dp665
g73
(dp666
sg82
g651
sg75
(lp667
g68
(g69
g70
NtRp668
(dp669
g73
(dp670
g81
I4
ssg82
g664
sg75
(lp671
S'127.0.0.1-3c9ecfaa-58d3-46f5-95bb-5fddc1d3dc9e'
p672
ag68
(g77
g70
NtRp673
(dp674
g73
(dp675
g81
I3
ssg82
Nsg75
(lp676
g68
(g84
g70
NtRp677
(dp678
g73
(dp679
sg82
g673
sg75
(lp680
g68
(g89
g70
NtRp681
(dp682
g73
(dp683
g93
g94
ssg82
g677
sg75
(lp684
g305
asbag68
(g89
g70
NtRp685
(dp686
g73
(dp687
g100
g101
ssg82
g677
sg75
(lp688
S':'
asbag68
(g89
g70
NtRp689
(dp690
g73
(dp691
sg82
g677
sg75
(lp692
g68
(g69
g70
NtRp693
(dp694
g73
(dp695
g81
I3
ssg82
g689
sg75
(lp696
S''
asbasbasbag68
(g84
g70
NtRp697
(dp698
g73
(dp699
sg82
g673
sg75
(lp700
g68
(g89
g70
NtRp701
(dp702
g73
(dp703
g93
g94
ssg82
g697
sg75
(lp704
g326
asbag68
(g89
g70
NtRp705
(dp706
g73
(dp707
g100
g101
ssg82
g697
sg75
(lp708
S':'
asbag68
(g89
g70
NtRp709
(dp710
g73
(dp711
sg82
g697
sg75
(lp712
g68
(g69
g70
NtRp713
(dp714
g73
(dp715
g81
I3
ssg82
g709
sg75
(lp716
S''
asbasbasbag68
(g84
g70
NtRp717
(dp718
g73
(dp719
sg82
g673
sg75
(lp720
g68
(g89
g70
NtRp721
(dp722
g73
(dp723
g93
g94
ssg82
g717
sg75
(lp724
g347
asbag68
(g89
g70
NtRp725
(dp726
g73
(dp727
g100
g101
ssg82
g717
sg75
(lp728
S':'
asbag68
(g89
g70
NtRp729
(dp730
g73
(dp731
sg82
g717
sg75
(lp732
g68
(g69
g70
NtRp733
(dp734
g73
(dp735
g81
I3
ssg82
g729
sg75
(lp736
S''
asbasbasbag68
(g84
g70
NtRp737
(dp738
g73
(dp739
sg82
g673
sg75
(lp740
g68
(g89
g70
NtRp741
(dp742
g73
(dp743
g93
g94
ssg82
g737
sg75
(lp744
g368
asbag68
(g89
g70
NtRp745
(dp746
g73
(dp747
g100
g101
ssg82
g737
sg75
(lp748
S':'
asbag68
(g89
g70
NtRp749
(dp750
g73
(dp751
sg82
g737
sg75
(lp752
g68
(g69
g70
NtRp753
(dp754
g73
(dp755
g81
I3
ssg82
g749
sg75
(lp756
S''
asbasbasbag68
(g84
g70
NtRp757
(dp758
g73
(dp759
sg82
g673
sg75
(lp760
g68
(g89
g70
NtRp761
(dp762
g73
(dp763
g93
g94
ssg82
g757
sg75
(lp764
g389
asbag68
(g89
g70
NtRp765
(dp766
g73
(dp767
g100
g101
ssg82
g757
sg75
(lp768
S':'
asbag68
(g89
g70
NtRp769
(dp770
g73
(dp771
sg82
g757
sg75
(lp772
g68
(g69
g70
NtRp773
(dp774
g73
(dp775
g81
I3
ssg82
g769
sg75
(lp776
S''
asbasbasbag68
(g84
g70
NtRp777
(dp778
g73
(dp779
sg82
g673
sg75
(lp780
g68
(g89
g70
NtRp781
(dp782
g73
(dp783
g93
g94
ssg82
g777
sg75
(lp784
g410
asbag68
(g89
g70
NtRp785
(dp786
g73
(dp787
g100
g101
ssg82
g777
sg75
(lp788
S':'
asbag68
(g89
g70
NtRp789
(dp790
g73
(dp791
sg82
g777
sg75
(lp792
g68
(g69
g70
NtRp793
(dp794
g73
(dp795
g81
I3
ssg82
g789
sg75
(lp796
S''
asbasbasbag68
(g84
g70
NtRp797
(dp798
g73
(dp799
sg82
g673
sg75
(lp800
g68
(g89
g70
NtRp801
(dp802
g73
(dp803
g93
g94
ssg82
g797
sg75
(lp804
g431
asbag68
(g89
g70
NtRp805
(dp806
g73
(dp807
g100
g101
ssg82
g797
sg75
(lp808
S':'
asbag68
(g89
g70
NtRp809
(dp810
g73
(dp811
sg82
g797
sg75
(lp812
g68
(g69
g70
NtRp813
(dp814
g73
(dp815
g81
I3
ssg82
g809
sg75
(lp816
S''
asbasbasbag68
(g84
g70
NtRp817
(dp818
g73
(dp819
sg82
g673
sg75
(lp820
g68
(g89
g70
NtRp821
(dp822
g73
(dp823
g93
g94
ssg82
g817
sg75
(lp824
g452
asbag68
(g89
g70
NtRp825
(dp826
g73
(dp827
g100
g101
ssg82
g817
sg75
(lp828
S':'
asbag68
(g89
g70
NtRp829
(dp830
g73
(dp831
sg82
g817
sg75
(lp832
g68
(g69
g70
NtRp833
(dp834
g73
(dp835
g81
I3
ssg82
g829
sg75
(lp836
S''
asbasbasbasbasbasbasbasbasbasbasbag68
(g84
g70
NtRp837
(dp838
g73
(dp839
sg82
g78
sg75
(lp840
g68
(g89
g70
NtRp841
(dp842
g73
(dp843
g93
g94
ssg82
g837
sg75
(lp844
S'env'
p845
asbag68
(g89
g70
NtRp846
(dp847
g73
(dp848
g100
g101
ssg82
g837
sg75
(lp849
S':'
asbag68
(g89
g70
NtRp850
(dp851
g73
(dp852
sg82
g837
sg75
(lp853
g68
(g69
g70
NtRp854
(dp855
g73
(dp856
g81
I5
ssg82
g850
sg75
(lp857
g68
(g77
g70
NtRp858
(dp859
g73
(dp860
g81
I4
ssg82
Nsg75
(lp861
g68
(g84
g70
NtRp862
(dp863
g73
(dp864
sg82
g858
sg75
(lp865
g68
(g89
g70
NtRp866
(dp867
g73
(dp868
g93
g94
ssg82
g862
sg75
(lp869
S'app_folders'
p870
asbag68
(g89
g70
NtRp871
(dp872
g73
(dp873
g100
g101
ssg82
g862
sg75
(lp874
S':'
asbag68
(g89
g70
NtRp875
(dp876
g73
(dp877
sg82
g862
sg75
(lp878
g68
(g69
g70
NtRp879
(dp880
g73
(dp881
g81
I4
ssg82
g875
sg75
(lp882
S"set(['/home/saurabh/web2py/applications/ggg/', '/home/saurabh/web2py/applications/admin/', '/home/saurabh/web2py/applications/welcome/'])"
p883
asbasbasbag68
(g84
g70
NtRp884
(dp885
g73
(dp886
sg82
g858
sg75
(lp887
g68
(g89
g70
NtRp888
(dp889
g73
(dp890
g93
g94
ssg82
g884
sg75
(lp891
S'applications_parent'
p892
asbag68
(g89
g70
NtRp893
(dp894
g73
(dp895
g100
g101
ssg82
g884
sg75
(lp896
S':'
asbag68
(g89
g70
NtRp897
(dp898
g73
(dp899
sg82
g884
sg75
(lp900
g68
(g69
g70
NtRp901
(dp902
g73
(dp903
g81
I4
ssg82
g897
sg75
(lp904
S'/home/saurabh/web2py'
p905
asbasbasbag68
(g84
g70
NtRp906
(dp907
g73
(dp908
sg82
g858
sg75
(lp909
g68
(g89
g70
NtRp910
(dp911
g73
(dp912
g93
g94
ssg82
g906
sg75
(lp913
S'cmd_args'
p914
asbag68
(g89
g70
NtRp915
(dp916
g73
(dp917
g100
g101
ssg82
g906
sg75
(lp918
S':'
asbag68
(g89
g70
NtRp919
(dp920
g73
(dp921
sg82
g906
sg75
(lp922
g68
(g69
g70
NtRp923
(dp924
g73
(dp925
g81
I4
ssg82
g919
sg75
(lp926
g68
(g77
g70
NtRp927
(dp928
g73
(dp929
g81
I3
ssg82
Nsg75
(lp930
sbasbasbasbag68
(g84
g70
NtRp931
(dp932
g73
(dp933
sg82
g858
sg75
(lp934
g68
(g89
g70
NtRp935
(dp936
g73
(dp937
g93
g94
ssg82
g931
sg75
(lp938
S'cmd_options'
p939
asbag68
(g89
g70
NtRp940
(dp941
g73
(dp942
g100
g101
ssg82
g931
sg75
(lp943
S':'
asbag68
(g89
g70
NtRp944
(dp945
g73
(dp946
sg82
g931
sg75
(lp947
g68
(g69
g70
NtRp948
(dp949
g73
(dp950
g81
I4
ssg82
g944
sg75
(lp951
S"<Values at 0x17248c0: {'verbose': False, 'ip': '127.0.0.1', 'with_scheduler': False, 'ips': [], 'shutdown_timeout': 5, 'taskbar': False, 'port': 8000, 'maxthreads': None, 'softcron': False, 'server_name': 'saurabh-Inspiron-N4050', 'bpython': False, 'nogui': False, 'pid_filename': 'httpserver.pid', 'extcron': False, 'runcron': False, 'run_system_tests': False, 'test': None, 'folder': '/home/saurabh/web2py', 'config': '', 'minthreads': None, 'winservice': '', 'shell': None, 'run': '', 'log_filename': 'httpserver.log', 'debuglevel': 30, 'args': [''], 'socket_timeout': 5, 'ssl_ca_certificate': None, 'scheduler': None, 'profiler_filename': None, 'ssl_private_key': '', 'scheduler_groups': None, 'password': '<ask>', 'request_queue_size': 5, 'ssl_certificate': '', 'cronjob': False, 'numthreads': None, 'quiet': False, 'interfaces': None, 'import_models': False, 'timeout': 10, 'plain': False, 'nobanner': False}>"
p952
asbasbasbag68
(g84
g70
NtRp953
(dp954
g73
(dp955
sg82
g858
sg75
(lp956
g68
(g89
g70
NtRp957
(dp958
g73
(dp959
g93
g94
ssg82
g953
sg75
(lp960
S'db_sessions'
p961
asbag68
(g89
g70
NtRp962
(dp963
g73
(dp964
g100
g101
ssg82
g953
sg75
(lp965
S':'
asbag68
(g89
g70
NtRp966
(dp967
g73
(dp968
sg82
g953
sg75
(lp969
g68
(g69
g70
NtRp970
(dp971
g73
(dp972
g81
I4
ssg82
g966
sg75
(lp973
S'set([])'
p974
asbasbasbag68
(g84
g70
NtRp975
(dp976
g73
(dp977
sg82
g858
sg75
(lp978
g68
(g89
g70
NtRp979
(dp980
g73
(dp981
g93
g94
ssg82
g975
sg75
(lp982
S'debugging'
p983
asbag68
(g89
g70
NtRp984
(dp985
g73
(dp986
g100
g101
ssg82
g975
sg75
(lp987
S':'
asbag68
(g89
g70
NtRp988
(dp989
g73
(dp990
sg82
g975
sg75
(lp991
g68
(g69
g70
NtRp992
(dp993
g73
(dp994
g81
I4
ssg82
g988
sg75
(lp995
g111
asbasbasbag68
(g84
g70
NtRp996
(dp997
g73
(dp998
sg82
g858
sg75
(lp999
g68
(g89
g70
NtRp1000
(dp1001
g73
(dp1002
g93
g94
ssg82
g996
sg75
(lp1003
S'gluon_parent'
p1004
asbag68
(g89
g70
NtRp1005
(dp1006
g73
(dp1007
g100
g101
ssg82
g996
sg75
(lp1008
S':'
asbag68
(g89
g70
NtRp1009
(dp1010
g73
(dp1011
sg82
g996
sg75
(lp1012
g68
(g69
g70
NtRp1013
(dp1014
g73
(dp1015
g81
I4
ssg82
g1009
sg75
(lp1016
S'/home/saurabh/web2py'
p1017
asbasbasbag68
(g84
g70
NtRp1018
(dp1019
g73
(dp1020
sg82
g858
sg75
(lp1021
g68
(g89
g70
NtRp1022
(dp1023
g73
(dp1024
g93
g94
ssg82
g1018
sg75
(lp1025
S'http_accept'
p1026
asbag68
(g89
g70
NtRp1027
(dp1028
g73
(dp1029
g100
g101
ssg82
g1018
sg75
(lp1030
S':'
asbag68
(g89
g70
NtRp1031
(dp1032
g73
(dp1033
sg82
g1018
sg75
(lp1034
g68
(g69
g70
NtRp1035
(dp1036
g73
(dp1037
g81
I4
ssg82
g1031
sg75
(lp1038
S'text/html,application/xhtml+xml,application/xml;q=0.9,*/*;q=0.8'
p1039
asbasbasbag68
(g84
g70
NtRp1040
(dp1041
g73
(dp1042
sg82
g858
sg75
(lp1043
g68
(g89
g70
NtRp1044
(dp1045
g73
(dp1046
g93
g94
ssg82
g1040
sg75
(lp1047
S'http_accept_encoding'
p1048
asbag68
(g89
g70
NtRp1049
(dp1050
g73
(dp1051
g100
g101
ssg82
g1040
sg75
(lp1052
S':'
asbag68
(g89
g70
NtRp1053
(dp1054
g73
(dp1055
sg82
g1040
sg75
(lp1056
g68
(g69
g70
NtRp1057
(dp1058
g73
(dp1059
g81
I4
ssg82
g1053
sg75
(lp1060
S'gzip, deflate'
p1061
asbasbasbag68
(g84
g70
NtRp1062
(dp1063
g73
(dp1064
sg82
g858
sg75
(lp1065
g68
(g89
g70
NtRp1066
(dp1067
g73
(dp1068
g93
g94
ssg82
g1062
sg75
(lp1069
S'http_accept_language'
p1070
asbag68
(g89
g70
NtRp1071
(dp1072
g73
(dp1073
g100
g101
ssg82
g1062
sg75
(lp1074
S':'
asbag68
(g89
g70
NtRp1075
(dp1076
g73
(dp1077
sg82
g1062
sg75
(lp1078
g68
(g69
g70
NtRp1079
(dp1080
g73
(dp1081
g81
I4
ssg82
g1075
sg75
(lp1082
S'en-US,en;q=0.5'
p1083
asbasbasbag68
(g84
g70
NtRp1084
(dp1085
g73
(dp1086
sg82
g858
sg75
(lp1087
g68
(g89
g70
NtRp1088
(dp1089
g73
(dp1090
g93
g94
ssg82
g1084
sg75
(lp1091
S'http_connection'
p1092
asbag68
(g89
g70
NtRp1093
(dp1094
g73
(dp1095
g100
g101
ssg82
g1084
sg75
(lp1096
S':'
asbag68
(g89
g70
NtRp1097
(dp1098
g73
(dp1099
sg82
g1084
sg75
(lp1100
g68
(g69
g70
NtRp1101
(dp1102
g73
(dp1103
g81
I4
ssg82
g1097
sg75
(lp1104
S'keep-alive'
p1105
asbasbasbag68
(g84
g70
NtRp1106
(dp1107
g73
(dp1108
sg82
g858
sg75
(lp1109
g68
(g89
g70
NtRp1110
(dp1111
g73
(dp1112
g93
g94
ssg82
g1106
sg75
(lp1113
S'http_cookie'
p1114
asbag68
(g89
g70
NtRp1115
(dp1116
g73
(dp1117
g100
g101
ssg82
g1106
sg75
(lp1118
S':'
asbag68
(g89
g70
NtRp1119
(dp1120
g73
(dp1121
sg82
g1106
sg75
(lp1122
g68
(g69
g70
NtRp1123
(dp1124
g73
(dp1125
g81
I4
ssg82
g1119
sg75
(lp1126
S'session_id_welcome=127.0.0.1-3c9ecfaa-58d3-46f5-95bb-5fddc1d3dc9e; session_id_admin=127.0.0.1-6c32ab8a-6fb4-4262-bdd0-7e49bdd282a5; session_id_ggg=127.0.0.1-929b9b0c-f53b-49f1-97f4-7c5cb217c3d8'
p1127
asbasbasbag68
(g84
g70
NtRp1128
(dp1129
g73
(dp1130
sg82
g858
sg75
(lp1131
g68
(g89
g70
NtRp1132
(dp1133
g73
(dp1134
g93
g94
ssg82
g1128
sg75
(lp1135
S'http_host'
p1136
asbag68
(g89
g70
NtRp1137
(dp1138
g73
(dp1139
g100
g101
ssg82
g1128
sg75
(lp1140
S':'
asbag68
(g89
g70
NtRp1141
(dp1142
g73
(dp1143
sg82
g1128
sg75
(lp1144
g68
(g69
g70
NtRp1145
(dp1146
g73
(dp1147
g81
I4
ssg82
g1141
sg75
(lp1148
S'127.0.0.1:8000'
p1149
asbasbasbag68
(g84
g70
NtRp1150
(dp1151
g73
(dp1152
sg82
g858
sg75
(lp1153
g68
(g89
g70
NtRp1154
(dp1155
g73
(dp1156
g93
g94
ssg82
g1150
sg75
(lp1157
S'http_referer'
p1158
asbag68
(g89
g70
NtRp1159
(dp1160
g73
(dp1161
g100
g101
ssg82
g1150
sg75
(lp1162
S':'
asbag68
(g89
g70
NtRp1163
(dp1164
g73
(dp1165
sg82
g1150
sg75
(lp1166
g68
(g69
g70
NtRp1167
(dp1168
g73
(dp1169
g81
I4
ssg82
g1163
sg75
(lp1170
S'http://127.0.0.1:8000/ggg/default/index'
p1171
asbasbasbag68
(g84
g70
NtRp1172
(dp1173
g73
(dp1174
sg82
g858
sg75
(lp1175
g68
(g89
g70
NtRp1176
(dp1177
g73
(dp1178
g93
g94
ssg82
g1172
sg75
(lp1179
S'http_user_agent'
p1180
asbag68
(g89
g70
NtRp1181
(dp1182
g73
(dp1183
g100
g101
ssg82
g1172
sg75
(lp1184
S':'
asbag68
(g89
g70
NtRp1185
(dp1186
g73
(dp1187
sg82
g1172
sg75
(lp1188
g68
(g69
g70
NtRp1189
(dp1190
g73
(dp1191
g81
I4
ssg82
g1185
sg75
(lp1192
S'Mozilla/5.0 (X11; Ubuntu; Linux x86_64; rv:19.0) Gecko/20100101 Firefox/19.0'
p1193
asbasbasbag68
(g84
g70
NtRp1194
(dp1195
g73
(dp1196
sg82
g858
sg75
(lp1197
g68
(g89
g70
NtRp1198
(dp1199
g73
(dp1200
g93
g94
ssg82
g1194
sg75
(lp1201
S'is_jython'
p1202
asbag68
(g89
g70
NtRp1203
(dp1204
g73
(dp1205
g100
g101
ssg82
g1194
sg75
(lp1206
S':'
asbag68
(g89
g70
NtRp1207
(dp1208
g73
(dp1209
sg82
g1194
sg75
(lp1210
g68
(g69
g70
NtRp1211
(dp1212
g73
(dp1213
g81
I4
ssg82
g1207
sg75
(lp1214
g111
asbasbasbag68
(g84
g70
NtRp1215
(dp1216
g73
(dp1217
sg82
g858
sg75
(lp1218
g68
(g89
g70
NtRp1219
(dp1220
g73
(dp1221
g93
g94
ssg82
g1215
sg75
(lp1222
S'is_pypy'
p1223
asbag68
(g89
g70
NtRp1224
(dp1225
g73
(dp1226
g100
g101
ssg82
g1215
sg75
(lp1227
S':'
asbag68
(g89
g70
NtRp1228
(dp1229
g73
(dp1230
sg82
g1215
sg75
(lp1231
g68
(g69
g70
NtRp1232
(dp1233
g73
(dp1234
g81
I4
ssg82
g1228
sg75
(lp1235
g111
asbasbasbag68
(g84
g70
NtRp1236
(dp1237
g73
(dp1238
sg82
g858
sg75
(lp1239
g68
(g89
g70
NtRp1240
(dp1241
g73
(dp1242
g93
g94
ssg82
g1236
sg75
(lp1243
S'local_hosts'
p1244
asbag68
(g89
g70
NtRp1245
(dp1246
g73
(dp1247
g100
g101
ssg82
g1236
sg75
(lp1248
S':'
asbag68
(g89
g70
NtRp1249
(dp1250
g73
(dp1251
sg82
g1236
sg75
(lp1252
g68
(g69
g70
NtRp1253
(dp1254
g73
(dp1255
g81
I4
ssg82
g1249
sg75
(lp1256
g68
(g77
g70
NtRp1257
(dp1258
g73
(dp1259
g81
I3
ssg82
Nsg75
(lp1260
g68
(g84
g70
NtRp1261
(dp1262
g73
(dp1263
sg82
g1257
sg75
(lp1264
g68
(g89
g70
NtRp1265
(dp1266
g73
(dp1267
sg82
g1261
sg75
(lp1268
g68
(g69
g70
NtRp1269
(dp1270
g73
(dp1271
g81
I3
ssg82
g1265
sg75
(lp1272
S'127.0.1.1'
p1273
asbasbasbag68
(g84
g70
NtRp1274
(dp1275
g73
(dp1276
sg82
g1257
sg75
(lp1277
g68
(g89
g70
NtRp1278
(dp1279
g73
(dp1280
sg82
g1274
sg75
(lp1281
g68
(g69
g70
NtRp1282
(dp1283
g73
(dp1284
g81
I3
ssg82
g1278
sg75
(lp1285
S'::1'
p1286
asbasbasbag68
(g84
g70
NtRp1287
(dp1288
g73
(dp1289
sg82
g1257
sg75
(lp1290
g68
(g89
g70
NtRp1291
(dp1292
g73
(dp1293
sg82
g1287
sg75
(lp1294
g68
(g69
g70
NtRp1295
(dp1296
g73
(dp1297
g81
I3
ssg82
g1291
sg75
(lp1298
S'saurabh-Inspiron-N4050'
p1299
asbasbasbag68
(g84
g70
NtRp1300
(dp1301
g73
(dp1302
sg82
g1257
sg75
(lp1303
g68
(g89
g70
NtRp1304
(dp1305
g73
(dp1306
sg82
g1300
sg75
(lp1307
g68
(g69
g70
NtRp1308
(dp1309
g73
(dp1310
g81
I3
ssg82
g1304
sg75
(lp1311
S'::ffff:127.0.0.1'
p1312
asbasbasbag68
(g84
g70
NtRp1313
(dp1314
g73
(dp1315
sg82
g1257
sg75
(lp1316
g68
(g89
g70
NtRp1317
(dp1318
g73
(dp1319
sg82
g1313
sg75
(lp1320
g68
(g69
g70
NtRp1321
(dp1322
g73
(dp1323
g81
I3
ssg82
g1317
sg75
(lp1324
S'127.0.0.1'
p1325
asbasbasbasbasbasbasbag68
(g84
g70
NtRp1326
(dp1327
g73
(dp1328
sg82
g858
sg75
(lp1329
g68
(g89
g70
NtRp1330
(dp1331
g73
(dp1332
g93
g94
ssg82
g1326
sg75
(lp1333
S'path_info'
p1334
asbag68
(g89
g70
NtRp1335
(dp1336
g73
(dp1337
g100
g101
ssg82
g1326
sg75
(lp1338
S':'
asbag68
(g89
g70
NtRp1339
(dp1340
g73
(dp1341
sg82
g1326
sg75
(lp1342
g68
(g69
g70
NtRp1343
(dp1344
g73
(dp1345
g81
I4
ssg82
g1339
sg75
(lp1346
S'/ggg/default/exam.html'
p1347
asbasbasbag68
(g84
g70
NtRp1348
(dp1349
g73
(dp1350
sg82
g858
sg75
(lp1351
g68
(g89
g70
NtRp1352
(dp1353
g73
(dp1354
g93
g94
ssg82
g1348
sg75
(lp1355
S'query_string'
p1356
asbag68
(g89
g70
NtRp1357
(dp1358
g73
(dp1359
g100
g101
ssg82
g1348
sg75
(lp1360
S':'
asbag68
(g89
g70
NtRp1361
(dp1362
g73
(dp1363
sg82
g1348
sg75
(lp1364
g68
(g69
g70
NtRp1365
(dp1366
g73
(dp1367
g81
I4
ssg82
g1361
sg75
(lp1368
S''
asbasbasbag68
(g84
g70
NtRp1369
(dp1370
g73
(dp1371
sg82
g858
sg75
(lp1372
g68
(g89
g70
NtRp1373
(dp1374
g73
(dp1375
g93
g94
ssg82
g1369
sg75
(lp1376
S'remote_addr'
p1377
asbag68
(g89
g70
NtRp1378
(dp1379
g73
(dp1380
g100
g101
ssg82
g1369
sg75
(lp1381
S':'
asbag68
(g89
g70
NtRp1382
(dp1383
g73
(dp1384
sg82
g1369
sg75
(lp1385
g68
(g69
g70
NtRp1386
(dp1387
g73
(dp1388
g81
I4
ssg82
g1382
sg75
(lp1389
g223
asbasbasbag68
(g84
g70
NtRp1390
(dp1391
g73
(dp1392
sg82
g858
sg75
(lp1393
g68
(g89
g70
NtRp1394
(dp1395
g73
(dp1396
g93
g94
ssg82
g1390
sg75
(lp1397
S'remote_port'
p1398
asbag68
(g89
g70
NtRp1399
(dp1400
g73
(dp1401
g100
g101
ssg82
g1390
sg75
(lp1402
S':'
asbag68
(g89
g70
NtRp1403
(dp1404
g73
(dp1405
sg82
g1390
sg75
(lp1406
g68
(g69
g70
NtRp1407
(dp1408
g73
(dp1409
g81
I4
ssg82
g1403
sg75
(lp1410
S'46120'
p1411
asbasbasbag68
(g84
g70
NtRp1412
(dp1413
g73
(dp1414
sg82
g858
sg75
(lp1415
g68
(g89
g70
NtRp1416
(dp1417
g73
(dp1418
g93
g94
ssg82
g1412
sg75
(lp1419
S'request_method'
p1420
asbag68
(g89
g70
NtRp1421
(dp1422
g73
(dp1423
g100
g101
ssg82
g1412
sg75
(lp1424
S':'
asbag68
(g89
g70
NtRp1425
(dp1426
g73
(dp1427
sg82
g1412
sg75
(lp1428
g68
(g69
g70
NtRp1429
(dp1430
g73
(dp1431
g81
I4
ssg82
g1425
sg75
(lp1432
S'GET'
p1433
asbasbasbag68
(g84
g70
NtRp1434
(dp1435
g73
(dp1436
sg82
g858
sg75
(lp1437
g68
(g89
g70
NtRp1438
(dp1439
g73
(dp1440
g93
g94
ssg82
g1434
sg75
(lp1441
S'request_uri'
p1442
asbag68
(g89
g70
NtRp1443
(dp1444
g73
(dp1445
g100
g101
ssg82
g1434
sg75
(lp1446
S':'
asbag68
(g89
g70
NtRp1447
(dp1448
g73
(dp1449
sg82
g1434
sg75
(lp1450
g68
(g69
g70
NtRp1451
(dp1452
g73
(dp1453
g81
I4
ssg82
g1447
sg75
(lp1454
g1347
asbasbasbag68
(g84
g70
NtRp1455
(dp1456
g73
(dp1457
sg82
g858
sg75
(lp1458
g68
(g89
g70
NtRp1459
(dp1460
g73
(dp1461
g93
g94
ssg82
g1455
sg75
(lp1462
S'script_name'
p1463
asbag68
(g89
g70
NtRp1464
(dp1465
g73
(dp1466
g100
g101
ssg82
g1455
sg75
(lp1467
S':'
asbag68
(g89
g70
NtRp1468
(dp1469
g73
(dp1470
sg82
g1455
sg75
(lp1471
g68
(g69
g70
NtRp1472
(dp1473
g73
(dp1474
g81
I4
ssg82
g1468
sg75
(lp1475
S''
asbasbasbag68
(g84
g70
NtRp1476
(dp1477
g73
(dp1478
sg82
g858
sg75
(lp1479
g68
(g89
g70
NtRp1480
(dp1481
g73
(dp1482
g93
g94
ssg82
g1476
sg75
(lp1483
S'server_name'
p1484
asbag68
(g89
g70
NtRp1485
(dp1486
g73
(dp1487
g100
g101
ssg82
g1476
sg75
(lp1488
S':'
asbag68
(g89
g70
NtRp1489
(dp1490
g73
(dp1491
sg82
g1476
sg75
(lp1492
g68
(g69
g70
NtRp1493
(dp1494
g73
(dp1495
g81
I4
ssg82
g1489
sg75
(lp1496
S'saurabh-Inspiron-N4050'
p1497
asbasbasbag68
(g84
g70
NtRp1498
(dp1499
g73
(dp1500
sg82
g858
sg75
(lp1501
g68
(g89
g70
NtRp1502
(dp1503
g73
(dp1504
g93
g94
ssg82
g1498
sg75
(lp1505
S'server_port'
p1506
asbag68
(g89
g70
NtRp1507
(dp1508
g73
(dp1509
g100
g101
ssg82
g1498
sg75
(lp1510
S':'
asbag68
(g89
g70
NtRp1511
(dp1512
g73
(dp1513
sg82
g1498
sg75
(lp1514
g68
(g69
g70
NtRp1515
(dp1516
g73
(dp1517
g81
I4
ssg82
g1511
sg75
(lp1518
S'8000'
p1519
asbasbasbag68
(g84
g70
NtRp1520
(dp1521
g73
(dp1522
sg82
g858
sg75
(lp1523
g68
(g89
g70
NtRp1524
(dp1525
g73
(dp1526
g93
g94
ssg82
g1520
sg75
(lp1527
S'server_protocol'
p1528
asbag68
(g89
g70
NtRp1529
(dp1530
g73
(dp1531
g100
g101
ssg82
g1520
sg75
(lp1532
S':'
asbag68
(g89
g70
NtRp1533
(dp1534
g73
(dp1535
sg82
g1520
sg75
(lp1536
g68
(g69
g70
NtRp1537
(dp1538
g73
(dp1539
g81
I4
ssg82
g1533
sg75
(lp1540
S'HTTP/1.1'
p1541
asbasbasbag68
(g84
g70
NtRp1542
(dp1543
g73
(dp1544
sg82
g858
sg75
(lp1545
g68
(g89
g70
NtRp1546
(dp1547
g73
(dp1548
g93
g94
ssg82
g1542
sg75
(lp1549
S'server_software'
p1550
asbag68
(g89
g70
NtRp1551
(dp1552
g73
(dp1553
g100
g101
ssg82
g1542
sg75
(lp1554
S':'
asbag68
(g89
g70
NtRp1555
(dp1556
g73
(dp1557
sg82
g1542
sg75
(lp1558
g68
(g69
g70
NtRp1559
(dp1560
g73
(dp1561
g81
I4
ssg82
g1555
sg75
(lp1562
S'Rocket 1.2.6'
p1563
asbasbasbag68
(g84
g70
NtRp1564
(dp1565
g73
(dp1566
sg82
g858
sg75
(lp1567
g68
(g89
g70
NtRp1568
(dp1569
g73
(dp1570
g93
g94
ssg82
g1564
sg75
(lp1571
S'web2py_path'
p1572
asbag68
(g89
g70
NtRp1573
(dp1574
g73
(dp1575
g100
g101
ssg82
g1564
sg75
(lp1576
S':'
asbag68
(g89
g70
NtRp1577
(dp1578
g73
(dp1579
sg82
g1564
sg75
(lp1580
g68
(g69
g70
NtRp1581
(dp1582
g73
(dp1583
g81
I4
ssg82
g1577
sg75
(lp1584
g905
asbasbasbag68
(g84
g70
NtRp1585
(dp1586
g73
(dp1587
sg82
g858
sg75
(lp1588
g68
(g89
g70
NtRp1589
(dp1590
g73
(dp1591
g93
g94
ssg82
g1585
sg75
(lp1592
S'web2py_version'
p1593
asbag68
(g89
g70
NtRp1594
(dp1595
g73
(dp1596
g100
g101
ssg82
g1585
sg75
(lp1597
S':'
asbag68
(g89
g70
NtRp1598
(dp1599
g73
(dp1600
sg82
g1585
sg75
(lp1601
g68
(g69
g70
NtRp1602
(dp1603
g73
(dp1604
g81
I4
ssg82
g1598
sg75
(lp1605
g68
(g77
g70
NtRp1606
(dp1607
g73
(dp1608
g81
I3
ssg82
Nsg75
(lp1609
g68
(g84
g70
NtRp1610
(dp1611
g73
(dp1612
sg82
g1606
sg75
(lp1613
g68
(g89
g70
NtRp1614
(dp1615
g73
(dp1616
sg82
g1610
sg75
(lp1617
g68
(g69
g70
NtRp1618
(dp1619
g73
(dp1620
g81
I3
ssg82
g1614
sg75
(lp1621
S'2'
asbasbasbag68
(g84
g70
NtRp1622
(dp1623
g73
(dp1624
sg82
g1606
sg75
(lp1625
g68
(g89
g70
NtRp1626
(dp1627
g73
(dp1628
sg82
g1622
sg75
(lp1629
g68
(g69
g70
NtRp1630
(dp1631
g73
(dp1632
g81
I3
ssg82
g1626
sg75
(lp1633
S'3'
asbasbasbag68
(g84
g70
NtRp1634
(dp1635
g73
(dp1636
sg82
g1606
sg75
(lp1637
g68
(g89
g70
NtRp1638
(dp1639
g73
(dp1640
sg82
g1634
sg75
(lp1641
g68
(g69
g70
NtRp1642
(dp1643
g73
(dp1644
g81
I3
ssg82
g1638
sg75
(lp1645
S'2'
asbasbasbag68
(g84
g70
NtRp1646
(dp1647
g73
(dp1648
sg82
g1606
sg75
(lp1649
g68
(g89
g70
NtRp1650
(dp1651
g73
(dp1652
sg82
g1646
sg75
(lp1653
g68
(g69
g70
NtRp1654
(dp1655
g73
(dp1656
g81
I3
ssg82
g1650
sg75
(lp1657
S'datetime.datetime(2012, 12, 17, 15, 3, 30)'
p1658
asbasbasbag68
(g84
g70
NtRp1659
(dp1660
g73
(dp1661
sg82
g1606
sg75
(lp1662
g68
(g89
g70
NtRp1663
(dp1664
g73
(dp1665
sg82
g1659
sg75
(lp1666
g68
(g69
g70
NtRp1667
(dp1668
g73
(dp1669
g81
I3
ssg82
g1663
sg75
(lp1670
S'stable'
p1671
asbasbasbasbasbasbasbag68
(g84
g70
NtRp1672
(dp1673
g73
(dp1674
sg82
g858
sg75
(lp1675
g68
(g89
g70
NtRp1676
(dp1677
g73
(dp1678
g93
g94
ssg82
g1672
sg75
(lp1679
S'wsgi_errors'
p1680
asbag68
(g89
g70
NtRp1681
(dp1682
g73
(dp1683
g100
g101
ssg82
g1672
sg75
(lp1684
S':'
asbag68
(g89
g70
NtRp1685
(dp1686
g73
(dp1687
sg82
g1672
sg75
(lp1688
g68
(g69
g70
NtRp1689
(dp1690
g73
(dp1691
g81
I4
ssg82
g1685
sg75
(lp1692
S"<open file '<stderr>', mode 'w' at 0x7fdd50f2a270>"
p1693
asbasbasbag68
(g84
g70
NtRp1694
(dp1695
g73
(dp1696
sg82
g858
sg75
(lp1697
g68
(g89
g70
NtRp1698
(dp1699
g73
(dp1700
g93
g94
ssg82
g1694
sg75
(lp1701
S'wsgi_file_wrapper'
p1702
asbag68
(g89
g70
NtRp1703
(dp1704
g73
(dp1705
g100
g101
ssg82
g1694
sg75
(lp1706
S':'
asbag68
(g89
g70
NtRp1707
(dp1708
g73
(dp1709
sg82
g1694
sg75
(lp1710
g68
(g69
g70
NtRp1711
(dp1712
g73
(dp1713
g81
I4
ssg82
g1707
sg75
(lp1714
S'<class wsgiref.util.FileWrapper at 0x168ec18>'
p1715
asbasbasbag68
(g84
g70
NtRp1716
(dp1717
g73
(dp1718
sg82
g858
sg75
(lp1719
g68
(g89
g70
NtRp1720
(dp1721
g73
(dp1722
g93
g94
ssg82
g1716
sg75
(lp1723
S'wsgi_input'
p1724
asbag68
(g89
g70
NtRp1725
(dp1726
g73
(dp1727
g100
g101
ssg82
g1716
sg75
(lp1728
S':'
asbag68
(g89
g70
NtRp1729
(dp1730
g73
(dp1731
sg82
g1716
sg75
(lp1732
g68
(g69
g70
NtRp1733
(dp1734
g73
(dp1735
g81
I4
ssg82
g1729
sg75
(lp1736
S'<socket._fileobject object at 0x7fdd401feed0>'
p1737
asbasbasbag68
(g84
g70
NtRp1738
(dp1739
g73
(dp1740
sg82
g858
sg75
(lp1741
g68
(g89
g70
NtRp1742
(dp1743
g73
(dp1744
g93
g94
ssg82
g1738
sg75
(lp1745
S'wsgi_multiprocess'
p1746
asbag68
(g89
g70
NtRp1747
(dp1748
g73
(dp1749
g100
g101
ssg82
g1738
sg75
(lp1750
S':'
asbag68
(g89
g70
NtRp1751
(dp1752
g73
(dp1753
sg82
g1738
sg75
(lp1754
g68
(g69
g70
NtRp1755
(dp1756
g73
(dp1757
g81
I4
ssg82
g1751
sg75
(lp1758
g111
asbasbasbag68
(g84
g70
NtRp1759
(dp1760
g73
(dp1761
sg82
g858
sg75
(lp1762
g68
(g89
g70
NtRp1763
(dp1764
g73
(dp1765
g93
g94
ssg82
g1759
sg75
(lp1766
S'wsgi_multithread'
p1767
asbag68
(g89
g70
NtRp1768
(dp1769
g73
(dp1770
g100
g101
ssg82
g1759
sg75
(lp1771
S':'
asbag68
(g89
g70
NtRp1772
(dp1773
g73
(dp1774
sg82
g1759
sg75
(lp1775
g68
(g69
g70
NtRp1776
(dp1777
g73
(dp1778
g81
I4
ssg82
g1772
sg75
(lp1779
S'True'
p1780
asbasbasbag68
(g84
g70
NtRp1781
(dp1782
g73
(dp1783
sg82
g858
sg75
(lp1784
g68
(g89
g70
NtRp1785
(dp1786
g73
(dp1787
g93
g94
ssg82
g1781
sg75
(lp1788
S'wsgi_run_once'
p1789
asbag68
(g89
g70
NtRp1790
(dp1791
g73
(dp1792
g100
g101
ssg82
g1781
sg75
(lp1793
S':'
asbag68
(g89
g70
NtRp1794
(dp1795
g73
(dp1796
sg82
g1781
sg75
(lp1797
g68
(g69
g70
NtRp1798
(dp1799
g73
(dp1800
g81
I4
ssg82
g1794
sg75
(lp1801
g111
asbasbasbag68
(g84
g70
NtRp1802
(dp1803
g73
(dp1804
sg82
g858
sg75
(lp1805
g68
(g89
g70
NtRp1806
(dp1807
g73
(dp1808
g93
g94
ssg82
g1802
sg75
(lp1809
S'wsgi_url_scheme'
p1810
asbag68
(g89
g70
NtRp1811
(dp1812
g73
(dp1813
g100
g101
ssg82
g1802
sg75
(lp1814
S':'
asbag68
(g89
g70
NtRp1815
(dp1816
g73
(dp1817
sg82
g1802
sg75
(lp1818
g68
(g69
g70
NtRp1819
(dp1820
g73
(dp1821
g81
I4
ssg82
g1815
sg75
(lp1822
S'http'
p1823
asbasbasbag68
(g84
g70
NtRp1824
(dp1825
g73
(dp1826
sg82
g858
sg75
(lp1827
g68
(g89
g70
NtRp1828
(dp1829
g73
(dp1830
g93
g94
ssg82
g1824
sg75
(lp1831
S'wsgi_version'
p1832
asbag68
(g89
g70
NtRp1833
(dp1834
g73
(dp1835
g100
g101
ssg82
g1824
sg75
(lp1836
S':'
asbag68
(g89
g70
NtRp1837
(dp1838
g73
(dp1839
sg82
g1824
sg75
(lp1840
g68
(g69
g70
NtRp1841
(dp1842
g73
(dp1843
g81
I4
ssg82
g1837
sg75
(lp1844
g68
(g77
g70
NtRp1845
(dp1846
g73
(dp1847
g81
I3
ssg82
Nsg75
(lp1848
g68
(g84
g70
NtRp1849
(dp1850
g73
(dp1851
sg82
g1845
sg75
(lp1852
g68
(g89
g70
NtRp1853
(dp1854
g73
(dp1855
sg82
g1849
sg75
(lp1856
g68
(g69
g70
NtRp1857
(dp1858
g73
(dp1859
g81
I3
ssg82
g1853
sg75
(lp1860
S'1'
asbasbasbag68
(g84
g70
NtRp1861
(dp1862
g73
(dp1863
sg82
g1845
sg75
(lp1864
g68
(g89
g70
NtRp1865
(dp1866
g73
(dp1867
sg82
g1861
sg75
(lp1868
g68
(g69
g70
NtRp1869
(dp1870
g73
(dp1871
g81
I3
ssg82
g1865
sg75
(lp1872
S'0'
asbasbasbasbasbasbasbasbasbasbasbag68
(g84
g70
NtRp1873
(dp1874
g73
(dp1875
sg82
g78
sg75
(lp1876
g68
(g89
g70
NtRp1877
(dp1878
g73
(dp1879
g93
g94
ssg82
g1873
sg75
(lp1880
S'extension'
p1881
asbag68
(g89
g70
NtRp1882
(dp1883
g73
(dp1884
g100
g101
ssg82
g1873
sg75
(lp1885
S':'
asbag68
(g89
g70
NtRp1886
(dp1887
g73
(dp1888
sg82
g1873
sg75
(lp1889
g68
(g69
g70
NtRp1890
(dp1891
g73
(dp1892
g81
I5
ssg82
g1886
sg75
(lp1893
S'html'
p1894
asbasbasbag68
(g84
g70
NtRp1895
(dp1896
g73
(dp1897
sg82
g78
sg75
(lp1898
g68
(g89
g70
NtRp1899
(dp1900
g73
(dp1901
g93
g94
ssg82
g1895
sg75
(lp1902
S'folder'
p1903
asbag68
(g89
g70
NtRp1904
(dp1905
g73
(dp1906
g100
g101
ssg82
g1895
sg75
(lp1907
S':'
asbag68
(g89
g70
NtRp1908
(dp1909
g73
(dp1910
sg82
g1895
sg75
(lp1911
g68
(g69
g70
NtRp1912
(dp1913
g73
(dp1914
g81
I5
ssg82
g1908
sg75
(lp1915
S'/home/saurabh/web2py/applications/ggg/'
p1916
asbasbasbag68
(g84
g70
NtRp1917
(dp1918
g73
(dp1919
sg82
g78
sg75
(lp1920
g68
(g89
g70
NtRp1921
(dp1922
g73
(dp1923
g93
g94
ssg82
g1917
sg75
(lp1924
S'function'
p1925
asbag68
(g89
g70
NtRp1926
(dp1927
g73
(dp1928
g100
g101
ssg82
g1917
sg75
(lp1929
S':'
asbag68
(g89
g70
NtRp1930
(dp1931
g73
(dp1932
sg82
g1917
sg75
(lp1933
g68
(g69
g70
NtRp1934
(dp1935
g73
(dp1936
g81
I5
ssg82
g1930
sg75
(lp1937
S'exam'
p1938
asbasbasbag68
(g84
g70
NtRp1939
(dp1940
g73
(dp1941
sg82
g78
sg75
(lp1942
g68
(g89
g70
NtRp1943
(dp1944
g73
(dp1945
g93
g94
ssg82
g1939
sg75
(lp1946
S'get_vars'
p1947
asbag68
(g89
g70
NtRp1948
(dp1949
g73
(dp1950
g100
g101
ssg82
g1939
sg75
(lp1951
S':'
asbag68
(g89
g70
NtRp1952
(dp1953
g73
(dp1954
sg82
g1939
sg75
(lp1955
g68
(g69
g70
NtRp1956
(dp1957
g73
(dp1958
g81
I5
ssg82
g1952
sg75
(lp1959
g68
(g77
g70
NtRp1960
(dp1961
g73
(dp1962
g81
I4
ssg82
Nsg75
(lp1963
sbasbasbasbag68
(g84
g70
NtRp1964
(dp1965
g73
(dp1966
sg82
g78
sg75
(lp1967
g68
(g89
g70
NtRp1968
(dp1969
g73
(dp1970
g93
g94
ssg82
g1964
sg75
(lp1971
S'global_settings'
p1972
asbag68
(g89
g70
NtRp1973
(dp1974
g73
(dp1975
g100
g101
ssg82
g1964
sg75
(lp1976
S':'
asbag68
(g89
g70
NtRp1977
(dp1978
g73
(dp1979
sg82
g1964
sg75
(lp1980
g68
(g69
g70
NtRp1981
(dp1982
g73
(dp1983
g81
I5
ssg82
g1977
sg75
(lp1984
g68
(g77
g70
NtRp1985
(dp1986
g73
(dp1987
g81
I4
ssg82
Nsg75
(lp1988
g68
(g84
g70
NtRp1989
(dp1990
g73
(dp1991
sg82
g1985
sg75
(lp1992
g68
(g89
g70
NtRp1993
(dp1994
g73
(dp1995
g93
g94
ssg82
g1989
sg75
(lp1996
g870
asbag68
(g89
g70
NtRp1997
(dp1998
g73
(dp1999
g100
g101
ssg82
g1989
sg75
(lp2000
S':'
asbag68
(g89
g70
NtRp2001
(dp2002
g73
(dp2003
sg82
g1989
sg75
(lp2004
g68
(g69
g70
NtRp2005
(dp2006
g73
(dp2007
g81
I4
ssg82
g2001
sg75
(lp2008
S"set(['/home/saurabh/web2py/applications/ggg/', '/home/saurabh/web2py/applications/admin/', '/home/saurabh/web2py/applications/welcome/'])"
p2009
asbasbasbag68
(g84
g70
NtRp2010
(dp2011
g73
(dp2012
sg82
g1985
sg75
(lp2013
g68
(g89
g70
NtRp2014
(dp2015
g73
(dp2016
g93
g94
ssg82
g2010
sg75
(lp2017
g892
asbag68
(g89
g70
NtRp2018
(dp2019
g73
(dp2020
g100
g101
ssg82
g2010
sg75
(lp2021
S':'
asbag68
(g89
g70
NtRp2022
(dp2023
g73
(dp2024
sg82
g2010
sg75
(lp2025
g68
(g69
g70
NtRp2026
(dp2027
g73
(dp2028
g81
I4
ssg82
g2022
sg75
(lp2029
g905
asbasbasbag68
(g84
g70
NtRp2030
(dp2031
g73
(dp2032
sg82
g1985
sg75
(lp2033
g68
(g89
g70
NtRp2034
(dp2035
g73
(dp2036
g93
g94
ssg82
g2030
sg75
(lp2037
g914
asbag68
(g89
g70
NtRp2038
(dp2039
g73
(dp2040
g100
g101
ssg82
g2030
sg75
(lp2041
S':'
asbag68
(g89
g70
NtRp2042
(dp2043
g73
(dp2044
sg82
g2030
sg75
(lp2045
g68
(g69
g70
NtRp2046
(dp2047
g73
(dp2048
g81
I4
ssg82
g2042
sg75
(lp2049
g68
(g77
g70
NtRp2050
(dp2051
g73
(dp2052
g81
I3
ssg82
Nsg75
(lp2053
sbasbasbasbag68
(g84
g70
NtRp2054
(dp2055
g73
(dp2056
sg82
g1985
sg75
(lp2057
g68
(g89
g70
NtRp2058
(dp2059
g73
(dp2060
g93
g94
ssg82
g2054
sg75
(lp2061
g939
asbag68
(g89
g70
NtRp2062
(dp2063
g73
(dp2064
g100
g101
ssg82
g2054
sg75
(lp2065
S':'
asbag68
(g89
g70
NtRp2066
(dp2067
g73
(dp2068
sg82
g2054
sg75
(lp2069
g68
(g69
g70
NtRp2070
(dp2071
g73
(dp2072
g81
I4
ssg82
g2066
sg75
(lp2073
S"<Values at 0x17248c0: {'verbose': False, 'ip': '127.0.0.1', 'with_scheduler': False, 'ips': [], 'shutdown_timeout': 5, 'taskbar': False, 'port': 8000, 'maxthreads': None, 'softcron': False, 'server_name': 'saurabh-Inspiron-N4050', 'bpython': False, 'nogui': False, 'pid_filename': 'httpserver.pid', 'extcron': False, 'runcron': False, 'run_system_tests': False, 'test': None, 'folder': '/home/saurabh/web2py', 'config': '', 'minthreads': None, 'winservice': '', 'shell': None, 'run': '', 'log_filename': 'httpserver.log', 'debuglevel': 30, 'args': [''], 'socket_timeout': 5, 'ssl_ca_certificate': None, 'scheduler': None, 'profiler_filename': None, 'ssl_private_key': '', 'scheduler_groups': None, 'password': '<ask>', 'request_queue_size': 5, 'ssl_certificate': '', 'cronjob': False, 'numthreads': None, 'quiet': False, 'interfaces': None, 'import_models': False, 'timeout': 10, 'plain': False, 'nobanner': False}>"
p2074
asbasbasbag68
(g84
g70
NtRp2075
(dp2076
g73
(dp2077
sg82
g1985
sg75
(lp2078
g68
(g89
g70
NtRp2079
(dp2080
g73
(dp2081
g93
g94
ssg82
g2075
sg75
(lp2082
g961
asbag68
(g89
g70
NtRp2083
(dp2084
g73
(dp2085
g100
g101
ssg82
g2075
sg75
(lp2086
S':'
asbag68
(g89
g70
NtRp2087
(dp2088
g73
(dp2089
sg82
g2075
sg75
(lp2090
g68
(g69
g70
NtRp2091
(dp2092
g73
(dp2093
g81
I4
ssg82
g2087
sg75
(lp2094
S'set([])'
p2095
asbasbasbag68
(g84
g70
NtRp2096
(dp2097
g73
(dp2098
sg82
g1985
sg75
(lp2099
g68
(g89
g70
NtRp2100
(dp2101
g73
(dp2102
g93
g94
ssg82
g2096
sg75
(lp2103
g983
asbag68
(g89
g70
NtRp2104
(dp2105
g73
(dp2106
g100
g101
ssg82
g2096
sg75
(lp2107
S':'
asbag68
(g89
g70
NtRp2108
(dp2109
g73
(dp2110
sg82
g2096
sg75
(lp2111
g68
(g69
g70
NtRp2112
(dp2113
g73
(dp2114
g81
I4
ssg82
g2108
sg75
(lp2115
g111
asbasbasbag68
(g84
g70
NtRp2116
(dp2117
g73
(dp2118
sg82
g1985
sg75
(lp2119
g68
(g89
g70
NtRp2120
(dp2121
g73
(dp2122
g93
g94
ssg82
g2116
sg75
(lp2123
g1004
asbag68
(g89
g70
NtRp2124
(dp2125
g73
(dp2126
g100
g101
ssg82
g2116
sg75
(lp2127
S':'
asbag68
(g89
g70
NtRp2128
(dp2129
g73
(dp2130
sg82
g2116
sg75
(lp2131
g68
(g69
g70
NtRp2132
(dp2133
g73
(dp2134
g81
I4
ssg82
g2128
sg75
(lp2135
g1017
asbasbasbag68
(g84
g70
NtRp2136
(dp2137
g73
(dp2138
sg82
g1985
sg75
(lp2139
g68
(g89
g70
NtRp2140
(dp2141
g73
(dp2142
g93
g94
ssg82
g2136
sg75
(lp2143
g1202
asbag68
(g89
g70
NtRp2144
(dp2145
g73
(dp2146
g100
g101
ssg82
g2136
sg75
(lp2147
S':'
asbag68
(g89
g70
NtRp2148
(dp2149
g73
(dp2150
sg82
g2136
sg75
(lp2151
g68
(g69
g70
NtRp2152
(dp2153
g73
(dp2154
g81
I4
ssg82
g2148
sg75
(lp2155
g111
asbasbasbag68
(g84
g70
NtRp2156
(dp2157
g73
(dp2158
sg82
g1985
sg75
(lp2159
g68
(g89
g70
NtRp2160
(dp2161
g73
(dp2162
g93
g94
ssg82
g2156
sg75
(lp2163
g1223
asbag68
(g89
g70
NtRp2164
(dp2165
g73
(dp2166
g100
g101
ssg82
g2156
sg75
(lp2167
S':'
asbag68
(g89
g70
NtRp2168
(dp2169
g73
(dp2170
sg82
g2156
sg75
(lp2171
g68
(g69
g70
NtRp2172
(dp2173
g73
(dp2174
g81
I4
ssg82
g2168
sg75
(lp2175
g111
asbasbasbag68
(g84
g70
NtRp2176
(dp2177
g73
(dp2178
sg82
g1985
sg75
(lp2179
g68
(g89
g70
NtRp2180
(dp2181
g73
(dp2182
g93
g94
ssg82
g2176
sg75
(lp2183
g1244
asbag68
(g89
g70
NtRp2184
(dp2185
g73
(dp2186
g100
g101
ssg82
g2176
sg75
(lp2187
S':'
asbag68
(g89
g70
NtRp2188
(dp2189
g73
(dp2190
sg82
g2176
sg75
(lp2191
g68
(g69
g70
NtRp2192
(dp2193
g73
(dp2194
g81
I4
ssg82
g2188
sg75
(lp2195
g68
(g77
g70
NtRp2196
(dp2197
g73
(dp2198
g81
I3
ssg82
Nsg75
(lp2199
g68
(g84
g70
NtRp2200
(dp2201
g73
(dp2202
sg82
g2196
sg75
(lp2203
g68
(g89
g70
NtRp2204
(dp2205
g73
(dp2206
sg82
g2200
sg75
(lp2207
g68
(g69
g70
NtRp2208
(dp2209
g73
(dp2210
g81
I3
ssg82
g2204
sg75
(lp2211
g1273
asbasbasbag68
(g84
g70
NtRp2212
(dp2213
g73
(dp2214
sg82
g2196
sg75
(lp2215
g68
(g89
g70
NtRp2216
(dp2217
g73
(dp2218
sg82
g2212
sg75
(lp2219
g68
(g69
g70
NtRp2220
(dp2221
g73
(dp2222
g81
I3
ssg82
g2216
sg75
(lp2223
g1286
asbasbasbag68
(g84
g70
NtRp2224
(dp2225
g73
(dp2226
sg82
g2196
sg75
(lp2227
g68
(g89
g70
NtRp2228
(dp2229
g73
(dp2230
sg82
g2224
sg75
(lp2231
g68
(g69
g70
NtRp2232
(dp2233
g73
(dp2234
g81
I3
ssg82
g2228
sg75
(lp2235
g1299
asbasbasbag68
(g84
g70
NtRp2236
(dp2237
g73
(dp2238
sg82
g2196
sg75
(lp2239
g68
(g89
g70
NtRp2240
(dp2241
g73
(dp2242
sg82
g2236
sg75
(lp2243
g68
(g69
g70
NtRp2244
(dp2245
g73
(dp2246
g81
I3
ssg82
g2240
sg75
(lp2247
g1312
asbasbasbag68
(g84
g70
NtRp2248
(dp2249
g73
(dp2250
sg82
g2196
sg75
(lp2251
g68
(g89
g70
NtRp2252
(dp2253
g73
(dp2254
sg82
g2248
sg75
(lp2255
g68
(g69
g70
NtRp2256
(dp2257
g73
(dp2258
g81
I3
ssg82
g2252
sg75
(lp2259
g1325
asbasbasbasbasbasbasbag68
(g84
g70
NtRp2260
(dp2261
g73
(dp2262
sg82
g1985
sg75
(lp2263
g68
(g89
g70
NtRp2264
(dp2265
g73
(dp2266
g93
g94
ssg82
g2260
sg75
(lp2267
g1593
asbag68
(g89
g70
NtRp2268
(dp2269
g73
(dp2270
g100
g101
ssg82
g2260
sg75
(lp2271
S':'
asbag68
(g89
g70
NtRp2272
(dp2273
g73
(dp2274
sg82
g2260
sg75
(lp2275
g68
(g69
g70
NtRp2276
(dp2277
g73
(dp2278
g81
I4
ssg82
g2272
sg75
(lp2279
g68
(g77
g70
NtRp2280
(dp2281
g73
(dp2282
g81
I3
ssg82
Nsg75
(lp2283
g68
(g84
g70
NtRp2284
(dp2285
g73
(dp2286
sg82
g2280
sg75
(lp2287
g68
(g89
g70
NtRp2288
(dp2289
g73
(dp2290
sg82
g2284
sg75
(lp2291
g68
(g69
g70
NtRp2292
(dp2293
g73
(dp2294
g81
I3
ssg82
g2288
sg75
(lp2295
S'2'
asbasbasbag68
(g84
g70
NtRp2296
(dp2297
g73
(dp2298
sg82
g2280
sg75
(lp2299
g68
(g89
g70
NtRp2300
(dp2301
g73
(dp2302
sg82
g2296
sg75
(lp2303
g68
(g69
g70
NtRp2304
(dp2305
g73
(dp2306
g81
I3
ssg82
g2300
sg75
(lp2307
S'3'
asbasbasbag68
(g84
g70
NtRp2308
(dp2309
g73
(dp2310
sg82
g2280
sg75
(lp2311
g68
(g89
g70
NtRp2312
(dp2313
g73
(dp2314
sg82
g2308
sg75
(lp2315
g68
(g69
g70
NtRp2316
(dp2317
g73
(dp2318
g81
I3
ssg82
g2312
sg75
(lp2319
S'2'
asbasbasbag68
(g84
g70
NtRp2320
(dp2321
g73
(dp2322
sg82
g2280
sg75
(lp2323
g68
(g89
g70
NtRp2324
(dp2325
g73
(dp2326
sg82
g2320
sg75
(lp2327
g68
(g69
g70
NtRp2328
(dp2329
g73
(dp2330
g81
I3
ssg82
g2324
sg75
(lp2331
S'datetime.datetime(2012, 12, 17, 15, 3, 30)'
p2332
asbasbasbag68
(g84
g70
NtRp2333
(dp2334
g73
(dp2335
sg82
g2280
sg75
(lp2336
g68
(g89
g70
NtRp2337
(dp2338
g73
(dp2339
sg82
g2333
sg75
(lp2340
g68
(g69
g70
NtRp2341
(dp2342
g73
(dp2343
g81
I3
ssg82
g2337
sg75
(lp2344
g1671
asbasbasbasbasbasbasbasbasbasbasbag68
(g84
g70
NtRp2345
(dp2346
g73
(dp2347
sg82
g78
sg75
(lp2348
g68
(g89
g70
NtRp2349
(dp2350
g73
(dp2351
g93
g94
ssg82
g2345
sg75
(lp2352
S'is_https'
p2353
asbag68
(g89
g70
NtRp2354
(dp2355
g73
(dp2356
g100
g101
ssg82
g2345
sg75
(lp2357
S':'
asbag68
(g89
g70
NtRp2358
(dp2359
g73
(dp2360
sg82
g2345
sg75
(lp2361
g68
(g69
g70
NtRp2362
(dp2363
g73
(dp2364
g81
I5
ssg82
g2358
sg75
(lp2365
g111
asbasbasbag68
(g84
g70
NtRp2366
(dp2367
g73
(dp2368
sg82
g78
sg75
(lp2369
g68
(g89
g70
NtRp2370
(dp2371
g73
(dp2372
g93
g94
ssg82
g2366
sg75
(lp2373
S'is_local'
p2374
asbag68
(g89
g70
NtRp2375
(dp2376
g73
(dp2377
g100
g101
ssg82
g2366
sg75
(lp2378
S':'
asbag68
(g89
g70
NtRp2379
(dp2380
g73
(dp2381
sg82
g2366
sg75
(lp2382
g68
(g69
g70
NtRp2383
(dp2384
g73
(dp2385
g81
I5
ssg82
g2379
sg75
(lp2386
g1780
asbasbasbag68
(g84
g70
NtRp2387
(dp2388
g73
(dp2389
sg82
g78
sg75
(lp2390
g68
(g89
g70
NtRp2391
(dp2392
g73
(dp2393
g93
g94
ssg82
g2387
sg75
(lp2394
S'is_restful'
p2395
asbag68
(g89
g70
NtRp2396
(dp2397
g73
(dp2398
g100
g101
ssg82
g2387
sg75
(lp2399
S':'
asbag68
(g89
g70
NtRp2400
(dp2401
g73
(dp2402
sg82
g2387
sg75
(lp2403
g68
(g69
g70
NtRp2404
(dp2405
g73
(dp2406
g81
I5
ssg82
g2400
sg75
(lp2407
g111
asbasbasbag68
(g84
g70
NtRp2408
(dp2409
g73
(dp2410
sg82
g78
sg75
(lp2411
g68
(g89
g70
NtRp2412
(dp2413
g73
(dp2414
g93
g94
ssg82
g2408
sg75
(lp2415
S'now'
p2416
asbag68
(g89
g70
NtRp2417
(dp2418
g73
(dp2419
g100
g101
ssg82
g2408
sg75
(lp2420
S':'
asbag68
(g89
g70
NtRp2421
(dp2422
g73
(dp2423
sg82
g2408
sg75
(lp2424
g68
(g69
g70
NtRp2425
(dp2426
g73
(dp2427
g81
I5
ssg82
g2421
sg75
(lp2428
S'datetime.datetime(2013, 3, 17, 21, 54, 58, 905379)'
p2429
asbasbasbag68
(g84
g70
NtRp2430
(dp2431
g73
(dp2432
sg82
g78
sg75
(lp2433
g68
(g89
g70
NtRp2434
(dp2435
g73
(dp2436
g93
g94
ssg82
g2430
sg75
(lp2437
S'post_vars'
p2438
asbag68
(g89
g70
NtRp2439
(dp2440
g73
(dp2441
g100
g101
ssg82
g2430
sg75
(lp2442
S':'
asbag68
(g89
g70
NtRp2443
(dp2444
g73
(dp2445
sg82
g2430
sg75
(lp2446
g68
(g69
g70
NtRp2447
(dp2448
g73
(dp2449
g81
I5
ssg82
g2443
sg75
(lp2450
g68
(g77
g70
NtRp2451
(dp2452
g73
(dp2453
g81
I4
ssg82
Nsg75
(lp2454
sbasbasbasbag68
(g84
g70
NtRp2455
(dp2456
g73
(dp2457
sg82
g78
sg75
(lp2458
g68
(g89
g70
NtRp2459
(dp2460
g73
(dp2461
g93
g94
ssg82
g2455
sg75
(lp2462
S'raw_args'
p2463
asbag68
(g89
g70
NtRp2464
(dp2465
g73
(dp2466
g100
g101
ssg82
g2455
sg75
(lp2467
S':'
asbag68
(g89
g70
NtRp2468
(dp2469
g73
(dp2470
sg82
g2455
sg75
(lp2471
g68
(g69
g70
NtRp2472
(dp2473
g73
(dp2474
g81
I5
ssg82
g2468
sg75
(lp2475
S''
asbasbasbag68
(g84
g70
NtRp2476
(dp2477
g73
(dp2478
sg82
g78
sg75
(lp2479
g68
(g89
g70
NtRp2480
(dp2481
g73
(dp2482
g93
g94
ssg82
g2476
sg75
(lp2483
S'raw_extension'
p2484
asbag68
(g89
g70
NtRp2485
(dp2486
g73
(dp2487
g100
g101
ssg82
g2476
sg75
(lp2488
S':'
asbag68
(g89
g70
NtRp2489
(dp2490
g73
(dp2491
sg82
g2476
sg75
(lp2492
g68
(g69
g70
NtRp2493
(dp2494
g73
(dp2495
g81
I5
ssg82
g2489
sg75
(lp2496
g1894
asbasbasbag68
(g84
g70
NtRp2497
(dp2498
g73
(dp2499
sg82
g78
sg75
(lp2500
g68
(g89
g70
NtRp2501
(dp2502
g73
(dp2503
g93
g94
ssg82
g2497
sg75
(lp2504
S'url'
p2505
asbag68
(g89
g70
NtRp2506
(dp2507
g73
(dp2508
g100
g101
ssg82
g2497
sg75
(lp2509
S':'
asbag68
(g89
g70
NtRp2510
(dp2511
g73
(dp2512
sg82
g2497
sg75
(lp2513
g68
(g69
g70
NtRp2514
(dp2515
g73
(dp2516
g81
I5
ssg82
g2510
sg75
(lp2517
g1347
asbasbasbag68
(g84
g70
NtRp2518
(dp2519
g73
(dp2520
sg82
g78
sg75
(lp2521
g68
(g89
g70
NtRp2522
(dp2523
g73
(dp2524
g93
g94
ssg82
g2518
sg75
(lp2525
S'utcnow'
p2526
asbag68
(g89
g70
NtRp2527
(dp2528
g73
(dp2529
g100
g101
ssg82
g2518
sg75
(lp2530
S':'
asbag68
(g89
g70
NtRp2531
(dp2532
g73
(dp2533
sg82
g2518
sg75
(lp2534
g68
(g69
g70
NtRp2535
(dp2536
g73
(dp2537
g81
I5
ssg82
g2531
sg75
(lp2538
S'datetime.datetime(2013, 3, 17, 16, 24, 58, 905410)'
p2539
asbasbasbag68
(g84
g70
NtRp2540
(dp2541
g73
(dp2542
sg82
g78
sg75
(lp2543
g68
(g89
g70
NtRp2544
(dp2545
g73
(dp2546
g93
g94
ssg82
g2540
sg75
(lp2547
S'uuid'
p2548
asbag68
(g89
g70
NtRp2549
(dp2550
g73
(dp2551
g100
g101
ssg82
g2540
sg75
(lp2552
S':'
asbag68
(g89
g70
NtRp2553
(dp2554
g73
(dp2555
sg82
g2540
sg75
(lp2556
g68
(g69
g70
NtRp2557
(dp2558
g73
(dp2559
g81
I5
ssg82
g2553
sg75
(lp2560
S'ggg/127.0.0.1.2013-03-17.21-54-58.a99baa4d-fa51-41d0-9c30-4251a23f12fd'
p2561
asbasbasbag68
(g84
g70
NtRp2562
(dp2563
g73
(dp2564
sg82
g78
sg75
(lp2565
g68
(g89
g70
NtRp2566
(dp2567
g73
(dp2568
g93
g94
ssg82
g2562
sg75
(lp2569
S'vars'
p2570
asbag68
(g89
g70
NtRp2571
(dp2572
g73
(dp2573
g100
g101
ssg82
g2562
sg75
(lp2574
S':'
asbag68
(g89
g70
NtRp2575
(dp2576
g73
(dp2577
sg82
g2562
sg75
(lp2578
g68
(g69
g70
NtRp2579
(dp2580
g73
(dp2581
g81
I5
ssg82
g2575
sg75
(lp2582
g68
(g77
g70
NtRp2583
(dp2584
g73
(dp2585
g81
I4
ssg82
Nsg75
(lp2586
sbasbasbasbag68
(g84
g70
NtRp2587
(dp2588
g73
(dp2589
sg82
g78
sg75
(lp2590
g68
(g89
g70
NtRp2591
(dp2592
g73
(dp2593
g93
g94
ssg82
g2587
sg75
(lp2594
S'wsgi'
p2595
asbag68
(g89
g70
NtRp2596
(dp2597
g73
(dp2598
g100
g101
ssg82
g2587
sg75
(lp2599
S':'
asbag68
(g89
g70
NtRp2600
(dp2601
g73
(dp2602
sg82
g2587
sg75
(lp2603
g68
(g69
g70
NtRp2604
(dp2605
g73
(dp2606
g81
I5
ssg82
g2600
sg75
(lp2607
g68
(g77
g70
NtRp2608
(dp2609
g73
(dp2610
g81
I4
ssg82
Nsg75
(lp2611
g68
(g84
g70
NtRp2612
(dp2613
g73
(dp2614
sg82
g2608
sg75
(lp2615
g68
(g89
g70
NtRp2616
(dp2617
g73
(dp2618
g93
g94
ssg82
g2612
sg75
(lp2619
S'environ'
p2620
asbag68
(g89
g70
NtRp2621
(dp2622
g73
(dp2623
g100
g101
ssg82
g2612
sg75
(lp2624
S':'
asbag68
(g89
g70
NtRp2625
(dp2626
g73
(dp2627
sg82
g2612
sg75
(lp2628
g68
(g69
g70
NtRp2629
(dp2630
g73
(dp2631
g81
I4
ssg82
g2625
sg75
(lp2632
g68
(g77
g70
NtRp2633
(dp2634
g73
(dp2635
g81
I3
ssg82
Nsg75
(lp2636
g68
(g84
g70
NtRp2637
(dp2638
g73
(dp2639
sg82
g2633
sg75
(lp2640
g68
(g89
g70
NtRp2641
(dp2642
g73
(dp2643
g93
g94
ssg82
g2637
sg75
(lp2644
S'HTTP_ACCEPT'
p2645
asbag68
(g89
g70
NtRp2646
(dp2647
g73
(dp2648
g100
g101
ssg82
g2637
sg75
(lp2649
S':'
asbag68
(g89
g70
NtRp2650
(dp2651
g73
(dp2652
sg82
g2637
sg75
(lp2653
g68
(g69
g70
NtRp2654
(dp2655
g73
(dp2656
g81
I3
ssg82
g2650
sg75
(lp2657
g1039
asbasbasbag68
(g84
g70
NtRp2658
(dp2659
g73
(dp2660
sg82
g2633
sg75
(lp2661
g68
(g89
g70
NtRp2662
(dp2663
g73
(dp2664
g93
g94
ssg82
g2658
sg75
(lp2665
S'HTTP_ACCEPT_ENCODING'
p2666
asbag68
(g89
g70
NtRp2667
(dp2668
g73
(dp2669
g100
g101
ssg82
g2658
sg75
(lp2670
S':'
asbag68
(g89
g70
NtRp2671
(dp2672
g73
(dp2673
sg82
g2658
sg75
(lp2674
g68
(g69
g70
NtRp2675
(dp2676
g73
(dp2677
g81
I3
ssg82
g2671
sg75
(lp2678
g1061
asbasbasbag68
(g84
g70
NtRp2679
(dp2680
g73
(dp2681
sg82
g2633
sg75
(lp2682
g68
(g89
g70
NtRp2683
(dp2684
g73
(dp2685
g93
g94
ssg82
g2679
sg75
(lp2686
S'HTTP_ACCEPT_LANGUAGE'
p2687
asbag68
(g89
g70
NtRp2688
(dp2689
g73
(dp2690
g100
g101
ssg82
g2679
sg75
(lp2691
S':'
asbag68
(g89
g70
NtRp2692
(dp2693
g73
(dp2694
sg82
g2679
sg75
(lp2695
g68
(g69
g70
NtRp2696
(dp2697
g73
(dp2698
g81
I3
ssg82
g2692
sg75
(lp2699
g1083
asbasbasbag68
(g84
g70
NtRp2700
(dp2701
g73
(dp2702
sg82
g2633
sg75
(lp2703
g68
(g89
g70
NtRp2704
(dp2705
g73
(dp2706
g93
g94
ssg82
g2700
sg75
(lp2707
S'HTTP_CONNECTION'
p2708
asbag68
(g89
g70
NtRp2709
(dp2710
g73
(dp2711
g100
g101
ssg82
g2700
sg75
(lp2712
S':'
asbag68
(g89
g70
NtRp2713
(dp2714
g73
(dp2715
sg82
g2700
sg75
(lp2716
g68
(g69
g70
NtRp2717
(dp2718
g73
(dp2719
g81
I3
ssg82
g2713
sg75
(lp2720
g1105
asbasbasbag68
(g84
g70
NtRp2721
(dp2722
g73
(dp2723
sg82
g2633
sg75
(lp2724
g68
(g89
g70
NtRp2725
(dp2726
g73
(dp2727
g93
g94
ssg82
g2721
sg75
(lp2728
S'HTTP_COOKIE'
p2729
asbag68
(g89
g70
NtRp2730
(dp2731
g73
(dp2732
g100
g101
ssg82
g2721
sg75
(lp2733
S':'
asbag68
(g89
g70
NtRp2734
(dp2735
g73
(dp2736
sg82
g2721
sg75
(lp2737
g68
(g69
g70
NtRp2738
(dp2739
g73
(dp2740
g81
I3
ssg82
g2734
sg75
(lp2741
g1127
asbasbasbag68
(g84
g70
NtRp2742
(dp2743
g73
(dp2744
sg82
g2633
sg75
(lp2745
g68
(g89
g70
NtRp2746
(dp2747
g73
(dp2748
g93
g94
ssg82
g2742
sg75
(lp2749
S'HTTP_HOST'
p2750
asbag68
(g89
g70
NtRp2751
(dp2752
g73
(dp2753
g100
g101
ssg82
g2742
sg75
(lp2754
S':'
asbag68
(g89
g70
NtRp2755
(dp2756
g73
(dp2757
sg82
g2742
sg75
(lp2758
g68
(g69
g70
NtRp2759
(dp2760
g73
(dp2761
g81
I3
ssg82
g2755
sg75
(lp2762
g1149
asbasbasbag68
(g84
g70
NtRp2763
(dp2764
g73
(dp2765
sg82
g2633
sg75
(lp2766
g68
(g89
g70
NtRp2767
(dp2768
g73
(dp2769
g93
g94
ssg82
g2763
sg75
(lp2770
S'HTTP_REFERER'
p2771
asbag68
(g89
g70
NtRp2772
(dp2773
g73
(dp2774
g100
g101
ssg82
g2763
sg75
(lp2775
S':'
asbag68
(g89
g70
NtRp2776
(dp2777
g73
(dp2778
sg82
g2763
sg75
(lp2779
g68
(g69
g70
NtRp2780
(dp2781
g73
(dp2782
g81
I3
ssg82
g2776
sg75
(lp2783
g1171
asbasbasbag68
(g84
g70
NtRp2784
(dp2785
g73
(dp2786
sg82
g2633
sg75
(lp2787
g68
(g89
g70
NtRp2788
(dp2789
g73
(dp2790
g93
g94
ssg82
g2784
sg75
(lp2791
S'HTTP_USER_AGENT'
p2792
asbag68
(g89
g70
NtRp2793
(dp2794
g73
(dp2795
g100
g101
ssg82
g2784
sg75
(lp2796
S':'
asbag68
(g89
g70
NtRp2797
(dp2798
g73
(dp2799
sg82
g2784
sg75
(lp2800
g68
(g69
g70
NtRp2801
(dp2802
g73
(dp2803
g81
I3
ssg82
g2797
sg75
(lp2804
g1193
asbasbasbag68
(g84
g70
NtRp2805
(dp2806
g73
(dp2807
sg82
g2633
sg75
(lp2808
g68
(g89
g70
NtRp2809
(dp2810
g73
(dp2811
g93
g94
ssg82
g2805
sg75
(lp2812
S'PATH_INFO'
p2813
asbag68
(g89
g70
NtRp2814
(dp2815
g73
(dp2816
g100
g101
ssg82
g2805
sg75
(lp2817
S':'
asbag68
(g89
g70
NtRp2818
(dp2819
g73
(dp2820
sg82
g2805
sg75
(lp2821
g68
(g69
g70
NtRp2822
(dp2823
g73
(dp2824
g81
I3
ssg82
g2818
sg75
(lp2825
g1347
asbasbasbag68
(g84
g70
NtRp2826
(dp2827
g73
(dp2828
sg82
g2633
sg75
(lp2829
g68
(g89
g70
NtRp2830
(dp2831
g73
(dp2832
g93
g94
ssg82
g2826
sg75
(lp2833
S'QUERY_STRING'
p2834
asbag68
(g89
g70
NtRp2835
(dp2836
g73
(dp2837
g100
g101
ssg82
g2826
sg75
(lp2838
S':'
asbag68
(g89
g70
NtRp2839
(dp2840
g73
(dp2841
sg82
g2826
sg75
(lp2842
g68
(g69
g70
NtRp2843
(dp2844
g73
(dp2845
g81
I3
ssg82
g2839
sg75
(lp2846
S''
asbasbasbag68
(g84
g70
NtRp2847
(dp2848
g73
(dp2849
sg82
g2633
sg75
(lp2850
g68
(g89
g70
NtRp2851
(dp2852
g73
(dp2853
g93
g94
ssg82
g2847
sg75
(lp2854
S'REMOTE_ADDR'
p2855
asbag68
(g89
g70
NtRp2856
(dp2857
g73
(dp2858
g100
g101
ssg82
g2847
sg75
(lp2859
S':'
asbag68
(g89
g70
NtRp2860
(dp2861
g73
(dp2862
sg82
g2847
sg75
(lp2863
g68
(g69
g70
NtRp2864
(dp2865
g73
(dp2866
g81
I3
ssg82
g2860
sg75
(lp2867
g223
asbasbasbag68
(g84
g70
NtRp2868
(dp2869
g73
(dp2870
sg82
g2633
sg75
(lp2871
g68
(g89
g70
NtRp2872
(dp2873
g73
(dp2874
g93
g94
ssg82
g2868
sg75
(lp2875
S'REMOTE_PORT'
p2876
asbag68
(g89
g70
NtRp2877
(dp2878
g73
(dp2879
g100
g101
ssg82
g2868
sg75
(lp2880
S':'
asbag68
(g89
g70
NtRp2881
(dp2882
g73
(dp2883
sg82
g2868
sg75
(lp2884
g68
(g69
g70
NtRp2885
(dp2886
g73
(dp2887
g81
I3
ssg82
g2881
sg75
(lp2888
g1411
asbasbasbag68
(g84
g70
NtRp2889
(dp2890
g73
(dp2891
sg82
g2633
sg75
(lp2892
g68
(g89
g70
NtRp2893
(dp2894
g73
(dp2895
g93
g94
ssg82
g2889
sg75
(lp2896
S'REQUEST_METHOD'
p2897
asbag68
(g89
g70
NtRp2898
(dp2899
g73
(dp2900
g100
g101
ssg82
g2889
sg75
(lp2901
S':'
asbag68
(g89
g70
NtRp2902
(dp2903
g73
(dp2904
sg82
g2889
sg75
(lp2905
g68
(g69
g70
NtRp2906
(dp2907
g73
(dp2908
g81
I3
ssg82
g2902
sg75
(lp2909
g1433
asbasbasbag68
(g84
g70
NtRp2910
(dp2911
g73
(dp2912
sg82
g2633
sg75
(lp2913
g68
(g89
g70
NtRp2914
(dp2915
g73
(dp2916
g93
g94
ssg82
g2910
sg75
(lp2917
S'REQUEST_URI'
p2918
asbag68
(g89
g70
NtRp2919
(dp2920
g73
(dp2921
g100
g101
ssg82
g2910
sg75
(lp2922
S':'
asbag68
(g89
g70
NtRp2923
(dp2924
g73
(dp2925
sg82
g2910
sg75
(lp2926
g68
(g69
g70
NtRp2927
(dp2928
g73
(dp2929
g81
I3
ssg82
g2923
sg75
(lp2930
g1347
asbasbasbag68
(g84
g70
NtRp2931
(dp2932
g73
(dp2933
sg82
g2633
sg75
(lp2934
g68
(g89
g70
NtRp2935
(dp2936
g73
(dp2937
g93
g94
ssg82
g2931
sg75
(lp2938
S'SCRIPT_NAME'
p2939
asbag68
(g89
g70
NtRp2940
(dp2941
g73
(dp2942
g100
g101
ssg82
g2931
sg75
(lp2943
S':'
asbag68
(g89
g70
NtRp2944
(dp2945
g73
(dp2946
sg82
g2931
sg75
(lp2947
g68
(g69
g70
NtRp2948
(dp2949
g73
(dp2950
g81
I3
ssg82
g2944
sg75
(lp2951
S''
asbasbasbag68
(g84
g70
NtRp2952
(dp2953
g73
(dp2954
sg82
g2633
sg75
(lp2955
g68
(g89
g70
NtRp2956
(dp2957
g73
(dp2958
g93
g94
ssg82
g2952
sg75
(lp2959
S'SERVER_NAME'
p2960
asbag68
(g89
g70
NtRp2961
(dp2962
g73
(dp2963
g100
g101
ssg82
g2952
sg75
(lp2964
S':'
asbag68
(g89
g70
NtRp2965
(dp2966
g73
(dp2967
sg82
g2952
sg75
(lp2968
g68
(g69
g70
NtRp2969
(dp2970
g73
(dp2971
g81
I3
ssg82
g2965
sg75
(lp2972
g1497
asbasbasbag68
(g84
g70
NtRp2973
(dp2974
g73
(dp2975
sg82
g2633
sg75
(lp2976
g68
(g89
g70
NtRp2977
(dp2978
g73
(dp2979
g93
g94
ssg82
g2973
sg75
(lp2980
S'SERVER_PORT'
p2981
asbag68
(g89
g70
NtRp2982
(dp2983
g73
(dp2984
g100
g101
ssg82
g2973
sg75
(lp2985
S':'
asbag68
(g89
g70
NtRp2986
(dp2987
g73
(dp2988
sg82
g2973
sg75
(lp2989
g68
(g69
g70
NtRp2990
(dp2991
g73
(dp2992
g81
I3
ssg82
g2986
sg75
(lp2993
g1519
asbasbasbag68
(g84
g70
NtRp2994
(dp2995
g73
(dp2996
sg82
g2633
sg75
(lp2997
g68
(g89
g70
NtRp2998
(dp2999
g73
(dp3000
g93
g94
ssg82
g2994
sg75
(lp3001
S'SERVER_PROTOCOL'
p3002
asbag68
(g89
g70
NtRp3003
(dp3004
g73
(dp3005
g100
g101
ssg82
g2994
sg75
(lp3006
S':'
asbag68
(g89
g70
NtRp3007
(dp3008
g73
(dp3009
sg82
g2994
sg75
(lp3010
g68
(g69
g70
NtRp3011
(dp3012
g73
(dp3013
g81
I3
ssg82
g3007
sg75
(lp3014
g1541
asbasbasbag68
(g84
g70
NtRp3015
(dp3016
g73
(dp3017
sg82
g2633
sg75
(lp3018
g68
(g89
g70
NtRp3019
(dp3020
g73
(dp3021
g93
g94
ssg82
g3015
sg75
(lp3022
S'SERVER_SOFTWARE'
p3023
asbag68
(g89
g70
NtRp3024
(dp3025
g73
(dp3026
g100
g101
ssg82
g3015
sg75
(lp3027
S':'
asbag68
(g89
g70
NtRp3028
(dp3029
g73
(dp3030
sg82
g3015
sg75
(lp3031
g68
(g69
g70
NtRp3032
(dp3033
g73
(dp3034
g81
I3
ssg82
g3028
sg75
(lp3035
g1563
asbasbasbag68
(g84
g70
NtRp3036
(dp3037
g73
(dp3038
sg82
g2633
sg75
(lp3039
g68
(g89
g70
NtRp3040
(dp3041
g73
(dp3042
g93
g94
ssg82
g3036
sg75
(lp3043
S'wsgi.errors'
p3044
asbag68
(g89
g70
NtRp3045
(dp3046
g73
(dp3047
g100
g101
ssg82
g3036
sg75
(lp3048
S':'
asbag68
(g89
g70
NtRp3049
(dp3050
g73
(dp3051
sg82
g3036
sg75
(lp3052
g68
(g69
g70
NtRp3053
(dp3054
g73
(dp3055
g81
I3
ssg82
g3049
sg75
(lp3056
S"<open file '<stderr>', mode 'w' at 0x7fdd50f2a270>"
p3057
asbasbasbag68
(g84
g70
NtRp3058
(dp3059
g73
(dp3060
sg82
g2633
sg75
(lp3061
g68
(g89
g70
NtRp3062
(dp3063
g73
(dp3064
g93
g94
ssg82
g3058
sg75
(lp3065
S'wsgi.file_wrapper'
p3066
asbag68
(g89
g70
NtRp3067
(dp3068
g73
(dp3069
g100
g101
ssg82
g3058
sg75
(lp3070
S':'
asbag68
(g89
g70
NtRp3071
(dp3072
g73
(dp3073
sg82
g3058
sg75
(lp3074
g68
(g69
g70
NtRp3075
(dp3076
g73
(dp3077
g81
I3
ssg82
g3071
sg75
(lp3078
S'<class wsgiref.util.FileWrapper at 0x168ec18>'
p3079
asbasbasbag68
(g84
g70
NtRp3080
(dp3081
g73
(dp3082
sg82
g2633
sg75
(lp3083
g68
(g89
g70
NtRp3084
(dp3085
g73
(dp3086
g93
g94
ssg82
g3080
sg75
(lp3087
S'wsgi.input'
p3088
asbag68
(g89
g70
NtRp3089
(dp3090
g73
(dp3091
g100
g101
ssg82
g3080
sg75
(lp3092
S':'
asbag68
(g89
g70
NtRp3093
(dp3094
g73
(dp3095
sg82
g3080
sg75
(lp3096
g68
(g69
g70
NtRp3097
(dp3098
g73
(dp3099
g81
I3
ssg82
g3093
sg75
(lp3100
S'<cStringIO.StringO object at 0x7fdcfc4b5ae8>'
p3101
asbasbasbag68
(g84
g70
NtRp3102
(dp3103
g73
(dp3104
sg82
g2633
sg75
(lp3105
g68
(g89
g70
NtRp3106
(dp3107
g73
(dp3108
g93
g94
ssg82
g3102
sg75
(lp3109
S'wsgi.multiprocess'
p3110
asbag68
(g89
g70
NtRp3111
(dp3112
g73
(dp3113
g100
g101
ssg82
g3102
sg75
(lp3114
S':'
asbag68
(g89
g70
NtRp3115
(dp3116
g73
(dp3117
sg82
g3102
sg75
(lp3118
g68
(g69
g70
NtRp3119
(dp3120
g73
(dp3121
g81
I3
ssg82
g3115
sg75
(lp3122
g111
asbasbasbag68
(g84
g70
NtRp3123
(dp3124
g73
(dp3125
sg82
g2633
sg75
(lp3126
g68
(g89
g70
NtRp3127
(dp3128
g73
(dp3129
g93
g94
ssg82
g3123
sg75
(lp3130
S'wsgi.multithread'
p3131
asbag68
(g89
g70
NtRp3132
(dp3133
g73
(dp3134
g100
g101
ssg82
g3123
sg75
(lp3135
S':'
asbag68
(g89
g70
NtRp3136
(dp3137
g73
(dp3138
sg82
g3123
sg75
(lp3139
g68
(g69
g70
NtRp3140
(dp3141
g73
(dp3142
g81
I3
ssg82
g3136
sg75
(lp3143
g1780
asbasbasbag68
(g84
g70
NtRp3144
(dp3145
g73
(dp3146
sg82
g2633
sg75
(lp3147
g68
(g89
g70
NtRp3148
(dp3149
g73
(dp3150
g93
g94
ssg82
g3144
sg75
(lp3151
S'wsgi.run_once'
p3152
asbag68
(g89
g70
NtRp3153
(dp3154
g73
(dp3155
g100
g101
ssg82
g3144
sg75
(lp3156
S':'
asbag68
(g89
g70
NtRp3157
(dp3158
g73
(dp3159
sg82
g3144
sg75
(lp3160
g68
(g69
g70
NtRp3161
(dp3162
g73
(dp3163
g81
I3
ssg82
g3157
sg75
(lp3164
g111
asbasbasbag68
(g84
g70
NtRp3165
(dp3166
g73
(dp3167
sg82
g2633
sg75
(lp3168
g68
(g89
g70
NtRp3169
(dp3170
g73
(dp3171
g93
g94
ssg82
g3165
sg75
(lp3172
S'wsgi.url_scheme'
p3173
asbag68
(g89
g70
NtRp3174
(dp3175
g73
(dp3176
g100
g101
ssg82
g3165
sg75
(lp3177
S':'
asbag68
(g89
g70
NtRp3178
(dp3179
g73
(dp3180
sg82
g3165
sg75
(lp3181
g68
(g69
g70
NtRp3182
(dp3183
g73
(dp3184
g81
I3
ssg82
g3178
sg75
(lp3185
g1823
asbasbasbag68
(g84
g70
NtRp3186
(dp3187
g73
(dp3188
sg82
g2633
sg75
(lp3189
g68
(g89
g70
NtRp3190
(dp3191
g73
(dp3192
g93
g94
ssg82
g3186
sg75
(lp3193
S'wsgi.version'
p3194
asbag68
(g89
g70
NtRp3195
(dp3196
g73
(dp3197
g100
g101
ssg82
g3186
sg75
(lp3198
S':'
asbag68
(g89
g70
NtRp3199
(dp3200
g73
(dp3201
sg82
g3186
sg75
(lp3202
g68
(g69
g70
NtRp3203
(dp3204
g73
(dp3205
g81
I3
ssg82
g3199
sg75
(lp3206
S'1'
asbasbasbasbasbasbasbasbasbasbasbasbasbsS'frames'
p3207
(lp3208
(dp3209
S'file'
p3210
S'/home/saurabh/web2py/gluon/restricted.py'
p3211
sS'dump'
p3212
(dp3213
S'code'
p3214
S"'# -*- coding: utf-8 -*-\\n# this file is released ...():\\n     \\n\\nresponse._vars=response._caller(exam)\\n'"
p3215
sS'layer'
p3216
S"'/home/saurabh/web2py/applications/ggg/controllers/default.py'"
p3217
sS'global compile2'
p3218
S'<function compile2>'
p3219
sS'ccode'
p3220
S'undefined'
p3221
ssS'lnum'
p3222
I211
sS'lines'
p3223
(dp3224
I206
S"    environment['__name__'] = '__restricted__'"
p3225
sI207
S'    try:'
p3226
sI208
S'        if isinstance(code, types.CodeType):'
p3227
sI209
S'            ccode = code'
p3228
sI210
S'        else:'
p3229
sI211
S'            ccode = compile2(code, layer)'
p3230
sI212
S'        exec ccode in environment'
p3231
sI213
S'    except HTTP:'
p3232
sI214
S'        raise'
p3233
sI215
S'    except RestrictedError:'
p3234
ssS'call'
p3235
S"(code='# -*- coding: utf-8 -*-\\n# this file is released ...():\\n     \\n\\nresponse._vars=response._caller(exam)\\n', environment={'A': <class 'gluon.html.A'>, 'Auth': <class 'gluon.tools.Auth'>, 'B': <class 'gluon.html.B'>, 'BEAUTIFY': <class 'gluon.html.BEAUTIFY'>, 'BODY': <class 'gluon.html.BODY'>, 'BR': <class 'gluon.html.BR'>, 'BUTTON': <class 'gluon.html.BUTTON'>, 'CAT': <class 'gluon.html.CAT'>, 'CENTER': <class 'gluon.html.CENTER'>, 'CLEANUP': <class 'gluon.validators.CLEANUP'>, ...}, layer='/home/saurabh/web2py/applications/ggg/controllers/default.py')"
p3236
sS'func'
p3237
S'restricted'
p3238
sa(dp3239
g3210
S'/home/saurabh/web2py/gluon/restricted.py'
p3240
sg3212
(dp3241
S'builtincompile'
p3242
S'<built-in function compile>'
p3243
sS'code'
p3244
S"'# -*- coding: utf-8 -*-\\n# this file is released ...():\\n     \\n\\nresponse._vars=response._caller(exam)\\n'"
p3245
sS'code.rstrip'
p3246
S'<built-in method rstrip of str object>'
p3247
sS').replace'
p3248
g3221
sS'layer'
p3249
S"'/home/saurabh/web2py/applications/ggg/controllers/default.py'"
p3250
ssg3222
I194
sg3223
(dp3251
I192
S"    The +'\\n' is necessary else compile fails when code ends in a comment."
p3252
sI193
S'    """'
p3253
sI194
S"    return compile(code.rstrip().replace('\\r\\n', '\\n') + '\\n', layer, 'exec')"
p3254
sI195
S''
sI196
S''
sI197
S"def restricted(code, environment=None, layer='Unknown'):"
p3255
sI198
S'    """'
p3256
sI189
S''
sI190
S'def compile2(code, layer):'
p3257
sI191
S'    """'
p3258
ssg3235
S"(code='# -*- coding: utf-8 -*-\\n# this file is released ...():\\n     \\n\\nresponse._vars=response._caller(exam)\\n', layer='/home/saurabh/web2py/applications/ggg/controllers/default.py')"
p3259
sg3237
S'compile2'
p3260
sasS'pyver'
p3261
S'Python 2.7.3: /usr/bin/python'
p3262
sS'session'
p3263
g68
(g69
g70
NtRp3264
(dp3265
g73
(dp3266
sg75
(lp3267
g68
(g77
g70
NtRp3268
(dp3269
g73
(dp3270
g81
I5
ssg82
Nsg75
(lp3271
g68
(g84
g70
NtRp3272
(dp3273
g73
(dp3274
sg82
g3268
sg75
(lp3275
g68
(g89
g70
NtRp3276
(dp3277
g73
(dp3278
g93
g94
ssg82
g3272
sg75
(lp3279
S'auth'
p3280
asbag68
(g89
g70
NtRp3281
(dp3282
g73
(dp3283
g100
g101
ssg82
g3272
sg75
(lp3284
S':'
asbag68
(g89
g70
NtRp3285
(dp3286
g73
(dp3287
sg82
g3272
sg75
(lp3288
g68
(g69
g70
NtRp3289
(dp3290
g73
(dp3291
g81
I5
ssg82
g3285
sg75
(lp3292
g68
(g77
g70
NtRp3293
(dp3294
g73
(dp3295
g81
I4
ssg82
Nsg75
(lp3296
g68
(g84
g70
NtRp3297
(dp3298
g73
(dp3299
sg82
g3293
sg75
(lp3300
g68
(g89
g70
NtRp3301
(dp3302
g73
(dp3303
g93
g94
ssg82
g3297
sg75
(lp3304
S'expiration'
p3305
asbag68
(g89
g70
NtRp3306
(dp3307
g73
(dp3308
g100
g101
ssg82
g3297
sg75
(lp3309
S':'
asbag68
(g89
g70
NtRp3310
(dp3311
g73
(dp3312
sg82
g3297
sg75
(lp3313
g68
(g69
g70
NtRp3314
(dp3315
g73
(dp3316
g81
I4
ssg82
g3310
sg75
(lp3317
S'3600'
p3318
asbasbasbag68
(g84
g70
NtRp3319
(dp3320
g73
(dp3321
sg82
g3293
sg75
(lp3322
g68
(g89
g70
NtRp3323
(dp3324
g73
(dp3325
g93
g94
ssg82
g3319
sg75
(lp3326
S'hmac_key'
p3327
asbag68
(g89
g70
NtRp3328
(dp3329
g73
(dp3330
g100
g101
ssg82
g3319
sg75
(lp3331
S':'
asbag68
(g89
g70
NtRp3332
(dp3333
g73
(dp3334
sg82
g3319
sg75
(lp3335
g68
(g69
g70
NtRp3336
(dp3337
g73
(dp3338
g81
I4
ssg82
g3332
sg75
(lp3339
S'24afe7bd-45ca-4b09-83f8-54a39c2aa760'
p3340
asbasbasbag68
(g84
g70
NtRp3341
(dp3342
g73
(dp3343
sg82
g3293
sg75
(lp3344
g68
(g89
g70
NtRp3345
(dp3346
g73
(dp3347
g93
g94
ssg82
g3341
sg75
(lp3348
S'last_visit'
p3349
asbag68
(g89
g70
NtRp3350
(dp3351
g73
(dp3352
g100
g101
ssg82
g3341
sg75
(lp3353
S':'
asbag68
(g89
g70
NtRp3354
(dp3355
g73
(dp3356
sg82
g3341
sg75
(lp3357
g68
(g69
g70
NtRp3358
(dp3359
g73
(dp3360
g81
I4
ssg82
g3354
sg75
(lp3361
S'datetime.datetime(2013, 3, 17, 21, 54, 58, 905379)'
p3362
asbasbasbag68
(g84
g70
NtRp3363
(dp3364
g73
(dp3365
sg82
g3293
sg75
(lp3366
g68
(g89
g70
NtRp3367
(dp3368
g73
(dp3369
g93
g94
ssg82
g3363
sg75
(lp3370
S'remember'
p3371
asbag68
(g89
g70
NtRp3372
(dp3373
g73
(dp3374
g100
g101
ssg82
g3363
sg75
(lp3375
S':'
asbag68
(g89
g70
NtRp3376
(dp3377
g73
(dp3378
sg82
g3363
sg75
(lp3379
g68
(g69
g70
NtRp3380
(dp3381
g73
(dp3382
g81
I4
ssg82
g3376
sg75
(lp3383
g111
asbasbasbag68
(g84
g70
NtRp3384
(dp3385
g73
(dp3386
sg82
g3293
sg75
(lp3387
g68
(g89
g70
NtRp3388
(dp3389
g73
(dp3390
g93
g94
ssg82
g3384
sg75
(lp3391
S'user'
p3392
asbag68
(g89
g70
NtRp3393
(dp3394
g73
(dp3395
g100
g101
ssg82
g3384
sg75
(lp3396
S':'
asbag68
(g89
g70
NtRp3397
(dp3398
g73
(dp3399
sg82
g3384
sg75
(lp3400
g68
(g69
g70
NtRp3401
(dp3402
g73
(dp3403
g81
I4
ssg82
g3397
sg75
(lp3404
g68
(g77
g70
NtRp3405
(dp3406
g73
(dp3407
g81
I3
ssg82
Nsg75
(lp3408
g68
(g84
g70
NtRp3409
(dp3410
g73
(dp3411
sg82
g3405
sg75
(lp3412
g68
(g89
g70
NtRp3413
(dp3414
g73
(dp3415
g93
g94
ssg82
g3409
sg75
(lp3416
S'email'
p3417
asbag68
(g89
g70
NtRp3418
(dp3419
g73
(dp3420
g100
g101
ssg82
g3409
sg75
(lp3421
S':'
asbag68
(g89
g70
NtRp3422
(dp3423
g73
(dp3424
sg82
g3409
sg75
(lp3425
g68
(g69
g70
NtRp3426
(dp3427
g73
(dp3428
g81
I3
ssg82
g3422
sg75
(lp3429
S'kk@kk.com'
p3430
asbasbasbag68
(g84
g70
NtRp3431
(dp3432
g73
(dp3433
sg82
g3405
sg75
(lp3434
g68
(g89
g70
NtRp3435
(dp3436
g73
(dp3437
g93
g94
ssg82
g3431
sg75
(lp3438
S'first_name'
p3439
asbag68
(g89
g70
NtRp3440
(dp3441
g73
(dp3442
g100
g101
ssg82
g3431
sg75
(lp3443
S':'
asbag68
(g89
g70
NtRp3444
(dp3445
g73
(dp3446
sg82
g3431
sg75
(lp3447
g68
(g69
g70
NtRp3448
(dp3449
g73
(dp3450
g81
I3
ssg82
g3444
sg75
(lp3451
S'kishore'
p3452
asbasbasbag68
(g84
g70
NtRp3453
(dp3454
g73
(dp3455
sg82
g3405
sg75
(lp3456
g68
(g89
g70
NtRp3457
(dp3458
g73
(dp3459
g93
g94
ssg82
g3453
sg75
(lp3460
S'id'
p3461
asbag68
(g89
g70
NtRp3462
(dp3463
g73
(dp3464
g100
g101
ssg82
g3453
sg75
(lp3465
S':'
asbag68
(g89
g70
NtRp3466
(dp3467
g73
(dp3468
sg82
g3453
sg75
(lp3469
g68
(g69
g70
NtRp3470
(dp3471
g73
(dp3472
g81
I3
ssg82
g3466
sg75
(lp3473
S'3'
asbasbasbag68
(g84
g70
NtRp3474
(dp3475
g73
(dp3476
sg82
g3405
sg75
(lp3477
g68
(g89
g70
NtRp3478
(dp3479
g73
(dp3480
g93
g94
ssg82
g3474
sg75
(lp3481
S'last_name'
p3482
asbag68
(g89
g70
NtRp3483
(dp3484
g73
(dp3485
g100
g101
ssg82
g3474
sg75
(lp3486
S':'
asbag68
(g89
g70
NtRp3487
(dp3488
g73
(dp3489
sg82
g3474
sg75
(lp3490
g68
(g69
g70
NtRp3491
(dp3492
g73
(dp3493
g81
I3
ssg82
g3487
sg75
(lp3494
S'kothapalli'
p3495
asbasbasbag68
(g84
g70
NtRp3496
(dp3497
g73
(dp3498
sg82
g3405
sg75
(lp3499
g68
(g89
g70
NtRp3500
(dp3501
g73
(dp3502
g93
g94
ssg82
g3496
sg75
(lp3503
S'registration_id'
p3504
asbag68
(g89
g70
NtRp3505
(dp3506
g73
(dp3507
g100
g101
ssg82
g3496
sg75
(lp3508
S':'
asbag68
(g89
g70
NtRp3509
(dp3510
g73
(dp3511
sg82
g3496
sg75
(lp3512
g68
(g69
g70
NtRp3513
(dp3514
g73
(dp3515
g81
I3
ssg82
g3509
sg75
(lp3516
S''
asbasbasbag68
(g84
g70
NtRp3517
(dp3518
g73
(dp3519
sg82
g3405
sg75
(lp3520
g68
(g89
g70
NtRp3521
(dp3522
g73
(dp3523
g93
g94
ssg82
g3517
sg75
(lp3524
S'registration_key'
p3525
asbag68
(g89
g70
NtRp3526
(dp3527
g73
(dp3528
g100
g101
ssg82
g3517
sg75
(lp3529
S':'
asbag68
(g89
g70
NtRp3530
(dp3531
g73
(dp3532
sg82
g3517
sg75
(lp3533
g68
(g69
g70
NtRp3534
(dp3535
g73
(dp3536
g81
I3
ssg82
g3530
sg75
(lp3537
S''
asbasbasbag68
(g84
g70
NtRp3538
(dp3539
g73
(dp3540
sg82
g3405
sg75
(lp3541
g68
(g89
g70
NtRp3542
(dp3543
g73
(dp3544
g93
g94
ssg82
g3538
sg75
(lp3545
S'reset_password_key'
p3546
asbag68
(g89
g70
NtRp3547
(dp3548
g73
(dp3549
g100
g101
ssg82
g3538
sg75
(lp3550
S':'
asbag68
(g89
g70
NtRp3551
(dp3552
g73
(dp3553
sg82
g3538
sg75
(lp3554
g68
(g69
g70
NtRp3555
(dp3556
g73
(dp3557
g81
I3
ssg82
g3551
sg75
(lp3558
S''
asbasbasbasbasbasbasbag68
(g84
g70
NtRp3559
(dp3560
g73
(dp3561
sg82
g3293
sg75
(lp3562
g68
(g89
g70
NtRp3563
(dp3564
g73
(dp3565
g93
g94
ssg82
g3559
sg75
(lp3566
S'user_groups'
p3567
asbag68
(g89
g70
NtRp3568
(dp3569
g73
(dp3570
g100
g101
ssg82
g3559
sg75
(lp3571
S':'
asbag68
(g89
g70
NtRp3572
(dp3573
g73
(dp3574
sg82
g3559
sg75
(lp3575
g68
(g69
g70
NtRp3576
(dp3577
g73
(dp3578
g81
I4
ssg82
g3572
sg75
(lp3579
g68
(g77
g70
NtRp3580
(dp3581
g73
(dp3582
g81
I3
ssg82
Nsg75
(lp3583
g68
(g84
g70
NtRp3584
(dp3585
g73
(dp3586
sg82
g3580
sg75
(lp3587
g68
(g89
g70
NtRp3588
(dp3589
g73
(dp3590
g93
g94
ssg82
g3584
sg75
(lp3591
S'4'
asbag68
(g89
g70
NtRp3592
(dp3593
g73
(dp3594
g100
g101
ssg82
g3584
sg75
(lp3595
S':'
asbag68
(g89
g70
NtRp3596
(dp3597
g73
(dp3598
sg82
g3584
sg75
(lp3599
g68
(g69
g70
NtRp3600
(dp3601
g73
(dp3602
g81
I3
ssg82
g3596
sg75
(lp3603
S'IIIT_FACULTY_DEPARTMENT'
p3604
asbasbasbasbasbasbasbasbasbasbasbag68
(g84
g70
NtRp3605
(dp3606
g73
(dp3607
sg82
g3268
sg75
(lp3608
g68
(g89
g70
NtRp3609
(dp3610
g73
(dp3611
g93
g94
ssg82
g3605
sg75
(lp3612
S'flash'
p3613
asbag68
(g89
g70
NtRp3614
(dp3615
g73
(dp3616
g100
g101
ssg82
g3605
sg75
(lp3617
S':'
asbag68
(g89
g70
NtRp3618
(dp3619
g73
(dp3620
sg82
g3605
sg75
(lp3621
g68
(g69
g70
NtRp3622
(dp3623
g73
(dp3624
g81
I5
ssg82
g3618
sg75
(lp3625
S'None'
p3626
asbasbasbag68
(g84
g70
NtRp3627
(dp3628
g73
(dp3629
sg82
g3268
sg75
(lp3630
g68
(g89
g70
NtRp3631
(dp3632
g73
(dp3633
g93
g94
ssg82
g3627
sg75
(lp3634
S'last_orderby'
p3635
asbag68
(g89
g70
NtRp3636
(dp3637
g73
(dp3638
g100
g101
ssg82
g3627
sg75
(lp3639
S':'
asbag68
(g89
g70
NtRp3640
(dp3641
g73
(dp3642
sg82
g3627
sg75
(lp3643
g68
(g69
g70
NtRp3644
(dp3645
g73
(dp3646
g81
I5
ssg82
g3640
sg75
(lp3647
S'None'
p3648
asbasbasbag68
(g84
g70
NtRp3649
(dp3650
g73
(dp3651
sg82
g3268
sg75
(lp3652
g68
(g89
g70
NtRp3653
(dp3654
g73
(dp3655
g93
g94
ssg82
g3649
sg75
(lp3656
S'last_query'
p3657
asbag68
(g89
g70
NtRp3658
(dp3659
g73
(dp3660
g100
g101
ssg82
g3649
sg75
(lp3661
S':'
asbag68
(g89
g70
NtRp3662
(dp3663
g73
(dp3664
sg82
g3649
sg75
(lp3665
g68
(g69
g70
NtRp3666
(dp3667
g73
(dp3668
g81
I5
ssg82
g3662
sg75
(lp3669
S'db.questions.id>0'
p3670
asbasbasbasbasbsS'etype'
p3671
S"<type 'exceptions.IndentationError'>"
p3672
sS'date'
p3673
S'Sun Mar 17 21:54:58 2013'
p3674
sS'response'
p3675
g68
(g69
g70
NtRp3676
(dp3677
g73
(dp3678
sg75
(lp3679
g68
(g77
g70
NtRp3680
(dp3681
g73
(dp3682
g81
I5
ssg82
Nsg75
(lp3683
g68
(g84
g70
NtRp3684
(dp3685
g73
(dp3686
sg82
g3680
sg75
(lp3687
g68
(g89
g70
NtRp3688
(dp3689
g73
(dp3690
g93
g94
ssg82
g3684
sg75
(lp3691
g166
asbag68
(g89
g70
NtRp3692
(dp3693
g73
(dp3694
g100
g101
ssg82
g3684
sg75
(lp3695
S':'
asbag68
(g89
g70
NtRp3696
(dp3697
g73
(dp3698
sg82
g3684
sg75
(lp3699
g68
(g69
g70
NtRp3700
(dp3701
g73
(dp3702
g81
I5
ssg82
g3696
sg75
(lp3703
S'<cStringIO.StringO object at 0x7fdcfc4b5ab0>'
p3704
asbasbasbag68
(g84
g70
NtRp3705
(dp3706
g73
(dp3707
sg82
g3680
sg75
(lp3708
g68
(g89
g70
NtRp3709
(dp3710
g73
(dp3711
g93
g94
ssg82
g3705
sg75
(lp3712
g254
asbag68
(g89
g70
NtRp3713
(dp3714
g73
(dp3715
g100
g101
ssg82
g3705
sg75
(lp3716
S':'
asbag68
(g89
g70
NtRp3717
(dp3718
g73
(dp3719
sg82
g3705
sg75
(lp3720
g68
(g69
g70
NtRp3721
(dp3722
g73
(dp3723
g81
I5
ssg82
g3717
sg75
(lp3724
g68
(g77
g70
NtRp3725
(dp3726
g73
(dp3727
g81
I4
ssg82
Nsg75
(lp3728
g68
(g84
g70
NtRp3729
(dp3730
g73
(dp3731
sg82
g3725
sg75
(lp3732
g68
(g89
g70
NtRp3733
(dp3734
g73
(dp3735
g93
g94
ssg82
g3729
sg75
(lp3736
S'session_id_ggg'
p3737
asbag68
(g89
g70
NtRp3738
(dp3739
g73
(dp3740
g100
g101
ssg82
g3729
sg75
(lp3741
S':'
asbag68
(g89
g70
NtRp3742
(dp3743
g73
(dp3744
sg82
g3729
sg75
(lp3745
g68
(g69
g70
NtRp3746
(dp3747
g73
(dp3748
g81
I4
ssg82
g3742
sg75
(lp3749
g486
ag68
(g77
g70
NtRp3750
(dp3751
g73
(dp3752
g81
I3
ssg82
Nsg75
(lp3753
g68
(g84
g70
NtRp3754
(dp3755
g73
(dp3756
sg82
g3750
sg75
(lp3757
g68
(g89
g70
NtRp3758
(dp3759
g73
(dp3760
g93
g94
ssg82
g3754
sg75
(lp3761
g305
asbag68
(g89
g70
NtRp3762
(dp3763
g73
(dp3764
g100
g101
ssg82
g3754
sg75
(lp3765
S':'
asbag68
(g89
g70
NtRp3766
(dp3767
g73
(dp3768
sg82
g3754
sg75
(lp3769
g68
(g69
g70
NtRp3770
(dp3771
g73
(dp3772
g81
I3
ssg82
g3766
sg75
(lp3773
S''
asbasbasbag68
(g84
g70
NtRp3774
(dp3775
g73
(dp3776
sg82
g3750
sg75
(lp3777
g68
(g89
g70
NtRp3778
(dp3779
g73
(dp3780
g93
g94
ssg82
g3774
sg75
(lp3781
g326
asbag68
(g89
g70
NtRp3782
(dp3783
g73
(dp3784
g100
g101
ssg82
g3774
sg75
(lp3785
S':'
asbag68
(g89
g70
NtRp3786
(dp3787
g73
(dp3788
sg82
g3774
sg75
(lp3789
g68
(g69
g70
NtRp3790
(dp3791
g73
(dp3792
g81
I3
ssg82
g3786
sg75
(lp3793
S''
asbasbasbag68
(g84
g70
NtRp3794
(dp3795
g73
(dp3796
sg82
g3750
sg75
(lp3797
g68
(g89
g70
NtRp3798
(dp3799
g73
(dp3800
g93
g94
ssg82
g3794
sg75
(lp3801
g347
asbag68
(g89
g70
NtRp3802
(dp3803
g73
(dp3804
g100
g101
ssg82
g3794
sg75
(lp3805
S':'
asbag68
(g89
g70
NtRp3806
(dp3807
g73
(dp3808
sg82
g3794
sg75
(lp3809
g68
(g69
g70
NtRp3810
(dp3811
g73
(dp3812
g81
I3
ssg82
g3806
sg75
(lp3813
S''
asbasbasbag68
(g84
g70
NtRp3814
(dp3815
g73
(dp3816
sg82
g3750
sg75
(lp3817
g68
(g89
g70
NtRp3818
(dp3819
g73
(dp3820
g93
g94
ssg82
g3814
sg75
(lp3821
g368
asbag68
(g89
g70
NtRp3822
(dp3823
g73
(dp3824
g100
g101
ssg82
g3814
sg75
(lp3825
S':'
asbag68
(g89
g70
NtRp3826
(dp3827
g73
(dp3828
sg82
g3814
sg75
(lp3829
g68
(g69
g70
NtRp3830
(dp3831
g73
(dp3832
g81
I3
ssg82
g3826
sg75
(lp3833
S''
asbasbasbag68
(g84
g70
NtRp3834
(dp3835
g73
(dp3836
sg82
g3750
sg75
(lp3837
g68
(g89
g70
NtRp3838
(dp3839
g73
(dp3840
g93
g94
ssg82
g3834
sg75
(lp3841
g389
asbag68
(g89
g70
NtRp3842
(dp3843
g73
(dp3844
g100
g101
ssg82
g3834
sg75
(lp3845
S':'
asbag68
(g89
g70
NtRp3846
(dp3847
g73
(dp3848
sg82
g3834
sg75
(lp3849
g68
(g69
g70
NtRp3850
(dp3851
g73
(dp3852
g81
I3
ssg82
g3846
sg75
(lp3853
S''
asbasbasbag68
(g84
g70
NtRp3854
(dp3855
g73
(dp3856
sg82
g3750
sg75
(lp3857
g68
(g89
g70
NtRp3858
(dp3859
g73
(dp3860
g93
g94
ssg82
g3854
sg75
(lp3861
g410
asbag68
(g89
g70
NtRp3862
(dp3863
g73
(dp3864
g100
g101
ssg82
g3854
sg75
(lp3865
S':'
asbag68
(g89
g70
NtRp3866
(dp3867
g73
(dp3868
sg82
g3854
sg75
(lp3869
g68
(g69
g70
NtRp3870
(dp3871
g73
(dp3872
g81
I3
ssg82
g3866
sg75
(lp3873
S'/'
asbasbasbag68
(g84
g70
NtRp3874
(dp3875
g73
(dp3876
sg82
g3750
sg75
(lp3877
g68
(g89
g70
NtRp3878
(dp3879
g73
(dp3880
g93
g94
ssg82
g3874
sg75
(lp3881
g431
asbag68
(g89
g70
NtRp3882
(dp3883
g73
(dp3884
g100
g101
ssg82
g3874
sg75
(lp3885
S':'
asbag68
(g89
g70
NtRp3886
(dp3887
g73
(dp3888
sg82
g3874
sg75
(lp3889
g68
(g69
g70
NtRp3890
(dp3891
g73
(dp3892
g81
I3
ssg82
g3886
sg75
(lp3893
S''
asbasbasbag68
(g84
g70
NtRp3894
(dp3895
g73
(dp3896
sg82
g3750
sg75
(lp3897
g68
(g89
g70
NtRp3898
(dp3899
g73
(dp3900
g93
g94
ssg82
g3894
sg75
(lp3901
g452
asbag68
(g89
g70
NtRp3902
(dp3903
g73
(dp3904
g100
g101
ssg82
g3894
sg75
(lp3905
S':'
asbag68
(g89
g70
NtRp3906
(dp3907
g73
(dp3908
sg82
g3894
sg75
(lp3909
g68
(g69
g70
NtRp3910
(dp3911
g73
(dp3912
g81
I3
ssg82
g3906
sg75
(lp3913
S''
asbasbasbasbasbasbasbasbasbasbasbag68
(g84
g70
NtRp3914
(dp3915
g73
(dp3916
sg82
g3680
sg75
(lp3917
g68
(g89
g70
NtRp3918
(dp3919
g73
(dp3920
g93
g94
ssg82
g3914
sg75
(lp3921
S'delimiters'
p3922
asbag68
(g89
g70
NtRp3923
(dp3924
g73
(dp3925
g100
g101
ssg82
g3914
sg75
(lp3926
S':'
asbag68
(g89
g70
NtRp3927
(dp3928
g73
(dp3929
sg82
g3914
sg75
(lp3930
g68
(g69
g70
NtRp3931
(dp3932
g73
(dp3933
g81
I5
ssg82
g3927
sg75
(lp3934
g68
(g77
g70
NtRp3935
(dp3936
g73
(dp3937
g81
I4
ssg82
Nsg75
(lp3938
g68
(g84
g70
NtRp3939
(dp3940
g73
(dp3941
sg82
g3935
sg75
(lp3942
g68
(g89
g70
NtRp3943
(dp3944
g73
(dp3945
sg82
g3939
sg75
(lp3946
g68
(g69
g70
NtRp3947
(dp3948
g73
(dp3949
g81
I4
ssg82
g3943
sg75
(lp3950
S'{{'
p3951
asbasbasbag68
(g84
g70
NtRp3952
(dp3953
g73
(dp3954
sg82
g3935
sg75
(lp3955
g68
(g89
g70
NtRp3956
(dp3957
g73
(dp3958
sg82
g3952
sg75
(lp3959
g68
(g69
g70
NtRp3960
(dp3961
g73
(dp3962
g81
I4
ssg82
g3956
sg75
(lp3963
S'}}'
p3964
asbasbasbasbasbasbasbag68
(g84
g70
NtRp3965
(dp3966
g73
(dp3967
sg82
g3680
sg75
(lp3968
g68
(g89
g70
NtRp3969
(dp3970
g73
(dp3971
g93
g94
ssg82
g3965
sg75
(lp3972
S'files'
p3973
asbag68
(g89
g70
NtRp3974
(dp3975
g73
(dp3976
g100
g101
ssg82
g3965
sg75
(lp3977
S':'
asbag68
(g89
g70
NtRp3978
(dp3979
g73
(dp3980
sg82
g3965
sg75
(lp3981
g68
(g69
g70
NtRp3982
(dp3983
g73
(dp3984
g81
I5
ssg82
g3978
sg75
(lp3985
g68
(g77
g70
NtRp3986
(dp3987
g73
(dp3988
g81
I4
ssg82
Nsg75
(lp3989
sbasbasbasbag68
(g84
g70
NtRp3990
(dp3991
g73
(dp3992
sg82
g3680
sg75
(lp3993
g68
(g89
g70
NtRp3994
(dp3995
g73
(dp3996
g93
g94
ssg82
g3990
sg75
(lp3997
S'flash'
p3998
asbag68
(g89
g70
NtRp3999
(dp4000
g73
(dp4001
g100
g101
ssg82
g3990
sg75
(lp4002
S':'
asbag68
(g89
g70
NtRp4003
(dp4004
g73
(dp4005
sg82
g3990
sg75
(lp4006
g68
(g69
g70
NtRp4007
(dp4008
g73
(dp4009
g81
I5
ssg82
g4003
sg75
(lp4010
S''
asbasbasbag68
(g84
g70
NtRp4011
(dp4012
g73
(dp4013
sg82
g3680
sg75
(lp4014
g68
(g89
g70
NtRp4015
(dp4016
g73
(dp4017
g93
g94
ssg82
g4011
sg75
(lp4018
S'generic_patterns'
p4019
asbag68
(g89
g70
NtRp4020
(dp4021
g73
(dp4022
g100
g101
ssg82
g4011
sg75
(lp4023
S':'
asbag68
(g89
g70
NtRp4024
(dp4025
g73
(dp4026
sg82
g4011
sg75
(lp4027
g68
(g69
g70
NtRp4028
(dp4029
g73
(dp4030
g81
I5
ssg82
g4024
sg75
(lp4031
g68
(g77
g70
NtRp4032
(dp4033
g73
(dp4034
g81
I4
ssg82
Nsg75
(lp4035
g68
(g84
g70
NtRp4036
(dp4037
g73
(dp4038
sg82
g4032
sg75
(lp4039
g68
(g89
g70
NtRp4040
(dp4041
g73
(dp4042
sg82
g4036
sg75
(lp4043
g68
(g69
g70
NtRp4044
(dp4045
g73
(dp4046
g81
I4
ssg82
g4040
sg75
(lp4047
S'*'
asbasbasbasbasbasbasbag68
(g84
g70
NtRp4048
(dp4049
g73
(dp4050
sg82
g3680
sg75
(lp4051
g68
(g89
g70
NtRp4052
(dp4053
g73
(dp4054
g93
g94
ssg82
g4048
sg75
(lp4055
S'google_analytics_id'
p4056
asbag68
(g89
g70
NtRp4057
(dp4058
g73
(dp4059
g100
g101
ssg82
g4048
sg75
(lp4060
S':'
asbag68
(g89
g70
NtRp4061
(dp4062
g73
(dp4063
sg82
g4048
sg75
(lp4064
g68
(g69
g70
NtRp4065
(dp4066
g73
(dp4067
g81
I5
ssg82
g4061
sg75
(lp4068
S'None'
p4069
asbasbasbag68
(g84
g70
NtRp4070
(dp4071
g73
(dp4072
sg82
g3680
sg75
(lp4073
g68
(g89
g70
NtRp4074
(dp4075
g73
(dp4076
g93
g94
ssg82
g4070
sg75
(lp4077
S'headers'
p4078
asbag68
(g89
g70
NtRp4079
(dp4080
g73
(dp4081
g100
g101
ssg82
g4070
sg75
(lp4082
S':'
asbag68
(g89
g70
NtRp4083
(dp4084
g73
(dp4085
sg82
g4070
sg75
(lp4086
g68
(g69
g70
NtRp4087
(dp4088
g73
(dp4089
g81
I5
ssg82
g4083
sg75
(lp4090
g68
(g77
g70
NtRp4091
(dp4092
g73
(dp4093
g81
I4
ssg82
Nsg75
(lp4094
g68
(g84
g70
NtRp4095
(dp4096
g73
(dp4097
sg82
g4091
sg75
(lp4098
g68
(g89
g70
NtRp4099
(dp4100
g73
(dp4101
g93
g94
ssg82
g4095
sg75
(lp4102
S'X-Powered-By'
p4103
asbag68
(g89
g70
NtRp4104
(dp4105
g73
(dp4106
g100
g101
ssg82
g4095
sg75
(lp4107
S':'
asbag68
(g89
g70
NtRp4108
(dp4109
g73
(dp4110
sg82
g4095
sg75
(lp4111
g68
(g69
g70
NtRp4112
(dp4113
g73
(dp4114
g81
I4
ssg82
g4108
sg75
(lp4115
S'web2py'
p4116
asbasbasbasbasbasbasbag68
(g84
g70
NtRp4117
(dp4118
g73
(dp4119
sg82
g3680
sg75
(lp4120
g68
(g89
g70
NtRp4121
(dp4122
g73
(dp4123
g93
g94
ssg82
g4117
sg75
(lp4124
S'logo'
p4125
asbag68
(g89
g70
NtRp4126
(dp4127
g73
(dp4128
g100
g101
ssg82
g4117
sg75
(lp4129
S':'
asbag68
(g89
g70
NtRp4130
(dp4131
g73
(dp4132
sg82
g4117
sg75
(lp4133
g68
(g69
g70
NtRp4134
(dp4135
g73
(dp4136
g81
I5
ssg82
g4130
sg75
(lp4137
g68
(cgluon.html
A
p4138
g70
NtRp4139
(dp4140
g73
(dp4141
S'_class'
p4142
S'brand'
p4143
sS'_href'
p4144
S'http://www.web2py.com/'
p4145
ssg82
Nsg75
(lp4146
g68
(cgluon.html
B
p4147
g70
NtRp4148
(dp4149
g73
(dp4150
sg82
g4139
sg75
(lp4151
S'web'
p4152
ag68
(cgluon.html
SPAN
p4153
g70
NtRp4154
(dp4155
g73
(dp4156
sg82
g4148
sg75
(lp4157
I2
asbaS'py'
p4158
asbacgluon.html
XML_unpickle
p4159
(S's\r\x00\x00\x00&trade;&nbsp;'
tRp4160
asbasbasbasbag68
(g84
g70
NtRp4161
(dp4162
g73
(dp4163
sg82
g3680
sg75
(lp4164
g68
(g89
g70
NtRp4165
(dp4166
g73
(dp4167
g93
g94
ssg82
g4161
sg75
(lp4168
S'menu'
p4169
asbag68
(g89
g70
NtRp4170
(dp4171
g73
(dp4172
g100
g101
ssg82
g4161
sg75
(lp4173
S':'
asbag68
(g89
g70
NtRp4174
(dp4175
g73
(dp4176
sg82
g4161
sg75
(lp4177
g68
(g69
g70
NtRp4178
(dp4179
g73
(dp4180
g81
I5
ssg82
g4174
sg75
(lp4181
g68
(g77
g70
NtRp4182
(dp4183
g73
(dp4184
g81
I4
ssg82
Nsg75
(lp4185
g68
(g84
g70
NtRp4186
(dp4187
g73
(dp4188
sg82
g4182
sg75
(lp4189
g68
(g89
g70
NtRp4190
(dp4191
g73
(dp4192
sg82
g4186
sg75
(lp4193
g68
(g69
g70
NtRp4194
(dp4195
g73
(dp4196
g81
I4
ssg82
g4190
sg75
(lp4197
g68
(g77
g70
NtRp4198
(dp4199
g73
(dp4200
g81
I3
ssg82
Nsg75
(lp4201
g68
(g84
g70
NtRp4202
(dp4203
g73
(dp4204
sg82
g4198
sg75
(lp4205
g68
(g89
g70
NtRp4206
(dp4207
g73
(dp4208
sg82
g4202
sg75
(lp4209
g68
(g69
g70
NtRp4210
(dp4211
g73
(dp4212
g81
I3
ssg82
g4206
sg75
(lp4213
cgluon.languages
lazyT_unpickle
p4214
(S's\x04\x00\x00\x00Home'
tRp4215
asbasbasbag68
(g84
g70
NtRp4216
(dp4217
g73
(dp4218
sg82
g4198
sg75
(lp4219
g68
(g89
g70
NtRp4220
(dp4221
g73
(dp4222
sg82
g4216
sg75
(lp4223
g68
(g69
g70
NtRp4224
(dp4225
g73
(dp4226
g81
I3
ssg82
g4220
sg75
(lp4227
g111
asbasbasbag68
(g84
g70
NtRp4228
(dp4229
g73
(dp4230
sg82
g4198
sg75
(lp4231
g68
(g89
g70
NtRp4232
(dp4233
g73
(dp4234
sg82
g4228
sg75
(lp4235
g68
(g69
g70
NtRp4236
(dp4237
g73
(dp4238
g81
I3
ssg82
g4232
sg75
(lp4239
S'/ggg/default/index'
p4240
asbasbasbag68
(g84
g70
NtRp4241
(dp4242
g73
(dp4243
sg82
g4198
sg75
(lp4244
g68
(g89
g70
NtRp4245
(dp4246
g73
(dp4247
sg82
g4241
sg75
(lp4248
g68
(g69
g70
NtRp4249
(dp4250
g73
(dp4251
g81
I3
ssg82
g4245
sg75
(lp4252
g68
(g77
g70
NtRp4253
(dp4254
g73
(dp4255
g81
I2
ssg82
Nsg75
(lp4256
sbasbasbasbasbasbasbasbag68
(g84
g70
NtRp4257
(dp4258
g73
(dp4259
sg82
g4182
sg75
(lp4260
g68
(g89
g70
NtRp4261
(dp4262
g73
(dp4263
sg82
g4257
sg75
(lp4264
g68
(g69
g70
NtRp4265
(dp4266
g73
(dp4267
g81
I4
ssg82
g4261
sg75
(lp4268
g68
(g77
g70
NtRp4269
(dp4270
g73
(dp4271
g81
I3
ssg82
Nsg75
(lp4272
g68
(g84
g70
NtRp4273
(dp4274
g73
(dp4275
sg82
g4269
sg75
(lp4276
g68
(g89
g70
NtRp4277
(dp4278
g73
(dp4279
sg82
g4273
sg75
(lp4280
g68
(g69
g70
NtRp4281
(dp4282
g73
(dp4283
g81
I3
ssg82
g4277
sg75
(lp4284
g68
(g4153
g70
NtRp4285
(dp4286
g73
(dp4287
g4142
S'highlighted'
p4288
ssg82
Nsg75
(lp4289
g4116
asbasbasbasbag68
(g84
g70
NtRp4290
(dp4291
g73
(dp4292
sg82
g4269
sg75
(lp4293
g68
(g89
g70
NtRp4294
(dp4295
g73
(dp4296
sg82
g4290
sg75
(lp4297
g68
(g69
g70
NtRp4298
(dp4299
g73
(dp4300
g81
I3
ssg82
g4294
sg75
(lp4301
g111
asbasbasbag68
(g84
g70
NtRp4302
(dp4303
g73
(dp4304
sg82
g4269
sg75
(lp4305
g68
(g89
g70
NtRp4306
(dp4307
g73
(dp4308
sg82
g4302
sg75
(lp4309
g68
(g69
g70
NtRp4310
(dp4311
g73
(dp4312
g81
I3
ssg82
g4306
sg75
(lp4313
S'http://web2py.com'
p4314
asbasbasbag68
(g84
g70
NtRp4315
(dp4316
g73
(dp4317
sg82
g4269
sg75
(lp4318
g68
(g89
g70
NtRp4319
(dp4320
g73
(dp4321
sg82
g4315
sg75
(lp4322
g68
(g69
g70
NtRp4323
(dp4324
g73
(dp4325
g81
I3
ssg82
g4319
sg75
(lp4326
g68
(g77
g70
NtRp4327
(dp4328
g73
(dp4329
g81
I2
ssg82
Nsg75
(lp4330
g68
(g84
g70
NtRp4331
(dp4332
g73
(dp4333
sg82
g4327
sg75
(lp4334
g68
(g89
g70
NtRp4335
(dp4336
g73
(dp4337
sg82
g4331
sg75
(lp4338
g68
(g69
g70
NtRp4339
(dp4340
g73
(dp4341
g81
I2
ssg82
g4335
sg75
(lp4342
g68
(g77
g70
NtRp4343
(dp4344
g73
(dp4345
g81
I1
ssg82
Nsg75
(lp4346
g68
(g84
g70
NtRp4347
(dp4348
g73
(dp4349
sg82
g4343
sg75
(lp4350
g68
(g89
g70
NtRp4351
(dp4352
g73
(dp4353
sg82
g4347
sg75
(lp4354
g68
(g69
g70
NtRp4355
(dp4356
g73
(dp4357
g81
I1
ssg82
g4351
sg75
(lp4358
g4214
(S's\x08\x00\x00\x00My Sites'
tRp4359
asbasbasbag68
(g84
g70
NtRp4360
(dp4361
g73
(dp4362
sg82
g4343
sg75
(lp4363
g68
(g89
g70
NtRp4364
(dp4365
g73
(dp4366
sg82
g4360
sg75
(lp4367
g68
(g69
g70
NtRp4368
(dp4369
g73
(dp4370
g81
I1
ssg82
g4364
sg75
(lp4371
I00
asbasbasbag68
(g84
g70
NtRp4372
(dp4373
g73
(dp4374
sg82
g4343
sg75
(lp4375
g68
(g89
g70
NtRp4376
(dp4377
g73
(dp4378
sg82
g4372
sg75
(lp4379
g68
(g69
g70
NtRp4380
(dp4381
g73
(dp4382
g81
I1
ssg82
g4376
sg75
(lp4383
S'/admin/default/site'
p4384
asbasbasbasbasbasbasbag68
(g84
g70
NtRp4385
(dp4386
g73
(dp4387
sg82
g4327
sg75
(lp4388
g68
(g89
g70
NtRp4389
(dp4390
g73
(dp4391
sg82
g4385
sg75
(lp4392
g68
(g69
g70
NtRp4393
(dp4394
g73
(dp4395
g81
I2
ssg82
g4389
sg75
(lp4396
g68
(g77
g70
NtRp4397
(dp4398
g73
(dp4399
g81
I1
ssg82
Nsg75
(lp4400
g68
(g84
g70
NtRp4401
(dp4402
g73
(dp4403
sg82
g4397
sg75
(lp4404
g68
(g89
g70
NtRp4405
(dp4406
g73
(dp4407
sg82
g4401
sg75
(lp4408
g68
(g69
g70
NtRp4409
(dp4410
g73
(dp4411
g81
I1
ssg82
g4405
sg75
(lp4412
g4214
(S's\x08\x00\x00\x00This App'
tRp4413
asbasbasbag68
(g84
g70
NtRp4414
(dp4415
g73
(dp4416
sg82
g4397
sg75
(lp4417
g68
(g89
g70
NtRp4418
(dp4419
g73
(dp4420
sg82
g4414
sg75
(lp4421
g68
(g69
g70
NtRp4422
(dp4423
g73
(dp4424
g81
I1
ssg82
g4418
sg75
(lp4425
I00
asbasbasbag68
(g84
g70
NtRp4426
(dp4427
g73
(dp4428
sg82
g4397
sg75
(lp4429
g68
(g89
g70
NtRp4430
(dp4431
g73
(dp4432
sg82
g4426
sg75
(lp4433
g68
(g69
g70
NtRp4434
(dp4435
g73
(dp4436
g81
I1
ssg82
g4430
sg75
(lp4437
S'/admin/default/design/ggg'
p4438
asbasbasbag68
(g84
g70
NtRp4439
(dp4440
g73
(dp4441
sg82
g4397
sg75
(lp4442
g68
(g89
g70
NtRp4443
(dp4444
g73
(dp4445
sg82
g4439
sg75
(lp4446
g68
(g69
g70
NtRp4447
(dp4448
g73
(dp4449
g81
I1
ssg82
g4443
sg75
(lp4450
(lp4451
(g4214
(S's\n\x00\x00\x00Controller'
tRp4452
I00
S'/admin/default/edit/ggg/controllers/default.py'
tp4453
a(g4214
(S's\x04\x00\x00\x00View'
tRp4454
I00
S'/admin/default/edit/ggg/views/default/exam.html'
tp4455
a(g4214
(S's\x06\x00\x00\x00Layout'
tRp4456
I00
S'/admin/default/edit/ggg/views/layout.html'
tp4457
a(g4214
(S's\n\x00\x00\x00Stylesheet'
tRp4458
I00
S'/admin/default/edit/ggg/static/css/web2py.css'
tp4459
a(g4214
(S's\x08\x00\x00\x00DB Model'
tRp4460
I00
S'/admin/default/edit/ggg/models/db.py'
tp4461
a(g4214
(S's\n\x00\x00\x00Menu Model'
tRp4462
I00
S'/admin/default/edit/ggg/models/menu.py'
tp4463
a(g4214
(S's\x08\x00\x00\x00Database'
tRp4464
I00
S'/ggg/appadmin/index'
tp4465
a(g4214
(S's\x06\x00\x00\x00Errors'
tRp4466
I00
S'/admin/default/errors/ggg'
tp4467
a(g4214
(S's\x05\x00\x00\x00About'
tRp4468
I00
S'/admin/default/about/ggg'
tp4469
aasbasbasbasbasbasbasbag68
(g84
g70
NtRp4470
(dp4471
g73
(dp4472
sg82
g4327
sg75
(lp4473
g68
(g89
g70
NtRp4474
(dp4475
g73
(dp4476
sg82
g4470
sg75
(lp4477
g68
(g69
g70
NtRp4478
(dp4479
g73
(dp4480
g81
I2
ssg82
g4474
sg75
(lp4481
g68
(g77
g70
NtRp4482
(dp4483
g73
(dp4484
g81
I1
ssg82
Nsg75
(lp4485
g68
(g84
g70
NtRp4486
(dp4487
g73
(dp4488
sg82
g4482
sg75
(lp4489
g68
(g89
g70
NtRp4490
(dp4491
g73
(dp4492
sg82
g4486
sg75
(lp4493
g68
(g69
g70
NtRp4494
(dp4495
g73
(dp4496
g81
I1
ssg82
g4490
sg75
(lp4497
S'web2py.com'
p4498
asbasbasbag68
(g84
g70
NtRp4499
(dp4500
g73
(dp4501
sg82
g4482
sg75
(lp4502
g68
(g89
g70
NtRp4503
(dp4504
g73
(dp4505
sg82
g4499
sg75
(lp4506
g68
(g69
g70
NtRp4507
(dp4508
g73
(dp4509
g81
I1
ssg82
g4503
sg75
(lp4510
I00
asbasbasbag68
(g84
g70
NtRp4511
(dp4512
g73
(dp4513
sg82
g4482
sg75
(lp4514
g68
(g89
g70
NtRp4515
(dp4516
g73
(dp4517
sg82
g4511
sg75
(lp4518
g68
(g69
g70
NtRp4519
(dp4520
g73
(dp4521
g81
I1
ssg82
g4515
sg75
(lp4522
S'http://www.web2py.com'
p4523
asbasbasbag68
(g84
g70
NtRp4524
(dp4525
g73
(dp4526
sg82
g4482
sg75
(lp4527
g68
(g89
g70
NtRp4528
(dp4529
g73
(dp4530
sg82
g4524
sg75
(lp4531
g68
(g69
g70
NtRp4532
(dp4533
g73
(dp4534
g81
I1
ssg82
g4528
sg75
(lp4535
(lp4536
(g4214
(S's\x08\x00\x00\x00Download'
tRp4537
I00
S'http://www.web2py.com/examples/default/download'
p4538
tp4539
a(g4214
(S's\x07\x00\x00\x00Support'
tRp4540
I00
S'http://www.web2py.com/examples/default/support'
p4541
tp4542
a(g4214
(S's\x04\x00\x00\x00Demo'
tRp4543
I00
S'http://web2py.com/demo_admin'
p4544
tp4545
a(g4214
(S's\x0e\x00\x00\x00Quick Examples'
tRp4546
I00
S'http://web2py.com/examples/default/examples'
p4547
tp4548
a(g4214
(S's\x03\x00\x00\x00FAQ'
tRp4549
I00
S'http://web2py.com/AlterEgo'
p4550
tp4551
a(g4214
(S's\x06\x00\x00\x00Videos'
tRp4552
I00
S'http://www.web2py.com/examples/default/videos/'
p4553
tp4554
a(g4214
(S's\x11\x00\x00\x00Free Applications'
tRp4555
I00
S'http://web2py.com/appliances'
p4556
tp4557
a(g4214
(S's\x07\x00\x00\x00Plugins'
tRp4558
I00
S'http://web2py.com/plugins'
p4559
tp4560
a(g4214
(S's\x07\x00\x00\x00Layouts'
tRp4561
I00
S'http://web2py.com/layouts'
p4562
tp4563
a(g4214
(S's\x07\x00\x00\x00Recipes'
tRp4564
I00
S'http://web2pyslices.com/'
p4565
tp4566
a(g4214
(S's\x08\x00\x00\x00Semantic'
tRp4567
I00
S'http://web2py.com/semantic'
p4568
tp4569
aasbasbasbasbasbasbasbag68
(g84
g70
NtRp4570
(dp4571
g73
(dp4572
sg82
g4327
sg75
(lp4573
g68
(g89
g70
NtRp4574
(dp4575
g73
(dp4576
sg82
g4570
sg75
(lp4577
g68
(g69
g70
NtRp4578
(dp4579
g73
(dp4580
g81
I2
ssg82
g4574
sg75
(lp4581
g68
(g77
g70
NtRp4582
(dp4583
g73
(dp4584
g81
I1
ssg82
Nsg75
(lp4585
g68
(g84
g70
NtRp4586
(dp4587
g73
(dp4588
sg82
g4582
sg75
(lp4589
g68
(g89
g70
NtRp4590
(dp4591
g73
(dp4592
sg82
g4586
sg75
(lp4593
g68
(g69
g70
NtRp4594
(dp4595
g73
(dp4596
g81
I1
ssg82
g4590
sg75
(lp4597
g4214
(S's\r\x00\x00\x00Documentation'
tRp4598
asbasbasbag68
(g84
g70
NtRp4599
(dp4600
g73
(dp4601
sg82
g4582
sg75
(lp4602
g68
(g89
g70
NtRp4603
(dp4604
g73
(dp4605
sg82
g4599
sg75
(lp4606
g68
(g69
g70
NtRp4607
(dp4608
g73
(dp4609
g81
I1
ssg82
g4603
sg75
(lp4610
I00
asbasbasbag68
(g84
g70
NtRp4611
(dp4612
g73
(dp4613
sg82
g4582
sg75
(lp4614
g68
(g89
g70
NtRp4615
(dp4616
g73
(dp4617
sg82
g4611
sg75
(lp4618
g68
(g69
g70
NtRp4619
(dp4620
g73
(dp4621
g81
I1
ssg82
g4615
sg75
(lp4622
S'http://www.web2py.com/book'
p4623
asbasbasbag68
(g84
g70
NtRp4624
(dp4625
g73
(dp4626
sg82
g4582
sg75
(lp4627
g68
(g89
g70
NtRp4628
(dp4629
g73
(dp4630
sg82
g4624
sg75
(lp4631
g68
(g69
g70
NtRp4632
(dp4633
g73
(dp4634
g81
I1
ssg82
g4628
sg75
(lp4635
(lp4636
(g4214
(S's\x07\x00\x00\x00Preface'
tRp4637
I00
S'http://www.web2py.com/book/default/chapter/00'
p4638
tp4639
a(g4214
(S's\x0c\x00\x00\x00Introduction'
tRp4640
I00
S'http://www.web2py.com/book/default/chapter/01'
p4641
tp4642
a(g4214
(S's\x06\x00\x00\x00Python'
tRp4643
I00
S'http://www.web2py.com/book/default/chapter/02'
p4644
tp4645
a(g4214
(S's\x08\x00\x00\x00Overview'
tRp4646
I00
S'http://www.web2py.com/book/default/chapter/03'
p4647
tp4648
a(g4214
(S's\x08\x00\x00\x00The Core'
tRp4649
I00
S'http://www.web2py.com/book/default/chapter/04'
p4650
tp4651
a(g4214
(S's\t\x00\x00\x00The Views'
tRp4652
I00
S'http://www.web2py.com/book/default/chapter/05'
p4653
tp4654
a(g4214
(S's\x08\x00\x00\x00Database'
tRp4655
I00
S'http://www.web2py.com/book/default/chapter/06'
p4656
tp4657
a(g4214
(S's\x14\x00\x00\x00Forms and Validators'
tRp4658
I00
S'http://www.web2py.com/book/default/chapter/07'
p4659
tp4660
a(g4214
(S's\r\x00\x00\x00Email and SMS'
tRp4661
I00
S'http://www.web2py.com/book/default/chapter/08'
p4662
tp4663
a(g4214
(S's\x0e\x00\x00\x00Access Control'
tRp4664
I00
S'http://www.web2py.com/book/default/chapter/09'
p4665
tp4666
a(g4214
(S's\x08\x00\x00\x00Services'
tRp4667
I00
S'http://www.web2py.com/book/default/chapter/10'
p4668
tp4669
a(g4214
(S's\x0c\x00\x00\x00Ajax Recipes'
tRp4670
I00
S'http://www.web2py.com/book/default/chapter/11'
p4671
tp4672
a(g4214
(S's\x16\x00\x00\x00Components and Plugins'
tRp4673
I00
S'http://www.web2py.com/book/default/chapter/12'
p4674
tp4675
a(g4214
(S's\x12\x00\x00\x00Deployment Recipes'
tRp4676
I00
S'http://www.web2py.com/book/default/chapter/13'
p4677
tp4678
a(g4214
(S's\r\x00\x00\x00Other Recipes'
tRp4679
I00
S'http://www.web2py.com/book/default/chapter/14'
p4680
tp4681
a(g4214
(S's\r\x00\x00\x00Buy this book'
tRp4682
I00
S'http://stores.lulu.com/web2py'
p4683
tp4684
aasbasbasbasbasbasbasbag68
(g84
g70
NtRp4685
(dp4686
g73
(dp4687
sg82
g4327
sg75
(lp4688
g68
(g89
g70
NtRp4689
(dp4690
g73
(dp4691
sg82
g4685
sg75
(lp4692
g68
(g69
g70
NtRp4693
(dp4694
g73
(dp4695
g81
I2
ssg82
g4689
sg75
(lp4696
g68
(g77
g70
NtRp4697
(dp4698
g73
(dp4699
g81
I1
ssg82
Nsg75
(lp4700
g68
(g84
g70
NtRp4701
(dp4702
g73
(dp4703
sg82
g4697
sg75
(lp4704
g68
(g89
g70
NtRp4705
(dp4706
g73
(dp4707
sg82
g4701
sg75
(lp4708
g68
(g69
g70
NtRp4709
(dp4710
g73
(dp4711
g81
I1
ssg82
g4705
sg75
(lp4712
g4214
(S's\t\x00\x00\x00Community'
tRp4713
asbasbasbag68
(g84
g70
NtRp4714
(dp4715
g73
(dp4716
sg82
g4697
sg75
(lp4717
g68
(g89
g70
NtRp4718
(dp4719
g73
(dp4720
sg82
g4714
sg75
(lp4721
g68
(g69
g70
NtRp4722
(dp4723
g73
(dp4724
g81
I1
ssg82
g4718
sg75
(lp4725
I00
asbasbasbag68
(g84
g70
NtRp4726
(dp4727
g73
(dp4728
sg82
g4697
sg75
(lp4729
g68
(g89
g70
NtRp4730
(dp4731
g73
(dp4732
sg82
g4726
sg75
(lp4733
g68
(g69
g70
NtRp4734
(dp4735
g73
(dp4736
g81
I1
ssg82
g4730
sg75
(lp4737
Nasbasbasbag68
(g84
g70
NtRp4738
(dp4739
g73
(dp4740
sg82
g4697
sg75
(lp4741
g68
(g89
g70
NtRp4742
(dp4743
g73
(dp4744
sg82
g4738
sg75
(lp4745
g68
(g69
g70
NtRp4746
(dp4747
g73
(dp4748
g81
I1
ssg82
g4742
sg75
(lp4749
(lp4750
(g4214
(S's\x06\x00\x00\x00Groups'
tRp4751
I00
S'http://www.web2py.com/examples/default/usergroups'
p4752
tp4753
a(g4214
(S's\x07\x00\x00\x00Twitter'
tRp4754
I00
S'http://twitter.com/web2py'
p4755
tp4756
a(g4214
(S's\t\x00\x00\x00Live Chat'
tRp4757
I00
S'http://webchat.freenode.net/?channels=web2py'
p4758
tp4759
aasbasbasbasbasbasbasbag68
(g84
g70
NtRp4760
(dp4761
g73
(dp4762
sg82
g4327
sg75
(lp4763
g68
(g89
g70
NtRp4764
(dp4765
g73
(dp4766
sg82
g4760
sg75
(lp4767
g68
(g69
g70
NtRp4768
(dp4769
g73
(dp4770
g81
I2
ssg82
g4764
sg75
(lp4771
g68
(g77
g70
NtRp4772
(dp4773
g73
(dp4774
g81
I1
ssg82
Nsg75
(lp4775
g68
(g84
g70
NtRp4776
(dp4777
g73
(dp4778
sg82
g4772
sg75
(lp4779
g68
(g89
g70
NtRp4780
(dp4781
g73
(dp4782
sg82
g4776
sg75
(lp4783
g68
(g69
g70
NtRp4784
(dp4785
g73
(dp4786
g81
I1
ssg82
g4780
sg75
(lp4787
g4214
(S's\x07\x00\x00\x00Plugins'
tRp4788
asbasbasbag68
(g84
g70
NtRp4789
(dp4790
g73
(dp4791
sg82
g4772
sg75
(lp4792
g68
(g89
g70
NtRp4793
(dp4794
g73
(dp4795
sg82
g4789
sg75
(lp4796
g68
(g69
g70
NtRp4797
(dp4798
g73
(dp4799
g81
I1
ssg82
g4793
sg75
(lp4800
I00
asbasbasbag68
(g84
g70
NtRp4801
(dp4802
g73
(dp4803
sg82
g4772
sg75
(lp4804
g68
(g89
g70
NtRp4805
(dp4806
g73
(dp4807
sg82
g4801
sg75
(lp4808
g68
(g69
g70
NtRp4809
(dp4810
g73
(dp4811
g81
I1
ssg82
g4805
sg75
(lp4812
Nasbasbasbag68
(g84
g70
NtRp4813
(dp4814
g73
(dp4815
sg82
g4772
sg75
(lp4816
g68
(g89
g70
NtRp4817
(dp4818
g73
(dp4819
sg82
g4813
sg75
(lp4820
g68
(g69
g70
NtRp4821
(dp4822
g73
(dp4823
g81
I1
ssg82
g4817
sg75
(lp4824
(lp4825
(S'plugin_wiki'
p4826
I00
S'http://web2py.com/examples/default/download'
p4827
tp4828
a(g4214
(S's\r\x00\x00\x00Other Plugins'
tRp4829
I00
g4559
tp4830
a(g4214
(S's\x0e\x00\x00\x00Layout Plugins'
tRp4831
I00
g4562
tp4832
aasbasbasbasbasbasbasbasbasbasbasbasbasbasbasbasbasbasbasbag68
(g84
g70
NtRp4833
(dp4834
g73
(dp4835
sg82
g3680
sg75
(lp4836
g68
(g89
g70
NtRp4837
(dp4838
g73
(dp4839
g93
g94
ssg82
g4833
sg75
(lp4840
S'meta'
p4841
asbag68
(g89
g70
NtRp4842
(dp4843
g73
(dp4844
g100
g101
ssg82
g4833
sg75
(lp4845
S':'
asbag68
(g89
g70
NtRp4846
(dp4847
g73
(dp4848
sg82
g4833
sg75
(lp4849
g68
(g69
g70
NtRp4850
(dp4851
g73
(dp4852
g81
I5
ssg82
g4846
sg75
(lp4853
g68
(g77
g70
NtRp4854
(dp4855
g73
(dp4856
g81
I4
ssg82
Nsg75
(lp4857
g68
(g84
g70
NtRp4858
(dp4859
g73
(dp4860
sg82
g4854
sg75
(lp4861
g68
(g89
g70
NtRp4862
(dp4863
g73
(dp4864
g93
g94
ssg82
g4858
sg75
(lp4865
S'author'
p4866
asbag68
(g89
g70
NtRp4867
(dp4868
g73
(dp4869
g100
g101
ssg82
g4858
sg75
(lp4870
S':'
asbag68
(g89
g70
NtRp4871
(dp4872
g73
(dp4873
sg82
g4858
sg75
(lp4874
g68
(g69
g70
NtRp4875
(dp4876
g73
(dp4877
g81
I4
ssg82
g4871
sg75
(lp4878
S'Your Name <you@example.com>'
p4879
asbasbasbag68
(g84
g70
NtRp4880
(dp4881
g73
(dp4882
sg82
g4854
sg75
(lp4883
g68
(g89
g70
NtRp4884
(dp4885
g73
(dp4886
g93
g94
ssg82
g4880
sg75
(lp4887
S'description'
p4888
asbag68
(g89
g70
NtRp4889
(dp4890
g73
(dp4891
g100
g101
ssg82
g4880
sg75
(lp4892
S':'
asbag68
(g89
g70
NtRp4893
(dp4894
g73
(dp4895
sg82
g4880
sg75
(lp4896
g68
(g69
g70
NtRp4897
(dp4898
g73
(dp4899
g81
I4
ssg82
g4893
sg75
(lp4900
S'a cool new app'
p4901
asbasbasbag68
(g84
g70
NtRp4902
(dp4903
g73
(dp4904
sg82
g4854
sg75
(lp4905
g68
(g89
g70
NtRp4906
(dp4907
g73
(dp4908
g93
g94
ssg82
g4902
sg75
(lp4909
S'generator'
p4910
asbag68
(g89
g70
NtRp4911
(dp4912
g73
(dp4913
g100
g101
ssg82
g4902
sg75
(lp4914
S':'
asbag68
(g89
g70
NtRp4915
(dp4916
g73
(dp4917
sg82
g4902
sg75
(lp4918
g68
(g69
g70
NtRp4919
(dp4920
g73
(dp4921
g81
I4
ssg82
g4915
sg75
(lp4922
S'Web2py Web Framework'
p4923
asbasbasbag68
(g84
g70
NtRp4924
(dp4925
g73
(dp4926
sg82
g4854
sg75
(lp4927
g68
(g89
g70
NtRp4928
(dp4929
g73
(dp4930
g93
g94
ssg82
g4924
sg75
(lp4931
S'keywords'
p4932
asbag68
(g89
g70
NtRp4933
(dp4934
g73
(dp4935
g100
g101
ssg82
g4924
sg75
(lp4936
S':'
asbag68
(g89
g70
NtRp4937
(dp4938
g73
(dp4939
sg82
g4924
sg75
(lp4940
g68
(g69
g70
NtRp4941
(dp4942
g73
(dp4943
g81
I4
ssg82
g4937
sg75
(lp4944
S'web2py, python, framework'
p4945
asbasbasbasbasbasbasbag68
(g84
g70
NtRp4946
(dp4947
g73
(dp4948
sg82
g3680
sg75
(lp4949
g68
(g89
g70
NtRp4950
(dp4951
g73
(dp4952
g93
g94
ssg82
g4946
sg75
(lp4953
S'models_to_run'
p4954
asbag68
(g89
g70
NtRp4955
(dp4956
g73
(dp4957
g100
g101
ssg82
g4946
sg75
(lp4958
S':'
asbag68
(g89
g70
NtRp4959
(dp4960
g73
(dp4961
sg82
g4946
sg75
(lp4962
g68
(g69
g70
NtRp4963
(dp4964
g73
(dp4965
g81
I5
ssg82
g4959
sg75
(lp4966
g68
(g77
g70
NtRp4967
(dp4968
g73
(dp4969
g81
I4
ssg82
Nsg75
(lp4970
g68
(g84
g70
NtRp4971
(dp4972
g73
(dp4973
sg82
g4967
sg75
(lp4974
g68
(g89
g70
NtRp4975
(dp4976
g73
(dp4977
sg82
g4971
sg75
(lp4978
g68
(g69
g70
NtRp4979
(dp4980
g73
(dp4981
g81
I4
ssg82
g4975
sg75
(lp4982
S'^\\w+\\.py$'
p4983
asbasbasbag68
(g84
g70
NtRp4984
(dp4985
g73
(dp4986
sg82
g4967
sg75
(lp4987
g68
(g89
g70
NtRp4988
(dp4989
g73
(dp4990
sg82
g4984
sg75
(lp4991
g68
(g69
g70
NtRp4992
(dp4993
g73
(dp4994
g81
I4
ssg82
g4988
sg75
(lp4995
S'^default/\\w+\\.py$'
p4996
asbasbasbag68
(g84
g70
NtRp4997
(dp4998
g73
(dp4999
sg82
g4967
sg75
(lp5000
g68
(g89
g70
NtRp5001
(dp5002
g73
(dp5003
sg82
g4997
sg75
(lp5004
g68
(g69
g70
NtRp5005
(dp5006
g73
(dp5007
g81
I4
ssg82
g5001
sg75
(lp5008
S'^default/exam/\\w+\\.py$'
p5009
asbasbasbasbasbasbasbag68
(g84
g70
NtRp5010
(dp5011
g73
(dp5012
sg82
g3680
sg75
(lp5013
g68
(g89
g70
NtRp5014
(dp5015
g73
(dp5016
g93
g94
ssg82
g5010
sg75
(lp5017
S'postprocessing'
p5018
asbag68
(g89
g70
NtRp5019
(dp5020
g73
(dp5021
g100
g101
ssg82
g5010
sg75
(lp5022
S':'
asbag68
(g89
g70
NtRp5023
(dp5024
g73
(dp5025
sg82
g5010
sg75
(lp5026
g68
(g69
g70
NtRp5027
(dp5028
g73
(dp5029
g81
I5
ssg82
g5023
sg75
(lp5030
g68
(g77
g70
NtRp5031
(dp5032
g73
(dp5033
g81
I4
ssg82
Nsg75
(lp5034
sbasbasbasbag68
(g84
g70
NtRp5035
(dp5036
g73
(dp5037
sg82
g3680
sg75
(lp5038
g68
(g89
g70
NtRp5039
(dp5040
g73
(dp5041
g93
g94
ssg82
g5035
sg75
(lp5042
S'session_cookie_expires'
p5043
asbag68
(g89
g70
NtRp5044
(dp5045
g73
(dp5046
g100
g101
ssg82
g5035
sg75
(lp5047
S':'
asbag68
(g89
g70
NtRp5048
(dp5049
g73
(dp5050
sg82
g5035
sg75
(lp5051
g68
(g69
g70
NtRp5052
(dp5053
g73
(dp5054
g81
I5
ssg82
g5048
sg75
(lp5055
S'None'
p5056
asbasbasbag68
(g84
g70
NtRp5057
(dp5058
g73
(dp5059
sg82
g3680
sg75
(lp5060
g68
(g89
g70
NtRp5061
(dp5062
g73
(dp5063
g93
g94
ssg82
g5057
sg75
(lp5064
S'session_data_name'
p5065
asbag68
(g89
g70
NtRp5066
(dp5067
g73
(dp5068
g100
g101
ssg82
g5057
sg75
(lp5069
S':'
asbag68
(g89
g70
NtRp5070
(dp5071
g73
(dp5072
sg82
g5057
sg75
(lp5073
g68
(g69
g70
NtRp5074
(dp5075
g73
(dp5076
g81
I5
ssg82
g5070
sg75
(lp5077
S'session_data_ggg'
p5078
asbasbasbag68
(g84
g70
NtRp5079
(dp5080
g73
(dp5081
sg82
g3680
sg75
(lp5082
g68
(g89
g70
NtRp5083
(dp5084
g73
(dp5085
g93
g94
ssg82
g5079
sg75
(lp5086
S'session_file'
p5087
asbag68
(g89
g70
NtRp5088
(dp5089
g73
(dp5090
g100
g101
ssg82
g5079
sg75
(lp5091
S':'
asbag68
(g89
g70
NtRp5092
(dp5093
g73
(dp5094
sg82
g5079
sg75
(lp5095
g68
(g69
g70
NtRp5096
(dp5097
g73
(dp5098
g81
I5
ssg82
g5092
sg75
(lp5099
S"<open file '/home/saurabh/web2py/applications/ggg/sessions/127.0.0.1-929b9b0c-f53b-49f1-97f4-7c5cb217c3d8', mode 'rb+' at 0x7fdd401f3930>"
p5100
asbasbasbag68
(g84
g70
NtRp5101
(dp5102
g73
(dp5103
sg82
g3680
sg75
(lp5104
g68
(g89
g70
NtRp5105
(dp5106
g73
(dp5107
g93
g94
ssg82
g5101
sg75
(lp5108
S'session_filename'
p5109
asbag68
(g89
g70
NtRp5110
(dp5111
g73
(dp5112
g100
g101
ssg82
g5101
sg75
(lp5113
S':'
asbag68
(g89
g70
NtRp5114
(dp5115
g73
(dp5116
sg82
g5101
sg75
(lp5117
g68
(g69
g70
NtRp5118
(dp5119
g73
(dp5120
g81
I5
ssg82
g5114
sg75
(lp5121
S'/home/saurabh/web2py/applications/ggg/sessions/127.0.0.1-929b9b0c-f53b-49f1-97f4-7c5cb217c3d8'
p5122
asbasbasbag68
(g84
g70
NtRp5123
(dp5124
g73
(dp5125
sg82
g3680
sg75
(lp5126
g68
(g89
g70
NtRp5127
(dp5128
g73
(dp5129
g93
g94
ssg82
g5123
sg75
(lp5130
S'session_id'
p5131
asbag68
(g89
g70
NtRp5132
(dp5133
g73
(dp5134
g100
g101
ssg82
g5123
sg75
(lp5135
S':'
asbag68
(g89
g70
NtRp5136
(dp5137
g73
(dp5138
sg82
g5123
sg75
(lp5139
g68
(g69
g70
NtRp5140
(dp5141
g73
(dp5142
g81
I5
ssg82
g5136
sg75
(lp5143
g486
asbasbasbag68
(g84
g70
NtRp5144
(dp5145
g73
(dp5146
sg82
g3680
sg75
(lp5147
g68
(g89
g70
NtRp5148
(dp5149
g73
(dp5150
g93
g94
ssg82
g5144
sg75
(lp5151
S'session_id_name'
p5152
asbag68
(g89
g70
NtRp5153
(dp5154
g73
(dp5155
g100
g101
ssg82
g5144
sg75
(lp5156
S':'
asbag68
(g89
g70
NtRp5157
(dp5158
g73
(dp5159
sg82
g5144
sg75
(lp5160
g68
(g69
g70
NtRp5161
(dp5162
g73
(dp5163
g81
I5
ssg82
g5157
sg75
(lp5164
g3737
asbasbasbag68
(g84
g70
NtRp5165
(dp5166
g73
(dp5167
sg82
g3680
sg75
(lp5168
g68
(g89
g70
NtRp5169
(dp5170
g73
(dp5171
g93
g94
ssg82
g5165
sg75
(lp5172
S'session_locked'
p5173
asbag68
(g89
g70
NtRp5174
(dp5175
g73
(dp5176
g100
g101
ssg82
g5165
sg75
(lp5177
S':'
asbag68
(g89
g70
NtRp5178
(dp5179
g73
(dp5180
sg82
g5165
sg75
(lp5181
g68
(g69
g70
NtRp5182
(dp5183
g73
(dp5184
g81
I5
ssg82
g5178
sg75
(lp5185
g1780
asbasbasbag68
(g84
g70
NtRp5186
(dp5187
g73
(dp5188
sg82
g3680
sg75
(lp5189
g68
(g89
g70
NtRp5190
(dp5191
g73
(dp5192
g93
g94
ssg82
g5186
sg75
(lp5193
S'session_new'
p5194
asbag68
(g89
g70
NtRp5195
(dp5196
g73
(dp5197
g100
g101
ssg82
g5186
sg75
(lp5198
S':'
asbag68
(g89
g70
NtRp5199
(dp5200
g73
(dp5201
sg82
g5186
sg75
(lp5202
g68
(g69
g70
NtRp5203
(dp5204
g73
(dp5205
g81
I5
ssg82
g5199
sg75
(lp5206
g111
asbasbasbag68
(g84
g70
NtRp5207
(dp5208
g73
(dp5209
sg82
g3680
sg75
(lp5210
g68
(g89
g70
NtRp5211
(dp5212
g73
(dp5213
g93
g94
ssg82
g5207
sg75
(lp5214
S'session_storage_type'
p5215
asbag68
(g89
g70
NtRp5216
(dp5217
g73
(dp5218
g100
g101
ssg82
g5207
sg75
(lp5219
S':'
asbag68
(g89
g70
NtRp5220
(dp5221
g73
(dp5222
sg82
g5207
sg75
(lp5223
g68
(g69
g70
NtRp5224
(dp5225
g73
(dp5226
g81
I5
ssg82
g5220
sg75
(lp5227
g3210
asbasbasbag68
(g84
g70
NtRp5228
(dp5229
g73
(dp5230
sg82
g3680
sg75
(lp5231
g68
(g89
g70
NtRp5232
(dp5233
g73
(dp5234
g93
g94
ssg82
g5228
sg75
(lp5235
S'status'
p5236
asbag68
(g89
g70
NtRp5237
(dp5238
g73
(dp5239
g100
g101
ssg82
g5228
sg75
(lp5240
S':'
asbag68
(g89
g70
NtRp5241
(dp5242
g73
(dp5243
sg82
g5228
sg75
(lp5244
g68
(g69
g70
NtRp5245
(dp5246
g73
(dp5247
g81
I5
ssg82
g5241
sg75
(lp5248
S'200'
p5249
asbasbasbag68
(g84
g70
NtRp5250
(dp5251
g73
(dp5252
sg82
g3680
sg75
(lp5253
g68
(g89
g70
NtRp5254
(dp5255
g73
(dp5256
g93
g94
ssg82
g5250
sg75
(lp5257
S'subtitle'
p5258
asbag68
(g89
g70
NtRp5259
(dp5260
g73
(dp5261
g100
g101
ssg82
g5250
sg75
(lp5262
S':'
asbag68
(g89
g70
NtRp5263
(dp5264
g73
(dp5265
sg82
g5250
sg75
(lp5266
g68
(g69
g70
NtRp5267
(dp5268
g73
(dp5269
g81
I5
ssg82
g5263
sg75
(lp5270
g4214
(S's\r\x00\x00\x00customize me!'
tRp5271
asbasbasbag68
(g84
g70
NtRp5272
(dp5273
g73
(dp5274
sg82
g3680
sg75
(lp5275
g68
(g89
g70
NtRp5276
(dp5277
g73
(dp5278
g93
g94
ssg82
g5272
sg75
(lp5279
S'title'
p5280
asbag68
(g89
g70
NtRp5281
(dp5282
g73
(dp5283
g100
g101
ssg82
g5272
sg75
(lp5284
S':'
asbag68
(g89
g70
NtRp5285
(dp5286
g73
(dp5287
sg82
g5272
sg75
(lp5288
g68
(g69
g70
NtRp5289
(dp5290
g73
(dp5291
g81
I5
ssg82
g5285
sg75
(lp5292
S'Ggg'
p5293
asbasbasbag68
(g84
g70
NtRp5294
(dp5295
g73
(dp5296
sg82
g3680
sg75
(lp5297
g68
(g89
g70
NtRp5298
(dp5299
g73
(dp5300
g93
g94
ssg82
g5294
sg75
(lp5301
S'view'
p5302
asbag68
(g89
g70
NtRp5303
(dp5304
g73
(dp5305
g100
g101
ssg82
g5294
sg75
(lp5306
S':'
asbag68
(g89
g70
NtRp5307
(dp5308
g73
(dp5309
sg82
g5294
sg75
(lp5310
g68
(g69
g70
NtRp5311
(dp5312
g73
(dp5313
g81
I5
ssg82
g5307
sg75
(lp5314
S'default/exam.html'
p5315
asbasbasbasbasbsS'locals'
p5316
(dp5317
g4
S"'/home/saurabh/web2py/applications/ggg/controllers/default.py'"
p5318
sg6
S"'# -*- coding: utf-8 -*-\\n# this file is released ...():\\n     \\n\\nresponse._vars=response._caller(exam)\\n'"
p5319
sssS'traceback'
p5320
S'Traceback (most recent call last):\n  File "/home/saurabh/web2py/gluon/restricted.py", line 211, in restricted\n    ccode = compile2(code, layer)\n  File "/home/saurabh/web2py/gluon/restricted.py", line 194, in compile2\n    return compile(code.rstrip().replace(\'\\r\\n\', \'\\n\') + \'\\n\', layer, \'exec\')\n  File "/home/saurabh/web2py/applications/ggg/controllers/default.py", line 174\n    response._vars=response._caller(exam)\n           ^\nIndentationError: expected an indented block\n'
p5321
s.