(dp1
S'output'
p2
S"<type 'exceptions.SyntaxError'> invalid syntax (index.html, line 3)"
p3
sS'layer'
p4
S'/home/gaurav/classwork/WEB_PROGRAMMING/web2py/applications/ggg/views/default/index.html'
p5
sS'code'
p6
S'response.write(\'<!DOCTYPE html PUBLIC "-//W3C//DTD XHTML 1.0 Strict//EN" "http://www.w3.org/TR/xhtml1/DTD/xhtml1-strict.dtd">\\r\\n<html xmlns="http://www.w3.org/1999/xhtml">\\r\\n<head>\\r\\n<meta http-equiv="content-type" content="text/html; charset=utf-8"/>\\r\\n<title>Exam ends in:</title>\\r\\n<script src="\', escape=False)\nresponse.write(URL(\'static\',\'js/jquery-1.6.1.js\')\nresponse.write(\'" type="text/javascript"></script>\\r\\n<script src="\', escape=False)\nresponse.write(URL(\'static\',\'js/jquery.jcountdown1.3.js\')\nresponse.write(\'" type="text/javascript"></script>\\r\\n<link rel="stylesheet" type="text/css" href=\', escape=False)\nresponse.write(URL(\'static\',\'css/style.css\')\nresponse.write(\'" />\\r\\n<script type="text/javascript">\\r\\n$(document).ready(function() {\\r\\n\\t\\t\\t/*\\r\\n\\t\\t\\t\\tTips:\\r\\n\\t\\t\\t\\t\\r\\n\\t\\t\\t\\tevent.target is DOM Element\\r\\n\\t\\t\\t\\tthis is DOM element\\r\\n\\t\\t\\t\\t$(this) is jQuery Element\\r\\n\\t\\t\\t\\ttimer is interval for countdown\\r\\n\\t\\t\\t\\t\\r\\n\\t\\t\\t\\tIf a countdown should end early you could do:\\r\\n\\t\\t\\t\\t\\r\\n\\t\\t\\t\\tclearInterval( timer );\\r\\n\\t\\t\\t\\t$(this).trigger(\\\'complete\\\');\\r\\n\\t\\t\\t*/\\t\\r\\n\\t\\t\\t\\r\\n\\r\\n\\t$("#time").countdown({\\r\\n\\t\\tdate: "march 21, 2013, 15:00", //Counting TO a date\\r\\n\\t\\t//htmlTemplate: "%{h} <span class=\\\\"cd-time\\\\">hours</span> %{m} <span class=\\\\"cd-time\\\\">mins</span> %{s} <span class=\\\\"cd-time\\\\">sec</span>",\\r\\n\\t\\t//date: "july 1, 2011 19:24", //Counting TO a date\\r\\n\\t\\tonChange: function( event, timer ){\\r\\n\\t\\t\\r\\n\\r\\n\\r\\n\\t\\t},\\r\\n\\t\\tonComplete: function( event ){\\r\\n\\t\\t\\r\\n\\t\\t\\t$(this).html("Completed");\\r\\n\\t\\t},\\r\\n\\t\\tleadingZero: true,\\r\\n\\t\\tdirection: "down"\\r\\n\\t});\\r\\n\\t\\r\\n\\t//$("#time").countdown();\\r\\n\\t\\r\\n\\r\\n\\r\\n\\r\\n\\t\\r\\n\\t$("#time2").countdown({\\r\\n\\t\\tdate: "march 21, 2013 , 14:30",\\r\\n\\t\\t//htmlTemplate: "%{h} <span class=\\\\"cd-time\\\\">hours</span> %{m} <span class=\\\\"cd-time\\\\">mins</span> %{s} <span class=\\\\"cd-time\\\\">sec</span>",\\r\\n\\t\\toffset: 1,\\r\\n\\t\\tonChange: function( event, timer ){\\r\\n\\t\\t\\r\\n\\r\\n\\r\\n\\t\\t},\\r\\n\\t\\tonComplete: function( event ){\\r\\n\\t\\t\\r\\n\\t\\t\\t$(this).html("Completed");\\r\\n\\t\\t},\\r\\n\\t\\tonPause: function( event, timer ){\\r\\n\\r\\n\\t\\t\\t$(this).html("Pause");\\r\\n\\t\\t},\\r\\n\\t\\tonResume: function( event ){\\r\\n\\t\\t\\r\\n\\t\\t\\t$(this).html("Resumed");\\r\\n\\t\\t},\\r\\n\\t\\tleadingZero: true\\r\\n\\t});\\r\\n\\t\\r\\n\\t//$("#time2").countdown(\\\'pause\\\');\\r\\n\\t\\r\\n\\t//$("#time2").countdown(\\\'resume\\\');\\r\\n\\t\\r\\n\\t\\r\\n\\t/*\\r\\n\\t$("#time2").countdown({\\r\\n\\t\\tdate: "may 1, 2011",\\r\\n\\t\\tdirection: \\\'up\\\', //Counting FROM a date\\r\\n\\t\\tleadingZero: true\\r\\n\\t});\\r\\n\\t*/\\r\\n\\r\\n});\\r\\n</script>\\r\\n</head>\\r\\n<body>\\r\\n<div id="container">\\r\\n<h1>Exam ends in:</h1><br />\\r\\n\\r\\n\\r\\n<p id="time" class="time"></p>\\r\\n\\r\\n<!--<p id="time2" class="time"></p>-->\\r\\n\\r\\n</div>\\r\\n</body>\\r\\n</html>\\r\\n\', escape=False)'
p7
sS'snapshot'
p8
(dp9
S'exception'
p10
(dp11
S'__getslice__'
p12
S"<method-wrapper '__getslice__' of exceptions.SyntaxError object>"
p13
sS'text'
p14
S'\'response.write(\\\'" type="text/javascript"></script>\\\\r\\\\n<script src="\\\', escape=False)\\n\''
p15
sS'__str__'
p16
S"<method-wrapper '__str__' of exceptions.SyntaxError object>"
p17
sS'__reduce__'
p18
S'<built-in method __reduce__ of exceptions.SyntaxError object>'
p19
sS'__dict__'
p20
S'{}'
p21
sS'__sizeof__'
p22
S'<built-in method __sizeof__ of exceptions.SyntaxError object>'
p23
sS'__init__'
p24
S"<method-wrapper '__init__' of exceptions.SyntaxError object>"
p25
sS'__setattr__'
p26
S"<method-wrapper '__setattr__' of exceptions.SyntaxError object>"
p27
sS'__reduce_ex__'
p28
S'<built-in method __reduce_ex__ of exceptions.SyntaxError object>'
p29
sS'__new__'
p30
S'<built-in method __new__ of type object>'
p31
sS'__format__'
p32
S'<built-in method __format__ of exceptions.SyntaxError object>'
p33
sS'__class__'
p34
S"<type 'exceptions.SyntaxError'>"
p35
sS'filename'
p36
S"'/home/gaurav/classwork/WEB_PROGRAMMING/web2py/applications/ggg/views/default/index.html'"
p37
sS'lineno'
p38
S'3'
sS'msg'
p39
S"'invalid syntax'"
p40
sS'__doc__'
p41
S"'Invalid syntax.'"
p42
sS'__getitem__'
p43
S"<method-wrapper '__getitem__' of exceptions.SyntaxError object>"
p44
sS'__setstate__'
p45
S'<built-in method __setstate__ of exceptions.SyntaxError object>'
p46
sS'__getattribute__'
p47
S"<method-wrapper '__getattribute__' of exceptions.SyntaxError object>"
p48
sS'print_file_and_line'
p49
S'None'
p50
sS'args'
p51
S'(\'invalid syntax\', (\'/home/gaurav/classwork/WEB_PROGRAMMING/web2py/applications/ggg/views/default/index.html\', 3, 8, \'response.write(\\\'" type="text/javascript"></script>\\\\r\\\\n<script src="\\\', escape=False)\\n\'))'
p52
sS'__subclasshook__'
p53
S'<built-in method __subclasshook__ of type object>'
p54
sS'offset'
p55
S'8'
sS'__unicode__'
p56
S'<built-in method __unicode__ of exceptions.SyntaxError object>'
p57
sS'__delattr__'
p58
S"<method-wrapper '__delattr__' of exceptions.SyntaxError object>"
p59
sS'__repr__'
p60
S"<method-wrapper '__repr__' of exceptions.SyntaxError object>"
p61
sS'__hash__'
p62
S"<method-wrapper '__hash__' of exceptions.SyntaxError object>"
p63
ssS'evalue'
p64
S'invalid syntax (index.html, line 3)'
p65
sS'request'
p66
ccopy_reg
_reconstructor
p67
(cgluon.html
BEAUTIFY
p68
c__builtin__
object
p69
NtRp70
(dp71
S'attributes'
p72
(dp73
sS'components'
p74
(lp75
g67
(cgluon.html
TABLE
p76
g69
NtRp77
(dp78
g72
(dp79
S'level'
p80
I5
ssS'parent'
p81
Nsg74
(lp82
g67
(cgluon.html
TR
p83
g69
NtRp84
(dp85
g72
(dp86
sg81
g77
sg74
(lp87
g67
(cgluon.html
TD
p88
g69
NtRp89
(dp90
g72
(dp91
S'_style'
p92
S'font-weight:bold;vertical-align:top'
p93
ssg81
g84
sg74
(lp94
S'ajax'
p95
asbag67
(g88
g69
NtRp96
(dp97
g72
(dp98
S'_valign'
p99
S'top'
p100
ssg81
g84
sg74
(lp101
S':'
asbag67
(g88
g69
NtRp102
(dp103
g72
(dp104
sg81
g84
sg74
(lp105
g67
(g68
g69
NtRp106
(dp107
g72
(dp108
g80
I5
ssg81
g102
sg74
(lp109
S'False'
p110
asbasbasbag67
(g83
g69
NtRp111
(dp112
g72
(dp113
sg81
g77
sg74
(lp114
g67
(g88
g69
NtRp115
(dp116
g72
(dp117
g92
g93
ssg81
g111
sg74
(lp118
S'application'
p119
asbag67
(g88
g69
NtRp120
(dp121
g72
(dp122
g99
g100
ssg81
g111
sg74
(lp123
S':'
asbag67
(g88
g69
NtRp124
(dp125
g72
(dp126
sg81
g111
sg74
(lp127
g67
(g68
g69
NtRp128
(dp129
g72
(dp130
g80
I5
ssg81
g124
sg74
(lp131
S'ggg'
p132
asbasbasbag67
(g83
g69
NtRp133
(dp134
g72
(dp135
sg81
g77
sg74
(lp136
g67
(g88
g69
NtRp137
(dp138
g72
(dp139
g92
g93
ssg81
g133
sg74
(lp140
g51
asbag67
(g88
g69
NtRp141
(dp142
g72
(dp143
g99
g100
ssg81
g133
sg74
(lp144
S':'
asbag67
(g88
g69
NtRp145
(dp146
g72
(dp147
sg81
g133
sg74
(lp148
g67
(g68
g69
NtRp149
(dp150
g72
(dp151
g80
I5
ssg81
g145
sg74
(lp152
g67
(g76
g69
NtRp153
(dp154
g72
(dp155
g80
I4
ssg81
Nsg74
(lp156
sbasbasbasbag67
(g83
g69
NtRp157
(dp158
g72
(dp159
sg81
g77
sg74
(lp160
g67
(g88
g69
NtRp161
(dp162
g72
(dp163
g92
g93
ssg81
g157
sg74
(lp164
S'body'
p165
asbag67
(g88
g69
NtRp166
(dp167
g72
(dp168
g99
g100
ssg81
g157
sg74
(lp169
S':'
asbag67
(g88
g69
NtRp170
(dp171
g72
(dp172
sg81
g157
sg74
(lp173
g67
(g68
g69
NtRp174
(dp175
g72
(dp176
g80
I5
ssg81
g170
sg74
(lp177
S'<cStringIO.StringO object at 0xae0623c0>'
p178
asbasbasbag67
(g83
g69
NtRp179
(dp180
g72
(dp181
sg81
g77
sg74
(lp182
g67
(g88
g69
NtRp183
(dp184
g72
(dp185
g92
g93
ssg81
g179
sg74
(lp186
S'cid'
p187
asbag67
(g88
g69
NtRp188
(dp189
g72
(dp190
g99
g100
ssg81
g179
sg74
(lp191
S':'
asbag67
(g88
g69
NtRp192
(dp193
g72
(dp194
sg81
g179
sg74
(lp195
g67
(g68
g69
NtRp196
(dp197
g72
(dp198
g80
I5
ssg81
g192
sg74
(lp199
S'None'
p200
asbasbasbag67
(g83
g69
NtRp201
(dp202
g72
(dp203
sg81
g77
sg74
(lp204
g67
(g88
g69
NtRp205
(dp206
g72
(dp207
g92
g93
ssg81
g201
sg74
(lp208
S'client'
p209
asbag67
(g88
g69
NtRp210
(dp211
g72
(dp212
g99
g100
ssg81
g201
sg74
(lp213
S':'
asbag67
(g88
g69
NtRp214
(dp215
g72
(dp216
sg81
g201
sg74
(lp217
g67
(g68
g69
NtRp218
(dp219
g72
(dp220
g80
I5
ssg81
g214
sg74
(lp221
S'127.0.0.1'
p222
asbasbasbag67
(g83
g69
NtRp223
(dp224
g72
(dp225
sg81
g77
sg74
(lp226
g67
(g88
g69
NtRp227
(dp228
g72
(dp229
g92
g93
ssg81
g223
sg74
(lp230
S'controller'
p231
asbag67
(g88
g69
NtRp232
(dp233
g72
(dp234
g99
g100
ssg81
g223
sg74
(lp235
S':'
asbag67
(g88
g69
NtRp236
(dp237
g72
(dp238
sg81
g223
sg74
(lp239
g67
(g68
g69
NtRp240
(dp241
g72
(dp242
g80
I5
ssg81
g236
sg74
(lp243
S'default'
p244
asbasbasbag67
(g83
g69
NtRp245
(dp246
g72
(dp247
sg81
g77
sg74
(lp248
g67
(g88
g69
NtRp249
(dp250
g72
(dp251
g92
g93
ssg81
g245
sg74
(lp252
S'cookies'
p253
asbag67
(g88
g69
NtRp254
(dp255
g72
(dp256
g99
g100
ssg81
g245
sg74
(lp257
S':'
asbag67
(g88
g69
NtRp258
(dp259
g72
(dp260
sg81
g245
sg74
(lp261
g67
(g68
g69
NtRp262
(dp263
g72
(dp264
g80
I5
ssg81
g258
sg74
(lp265
g67
(g76
g69
NtRp266
(dp267
g72
(dp268
g80
I4
ssg81
Nsg74
(lp269
g67
(g83
g69
NtRp270
(dp271
g72
(dp272
sg81
g266
sg74
(lp273
g67
(g88
g69
NtRp274
(dp275
g72
(dp276
g92
g93
ssg81
g270
sg74
(lp277
S'session_id_admin'
p278
asbag67
(g88
g69
NtRp279
(dp280
g72
(dp281
g99
g100
ssg81
g270
sg74
(lp282
S':'
asbag67
(g88
g69
NtRp283
(dp284
g72
(dp285
sg81
g270
sg74
(lp286
g67
(g68
g69
NtRp287
(dp288
g72
(dp289
g80
I4
ssg81
g283
sg74
(lp290
S'127.0.0.1-0c93b71c-66a8-4874-b421-e7c4d7658fe4'
p291
ag67
(g76
g69
NtRp292
(dp293
g72
(dp294
g80
I3
ssg81
Nsg74
(lp295
g67
(g83
g69
NtRp296
(dp297
g72
(dp298
sg81
g292
sg74
(lp299
g67
(g88
g69
NtRp300
(dp301
g72
(dp302
g92
g93
ssg81
g296
sg74
(lp303
S'comment'
p304
asbag67
(g88
g69
NtRp305
(dp306
g72
(dp307
g99
g100
ssg81
g296
sg74
(lp308
S':'
asbag67
(g88
g69
NtRp309
(dp310
g72
(dp311
sg81
g296
sg74
(lp312
g67
(g68
g69
NtRp313
(dp314
g72
(dp315
g80
I3
ssg81
g309
sg74
(lp316
S''
asbasbasbag67
(g83
g69
NtRp317
(dp318
g72
(dp319
sg81
g292
sg74
(lp320
g67
(g88
g69
NtRp321
(dp322
g72
(dp323
g92
g93
ssg81
g317
sg74
(lp324
S'domain'
p325
asbag67
(g88
g69
NtRp326
(dp327
g72
(dp328
g99
g100
ssg81
g317
sg74
(lp329
S':'
asbag67
(g88
g69
NtRp330
(dp331
g72
(dp332
sg81
g317
sg74
(lp333
g67
(g68
g69
NtRp334
(dp335
g72
(dp336
g80
I3
ssg81
g330
sg74
(lp337
S''
asbasbasbag67
(g83
g69
NtRp338
(dp339
g72
(dp340
sg81
g292
sg74
(lp341
g67
(g88
g69
NtRp342
(dp343
g72
(dp344
g92
g93
ssg81
g338
sg74
(lp345
S'expires'
p346
asbag67
(g88
g69
NtRp347
(dp348
g72
(dp349
g99
g100
ssg81
g338
sg74
(lp350
S':'
asbag67
(g88
g69
NtRp351
(dp352
g72
(dp353
sg81
g338
sg74
(lp354
g67
(g68
g69
NtRp355
(dp356
g72
(dp357
g80
I3
ssg81
g351
sg74
(lp358
S''
asbasbasbag67
(g83
g69
NtRp359
(dp360
g72
(dp361
sg81
g292
sg74
(lp362
g67
(g88
g69
NtRp363
(dp364
g72
(dp365
g92
g93
ssg81
g359
sg74
(lp366
S'httponly'
p367
asbag67
(g88
g69
NtRp368
(dp369
g72
(dp370
g99
g100
ssg81
g359
sg74
(lp371
S':'
asbag67
(g88
g69
NtRp372
(dp373
g72
(dp374
sg81
g359
sg74
(lp375
g67
(g68
g69
NtRp376
(dp377
g72
(dp378
g80
I3
ssg81
g372
sg74
(lp379
S''
asbasbasbag67
(g83
g69
NtRp380
(dp381
g72
(dp382
sg81
g292
sg74
(lp383
g67
(g88
g69
NtRp384
(dp385
g72
(dp386
g92
g93
ssg81
g380
sg74
(lp387
S'max-age'
p388
asbag67
(g88
g69
NtRp389
(dp390
g72
(dp391
g99
g100
ssg81
g380
sg74
(lp392
S':'
asbag67
(g88
g69
NtRp393
(dp394
g72
(dp395
sg81
g380
sg74
(lp396
g67
(g68
g69
NtRp397
(dp398
g72
(dp399
g80
I3
ssg81
g393
sg74
(lp400
S''
asbasbasbag67
(g83
g69
NtRp401
(dp402
g72
(dp403
sg81
g292
sg74
(lp404
g67
(g88
g69
NtRp405
(dp406
g72
(dp407
g92
g93
ssg81
g401
sg74
(lp408
S'path'
p409
asbag67
(g88
g69
NtRp410
(dp411
g72
(dp412
g99
g100
ssg81
g401
sg74
(lp413
S':'
asbag67
(g88
g69
NtRp414
(dp415
g72
(dp416
sg81
g401
sg74
(lp417
g67
(g68
g69
NtRp418
(dp419
g72
(dp420
g80
I3
ssg81
g414
sg74
(lp421
S''
asbasbasbag67
(g83
g69
NtRp422
(dp423
g72
(dp424
sg81
g292
sg74
(lp425
g67
(g88
g69
NtRp426
(dp427
g72
(dp428
g92
g93
ssg81
g422
sg74
(lp429
S'secure'
p430
asbag67
(g88
g69
NtRp431
(dp432
g72
(dp433
g99
g100
ssg81
g422
sg74
(lp434
S':'
asbag67
(g88
g69
NtRp435
(dp436
g72
(dp437
sg81
g422
sg74
(lp438
g67
(g68
g69
NtRp439
(dp440
g72
(dp441
g80
I3
ssg81
g435
sg74
(lp442
S''
asbasbasbag67
(g83
g69
NtRp443
(dp444
g72
(dp445
sg81
g292
sg74
(lp446
g67
(g88
g69
NtRp447
(dp448
g72
(dp449
g92
g93
ssg81
g443
sg74
(lp450
S'version'
p451
asbag67
(g88
g69
NtRp452
(dp453
g72
(dp454
g99
g100
ssg81
g443
sg74
(lp455
S':'
asbag67
(g88
g69
NtRp456
(dp457
g72
(dp458
sg81
g443
sg74
(lp459
g67
(g68
g69
NtRp460
(dp461
g72
(dp462
g80
I3
ssg81
g456
sg74
(lp463
S''
asbasbasbasbasbasbasbag67
(g83
g69
NtRp464
(dp465
g72
(dp466
sg81
g266
sg74
(lp467
g67
(g88
g69
NtRp468
(dp469
g72
(dp470
g92
g93
ssg81
g464
sg74
(lp471
S'session_id_ggg'
p472
asbag67
(g88
g69
NtRp473
(dp474
g72
(dp475
g99
g100
ssg81
g464
sg74
(lp476
S':'
asbag67
(g88
g69
NtRp477
(dp478
g72
(dp479
sg81
g464
sg74
(lp480
g67
(g68
g69
NtRp481
(dp482
g72
(dp483
g80
I4
ssg81
g477
sg74
(lp484
S'127.0.0.1-7c2fad7f-4e3f-442a-8209-aa4c44b1b049'
p485
ag67
(g76
g69
NtRp486
(dp487
g72
(dp488
g80
I3
ssg81
Nsg74
(lp489
g67
(g83
g69
NtRp490
(dp491
g72
(dp492
sg81
g486
sg74
(lp493
g67
(g88
g69
NtRp494
(dp495
g72
(dp496
g92
g93
ssg81
g490
sg74
(lp497
g304
asbag67
(g88
g69
NtRp498
(dp499
g72
(dp500
g99
g100
ssg81
g490
sg74
(lp501
S':'
asbag67
(g88
g69
NtRp502
(dp503
g72
(dp504
sg81
g490
sg74
(lp505
g67
(g68
g69
NtRp506
(dp507
g72
(dp508
g80
I3
ssg81
g502
sg74
(lp509
S''
asbasbasbag67
(g83
g69
NtRp510
(dp511
g72
(dp512
sg81
g486
sg74
(lp513
g67
(g88
g69
NtRp514
(dp515
g72
(dp516
g92
g93
ssg81
g510
sg74
(lp517
g325
asbag67
(g88
g69
NtRp518
(dp519
g72
(dp520
g99
g100
ssg81
g510
sg74
(lp521
S':'
asbag67
(g88
g69
NtRp522
(dp523
g72
(dp524
sg81
g510
sg74
(lp525
g67
(g68
g69
NtRp526
(dp527
g72
(dp528
g80
I3
ssg81
g522
sg74
(lp529
S''
asbasbasbag67
(g83
g69
NtRp530
(dp531
g72
(dp532
sg81
g486
sg74
(lp533
g67
(g88
g69
NtRp534
(dp535
g72
(dp536
g92
g93
ssg81
g530
sg74
(lp537
g346
asbag67
(g88
g69
NtRp538
(dp539
g72
(dp540
g99
g100
ssg81
g530
sg74
(lp541
S':'
asbag67
(g88
g69
NtRp542
(dp543
g72
(dp544
sg81
g530
sg74
(lp545
g67
(g68
g69
NtRp546
(dp547
g72
(dp548
g80
I3
ssg81
g542
sg74
(lp549
S''
asbasbasbag67
(g83
g69
NtRp550
(dp551
g72
(dp552
sg81
g486
sg74
(lp553
g67
(g88
g69
NtRp554
(dp555
g72
(dp556
g92
g93
ssg81
g550
sg74
(lp557
g367
asbag67
(g88
g69
NtRp558
(dp559
g72
(dp560
g99
g100
ssg81
g550
sg74
(lp561
S':'
asbag67
(g88
g69
NtRp562
(dp563
g72
(dp564
sg81
g550
sg74
(lp565
g67
(g68
g69
NtRp566
(dp567
g72
(dp568
g80
I3
ssg81
g562
sg74
(lp569
S''
asbasbasbag67
(g83
g69
NtRp570
(dp571
g72
(dp572
sg81
g486
sg74
(lp573
g67
(g88
g69
NtRp574
(dp575
g72
(dp576
g92
g93
ssg81
g570
sg74
(lp577
g388
asbag67
(g88
g69
NtRp578
(dp579
g72
(dp580
g99
g100
ssg81
g570
sg74
(lp581
S':'
asbag67
(g88
g69
NtRp582
(dp583
g72
(dp584
sg81
g570
sg74
(lp585
g67
(g68
g69
NtRp586
(dp587
g72
(dp588
g80
I3
ssg81
g582
sg74
(lp589
S''
asbasbasbag67
(g83
g69
NtRp590
(dp591
g72
(dp592
sg81
g486
sg74
(lp593
g67
(g88
g69
NtRp594
(dp595
g72
(dp596
g92
g93
ssg81
g590
sg74
(lp597
g409
asbag67
(g88
g69
NtRp598
(dp599
g72
(dp600
g99
g100
ssg81
g590
sg74
(lp601
S':'
asbag67
(g88
g69
NtRp602
(dp603
g72
(dp604
sg81
g590
sg74
(lp605
g67
(g68
g69
NtRp606
(dp607
g72
(dp608
g80
I3
ssg81
g602
sg74
(lp609
S''
asbasbasbag67
(g83
g69
NtRp610
(dp611
g72
(dp612
sg81
g486
sg74
(lp613
g67
(g88
g69
NtRp614
(dp615
g72
(dp616
g92
g93
ssg81
g610
sg74
(lp617
g430
asbag67
(g88
g69
NtRp618
(dp619
g72
(dp620
g99
g100
ssg81
g610
sg74
(lp621
S':'
asbag67
(g88
g69
NtRp622
(dp623
g72
(dp624
sg81
g610
sg74
(lp625
g67
(g68
g69
NtRp626
(dp627
g72
(dp628
g80
I3
ssg81
g622
sg74
(lp629
S''
asbasbasbag67
(g83
g69
NtRp630
(dp631
g72
(dp632
sg81
g486
sg74
(lp633
g67
(g88
g69
NtRp634
(dp635
g72
(dp636
g92
g93
ssg81
g630
sg74
(lp637
g451
asbag67
(g88
g69
NtRp638
(dp639
g72
(dp640
g99
g100
ssg81
g630
sg74
(lp641
S':'
asbag67
(g88
g69
NtRp642
(dp643
g72
(dp644
sg81
g630
sg74
(lp645
g67
(g68
g69
NtRp646
(dp647
g72
(dp648
g80
I3
ssg81
g642
sg74
(lp649
S''
asbasbasbasbasbasbasbag67
(g83
g69
NtRp650
(dp651
g72
(dp652
sg81
g266
sg74
(lp653
g67
(g88
g69
NtRp654
(dp655
g72
(dp656
g92
g93
ssg81
g650
sg74
(lp657
S'session_id_welcome'
p658
asbag67
(g88
g69
NtRp659
(dp660
g72
(dp661
g99
g100
ssg81
g650
sg74
(lp662
S':'
asbag67
(g88
g69
NtRp663
(dp664
g72
(dp665
sg81
g650
sg74
(lp666
g67
(g68
g69
NtRp667
(dp668
g72
(dp669
g80
I4
ssg81
g663
sg74
(lp670
S'127.0.0.1-c5356c58-aeec-45fb-b553-3650a510809b'
p671
ag67
(g76
g69
NtRp672
(dp673
g72
(dp674
g80
I3
ssg81
Nsg74
(lp675
g67
(g83
g69
NtRp676
(dp677
g72
(dp678
sg81
g672
sg74
(lp679
g67
(g88
g69
NtRp680
(dp681
g72
(dp682
g92
g93
ssg81
g676
sg74
(lp683
g304
asbag67
(g88
g69
NtRp684
(dp685
g72
(dp686
g99
g100
ssg81
g676
sg74
(lp687
S':'
asbag67
(g88
g69
NtRp688
(dp689
g72
(dp690
sg81
g676
sg74
(lp691
g67
(g68
g69
NtRp692
(dp693
g72
(dp694
g80
I3
ssg81
g688
sg74
(lp695
S''
asbasbasbag67
(g83
g69
NtRp696
(dp697
g72
(dp698
sg81
g672
sg74
(lp699
g67
(g88
g69
NtRp700
(dp701
g72
(dp702
g92
g93
ssg81
g696
sg74
(lp703
g325
asbag67
(g88
g69
NtRp704
(dp705
g72
(dp706
g99
g100
ssg81
g696
sg74
(lp707
S':'
asbag67
(g88
g69
NtRp708
(dp709
g72
(dp710
sg81
g696
sg74
(lp711
g67
(g68
g69
NtRp712
(dp713
g72
(dp714
g80
I3
ssg81
g708
sg74
(lp715
S''
asbasbasbag67
(g83
g69
NtRp716
(dp717
g72
(dp718
sg81
g672
sg74
(lp719
g67
(g88
g69
NtRp720
(dp721
g72
(dp722
g92
g93
ssg81
g716
sg74
(lp723
g346
asbag67
(g88
g69
NtRp724
(dp725
g72
(dp726
g99
g100
ssg81
g716
sg74
(lp727
S':'
asbag67
(g88
g69
NtRp728
(dp729
g72
(dp730
sg81
g716
sg74
(lp731
g67
(g68
g69
NtRp732
(dp733
g72
(dp734
g80
I3
ssg81
g728
sg74
(lp735
S''
asbasbasbag67
(g83
g69
NtRp736
(dp737
g72
(dp738
sg81
g672
sg74
(lp739
g67
(g88
g69
NtRp740
(dp741
g72
(dp742
g92
g93
ssg81
g736
sg74
(lp743
g367
asbag67
(g88
g69
NtRp744
(dp745
g72
(dp746
g99
g100
ssg81
g736
sg74
(lp747
S':'
asbag67
(g88
g69
NtRp748
(dp749
g72
(dp750
sg81
g736
sg74
(lp751
g67
(g68
g69
NtRp752
(dp753
g72
(dp754
g80
I3
ssg81
g748
sg74
(lp755
S''
asbasbasbag67
(g83
g69
NtRp756
(dp757
g72
(dp758
sg81
g672
sg74
(lp759
g67
(g88
g69
NtRp760
(dp761
g72
(dp762
g92
g93
ssg81
g756
sg74
(lp763
g388
asbag67
(g88
g69
NtRp764
(dp765
g72
(dp766
g99
g100
ssg81
g756
sg74
(lp767
S':'
asbag67
(g88
g69
NtRp768
(dp769
g72
(dp770
sg81
g756
sg74
(lp771
g67
(g68
g69
NtRp772
(dp773
g72
(dp774
g80
I3
ssg81
g768
sg74
(lp775
S''
asbasbasbag67
(g83
g69
NtRp776
(dp777
g72
(dp778
sg81
g672
sg74
(lp779
g67
(g88
g69
NtRp780
(dp781
g72
(dp782
g92
g93
ssg81
g776
sg74
(lp783
g409
asbag67
(g88
g69
NtRp784
(dp785
g72
(dp786
g99
g100
ssg81
g776
sg74
(lp787
S':'
asbag67
(g88
g69
NtRp788
(dp789
g72
(dp790
sg81
g776
sg74
(lp791
g67
(g68
g69
NtRp792
(dp793
g72
(dp794
g80
I3
ssg81
g788
sg74
(lp795
S''
asbasbasbag67
(g83
g69
NtRp796
(dp797
g72
(dp798
sg81
g672
sg74
(lp799
g67
(g88
g69
NtRp800
(dp801
g72
(dp802
g92
g93
ssg81
g796
sg74
(lp803
g430
asbag67
(g88
g69
NtRp804
(dp805
g72
(dp806
g99
g100
ssg81
g796
sg74
(lp807
S':'
asbag67
(g88
g69
NtRp808
(dp809
g72
(dp810
sg81
g796
sg74
(lp811
g67
(g68
g69
NtRp812
(dp813
g72
(dp814
g80
I3
ssg81
g808
sg74
(lp815
S''
asbasbasbag67
(g83
g69
NtRp816
(dp817
g72
(dp818
sg81
g672
sg74
(lp819
g67
(g88
g69
NtRp820
(dp821
g72
(dp822
g92
g93
ssg81
g816
sg74
(lp823
g451
asbag67
(g88
g69
NtRp824
(dp825
g72
(dp826
g99
g100
ssg81
g816
sg74
(lp827
S':'
asbag67
(g88
g69
NtRp828
(dp829
g72
(dp830
sg81
g816
sg74
(lp831
g67
(g68
g69
NtRp832
(dp833
g72
(dp834
g80
I3
ssg81
g828
sg74
(lp835
S''
asbasbasbasbasbasbasbasbasbasbasbag67
(g83
g69
NtRp836
(dp837
g72
(dp838
sg81
g77
sg74
(lp839
g67
(g88
g69
NtRp840
(dp841
g72
(dp842
g92
g93
ssg81
g836
sg74
(lp843
S'env'
p844
asbag67
(g88
g69
NtRp845
(dp846
g72
(dp847
g99
g100
ssg81
g836
sg74
(lp848
S':'
asbag67
(g88
g69
NtRp849
(dp850
g72
(dp851
sg81
g836
sg74
(lp852
g67
(g68
g69
NtRp853
(dp854
g72
(dp855
g80
I5
ssg81
g849
sg74
(lp856
g67
(g76
g69
NtRp857
(dp858
g72
(dp859
g80
I4
ssg81
Nsg74
(lp860
g67
(g83
g69
NtRp861
(dp862
g72
(dp863
sg81
g857
sg74
(lp864
g67
(g88
g69
NtRp865
(dp866
g72
(dp867
g92
g93
ssg81
g861
sg74
(lp868
S'app_folders'
p869
asbag67
(g88
g69
NtRp870
(dp871
g72
(dp872
g99
g100
ssg81
g861
sg74
(lp873
S':'
asbag67
(g88
g69
NtRp874
(dp875
g72
(dp876
sg81
g861
sg74
(lp877
g67
(g68
g69
NtRp878
(dp879
g72
(dp880
g80
I4
ssg81
g874
sg74
(lp881
S"set(['/home/gaurav/classwork/WEB_PROGRAMMING/web2py/applications/ggg/', '/home/gaurav/classwork/WEB_PROGRAMMING/web2py/applications/admin/', '/home/gaurav/classwork/WEB_PROGRAMMING/web2py/applications/welcome/'])"
p882
asbasbasbag67
(g83
g69
NtRp883
(dp884
g72
(dp885
sg81
g857
sg74
(lp886
g67
(g88
g69
NtRp887
(dp888
g72
(dp889
g92
g93
ssg81
g883
sg74
(lp890
S'applications_parent'
p891
asbag67
(g88
g69
NtRp892
(dp893
g72
(dp894
g99
g100
ssg81
g883
sg74
(lp895
S':'
asbag67
(g88
g69
NtRp896
(dp897
g72
(dp898
sg81
g883
sg74
(lp899
g67
(g68
g69
NtRp900
(dp901
g72
(dp902
g80
I4
ssg81
g896
sg74
(lp903
S'/home/gaurav/classwork/WEB_PROGRAMMING/web2py'
p904
asbasbasbag67
(g83
g69
NtRp905
(dp906
g72
(dp907
sg81
g857
sg74
(lp908
g67
(g88
g69
NtRp909
(dp910
g72
(dp911
g92
g93
ssg81
g905
sg74
(lp912
S'cmd_args'
p913
asbag67
(g88
g69
NtRp914
(dp915
g72
(dp916
g99
g100
ssg81
g905
sg74
(lp917
S':'
asbag67
(g88
g69
NtRp918
(dp919
g72
(dp920
sg81
g905
sg74
(lp921
g67
(g68
g69
NtRp922
(dp923
g72
(dp924
g80
I4
ssg81
g918
sg74
(lp925
g67
(g76
g69
NtRp926
(dp927
g72
(dp928
g80
I3
ssg81
Nsg74
(lp929
sbasbasbasbag67
(g83
g69
NtRp930
(dp931
g72
(dp932
sg81
g857
sg74
(lp933
g67
(g88
g69
NtRp934
(dp935
g72
(dp936
g92
g93
ssg81
g930
sg74
(lp937
S'cmd_options'
p938
asbag67
(g88
g69
NtRp939
(dp940
g72
(dp941
g99
g100
ssg81
g930
sg74
(lp942
S':'
asbag67
(g88
g69
NtRp943
(dp944
g72
(dp945
sg81
g930
sg74
(lp946
g67
(g68
g69
NtRp947
(dp948
g72
(dp949
g80
I4
ssg81
g943
sg74
(lp950
S"<Values at 0x95636ec: {'verbose': False, 'ip': '127.0.0.1', 'with_scheduler': False, 'ips': [], 'shutdown_timeout': 5, 'taskbar': False, 'port': 8000, 'maxthreads': None, 'softcron': False, 'server_name': 'gaurav-Compaq-Presario-C700-Notebook-PC', 'bpython': False, 'nogui': False, 'pid_filename': 'httpserver.pid', 'extcron': False, 'runcron': False, 'run_system_tests': False, 'test': None, 'folder': '/home/gaurav/classwork/WEB_PROGRAMMING/web2py', 'config': '', 'import_models': False, 'winservice': '', 'shell': None, 'run': '', 'log_filename': 'httpserver.log', 'debuglevel': 30, 'args': [''], 'socket_timeout': 5, 'ssl_ca_certificate': None, 'scheduler': None, 'profiler_filename': None, 'ssl_private_key': '', 'scheduler_groups': None, 'password': '<ask>', 'request_queue_size': 5, 'ssl_certificate': '', 'cronjob': False, 'numthreads': None, 'quiet': False, 'interfaces': None, 'minthreads': None, 'timeout': 10, 'plain': False, 'nobanner': False}>"
p951
asbasbasbag67
(g83
g69
NtRp952
(dp953
g72
(dp954
sg81
g857
sg74
(lp955
g67
(g88
g69
NtRp956
(dp957
g72
(dp958
g92
g93
ssg81
g952
sg74
(lp959
S'db_sessions'
p960
asbag67
(g88
g69
NtRp961
(dp962
g72
(dp963
g99
g100
ssg81
g952
sg74
(lp964
S':'
asbag67
(g88
g69
NtRp965
(dp966
g72
(dp967
sg81
g952
sg74
(lp968
g67
(g68
g69
NtRp969
(dp970
g72
(dp971
g80
I4
ssg81
g965
sg74
(lp972
S'set([])'
p973
asbasbasbag67
(g83
g69
NtRp974
(dp975
g72
(dp976
sg81
g857
sg74
(lp977
g67
(g88
g69
NtRp978
(dp979
g72
(dp980
g92
g93
ssg81
g974
sg74
(lp981
S'debugging'
p982
asbag67
(g88
g69
NtRp983
(dp984
g72
(dp985
g99
g100
ssg81
g974
sg74
(lp986
S':'
asbag67
(g88
g69
NtRp987
(dp988
g72
(dp989
sg81
g974
sg74
(lp990
g67
(g68
g69
NtRp991
(dp992
g72
(dp993
g80
I4
ssg81
g987
sg74
(lp994
g110
asbasbasbag67
(g83
g69
NtRp995
(dp996
g72
(dp997
sg81
g857
sg74
(lp998
g67
(g88
g69
NtRp999
(dp1000
g72
(dp1001
g92
g93
ssg81
g995
sg74
(lp1002
S'gluon_parent'
p1003
asbag67
(g88
g69
NtRp1004
(dp1005
g72
(dp1006
g99
g100
ssg81
g995
sg74
(lp1007
S':'
asbag67
(g88
g69
NtRp1008
(dp1009
g72
(dp1010
sg81
g995
sg74
(lp1011
g67
(g68
g69
NtRp1012
(dp1013
g72
(dp1014
g80
I4
ssg81
g1008
sg74
(lp1015
S'/home/gaurav/classwork/WEB_PROGRAMMING/web2py'
p1016
asbasbasbag67
(g83
g69
NtRp1017
(dp1018
g72
(dp1019
sg81
g857
sg74
(lp1020
g67
(g88
g69
NtRp1021
(dp1022
g72
(dp1023
g92
g93
ssg81
g1017
sg74
(lp1024
S'http_accept'
p1025
asbag67
(g88
g69
NtRp1026
(dp1027
g72
(dp1028
g99
g100
ssg81
g1017
sg74
(lp1029
S':'
asbag67
(g88
g69
NtRp1030
(dp1031
g72
(dp1032
sg81
g1017
sg74
(lp1033
g67
(g68
g69
NtRp1034
(dp1035
g72
(dp1036
g80
I4
ssg81
g1030
sg74
(lp1037
S'text/html,application/xhtml+xml,application/xml;q=0.9,*/*;q=0.8'
p1038
asbasbasbag67
(g83
g69
NtRp1039
(dp1040
g72
(dp1041
sg81
g857
sg74
(lp1042
g67
(g88
g69
NtRp1043
(dp1044
g72
(dp1045
g92
g93
ssg81
g1039
sg74
(lp1046
S'http_accept_encoding'
p1047
asbag67
(g88
g69
NtRp1048
(dp1049
g72
(dp1050
g99
g100
ssg81
g1039
sg74
(lp1051
S':'
asbag67
(g88
g69
NtRp1052
(dp1053
g72
(dp1054
sg81
g1039
sg74
(lp1055
g67
(g68
g69
NtRp1056
(dp1057
g72
(dp1058
g80
I4
ssg81
g1052
sg74
(lp1059
S'gzip, deflate'
p1060
asbasbasbag67
(g83
g69
NtRp1061
(dp1062
g72
(dp1063
sg81
g857
sg74
(lp1064
g67
(g88
g69
NtRp1065
(dp1066
g72
(dp1067
g92
g93
ssg81
g1061
sg74
(lp1068
S'http_accept_language'
p1069
asbag67
(g88
g69
NtRp1070
(dp1071
g72
(dp1072
g99
g100
ssg81
g1061
sg74
(lp1073
S':'
asbag67
(g88
g69
NtRp1074
(dp1075
g72
(dp1076
sg81
g1061
sg74
(lp1077
g67
(g68
g69
NtRp1078
(dp1079
g72
(dp1080
g80
I4
ssg81
g1074
sg74
(lp1081
S'en-US,en;q=0.5'
p1082
asbasbasbag67
(g83
g69
NtRp1083
(dp1084
g72
(dp1085
sg81
g857
sg74
(lp1086
g67
(g88
g69
NtRp1087
(dp1088
g72
(dp1089
g92
g93
ssg81
g1083
sg74
(lp1090
S'http_cache_control'
p1091
asbag67
(g88
g69
NtRp1092
(dp1093
g72
(dp1094
g99
g100
ssg81
g1083
sg74
(lp1095
S':'
asbag67
(g88
g69
NtRp1096
(dp1097
g72
(dp1098
sg81
g1083
sg74
(lp1099
g67
(g68
g69
NtRp1100
(dp1101
g72
(dp1102
g80
I4
ssg81
g1096
sg74
(lp1103
S'max-age=0'
p1104
asbasbasbag67
(g83
g69
NtRp1105
(dp1106
g72
(dp1107
sg81
g857
sg74
(lp1108
g67
(g88
g69
NtRp1109
(dp1110
g72
(dp1111
g92
g93
ssg81
g1105
sg74
(lp1112
S'http_connection'
p1113
asbag67
(g88
g69
NtRp1114
(dp1115
g72
(dp1116
g99
g100
ssg81
g1105
sg74
(lp1117
S':'
asbag67
(g88
g69
NtRp1118
(dp1119
g72
(dp1120
sg81
g1105
sg74
(lp1121
g67
(g68
g69
NtRp1122
(dp1123
g72
(dp1124
g80
I4
ssg81
g1118
sg74
(lp1125
S'keep-alive'
p1126
asbasbasbag67
(g83
g69
NtRp1127
(dp1128
g72
(dp1129
sg81
g857
sg74
(lp1130
g67
(g88
g69
NtRp1131
(dp1132
g72
(dp1133
g92
g93
ssg81
g1127
sg74
(lp1134
S'http_cookie'
p1135
asbag67
(g88
g69
NtRp1136
(dp1137
g72
(dp1138
g99
g100
ssg81
g1127
sg74
(lp1139
S':'
asbag67
(g88
g69
NtRp1140
(dp1141
g72
(dp1142
sg81
g1127
sg74
(lp1143
g67
(g68
g69
NtRp1144
(dp1145
g72
(dp1146
g80
I4
ssg81
g1140
sg74
(lp1147
S'session_id_welcome=127.0.0.1-c5356c58-aeec-45fb-b553-3650a510809b; session_id_admin=127.0.0.1-0c93b71c-66a8-4874-b421-e7c4d7658fe4; session_id_ggg=127.0.0.1-7c2fad7f-4e3f-442a-8209-aa4c44b1b049'
p1148
asbasbasbag67
(g83
g69
NtRp1149
(dp1150
g72
(dp1151
sg81
g857
sg74
(lp1152
g67
(g88
g69
NtRp1153
(dp1154
g72
(dp1155
g92
g93
ssg81
g1149
sg74
(lp1156
S'http_host'
p1157
asbag67
(g88
g69
NtRp1158
(dp1159
g72
(dp1160
g99
g100
ssg81
g1149
sg74
(lp1161
S':'
asbag67
(g88
g69
NtRp1162
(dp1163
g72
(dp1164
sg81
g1149
sg74
(lp1165
g67
(g68
g69
NtRp1166
(dp1167
g72
(dp1168
g80
I4
ssg81
g1162
sg74
(lp1169
S'127.0.0.1:8000'
p1170
asbasbasbag67
(g83
g69
NtRp1171
(dp1172
g72
(dp1173
sg81
g857
sg74
(lp1174
g67
(g88
g69
NtRp1175
(dp1176
g72
(dp1177
g92
g93
ssg81
g1171
sg74
(lp1178
S'http_referer'
p1179
asbag67
(g88
g69
NtRp1180
(dp1181
g72
(dp1182
g99
g100
ssg81
g1171
sg74
(lp1183
S':'
asbag67
(g88
g69
NtRp1184
(dp1185
g72
(dp1186
sg81
g1171
sg74
(lp1187
g67
(g68
g69
NtRp1188
(dp1189
g72
(dp1190
g80
I4
ssg81
g1184
sg74
(lp1191
S'http://127.0.0.1:8000/ggg/default/user/login?_next=/ggg/default/index'
p1192
asbasbasbag67
(g83
g69
NtRp1193
(dp1194
g72
(dp1195
sg81
g857
sg74
(lp1196
g67
(g88
g69
NtRp1197
(dp1198
g72
(dp1199
g92
g93
ssg81
g1193
sg74
(lp1200
S'http_user_agent'
p1201
asbag67
(g88
g69
NtRp1202
(dp1203
g72
(dp1204
g99
g100
ssg81
g1193
sg74
(lp1205
S':'
asbag67
(g88
g69
NtRp1206
(dp1207
g72
(dp1208
sg81
g1193
sg74
(lp1209
g67
(g68
g69
NtRp1210
(dp1211
g72
(dp1212
g80
I4
ssg81
g1206
sg74
(lp1213
S'Mozilla/5.0 (X11; Ubuntu; Linux i686; rv:16.0) Gecko/20100101 Firefox/16.0'
p1214
asbasbasbag67
(g83
g69
NtRp1215
(dp1216
g72
(dp1217
sg81
g857
sg74
(lp1218
g67
(g88
g69
NtRp1219
(dp1220
g72
(dp1221
g92
g93
ssg81
g1215
sg74
(lp1222
S'is_jython'
p1223
asbag67
(g88
g69
NtRp1224
(dp1225
g72
(dp1226
g99
g100
ssg81
g1215
sg74
(lp1227
S':'
asbag67
(g88
g69
NtRp1228
(dp1229
g72
(dp1230
sg81
g1215
sg74
(lp1231
g67
(g68
g69
NtRp1232
(dp1233
g72
(dp1234
g80
I4
ssg81
g1228
sg74
(lp1235
g110
asbasbasbag67
(g83
g69
NtRp1236
(dp1237
g72
(dp1238
sg81
g857
sg74
(lp1239
g67
(g88
g69
NtRp1240
(dp1241
g72
(dp1242
g92
g93
ssg81
g1236
sg74
(lp1243
S'is_pypy'
p1244
asbag67
(g88
g69
NtRp1245
(dp1246
g72
(dp1247
g99
g100
ssg81
g1236
sg74
(lp1248
S':'
asbag67
(g88
g69
NtRp1249
(dp1250
g72
(dp1251
sg81
g1236
sg74
(lp1252
g67
(g68
g69
NtRp1253
(dp1254
g72
(dp1255
g80
I4
ssg81
g1249
sg74
(lp1256
g110
asbasbasbag67
(g83
g69
NtRp1257
(dp1258
g72
(dp1259
sg81
g857
sg74
(lp1260
g67
(g88
g69
NtRp1261
(dp1262
g72
(dp1263
g92
g93
ssg81
g1257
sg74
(lp1264
S'local_hosts'
p1265
asbag67
(g88
g69
NtRp1266
(dp1267
g72
(dp1268
g99
g100
ssg81
g1257
sg74
(lp1269
S':'
asbag67
(g88
g69
NtRp1270
(dp1271
g72
(dp1272
sg81
g1257
sg74
(lp1273
g67
(g68
g69
NtRp1274
(dp1275
g72
(dp1276
g80
I4
ssg81
g1270
sg74
(lp1277
g67
(g76
g69
NtRp1278
(dp1279
g72
(dp1280
g80
I3
ssg81
Nsg74
(lp1281
g67
(g83
g69
NtRp1282
(dp1283
g72
(dp1284
sg81
g1278
sg74
(lp1285
g67
(g88
g69
NtRp1286
(dp1287
g72
(dp1288
sg81
g1282
sg74
(lp1289
g67
(g68
g69
NtRp1290
(dp1291
g72
(dp1292
g80
I3
ssg81
g1286
sg74
(lp1293
S'gaurav-Compaq-Presario-C700-Notebook-PC'
p1294
asbasbasbag67
(g83
g69
NtRp1295
(dp1296
g72
(dp1297
sg81
g1278
sg74
(lp1298
g67
(g88
g69
NtRp1299
(dp1300
g72
(dp1301
sg81
g1295
sg74
(lp1302
g67
(g68
g69
NtRp1303
(dp1304
g72
(dp1305
g80
I3
ssg81
g1299
sg74
(lp1306
S'::1'
p1307
asbasbasbag67
(g83
g69
NtRp1308
(dp1309
g72
(dp1310
sg81
g1278
sg74
(lp1311
g67
(g88
g69
NtRp1312
(dp1313
g72
(dp1314
sg81
g1308
sg74
(lp1315
g67
(g68
g69
NtRp1316
(dp1317
g72
(dp1318
g80
I3
ssg81
g1312
sg74
(lp1319
S'127.0.1.1'
p1320
asbasbasbag67
(g83
g69
NtRp1321
(dp1322
g72
(dp1323
sg81
g1278
sg74
(lp1324
g67
(g88
g69
NtRp1325
(dp1326
g72
(dp1327
sg81
g1321
sg74
(lp1328
g67
(g68
g69
NtRp1329
(dp1330
g72
(dp1331
g80
I3
ssg81
g1325
sg74
(lp1332
S'::ffff:127.0.0.1'
p1333
asbasbasbag67
(g83
g69
NtRp1334
(dp1335
g72
(dp1336
sg81
g1278
sg74
(lp1337
g67
(g88
g69
NtRp1338
(dp1339
g72
(dp1340
sg81
g1334
sg74
(lp1341
g67
(g68
g69
NtRp1342
(dp1343
g72
(dp1344
g80
I3
ssg81
g1338
sg74
(lp1345
S'127.0.0.1'
p1346
asbasbasbasbasbasbasbag67
(g83
g69
NtRp1347
(dp1348
g72
(dp1349
sg81
g857
sg74
(lp1350
g67
(g88
g69
NtRp1351
(dp1352
g72
(dp1353
g92
g93
ssg81
g1347
sg74
(lp1354
S'path_info'
p1355
asbag67
(g88
g69
NtRp1356
(dp1357
g72
(dp1358
g99
g100
ssg81
g1347
sg74
(lp1359
S':'
asbag67
(g88
g69
NtRp1360
(dp1361
g72
(dp1362
sg81
g1347
sg74
(lp1363
g67
(g68
g69
NtRp1364
(dp1365
g72
(dp1366
g80
I4
ssg81
g1360
sg74
(lp1367
S'/ggg/default/index'
p1368
asbasbasbag67
(g83
g69
NtRp1369
(dp1370
g72
(dp1371
sg81
g857
sg74
(lp1372
g67
(g88
g69
NtRp1373
(dp1374
g72
(dp1375
g92
g93
ssg81
g1369
sg74
(lp1376
S'query_string'
p1377
asbag67
(g88
g69
NtRp1378
(dp1379
g72
(dp1380
g99
g100
ssg81
g1369
sg74
(lp1381
S':'
asbag67
(g88
g69
NtRp1382
(dp1383
g72
(dp1384
sg81
g1369
sg74
(lp1385
g67
(g68
g69
NtRp1386
(dp1387
g72
(dp1388
g80
I4
ssg81
g1382
sg74
(lp1389
S''
asbasbasbag67
(g83
g69
NtRp1390
(dp1391
g72
(dp1392
sg81
g857
sg74
(lp1393
g67
(g88
g69
NtRp1394
(dp1395
g72
(dp1396
g92
g93
ssg81
g1390
sg74
(lp1397
S'remote_addr'
p1398
asbag67
(g88
g69
NtRp1399
(dp1400
g72
(dp1401
g99
g100
ssg81
g1390
sg74
(lp1402
S':'
asbag67
(g88
g69
NtRp1403
(dp1404
g72
(dp1405
sg81
g1390
sg74
(lp1406
g67
(g68
g69
NtRp1407
(dp1408
g72
(dp1409
g80
I4
ssg81
g1403
sg74
(lp1410
g222
asbasbasbag67
(g83
g69
NtRp1411
(dp1412
g72
(dp1413
sg81
g857
sg74
(lp1414
g67
(g88
g69
NtRp1415
(dp1416
g72
(dp1417
g92
g93
ssg81
g1411
sg74
(lp1418
S'remote_port'
p1419
asbag67
(g88
g69
NtRp1420
(dp1421
g72
(dp1422
g99
g100
ssg81
g1411
sg74
(lp1423
S':'
asbag67
(g88
g69
NtRp1424
(dp1425
g72
(dp1426
sg81
g1411
sg74
(lp1427
g67
(g68
g69
NtRp1428
(dp1429
g72
(dp1430
g80
I4
ssg81
g1424
sg74
(lp1431
S'55260'
p1432
asbasbasbag67
(g83
g69
NtRp1433
(dp1434
g72
(dp1435
sg81
g857
sg74
(lp1436
g67
(g88
g69
NtRp1437
(dp1438
g72
(dp1439
g92
g93
ssg81
g1433
sg74
(lp1440
S'request_method'
p1441
asbag67
(g88
g69
NtRp1442
(dp1443
g72
(dp1444
g99
g100
ssg81
g1433
sg74
(lp1445
S':'
asbag67
(g88
g69
NtRp1446
(dp1447
g72
(dp1448
sg81
g1433
sg74
(lp1449
g67
(g68
g69
NtRp1450
(dp1451
g72
(dp1452
g80
I4
ssg81
g1446
sg74
(lp1453
S'GET'
p1454
asbasbasbag67
(g83
g69
NtRp1455
(dp1456
g72
(dp1457
sg81
g857
sg74
(lp1458
g67
(g88
g69
NtRp1459
(dp1460
g72
(dp1461
g92
g93
ssg81
g1455
sg74
(lp1462
S'request_uri'
p1463
asbag67
(g88
g69
NtRp1464
(dp1465
g72
(dp1466
g99
g100
ssg81
g1455
sg74
(lp1467
S':'
asbag67
(g88
g69
NtRp1468
(dp1469
g72
(dp1470
sg81
g1455
sg74
(lp1471
g67
(g68
g69
NtRp1472
(dp1473
g72
(dp1474
g80
I4
ssg81
g1468
sg74
(lp1475
g1368
asbasbasbag67
(g83
g69
NtRp1476
(dp1477
g72
(dp1478
sg81
g857
sg74
(lp1479
g67
(g88
g69
NtRp1480
(dp1481
g72
(dp1482
g92
g93
ssg81
g1476
sg74
(lp1483
S'script_name'
p1484
asbag67
(g88
g69
NtRp1485
(dp1486
g72
(dp1487
g99
g100
ssg81
g1476
sg74
(lp1488
S':'
asbag67
(g88
g69
NtRp1489
(dp1490
g72
(dp1491
sg81
g1476
sg74
(lp1492
g67
(g68
g69
NtRp1493
(dp1494
g72
(dp1495
g80
I4
ssg81
g1489
sg74
(lp1496
S''
asbasbasbag67
(g83
g69
NtRp1497
(dp1498
g72
(dp1499
sg81
g857
sg74
(lp1500
g67
(g88
g69
NtRp1501
(dp1502
g72
(dp1503
g92
g93
ssg81
g1497
sg74
(lp1504
S'server_name'
p1505
asbag67
(g88
g69
NtRp1506
(dp1507
g72
(dp1508
g99
g100
ssg81
g1497
sg74
(lp1509
S':'
asbag67
(g88
g69
NtRp1510
(dp1511
g72
(dp1512
sg81
g1497
sg74
(lp1513
g67
(g68
g69
NtRp1514
(dp1515
g72
(dp1516
g80
I4
ssg81
g1510
sg74
(lp1517
S'gaurav-Compaq-Presario-C700-Notebook-PC'
p1518
asbasbasbag67
(g83
g69
NtRp1519
(dp1520
g72
(dp1521
sg81
g857
sg74
(lp1522
g67
(g88
g69
NtRp1523
(dp1524
g72
(dp1525
g92
g93
ssg81
g1519
sg74
(lp1526
S'server_port'
p1527
asbag67
(g88
g69
NtRp1528
(dp1529
g72
(dp1530
g99
g100
ssg81
g1519
sg74
(lp1531
S':'
asbag67
(g88
g69
NtRp1532
(dp1533
g72
(dp1534
sg81
g1519
sg74
(lp1535
g67
(g68
g69
NtRp1536
(dp1537
g72
(dp1538
g80
I4
ssg81
g1532
sg74
(lp1539
S'8000'
p1540
asbasbasbag67
(g83
g69
NtRp1541
(dp1542
g72
(dp1543
sg81
g857
sg74
(lp1544
g67
(g88
g69
NtRp1545
(dp1546
g72
(dp1547
g92
g93
ssg81
g1541
sg74
(lp1548
S'server_protocol'
p1549
asbag67
(g88
g69
NtRp1550
(dp1551
g72
(dp1552
g99
g100
ssg81
g1541
sg74
(lp1553
S':'
asbag67
(g88
g69
NtRp1554
(dp1555
g72
(dp1556
sg81
g1541
sg74
(lp1557
g67
(g68
g69
NtRp1558
(dp1559
g72
(dp1560
g80
I4
ssg81
g1554
sg74
(lp1561
S'HTTP/1.1'
p1562
asbasbasbag67
(g83
g69
NtRp1563
(dp1564
g72
(dp1565
sg81
g857
sg74
(lp1566
g67
(g88
g69
NtRp1567
(dp1568
g72
(dp1569
g92
g93
ssg81
g1563
sg74
(lp1570
S'server_software'
p1571
asbag67
(g88
g69
NtRp1572
(dp1573
g72
(dp1574
g99
g100
ssg81
g1563
sg74
(lp1575
S':'
asbag67
(g88
g69
NtRp1576
(dp1577
g72
(dp1578
sg81
g1563
sg74
(lp1579
g67
(g68
g69
NtRp1580
(dp1581
g72
(dp1582
g80
I4
ssg81
g1576
sg74
(lp1583
S'Rocket 1.2.6'
p1584
asbasbasbag67
(g83
g69
NtRp1585
(dp1586
g72
(dp1587
sg81
g857
sg74
(lp1588
g67
(g88
g69
NtRp1589
(dp1590
g72
(dp1591
g92
g93
ssg81
g1585
sg74
(lp1592
S'web2py_path'
p1593
asbag67
(g88
g69
NtRp1594
(dp1595
g72
(dp1596
g99
g100
ssg81
g1585
sg74
(lp1597
S':'
asbag67
(g88
g69
NtRp1598
(dp1599
g72
(dp1600
sg81
g1585
sg74
(lp1601
g67
(g68
g69
NtRp1602
(dp1603
g72
(dp1604
g80
I4
ssg81
g1598
sg74
(lp1605
g904
asbasbasbag67
(g83
g69
NtRp1606
(dp1607
g72
(dp1608
sg81
g857
sg74
(lp1609
g67
(g88
g69
NtRp1610
(dp1611
g72
(dp1612
g92
g93
ssg81
g1606
sg74
(lp1613
S'web2py_version'
p1614
asbag67
(g88
g69
NtRp1615
(dp1616
g72
(dp1617
g99
g100
ssg81
g1606
sg74
(lp1618
S':'
asbag67
(g88
g69
NtRp1619
(dp1620
g72
(dp1621
sg81
g1606
sg74
(lp1622
g67
(g68
g69
NtRp1623
(dp1624
g72
(dp1625
g80
I4
ssg81
g1619
sg74
(lp1626
g67
(g76
g69
NtRp1627
(dp1628
g72
(dp1629
g80
I3
ssg81
Nsg74
(lp1630
g67
(g83
g69
NtRp1631
(dp1632
g72
(dp1633
sg81
g1627
sg74
(lp1634
g67
(g88
g69
NtRp1635
(dp1636
g72
(dp1637
sg81
g1631
sg74
(lp1638
g67
(g68
g69
NtRp1639
(dp1640
g72
(dp1641
g80
I3
ssg81
g1635
sg74
(lp1642
S'2'
asbasbasbag67
(g83
g69
NtRp1643
(dp1644
g72
(dp1645
sg81
g1627
sg74
(lp1646
g67
(g88
g69
NtRp1647
(dp1648
g72
(dp1649
sg81
g1643
sg74
(lp1650
g67
(g68
g69
NtRp1651
(dp1652
g72
(dp1653
g80
I3
ssg81
g1647
sg74
(lp1654
S'3'
asbasbasbag67
(g83
g69
NtRp1655
(dp1656
g72
(dp1657
sg81
g1627
sg74
(lp1658
g67
(g88
g69
NtRp1659
(dp1660
g72
(dp1661
sg81
g1655
sg74
(lp1662
g67
(g68
g69
NtRp1663
(dp1664
g72
(dp1665
g80
I3
ssg81
g1659
sg74
(lp1666
S'2'
asbasbasbag67
(g83
g69
NtRp1667
(dp1668
g72
(dp1669
sg81
g1627
sg74
(lp1670
g67
(g88
g69
NtRp1671
(dp1672
g72
(dp1673
sg81
g1667
sg74
(lp1674
g67
(g68
g69
NtRp1675
(dp1676
g72
(dp1677
g80
I3
ssg81
g1671
sg74
(lp1678
S'datetime.datetime(2012, 12, 17, 15, 3, 30)'
p1679
asbasbasbag67
(g83
g69
NtRp1680
(dp1681
g72
(dp1682
sg81
g1627
sg74
(lp1683
g67
(g88
g69
NtRp1684
(dp1685
g72
(dp1686
sg81
g1680
sg74
(lp1687
g67
(g68
g69
NtRp1688
(dp1689
g72
(dp1690
g80
I3
ssg81
g1684
sg74
(lp1691
S'stable'
p1692
asbasbasbasbasbasbasbag67
(g83
g69
NtRp1693
(dp1694
g72
(dp1695
sg81
g857
sg74
(lp1696
g67
(g88
g69
NtRp1697
(dp1698
g72
(dp1699
g92
g93
ssg81
g1693
sg74
(lp1700
S'wsgi_errors'
p1701
asbag67
(g88
g69
NtRp1702
(dp1703
g72
(dp1704
g99
g100
ssg81
g1693
sg74
(lp1705
S':'
asbag67
(g88
g69
NtRp1706
(dp1707
g72
(dp1708
sg81
g1693
sg74
(lp1709
g67
(g68
g69
NtRp1710
(dp1711
g72
(dp1712
g80
I4
ssg81
g1706
sg74
(lp1713
S"<open file '<stderr>', mode 'w' at 0xb748a0d0>"
p1714
asbasbasbag67
(g83
g69
NtRp1715
(dp1716
g72
(dp1717
sg81
g857
sg74
(lp1718
g67
(g88
g69
NtRp1719
(dp1720
g72
(dp1721
g92
g93
ssg81
g1715
sg74
(lp1722
S'wsgi_file_wrapper'
p1723
asbag67
(g88
g69
NtRp1724
(dp1725
g72
(dp1726
g99
g100
ssg81
g1715
sg74
(lp1727
S':'
asbag67
(g88
g69
NtRp1728
(dp1729
g72
(dp1730
sg81
g1715
sg74
(lp1731
g67
(g68
g69
NtRp1732
(dp1733
g72
(dp1734
g80
I4
ssg81
g1728
sg74
(lp1735
S'<class wsgiref.util.FileWrapper at 0x9515ecc>'
p1736
asbasbasbag67
(g83
g69
NtRp1737
(dp1738
g72
(dp1739
sg81
g857
sg74
(lp1740
g67
(g88
g69
NtRp1741
(dp1742
g72
(dp1743
g92
g93
ssg81
g1737
sg74
(lp1744
S'wsgi_input'
p1745
asbag67
(g88
g69
NtRp1746
(dp1747
g72
(dp1748
g99
g100
ssg81
g1737
sg74
(lp1749
S':'
asbag67
(g88
g69
NtRp1750
(dp1751
g72
(dp1752
sg81
g1737
sg74
(lp1753
g67
(g68
g69
NtRp1754
(dp1755
g72
(dp1756
g80
I4
ssg81
g1750
sg74
(lp1757
S'<socket._fileobject object at 0xae076dac>'
p1758
asbasbasbag67
(g83
g69
NtRp1759
(dp1760
g72
(dp1761
sg81
g857
sg74
(lp1762
g67
(g88
g69
NtRp1763
(dp1764
g72
(dp1765
g92
g93
ssg81
g1759
sg74
(lp1766
S'wsgi_multiprocess'
p1767
asbag67
(g88
g69
NtRp1768
(dp1769
g72
(dp1770
g99
g100
ssg81
g1759
sg74
(lp1771
S':'
asbag67
(g88
g69
NtRp1772
(dp1773
g72
(dp1774
sg81
g1759
sg74
(lp1775
g67
(g68
g69
NtRp1776
(dp1777
g72
(dp1778
g80
I4
ssg81
g1772
sg74
(lp1779
g110
asbasbasbag67
(g83
g69
NtRp1780
(dp1781
g72
(dp1782
sg81
g857
sg74
(lp1783
g67
(g88
g69
NtRp1784
(dp1785
g72
(dp1786
g92
g93
ssg81
g1780
sg74
(lp1787
S'wsgi_multithread'
p1788
asbag67
(g88
g69
NtRp1789
(dp1790
g72
(dp1791
g99
g100
ssg81
g1780
sg74
(lp1792
S':'
asbag67
(g88
g69
NtRp1793
(dp1794
g72
(dp1795
sg81
g1780
sg74
(lp1796
g67
(g68
g69
NtRp1797
(dp1798
g72
(dp1799
g80
I4
ssg81
g1793
sg74
(lp1800
S'True'
p1801
asbasbasbag67
(g83
g69
NtRp1802
(dp1803
g72
(dp1804
sg81
g857
sg74
(lp1805
g67
(g88
g69
NtRp1806
(dp1807
g72
(dp1808
g92
g93
ssg81
g1802
sg74
(lp1809
S'wsgi_run_once'
p1810
asbag67
(g88
g69
NtRp1811
(dp1812
g72
(dp1813
g99
g100
ssg81
g1802
sg74
(lp1814
S':'
asbag67
(g88
g69
NtRp1815
(dp1816
g72
(dp1817
sg81
g1802
sg74
(lp1818
g67
(g68
g69
NtRp1819
(dp1820
g72
(dp1821
g80
I4
ssg81
g1815
sg74
(lp1822
g110
asbasbasbag67
(g83
g69
NtRp1823
(dp1824
g72
(dp1825
sg81
g857
sg74
(lp1826
g67
(g88
g69
NtRp1827
(dp1828
g72
(dp1829
g92
g93
ssg81
g1823
sg74
(lp1830
S'wsgi_url_scheme'
p1831
asbag67
(g88
g69
NtRp1832
(dp1833
g72
(dp1834
g99
g100
ssg81
g1823
sg74
(lp1835
S':'
asbag67
(g88
g69
NtRp1836
(dp1837
g72
(dp1838
sg81
g1823
sg74
(lp1839
g67
(g68
g69
NtRp1840
(dp1841
g72
(dp1842
g80
I4
ssg81
g1836
sg74
(lp1843
S'http'
p1844
asbasbasbag67
(g83
g69
NtRp1845
(dp1846
g72
(dp1847
sg81
g857
sg74
(lp1848
g67
(g88
g69
NtRp1849
(dp1850
g72
(dp1851
g92
g93
ssg81
g1845
sg74
(lp1852
S'wsgi_version'
p1853
asbag67
(g88
g69
NtRp1854
(dp1855
g72
(dp1856
g99
g100
ssg81
g1845
sg74
(lp1857
S':'
asbag67
(g88
g69
NtRp1858
(dp1859
g72
(dp1860
sg81
g1845
sg74
(lp1861
g67
(g68
g69
NtRp1862
(dp1863
g72
(dp1864
g80
I4
ssg81
g1858
sg74
(lp1865
g67
(g76
g69
NtRp1866
(dp1867
g72
(dp1868
g80
I3
ssg81
Nsg74
(lp1869
g67
(g83
g69
NtRp1870
(dp1871
g72
(dp1872
sg81
g1866
sg74
(lp1873
g67
(g88
g69
NtRp1874
(dp1875
g72
(dp1876
sg81
g1870
sg74
(lp1877
g67
(g68
g69
NtRp1878
(dp1879
g72
(dp1880
g80
I3
ssg81
g1874
sg74
(lp1881
S'1'
asbasbasbag67
(g83
g69
NtRp1882
(dp1883
g72
(dp1884
sg81
g1866
sg74
(lp1885
g67
(g88
g69
NtRp1886
(dp1887
g72
(dp1888
sg81
g1882
sg74
(lp1889
g67
(g68
g69
NtRp1890
(dp1891
g72
(dp1892
g80
I3
ssg81
g1886
sg74
(lp1893
S'0'
asbasbasbasbasbasbasbasbasbasbasbag67
(g83
g69
NtRp1894
(dp1895
g72
(dp1896
sg81
g77
sg74
(lp1897
g67
(g88
g69
NtRp1898
(dp1899
g72
(dp1900
g92
g93
ssg81
g1894
sg74
(lp1901
S'extension'
p1902
asbag67
(g88
g69
NtRp1903
(dp1904
g72
(dp1905
g99
g100
ssg81
g1894
sg74
(lp1906
S':'
asbag67
(g88
g69
NtRp1907
(dp1908
g72
(dp1909
sg81
g1894
sg74
(lp1910
g67
(g68
g69
NtRp1911
(dp1912
g72
(dp1913
g80
I5
ssg81
g1907
sg74
(lp1914
S'html'
p1915
asbasbasbag67
(g83
g69
NtRp1916
(dp1917
g72
(dp1918
sg81
g77
sg74
(lp1919
g67
(g88
g69
NtRp1920
(dp1921
g72
(dp1922
g92
g93
ssg81
g1916
sg74
(lp1923
S'folder'
p1924
asbag67
(g88
g69
NtRp1925
(dp1926
g72
(dp1927
g99
g100
ssg81
g1916
sg74
(lp1928
S':'
asbag67
(g88
g69
NtRp1929
(dp1930
g72
(dp1931
sg81
g1916
sg74
(lp1932
g67
(g68
g69
NtRp1933
(dp1934
g72
(dp1935
g80
I5
ssg81
g1929
sg74
(lp1936
S'/home/gaurav/classwork/WEB_PROGRAMMING/web2py/applications/ggg/'
p1937
asbasbasbag67
(g83
g69
NtRp1938
(dp1939
g72
(dp1940
sg81
g77
sg74
(lp1941
g67
(g88
g69
NtRp1942
(dp1943
g72
(dp1944
g92
g93
ssg81
g1938
sg74
(lp1945
S'function'
p1946
asbag67
(g88
g69
NtRp1947
(dp1948
g72
(dp1949
g99
g100
ssg81
g1938
sg74
(lp1950
S':'
asbag67
(g88
g69
NtRp1951
(dp1952
g72
(dp1953
sg81
g1938
sg74
(lp1954
g67
(g68
g69
NtRp1955
(dp1956
g72
(dp1957
g80
I5
ssg81
g1951
sg74
(lp1958
S'index'
p1959
asbasbasbag67
(g83
g69
NtRp1960
(dp1961
g72
(dp1962
sg81
g77
sg74
(lp1963
g67
(g88
g69
NtRp1964
(dp1965
g72
(dp1966
g92
g93
ssg81
g1960
sg74
(lp1967
S'get_vars'
p1968
asbag67
(g88
g69
NtRp1969
(dp1970
g72
(dp1971
g99
g100
ssg81
g1960
sg74
(lp1972
S':'
asbag67
(g88
g69
NtRp1973
(dp1974
g72
(dp1975
sg81
g1960
sg74
(lp1976
g67
(g68
g69
NtRp1977
(dp1978
g72
(dp1979
g80
I5
ssg81
g1973
sg74
(lp1980
g67
(g76
g69
NtRp1981
(dp1982
g72
(dp1983
g80
I4
ssg81
Nsg74
(lp1984
sbasbasbasbag67
(g83
g69
NtRp1985
(dp1986
g72
(dp1987
sg81
g77
sg74
(lp1988
g67
(g88
g69
NtRp1989
(dp1990
g72
(dp1991
g92
g93
ssg81
g1985
sg74
(lp1992
S'global_settings'
p1993
asbag67
(g88
g69
NtRp1994
(dp1995
g72
(dp1996
g99
g100
ssg81
g1985
sg74
(lp1997
S':'
asbag67
(g88
g69
NtRp1998
(dp1999
g72
(dp2000
sg81
g1985
sg74
(lp2001
g67
(g68
g69
NtRp2002
(dp2003
g72
(dp2004
g80
I5
ssg81
g1998
sg74
(lp2005
g67
(g76
g69
NtRp2006
(dp2007
g72
(dp2008
g80
I4
ssg81
Nsg74
(lp2009
g67
(g83
g69
NtRp2010
(dp2011
g72
(dp2012
sg81
g2006
sg74
(lp2013
g67
(g88
g69
NtRp2014
(dp2015
g72
(dp2016
g92
g93
ssg81
g2010
sg74
(lp2017
g869
asbag67
(g88
g69
NtRp2018
(dp2019
g72
(dp2020
g99
g100
ssg81
g2010
sg74
(lp2021
S':'
asbag67
(g88
g69
NtRp2022
(dp2023
g72
(dp2024
sg81
g2010
sg74
(lp2025
g67
(g68
g69
NtRp2026
(dp2027
g72
(dp2028
g80
I4
ssg81
g2022
sg74
(lp2029
S"set(['/home/gaurav/classwork/WEB_PROGRAMMING/web2py/applications/ggg/', '/home/gaurav/classwork/WEB_PROGRAMMING/web2py/applications/admin/', '/home/gaurav/classwork/WEB_PROGRAMMING/web2py/applications/welcome/'])"
p2030
asbasbasbag67
(g83
g69
NtRp2031
(dp2032
g72
(dp2033
sg81
g2006
sg74
(lp2034
g67
(g88
g69
NtRp2035
(dp2036
g72
(dp2037
g92
g93
ssg81
g2031
sg74
(lp2038
g891
asbag67
(g88
g69
NtRp2039
(dp2040
g72
(dp2041
g99
g100
ssg81
g2031
sg74
(lp2042
S':'
asbag67
(g88
g69
NtRp2043
(dp2044
g72
(dp2045
sg81
g2031
sg74
(lp2046
g67
(g68
g69
NtRp2047
(dp2048
g72
(dp2049
g80
I4
ssg81
g2043
sg74
(lp2050
g904
asbasbasbag67
(g83
g69
NtRp2051
(dp2052
g72
(dp2053
sg81
g2006
sg74
(lp2054
g67
(g88
g69
NtRp2055
(dp2056
g72
(dp2057
g92
g93
ssg81
g2051
sg74
(lp2058
g913
asbag67
(g88
g69
NtRp2059
(dp2060
g72
(dp2061
g99
g100
ssg81
g2051
sg74
(lp2062
S':'
asbag67
(g88
g69
NtRp2063
(dp2064
g72
(dp2065
sg81
g2051
sg74
(lp2066
g67
(g68
g69
NtRp2067
(dp2068
g72
(dp2069
g80
I4
ssg81
g2063
sg74
(lp2070
g67
(g76
g69
NtRp2071
(dp2072
g72
(dp2073
g80
I3
ssg81
Nsg74
(lp2074
sbasbasbasbag67
(g83
g69
NtRp2075
(dp2076
g72
(dp2077
sg81
g2006
sg74
(lp2078
g67
(g88
g69
NtRp2079
(dp2080
g72
(dp2081
g92
g93
ssg81
g2075
sg74
(lp2082
g938
asbag67
(g88
g69
NtRp2083
(dp2084
g72
(dp2085
g99
g100
ssg81
g2075
sg74
(lp2086
S':'
asbag67
(g88
g69
NtRp2087
(dp2088
g72
(dp2089
sg81
g2075
sg74
(lp2090
g67
(g68
g69
NtRp2091
(dp2092
g72
(dp2093
g80
I4
ssg81
g2087
sg74
(lp2094
S"<Values at 0x95636ec: {'verbose': False, 'ip': '127.0.0.1', 'with_scheduler': False, 'ips': [], 'shutdown_timeout': 5, 'taskbar': False, 'port': 8000, 'maxthreads': None, 'softcron': False, 'server_name': 'gaurav-Compaq-Presario-C700-Notebook-PC', 'bpython': False, 'nogui': False, 'pid_filename': 'httpserver.pid', 'extcron': False, 'runcron': False, 'run_system_tests': False, 'test': None, 'folder': '/home/gaurav/classwork/WEB_PROGRAMMING/web2py', 'config': '', 'import_models': False, 'winservice': '', 'shell': None, 'run': '', 'log_filename': 'httpserver.log', 'debuglevel': 30, 'args': [''], 'socket_timeout': 5, 'ssl_ca_certificate': None, 'scheduler': None, 'profiler_filename': None, 'ssl_private_key': '', 'scheduler_groups': None, 'password': '<ask>', 'request_queue_size': 5, 'ssl_certificate': '', 'cronjob': False, 'numthreads': None, 'quiet': False, 'interfaces': None, 'minthreads': None, 'timeout': 10, 'plain': False, 'nobanner': False}>"
p2095
asbasbasbag67
(g83
g69
NtRp2096
(dp2097
g72
(dp2098
sg81
g2006
sg74
(lp2099
g67
(g88
g69
NtRp2100
(dp2101
g72
(dp2102
g92
g93
ssg81
g2096
sg74
(lp2103
g960
asbag67
(g88
g69
NtRp2104
(dp2105
g72
(dp2106
g99
g100
ssg81
g2096
sg74
(lp2107
S':'
asbag67
(g88
g69
NtRp2108
(dp2109
g72
(dp2110
sg81
g2096
sg74
(lp2111
g67
(g68
g69
NtRp2112
(dp2113
g72
(dp2114
g80
I4
ssg81
g2108
sg74
(lp2115
S'set([])'
p2116
asbasbasbag67
(g83
g69
NtRp2117
(dp2118
g72
(dp2119
sg81
g2006
sg74
(lp2120
g67
(g88
g69
NtRp2121
(dp2122
g72
(dp2123
g92
g93
ssg81
g2117
sg74
(lp2124
g982
asbag67
(g88
g69
NtRp2125
(dp2126
g72
(dp2127
g99
g100
ssg81
g2117
sg74
(lp2128
S':'
asbag67
(g88
g69
NtRp2129
(dp2130
g72
(dp2131
sg81
g2117
sg74
(lp2132
g67
(g68
g69
NtRp2133
(dp2134
g72
(dp2135
g80
I4
ssg81
g2129
sg74
(lp2136
g110
asbasbasbag67
(g83
g69
NtRp2137
(dp2138
g72
(dp2139
sg81
g2006
sg74
(lp2140
g67
(g88
g69
NtRp2141
(dp2142
g72
(dp2143
g92
g93
ssg81
g2137
sg74
(lp2144
g1003
asbag67
(g88
g69
NtRp2145
(dp2146
g72
(dp2147
g99
g100
ssg81
g2137
sg74
(lp2148
S':'
asbag67
(g88
g69
NtRp2149
(dp2150
g72
(dp2151
sg81
g2137
sg74
(lp2152
g67
(g68
g69
NtRp2153
(dp2154
g72
(dp2155
g80
I4
ssg81
g2149
sg74
(lp2156
g1016
asbasbasbag67
(g83
g69
NtRp2157
(dp2158
g72
(dp2159
sg81
g2006
sg74
(lp2160
g67
(g88
g69
NtRp2161
(dp2162
g72
(dp2163
g92
g93
ssg81
g2157
sg74
(lp2164
g1223
asbag67
(g88
g69
NtRp2165
(dp2166
g72
(dp2167
g99
g100
ssg81
g2157
sg74
(lp2168
S':'
asbag67
(g88
g69
NtRp2169
(dp2170
g72
(dp2171
sg81
g2157
sg74
(lp2172
g67
(g68
g69
NtRp2173
(dp2174
g72
(dp2175
g80
I4
ssg81
g2169
sg74
(lp2176
g110
asbasbasbag67
(g83
g69
NtRp2177
(dp2178
g72
(dp2179
sg81
g2006
sg74
(lp2180
g67
(g88
g69
NtRp2181
(dp2182
g72
(dp2183
g92
g93
ssg81
g2177
sg74
(lp2184
g1244
asbag67
(g88
g69
NtRp2185
(dp2186
g72
(dp2187
g99
g100
ssg81
g2177
sg74
(lp2188
S':'
asbag67
(g88
g69
NtRp2189
(dp2190
g72
(dp2191
sg81
g2177
sg74
(lp2192
g67
(g68
g69
NtRp2193
(dp2194
g72
(dp2195
g80
I4
ssg81
g2189
sg74
(lp2196
g110
asbasbasbag67
(g83
g69
NtRp2197
(dp2198
g72
(dp2199
sg81
g2006
sg74
(lp2200
g67
(g88
g69
NtRp2201
(dp2202
g72
(dp2203
g92
g93
ssg81
g2197
sg74
(lp2204
g1265
asbag67
(g88
g69
NtRp2205
(dp2206
g72
(dp2207
g99
g100
ssg81
g2197
sg74
(lp2208
S':'
asbag67
(g88
g69
NtRp2209
(dp2210
g72
(dp2211
sg81
g2197
sg74
(lp2212
g67
(g68
g69
NtRp2213
(dp2214
g72
(dp2215
g80
I4
ssg81
g2209
sg74
(lp2216
g67
(g76
g69
NtRp2217
(dp2218
g72
(dp2219
g80
I3
ssg81
Nsg74
(lp2220
g67
(g83
g69
NtRp2221
(dp2222
g72
(dp2223
sg81
g2217
sg74
(lp2224
g67
(g88
g69
NtRp2225
(dp2226
g72
(dp2227
sg81
g2221
sg74
(lp2228
g67
(g68
g69
NtRp2229
(dp2230
g72
(dp2231
g80
I3
ssg81
g2225
sg74
(lp2232
g1294
asbasbasbag67
(g83
g69
NtRp2233
(dp2234
g72
(dp2235
sg81
g2217
sg74
(lp2236
g67
(g88
g69
NtRp2237
(dp2238
g72
(dp2239
sg81
g2233
sg74
(lp2240
g67
(g68
g69
NtRp2241
(dp2242
g72
(dp2243
g80
I3
ssg81
g2237
sg74
(lp2244
g1307
asbasbasbag67
(g83
g69
NtRp2245
(dp2246
g72
(dp2247
sg81
g2217
sg74
(lp2248
g67
(g88
g69
NtRp2249
(dp2250
g72
(dp2251
sg81
g2245
sg74
(lp2252
g67
(g68
g69
NtRp2253
(dp2254
g72
(dp2255
g80
I3
ssg81
g2249
sg74
(lp2256
g1320
asbasbasbag67
(g83
g69
NtRp2257
(dp2258
g72
(dp2259
sg81
g2217
sg74
(lp2260
g67
(g88
g69
NtRp2261
(dp2262
g72
(dp2263
sg81
g2257
sg74
(lp2264
g67
(g68
g69
NtRp2265
(dp2266
g72
(dp2267
g80
I3
ssg81
g2261
sg74
(lp2268
g1333
asbasbasbag67
(g83
g69
NtRp2269
(dp2270
g72
(dp2271
sg81
g2217
sg74
(lp2272
g67
(g88
g69
NtRp2273
(dp2274
g72
(dp2275
sg81
g2269
sg74
(lp2276
g67
(g68
g69
NtRp2277
(dp2278
g72
(dp2279
g80
I3
ssg81
g2273
sg74
(lp2280
g1346
asbasbasbasbasbasbasbag67
(g83
g69
NtRp2281
(dp2282
g72
(dp2283
sg81
g2006
sg74
(lp2284
g67
(g88
g69
NtRp2285
(dp2286
g72
(dp2287
g92
g93
ssg81
g2281
sg74
(lp2288
g1614
asbag67
(g88
g69
NtRp2289
(dp2290
g72
(dp2291
g99
g100
ssg81
g2281
sg74
(lp2292
S':'
asbag67
(g88
g69
NtRp2293
(dp2294
g72
(dp2295
sg81
g2281
sg74
(lp2296
g67
(g68
g69
NtRp2297
(dp2298
g72
(dp2299
g80
I4
ssg81
g2293
sg74
(lp2300
g67
(g76
g69
NtRp2301
(dp2302
g72
(dp2303
g80
I3
ssg81
Nsg74
(lp2304
g67
(g83
g69
NtRp2305
(dp2306
g72
(dp2307
sg81
g2301
sg74
(lp2308
g67
(g88
g69
NtRp2309
(dp2310
g72
(dp2311
sg81
g2305
sg74
(lp2312
g67
(g68
g69
NtRp2313
(dp2314
g72
(dp2315
g80
I3
ssg81
g2309
sg74
(lp2316
S'2'
asbasbasbag67
(g83
g69
NtRp2317
(dp2318
g72
(dp2319
sg81
g2301
sg74
(lp2320
g67
(g88
g69
NtRp2321
(dp2322
g72
(dp2323
sg81
g2317
sg74
(lp2324
g67
(g68
g69
NtRp2325
(dp2326
g72
(dp2327
g80
I3
ssg81
g2321
sg74
(lp2328
S'3'
asbasbasbag67
(g83
g69
NtRp2329
(dp2330
g72
(dp2331
sg81
g2301
sg74
(lp2332
g67
(g88
g69
NtRp2333
(dp2334
g72
(dp2335
sg81
g2329
sg74
(lp2336
g67
(g68
g69
NtRp2337
(dp2338
g72
(dp2339
g80
I3
ssg81
g2333
sg74
(lp2340
S'2'
asbasbasbag67
(g83
g69
NtRp2341
(dp2342
g72
(dp2343
sg81
g2301
sg74
(lp2344
g67
(g88
g69
NtRp2345
(dp2346
g72
(dp2347
sg81
g2341
sg74
(lp2348
g67
(g68
g69
NtRp2349
(dp2350
g72
(dp2351
g80
I3
ssg81
g2345
sg74
(lp2352
S'datetime.datetime(2012, 12, 17, 15, 3, 30)'
p2353
asbasbasbag67
(g83
g69
NtRp2354
(dp2355
g72
(dp2356
sg81
g2301
sg74
(lp2357
g67
(g88
g69
NtRp2358
(dp2359
g72
(dp2360
sg81
g2354
sg74
(lp2361
g67
(g68
g69
NtRp2362
(dp2363
g72
(dp2364
g80
I3
ssg81
g2358
sg74
(lp2365
g1692
asbasbasbasbasbasbasbasbasbasbasbag67
(g83
g69
NtRp2366
(dp2367
g72
(dp2368
sg81
g77
sg74
(lp2369
g67
(g88
g69
NtRp2370
(dp2371
g72
(dp2372
g92
g93
ssg81
g2366
sg74
(lp2373
S'is_https'
p2374
asbag67
(g88
g69
NtRp2375
(dp2376
g72
(dp2377
g99
g100
ssg81
g2366
sg74
(lp2378
S':'
asbag67
(g88
g69
NtRp2379
(dp2380
g72
(dp2381
sg81
g2366
sg74
(lp2382
g67
(g68
g69
NtRp2383
(dp2384
g72
(dp2385
g80
I5
ssg81
g2379
sg74
(lp2386
g110
asbasbasbag67
(g83
g69
NtRp2387
(dp2388
g72
(dp2389
sg81
g77
sg74
(lp2390
g67
(g88
g69
NtRp2391
(dp2392
g72
(dp2393
g92
g93
ssg81
g2387
sg74
(lp2394
S'is_local'
p2395
asbag67
(g88
g69
NtRp2396
(dp2397
g72
(dp2398
g99
g100
ssg81
g2387
sg74
(lp2399
S':'
asbag67
(g88
g69
NtRp2400
(dp2401
g72
(dp2402
sg81
g2387
sg74
(lp2403
g67
(g68
g69
NtRp2404
(dp2405
g72
(dp2406
g80
I5
ssg81
g2400
sg74
(lp2407
g1801
asbasbasbag67
(g83
g69
NtRp2408
(dp2409
g72
(dp2410
sg81
g77
sg74
(lp2411
g67
(g88
g69
NtRp2412
(dp2413
g72
(dp2414
g92
g93
ssg81
g2408
sg74
(lp2415
S'is_restful'
p2416
asbag67
(g88
g69
NtRp2417
(dp2418
g72
(dp2419
g99
g100
ssg81
g2408
sg74
(lp2420
S':'
asbag67
(g88
g69
NtRp2421
(dp2422
g72
(dp2423
sg81
g2408
sg74
(lp2424
g67
(g68
g69
NtRp2425
(dp2426
g72
(dp2427
g80
I5
ssg81
g2421
sg74
(lp2428
g110
asbasbasbag67
(g83
g69
NtRp2429
(dp2430
g72
(dp2431
sg81
g77
sg74
(lp2432
g67
(g88
g69
NtRp2433
(dp2434
g72
(dp2435
g92
g93
ssg81
g2429
sg74
(lp2436
S'now'
p2437
asbag67
(g88
g69
NtRp2438
(dp2439
g72
(dp2440
g99
g100
ssg81
g2429
sg74
(lp2441
S':'
asbag67
(g88
g69
NtRp2442
(dp2443
g72
(dp2444
sg81
g2429
sg74
(lp2445
g67
(g68
g69
NtRp2446
(dp2447
g72
(dp2448
g80
I5
ssg81
g2442
sg74
(lp2449
S'datetime.datetime(2013, 3, 21, 18, 33, 41, 101187)'
p2450
asbasbasbag67
(g83
g69
NtRp2451
(dp2452
g72
(dp2453
sg81
g77
sg74
(lp2454
g67
(g88
g69
NtRp2455
(dp2456
g72
(dp2457
g92
g93
ssg81
g2451
sg74
(lp2458
S'post_vars'
p2459
asbag67
(g88
g69
NtRp2460
(dp2461
g72
(dp2462
g99
g100
ssg81
g2451
sg74
(lp2463
S':'
asbag67
(g88
g69
NtRp2464
(dp2465
g72
(dp2466
sg81
g2451
sg74
(lp2467
g67
(g68
g69
NtRp2468
(dp2469
g72
(dp2470
g80
I5
ssg81
g2464
sg74
(lp2471
g67
(g76
g69
NtRp2472
(dp2473
g72
(dp2474
g80
I4
ssg81
Nsg74
(lp2475
sbasbasbasbag67
(g83
g69
NtRp2476
(dp2477
g72
(dp2478
sg81
g77
sg74
(lp2479
g67
(g88
g69
NtRp2480
(dp2481
g72
(dp2482
g92
g93
ssg81
g2476
sg74
(lp2483
S'raw_args'
p2484
asbag67
(g88
g69
NtRp2485
(dp2486
g72
(dp2487
g99
g100
ssg81
g2476
sg74
(lp2488
S':'
asbag67
(g88
g69
NtRp2489
(dp2490
g72
(dp2491
sg81
g2476
sg74
(lp2492
g67
(g68
g69
NtRp2493
(dp2494
g72
(dp2495
g80
I5
ssg81
g2489
sg74
(lp2496
S''
asbasbasbag67
(g83
g69
NtRp2497
(dp2498
g72
(dp2499
sg81
g77
sg74
(lp2500
g67
(g88
g69
NtRp2501
(dp2502
g72
(dp2503
g92
g93
ssg81
g2497
sg74
(lp2504
S'raw_extension'
p2505
asbag67
(g88
g69
NtRp2506
(dp2507
g72
(dp2508
g99
g100
ssg81
g2497
sg74
(lp2509
S':'
asbag67
(g88
g69
NtRp2510
(dp2511
g72
(dp2512
sg81
g2497
sg74
(lp2513
g67
(g68
g69
NtRp2514
(dp2515
g72
(dp2516
g80
I5
ssg81
g2510
sg74
(lp2517
S'None'
p2518
asbasbasbag67
(g83
g69
NtRp2519
(dp2520
g72
(dp2521
sg81
g77
sg74
(lp2522
g67
(g88
g69
NtRp2523
(dp2524
g72
(dp2525
g92
g93
ssg81
g2519
sg74
(lp2526
S'url'
p2527
asbag67
(g88
g69
NtRp2528
(dp2529
g72
(dp2530
g99
g100
ssg81
g2519
sg74
(lp2531
S':'
asbag67
(g88
g69
NtRp2532
(dp2533
g72
(dp2534
sg81
g2519
sg74
(lp2535
g67
(g68
g69
NtRp2536
(dp2537
g72
(dp2538
g80
I5
ssg81
g2532
sg74
(lp2539
g1368
asbasbasbag67
(g83
g69
NtRp2540
(dp2541
g72
(dp2542
sg81
g77
sg74
(lp2543
g67
(g88
g69
NtRp2544
(dp2545
g72
(dp2546
g92
g93
ssg81
g2540
sg74
(lp2547
S'utcnow'
p2548
asbag67
(g88
g69
NtRp2549
(dp2550
g72
(dp2551
g99
g100
ssg81
g2540
sg74
(lp2552
S':'
asbag67
(g88
g69
NtRp2553
(dp2554
g72
(dp2555
sg81
g2540
sg74
(lp2556
g67
(g68
g69
NtRp2557
(dp2558
g72
(dp2559
g80
I5
ssg81
g2553
sg74
(lp2560
S'datetime.datetime(2013, 3, 21, 13, 3, 41, 101250)'
p2561
asbasbasbag67
(g83
g69
NtRp2562
(dp2563
g72
(dp2564
sg81
g77
sg74
(lp2565
g67
(g88
g69
NtRp2566
(dp2567
g72
(dp2568
g92
g93
ssg81
g2562
sg74
(lp2569
S'uuid'
p2570
asbag67
(g88
g69
NtRp2571
(dp2572
g72
(dp2573
g99
g100
ssg81
g2562
sg74
(lp2574
S':'
asbag67
(g88
g69
NtRp2575
(dp2576
g72
(dp2577
sg81
g2562
sg74
(lp2578
g67
(g68
g69
NtRp2579
(dp2580
g72
(dp2581
g80
I5
ssg81
g2575
sg74
(lp2582
S'ggg/127.0.0.1.2013-03-21.18-33-41.68964235-5a09-455f-92c1-9ac13d005178'
p2583
asbasbasbag67
(g83
g69
NtRp2584
(dp2585
g72
(dp2586
sg81
g77
sg74
(lp2587
g67
(g88
g69
NtRp2588
(dp2589
g72
(dp2590
g92
g93
ssg81
g2584
sg74
(lp2591
S'vars'
p2592
asbag67
(g88
g69
NtRp2593
(dp2594
g72
(dp2595
g99
g100
ssg81
g2584
sg74
(lp2596
S':'
asbag67
(g88
g69
NtRp2597
(dp2598
g72
(dp2599
sg81
g2584
sg74
(lp2600
g67
(g68
g69
NtRp2601
(dp2602
g72
(dp2603
g80
I5
ssg81
g2597
sg74
(lp2604
g67
(g76
g69
NtRp2605
(dp2606
g72
(dp2607
g80
I4
ssg81
Nsg74
(lp2608
sbasbasbasbag67
(g83
g69
NtRp2609
(dp2610
g72
(dp2611
sg81
g77
sg74
(lp2612
g67
(g88
g69
NtRp2613
(dp2614
g72
(dp2615
g92
g93
ssg81
g2609
sg74
(lp2616
S'wsgi'
p2617
asbag67
(g88
g69
NtRp2618
(dp2619
g72
(dp2620
g99
g100
ssg81
g2609
sg74
(lp2621
S':'
asbag67
(g88
g69
NtRp2622
(dp2623
g72
(dp2624
sg81
g2609
sg74
(lp2625
g67
(g68
g69
NtRp2626
(dp2627
g72
(dp2628
g80
I5
ssg81
g2622
sg74
(lp2629
g67
(g76
g69
NtRp2630
(dp2631
g72
(dp2632
g80
I4
ssg81
Nsg74
(lp2633
g67
(g83
g69
NtRp2634
(dp2635
g72
(dp2636
sg81
g2630
sg74
(lp2637
g67
(g88
g69
NtRp2638
(dp2639
g72
(dp2640
g92
g93
ssg81
g2634
sg74
(lp2641
S'environ'
p2642
asbag67
(g88
g69
NtRp2643
(dp2644
g72
(dp2645
g99
g100
ssg81
g2634
sg74
(lp2646
S':'
asbag67
(g88
g69
NtRp2647
(dp2648
g72
(dp2649
sg81
g2634
sg74
(lp2650
g67
(g68
g69
NtRp2651
(dp2652
g72
(dp2653
g80
I4
ssg81
g2647
sg74
(lp2654
g67
(g76
g69
NtRp2655
(dp2656
g72
(dp2657
g80
I3
ssg81
Nsg74
(lp2658
g67
(g83
g69
NtRp2659
(dp2660
g72
(dp2661
sg81
g2655
sg74
(lp2662
g67
(g88
g69
NtRp2663
(dp2664
g72
(dp2665
g92
g93
ssg81
g2659
sg74
(lp2666
S'HTTP_ACCEPT'
p2667
asbag67
(g88
g69
NtRp2668
(dp2669
g72
(dp2670
g99
g100
ssg81
g2659
sg74
(lp2671
S':'
asbag67
(g88
g69
NtRp2672
(dp2673
g72
(dp2674
sg81
g2659
sg74
(lp2675
g67
(g68
g69
NtRp2676
(dp2677
g72
(dp2678
g80
I3
ssg81
g2672
sg74
(lp2679
g1038
asbasbasbag67
(g83
g69
NtRp2680
(dp2681
g72
(dp2682
sg81
g2655
sg74
(lp2683
g67
(g88
g69
NtRp2684
(dp2685
g72
(dp2686
g92
g93
ssg81
g2680
sg74
(lp2687
S'HTTP_ACCEPT_ENCODING'
p2688
asbag67
(g88
g69
NtRp2689
(dp2690
g72
(dp2691
g99
g100
ssg81
g2680
sg74
(lp2692
S':'
asbag67
(g88
g69
NtRp2693
(dp2694
g72
(dp2695
sg81
g2680
sg74
(lp2696
g67
(g68
g69
NtRp2697
(dp2698
g72
(dp2699
g80
I3
ssg81
g2693
sg74
(lp2700
g1060
asbasbasbag67
(g83
g69
NtRp2701
(dp2702
g72
(dp2703
sg81
g2655
sg74
(lp2704
g67
(g88
g69
NtRp2705
(dp2706
g72
(dp2707
g92
g93
ssg81
g2701
sg74
(lp2708
S'HTTP_ACCEPT_LANGUAGE'
p2709
asbag67
(g88
g69
NtRp2710
(dp2711
g72
(dp2712
g99
g100
ssg81
g2701
sg74
(lp2713
S':'
asbag67
(g88
g69
NtRp2714
(dp2715
g72
(dp2716
sg81
g2701
sg74
(lp2717
g67
(g68
g69
NtRp2718
(dp2719
g72
(dp2720
g80
I3
ssg81
g2714
sg74
(lp2721
g1082
asbasbasbag67
(g83
g69
NtRp2722
(dp2723
g72
(dp2724
sg81
g2655
sg74
(lp2725
g67
(g88
g69
NtRp2726
(dp2727
g72
(dp2728
g92
g93
ssg81
g2722
sg74
(lp2729
S'HTTP_CACHE_CONTROL'
p2730
asbag67
(g88
g69
NtRp2731
(dp2732
g72
(dp2733
g99
g100
ssg81
g2722
sg74
(lp2734
S':'
asbag67
(g88
g69
NtRp2735
(dp2736
g72
(dp2737
sg81
g2722
sg74
(lp2738
g67
(g68
g69
NtRp2739
(dp2740
g72
(dp2741
g80
I3
ssg81
g2735
sg74
(lp2742
g1104
asbasbasbag67
(g83
g69
NtRp2743
(dp2744
g72
(dp2745
sg81
g2655
sg74
(lp2746
g67
(g88
g69
NtRp2747
(dp2748
g72
(dp2749
g92
g93
ssg81
g2743
sg74
(lp2750
S'HTTP_CONNECTION'
p2751
asbag67
(g88
g69
NtRp2752
(dp2753
g72
(dp2754
g99
g100
ssg81
g2743
sg74
(lp2755
S':'
asbag67
(g88
g69
NtRp2756
(dp2757
g72
(dp2758
sg81
g2743
sg74
(lp2759
g67
(g68
g69
NtRp2760
(dp2761
g72
(dp2762
g80
I3
ssg81
g2756
sg74
(lp2763
g1126
asbasbasbag67
(g83
g69
NtRp2764
(dp2765
g72
(dp2766
sg81
g2655
sg74
(lp2767
g67
(g88
g69
NtRp2768
(dp2769
g72
(dp2770
g92
g93
ssg81
g2764
sg74
(lp2771
S'HTTP_COOKIE'
p2772
asbag67
(g88
g69
NtRp2773
(dp2774
g72
(dp2775
g99
g100
ssg81
g2764
sg74
(lp2776
S':'
asbag67
(g88
g69
NtRp2777
(dp2778
g72
(dp2779
sg81
g2764
sg74
(lp2780
g67
(g68
g69
NtRp2781
(dp2782
g72
(dp2783
g80
I3
ssg81
g2777
sg74
(lp2784
g1148
asbasbasbag67
(g83
g69
NtRp2785
(dp2786
g72
(dp2787
sg81
g2655
sg74
(lp2788
g67
(g88
g69
NtRp2789
(dp2790
g72
(dp2791
g92
g93
ssg81
g2785
sg74
(lp2792
S'HTTP_HOST'
p2793
asbag67
(g88
g69
NtRp2794
(dp2795
g72
(dp2796
g99
g100
ssg81
g2785
sg74
(lp2797
S':'
asbag67
(g88
g69
NtRp2798
(dp2799
g72
(dp2800
sg81
g2785
sg74
(lp2801
g67
(g68
g69
NtRp2802
(dp2803
g72
(dp2804
g80
I3
ssg81
g2798
sg74
(lp2805
g1170
asbasbasbag67
(g83
g69
NtRp2806
(dp2807
g72
(dp2808
sg81
g2655
sg74
(lp2809
g67
(g88
g69
NtRp2810
(dp2811
g72
(dp2812
g92
g93
ssg81
g2806
sg74
(lp2813
S'HTTP_REFERER'
p2814
asbag67
(g88
g69
NtRp2815
(dp2816
g72
(dp2817
g99
g100
ssg81
g2806
sg74
(lp2818
S':'
asbag67
(g88
g69
NtRp2819
(dp2820
g72
(dp2821
sg81
g2806
sg74
(lp2822
g67
(g68
g69
NtRp2823
(dp2824
g72
(dp2825
g80
I3
ssg81
g2819
sg74
(lp2826
g1192
asbasbasbag67
(g83
g69
NtRp2827
(dp2828
g72
(dp2829
sg81
g2655
sg74
(lp2830
g67
(g88
g69
NtRp2831
(dp2832
g72
(dp2833
g92
g93
ssg81
g2827
sg74
(lp2834
S'HTTP_USER_AGENT'
p2835
asbag67
(g88
g69
NtRp2836
(dp2837
g72
(dp2838
g99
g100
ssg81
g2827
sg74
(lp2839
S':'
asbag67
(g88
g69
NtRp2840
(dp2841
g72
(dp2842
sg81
g2827
sg74
(lp2843
g67
(g68
g69
NtRp2844
(dp2845
g72
(dp2846
g80
I3
ssg81
g2840
sg74
(lp2847
g1214
asbasbasbag67
(g83
g69
NtRp2848
(dp2849
g72
(dp2850
sg81
g2655
sg74
(lp2851
g67
(g88
g69
NtRp2852
(dp2853
g72
(dp2854
g92
g93
ssg81
g2848
sg74
(lp2855
S'PATH_INFO'
p2856
asbag67
(g88
g69
NtRp2857
(dp2858
g72
(dp2859
g99
g100
ssg81
g2848
sg74
(lp2860
S':'
asbag67
(g88
g69
NtRp2861
(dp2862
g72
(dp2863
sg81
g2848
sg74
(lp2864
g67
(g68
g69
NtRp2865
(dp2866
g72
(dp2867
g80
I3
ssg81
g2861
sg74
(lp2868
g1368
asbasbasbag67
(g83
g69
NtRp2869
(dp2870
g72
(dp2871
sg81
g2655
sg74
(lp2872
g67
(g88
g69
NtRp2873
(dp2874
g72
(dp2875
g92
g93
ssg81
g2869
sg74
(lp2876
S'QUERY_STRING'
p2877
asbag67
(g88
g69
NtRp2878
(dp2879
g72
(dp2880
g99
g100
ssg81
g2869
sg74
(lp2881
S':'
asbag67
(g88
g69
NtRp2882
(dp2883
g72
(dp2884
sg81
g2869
sg74
(lp2885
g67
(g68
g69
NtRp2886
(dp2887
g72
(dp2888
g80
I3
ssg81
g2882
sg74
(lp2889
S''
asbasbasbag67
(g83
g69
NtRp2890
(dp2891
g72
(dp2892
sg81
g2655
sg74
(lp2893
g67
(g88
g69
NtRp2894
(dp2895
g72
(dp2896
g92
g93
ssg81
g2890
sg74
(lp2897
S'REMOTE_ADDR'
p2898
asbag67
(g88
g69
NtRp2899
(dp2900
g72
(dp2901
g99
g100
ssg81
g2890
sg74
(lp2902
S':'
asbag67
(g88
g69
NtRp2903
(dp2904
g72
(dp2905
sg81
g2890
sg74
(lp2906
g67
(g68
g69
NtRp2907
(dp2908
g72
(dp2909
g80
I3
ssg81
g2903
sg74
(lp2910
g222
asbasbasbag67
(g83
g69
NtRp2911
(dp2912
g72
(dp2913
sg81
g2655
sg74
(lp2914
g67
(g88
g69
NtRp2915
(dp2916
g72
(dp2917
g92
g93
ssg81
g2911
sg74
(lp2918
S'REMOTE_PORT'
p2919
asbag67
(g88
g69
NtRp2920
(dp2921
g72
(dp2922
g99
g100
ssg81
g2911
sg74
(lp2923
S':'
asbag67
(g88
g69
NtRp2924
(dp2925
g72
(dp2926
sg81
g2911
sg74
(lp2927
g67
(g68
g69
NtRp2928
(dp2929
g72
(dp2930
g80
I3
ssg81
g2924
sg74
(lp2931
g1432
asbasbasbag67
(g83
g69
NtRp2932
(dp2933
g72
(dp2934
sg81
g2655
sg74
(lp2935
g67
(g88
g69
NtRp2936
(dp2937
g72
(dp2938
g92
g93
ssg81
g2932
sg74
(lp2939
S'REQUEST_METHOD'
p2940
asbag67
(g88
g69
NtRp2941
(dp2942
g72
(dp2943
g99
g100
ssg81
g2932
sg74
(lp2944
S':'
asbag67
(g88
g69
NtRp2945
(dp2946
g72
(dp2947
sg81
g2932
sg74
(lp2948
g67
(g68
g69
NtRp2949
(dp2950
g72
(dp2951
g80
I3
ssg81
g2945
sg74
(lp2952
g1454
asbasbasbag67
(g83
g69
NtRp2953
(dp2954
g72
(dp2955
sg81
g2655
sg74
(lp2956
g67
(g88
g69
NtRp2957
(dp2958
g72
(dp2959
g92
g93
ssg81
g2953
sg74
(lp2960
S'REQUEST_URI'
p2961
asbag67
(g88
g69
NtRp2962
(dp2963
g72
(dp2964
g99
g100
ssg81
g2953
sg74
(lp2965
S':'
asbag67
(g88
g69
NtRp2966
(dp2967
g72
(dp2968
sg81
g2953
sg74
(lp2969
g67
(g68
g69
NtRp2970
(dp2971
g72
(dp2972
g80
I3
ssg81
g2966
sg74
(lp2973
g1368
asbasbasbag67
(g83
g69
NtRp2974
(dp2975
g72
(dp2976
sg81
g2655
sg74
(lp2977
g67
(g88
g69
NtRp2978
(dp2979
g72
(dp2980
g92
g93
ssg81
g2974
sg74
(lp2981
S'SCRIPT_NAME'
p2982
asbag67
(g88
g69
NtRp2983
(dp2984
g72
(dp2985
g99
g100
ssg81
g2974
sg74
(lp2986
S':'
asbag67
(g88
g69
NtRp2987
(dp2988
g72
(dp2989
sg81
g2974
sg74
(lp2990
g67
(g68
g69
NtRp2991
(dp2992
g72
(dp2993
g80
I3
ssg81
g2987
sg74
(lp2994
S''
asbasbasbag67
(g83
g69
NtRp2995
(dp2996
g72
(dp2997
sg81
g2655
sg74
(lp2998
g67
(g88
g69
NtRp2999
(dp3000
g72
(dp3001
g92
g93
ssg81
g2995
sg74
(lp3002
S'SERVER_NAME'
p3003
asbag67
(g88
g69
NtRp3004
(dp3005
g72
(dp3006
g99
g100
ssg81
g2995
sg74
(lp3007
S':'
asbag67
(g88
g69
NtRp3008
(dp3009
g72
(dp3010
sg81
g2995
sg74
(lp3011
g67
(g68
g69
NtRp3012
(dp3013
g72
(dp3014
g80
I3
ssg81
g3008
sg74
(lp3015
g1518
asbasbasbag67
(g83
g69
NtRp3016
(dp3017
g72
(dp3018
sg81
g2655
sg74
(lp3019
g67
(g88
g69
NtRp3020
(dp3021
g72
(dp3022
g92
g93
ssg81
g3016
sg74
(lp3023
S'SERVER_PORT'
p3024
asbag67
(g88
g69
NtRp3025
(dp3026
g72
(dp3027
g99
g100
ssg81
g3016
sg74
(lp3028
S':'
asbag67
(g88
g69
NtRp3029
(dp3030
g72
(dp3031
sg81
g3016
sg74
(lp3032
g67
(g68
g69
NtRp3033
(dp3034
g72
(dp3035
g80
I3
ssg81
g3029
sg74
(lp3036
g1540
asbasbasbag67
(g83
g69
NtRp3037
(dp3038
g72
(dp3039
sg81
g2655
sg74
(lp3040
g67
(g88
g69
NtRp3041
(dp3042
g72
(dp3043
g92
g93
ssg81
g3037
sg74
(lp3044
S'SERVER_PROTOCOL'
p3045
asbag67
(g88
g69
NtRp3046
(dp3047
g72
(dp3048
g99
g100
ssg81
g3037
sg74
(lp3049
S':'
asbag67
(g88
g69
NtRp3050
(dp3051
g72
(dp3052
sg81
g3037
sg74
(lp3053
g67
(g68
g69
NtRp3054
(dp3055
g72
(dp3056
g80
I3
ssg81
g3050
sg74
(lp3057
g1562
asbasbasbag67
(g83
g69
NtRp3058
(dp3059
g72
(dp3060
sg81
g2655
sg74
(lp3061
g67
(g88
g69
NtRp3062
(dp3063
g72
(dp3064
g92
g93
ssg81
g3058
sg74
(lp3065
S'SERVER_SOFTWARE'
p3066
asbag67
(g88
g69
NtRp3067
(dp3068
g72
(dp3069
g99
g100
ssg81
g3058
sg74
(lp3070
S':'
asbag67
(g88
g69
NtRp3071
(dp3072
g72
(dp3073
sg81
g3058
sg74
(lp3074
g67
(g68
g69
NtRp3075
(dp3076
g72
(dp3077
g80
I3
ssg81
g3071
sg74
(lp3078
g1584
asbasbasbag67
(g83
g69
NtRp3079
(dp3080
g72
(dp3081
sg81
g2655
sg74
(lp3082
g67
(g88
g69
NtRp3083
(dp3084
g72
(dp3085
g92
g93
ssg81
g3079
sg74
(lp3086
S'wsgi.errors'
p3087
asbag67
(g88
g69
NtRp3088
(dp3089
g72
(dp3090
g99
g100
ssg81
g3079
sg74
(lp3091
S':'
asbag67
(g88
g69
NtRp3092
(dp3093
g72
(dp3094
sg81
g3079
sg74
(lp3095
g67
(g68
g69
NtRp3096
(dp3097
g72
(dp3098
g80
I3
ssg81
g3092
sg74
(lp3099
S"<open file '<stderr>', mode 'w' at 0xb748a0d0>"
p3100
asbasbasbag67
(g83
g69
NtRp3101
(dp3102
g72
(dp3103
sg81
g2655
sg74
(lp3104
g67
(g88
g69
NtRp3105
(dp3106
g72
(dp3107
g92
g93
ssg81
g3101
sg74
(lp3108
S'wsgi.file_wrapper'
p3109
asbag67
(g88
g69
NtRp3110
(dp3111
g72
(dp3112
g99
g100
ssg81
g3101
sg74
(lp3113
S':'
asbag67
(g88
g69
NtRp3114
(dp3115
g72
(dp3116
sg81
g3101
sg74
(lp3117
g67
(g68
g69
NtRp3118
(dp3119
g72
(dp3120
g80
I3
ssg81
g3114
sg74
(lp3121
S'<class wsgiref.util.FileWrapper at 0x9515ecc>'
p3122
asbasbasbag67
(g83
g69
NtRp3123
(dp3124
g72
(dp3125
sg81
g2655
sg74
(lp3126
g67
(g88
g69
NtRp3127
(dp3128
g72
(dp3129
g92
g93
ssg81
g3123
sg74
(lp3130
S'wsgi.input'
p3131
asbag67
(g88
g69
NtRp3132
(dp3133
g72
(dp3134
g99
g100
ssg81
g3123
sg74
(lp3135
S':'
asbag67
(g88
g69
NtRp3136
(dp3137
g72
(dp3138
sg81
g3123
sg74
(lp3139
g67
(g68
g69
NtRp3140
(dp3141
g72
(dp3142
g80
I3
ssg81
g3136
sg74
(lp3143
S'<cStringIO.StringO object at 0xae0623c0>'
p3144
asbasbasbag67
(g83
g69
NtRp3145
(dp3146
g72
(dp3147
sg81
g2655
sg74
(lp3148
g67
(g88
g69
NtRp3149
(dp3150
g72
(dp3151
g92
g93
ssg81
g3145
sg74
(lp3152
S'wsgi.multiprocess'
p3153
asbag67
(g88
g69
NtRp3154
(dp3155
g72
(dp3156
g99
g100
ssg81
g3145
sg74
(lp3157
S':'
asbag67
(g88
g69
NtRp3158
(dp3159
g72
(dp3160
sg81
g3145
sg74
(lp3161
g67
(g68
g69
NtRp3162
(dp3163
g72
(dp3164
g80
I3
ssg81
g3158
sg74
(lp3165
g110
asbasbasbag67
(g83
g69
NtRp3166
(dp3167
g72
(dp3168
sg81
g2655
sg74
(lp3169
g67
(g88
g69
NtRp3170
(dp3171
g72
(dp3172
g92
g93
ssg81
g3166
sg74
(lp3173
S'wsgi.multithread'
p3174
asbag67
(g88
g69
NtRp3175
(dp3176
g72
(dp3177
g99
g100
ssg81
g3166
sg74
(lp3178
S':'
asbag67
(g88
g69
NtRp3179
(dp3180
g72
(dp3181
sg81
g3166
sg74
(lp3182
g67
(g68
g69
NtRp3183
(dp3184
g72
(dp3185
g80
I3
ssg81
g3179
sg74
(lp3186
g1801
asbasbasbag67
(g83
g69
NtRp3187
(dp3188
g72
(dp3189
sg81
g2655
sg74
(lp3190
g67
(g88
g69
NtRp3191
(dp3192
g72
(dp3193
g92
g93
ssg81
g3187
sg74
(lp3194
S'wsgi.run_once'
p3195
asbag67
(g88
g69
NtRp3196
(dp3197
g72
(dp3198
g99
g100
ssg81
g3187
sg74
(lp3199
S':'
asbag67
(g88
g69
NtRp3200
(dp3201
g72
(dp3202
sg81
g3187
sg74
(lp3203
g67
(g68
g69
NtRp3204
(dp3205
g72
(dp3206
g80
I3
ssg81
g3200
sg74
(lp3207
g110
asbasbasbag67
(g83
g69
NtRp3208
(dp3209
g72
(dp3210
sg81
g2655
sg74
(lp3211
g67
(g88
g69
NtRp3212
(dp3213
g72
(dp3214
g92
g93
ssg81
g3208
sg74
(lp3215
S'wsgi.url_scheme'
p3216
asbag67
(g88
g69
NtRp3217
(dp3218
g72
(dp3219
g99
g100
ssg81
g3208
sg74
(lp3220
S':'
asbag67
(g88
g69
NtRp3221
(dp3222
g72
(dp3223
sg81
g3208
sg74
(lp3224
g67
(g68
g69
NtRp3225
(dp3226
g72
(dp3227
g80
I3
ssg81
g3221
sg74
(lp3228
g1844
asbasbasbag67
(g83
g69
NtRp3229
(dp3230
g72
(dp3231
sg81
g2655
sg74
(lp3232
g67
(g88
g69
NtRp3233
(dp3234
g72
(dp3235
g92
g93
ssg81
g3229
sg74
(lp3236
S'wsgi.version'
p3237
asbag67
(g88
g69
NtRp3238
(dp3239
g72
(dp3240
g99
g100
ssg81
g3229
sg74
(lp3241
S':'
asbag67
(g88
g69
NtRp3242
(dp3243
g72
(dp3244
sg81
g3229
sg74
(lp3245
g67
(g68
g69
NtRp3246
(dp3247
g72
(dp3248
g80
I3
ssg81
g3242
sg74
(lp3249
S'1'
asbasbasbasbasbasbasbasbasbasbasbasbasbsS'frames'
p3250
(lp3251
(dp3252
S'file'
p3253
S'/home/gaurav/classwork/WEB_PROGRAMMING/web2py/gluon/restricted.py'
p3254
sS'dump'
p3255
(dp3256
S'code'
p3257
S'\'response.write(\\\'<!DOCTYPE html PUBLIC "-//W3C//D...n</div>\\\\r\\\\n</body>\\\\r\\\\n</html>\\\\r\\\\n\\\', escape=False)\''
p3258
sS'layer'
p3259
S"'/home/gaurav/classwork/WEB_PROGRAMMING/web2py/applications/ggg/views/default/index.html'"
p3260
sS'global compile2'
p3261
S'<function compile2>'
p3262
sS'ccode'
p3263
S'undefined'
p3264
ssS'lnum'
p3265
I211
sS'lines'
p3266
(dp3267
I206
S"    environment['__name__'] = '__restricted__'"
p3268
sI207
S'    try:'
p3269
sI208
S'        if isinstance(code, types.CodeType):'
p3270
sI209
S'            ccode = code'
p3271
sI210
S'        else:'
p3272
sI211
S'            ccode = compile2(code, layer)'
p3273
sI212
S'        exec ccode in environment'
p3274
sI213
S'    except HTTP:'
p3275
sI214
S'        raise'
p3276
sI215
S'    except RestrictedError:'
p3277
ssS'call'
p3278
S'(code=\'response.write(\\\'<!DOCTYPE html PUBLIC "-//W3C//D...n</div>\\\\r\\\\n</body>\\\\r\\\\n</html>\\\\r\\\\n\\\', escape=False)\', environment={\'A\': <class \'gluon.html.A\'>, \'Auth\': <class \'gluon.tools.Auth\'>, \'B\': <class \'gluon.html.B\'>, \'BEAUTIFY\': <class \'gluon.html.BEAUTIFY\'>, \'BODY\': <class \'gluon.html.BODY\'>, \'BR\': <class \'gluon.html.BR\'>, \'BUTTON\': <class \'gluon.html.BUTTON\'>, \'CAT\': <class \'gluon.html.CAT\'>, \'CENTER\': <class \'gluon.html.CENTER\'>, \'CLEANUP\': <class \'gluon.validators.CLEANUP\'>, ...}, layer=\'/home/gaurav/classwork/WEB_PROGRAMMING/web2py/applications/ggg/views/default/index.html\')'
p3279
sS'func'
p3280
S'restricted'
p3281
sa(dp3282
g3253
S'/home/gaurav/classwork/WEB_PROGRAMMING/web2py/gluon/restricted.py'
p3283
sg3255
(dp3284
S'builtincompile'
p3285
S'<built-in function compile>'
p3286
sS'code'
p3287
S'\'response.write(\\\'<!DOCTYPE html PUBLIC "-//W3C//D...n</div>\\\\r\\\\n</body>\\\\r\\\\n</html>\\\\r\\\\n\\\', escape=False)\''
p3288
sS'code.rstrip'
p3289
S'<built-in method rstrip of str object>'
p3290
sS').replace'
p3291
g3264
sS'layer'
p3292
S"'/home/gaurav/classwork/WEB_PROGRAMMING/web2py/applications/ggg/views/default/index.html'"
p3293
ssg3265
I194
sg3266
(dp3294
I192
S"    The +'\\n' is necessary else compile fails when code ends in a comment."
p3295
sI193
S'    """'
p3296
sI194
S"    return compile(code.rstrip().replace('\\r\\n', '\\n') + '\\n', layer, 'exec')"
p3297
sI195
S''
sI196
S''
sI197
S"def restricted(code, environment=None, layer='Unknown'):"
p3298
sI198
S'    """'
p3299
sI189
S''
sI190
S'def compile2(code, layer):'
p3300
sI191
S'    """'
p3301
ssg3278
S'(code=\'response.write(\\\'<!DOCTYPE html PUBLIC "-//W3C//D...n</div>\\\\r\\\\n</body>\\\\r\\\\n</html>\\\\r\\\\n\\\', escape=False)\', layer=\'/home/gaurav/classwork/WEB_PROGRAMMING/web2py/applications/ggg/views/default/index.html\')'
p3302
sg3280
S'compile2'
p3303
sasS'pyver'
p3304
S'Python 2.7.3: /usr/bin/python'
p3305
sS'session'
p3306
g67
(g68
g69
NtRp3307
(dp3308
g72
(dp3309
sg74
(lp3310
g67
(g76
g69
NtRp3311
(dp3312
g72
(dp3313
g80
I5
ssg81
Nsg74
(lp3314
g67
(g83
g69
NtRp3315
(dp3316
g72
(dp3317
sg81
g3311
sg74
(lp3318
g67
(g88
g69
NtRp3319
(dp3320
g72
(dp3321
g92
g93
ssg81
g3315
sg74
(lp3322
S'auth'
p3323
asbag67
(g88
g69
NtRp3324
(dp3325
g72
(dp3326
g99
g100
ssg81
g3315
sg74
(lp3327
S':'
asbag67
(g88
g69
NtRp3328
(dp3329
g72
(dp3330
sg81
g3315
sg74
(lp3331
g67
(g68
g69
NtRp3332
(dp3333
g72
(dp3334
g80
I5
ssg81
g3328
sg74
(lp3335
g67
(g76
g69
NtRp3336
(dp3337
g72
(dp3338
g80
I4
ssg81
Nsg74
(lp3339
g67
(g83
g69
NtRp3340
(dp3341
g72
(dp3342
sg81
g3336
sg74
(lp3343
g67
(g88
g69
NtRp3344
(dp3345
g72
(dp3346
g92
g93
ssg81
g3340
sg74
(lp3347
S'expiration'
p3348
asbag67
(g88
g69
NtRp3349
(dp3350
g72
(dp3351
g99
g100
ssg81
g3340
sg74
(lp3352
S':'
asbag67
(g88
g69
NtRp3353
(dp3354
g72
(dp3355
sg81
g3340
sg74
(lp3356
g67
(g68
g69
NtRp3357
(dp3358
g72
(dp3359
g80
I4
ssg81
g3353
sg74
(lp3360
S'3600'
p3361
asbasbasbag67
(g83
g69
NtRp3362
(dp3363
g72
(dp3364
sg81
g3336
sg74
(lp3365
g67
(g88
g69
NtRp3366
(dp3367
g72
(dp3368
g92
g93
ssg81
g3362
sg74
(lp3369
S'hmac_key'
p3370
asbag67
(g88
g69
NtRp3371
(dp3372
g72
(dp3373
g99
g100
ssg81
g3362
sg74
(lp3374
S':'
asbag67
(g88
g69
NtRp3375
(dp3376
g72
(dp3377
sg81
g3362
sg74
(lp3378
g67
(g68
g69
NtRp3379
(dp3380
g72
(dp3381
g80
I4
ssg81
g3375
sg74
(lp3382
S'7d2d4438-392e-47af-a3f2-34ed7e085cb1'
p3383
asbasbasbag67
(g83
g69
NtRp3384
(dp3385
g72
(dp3386
sg81
g3336
sg74
(lp3387
g67
(g88
g69
NtRp3388
(dp3389
g72
(dp3390
g92
g93
ssg81
g3384
sg74
(lp3391
S'last_visit'
p3392
asbag67
(g88
g69
NtRp3393
(dp3394
g72
(dp3395
g99
g100
ssg81
g3384
sg74
(lp3396
S':'
asbag67
(g88
g69
NtRp3397
(dp3398
g72
(dp3399
sg81
g3384
sg74
(lp3400
g67
(g68
g69
NtRp3401
(dp3402
g72
(dp3403
g80
I4
ssg81
g3397
sg74
(lp3404
S'datetime.datetime(2013, 3, 21, 18, 28, 23, 782597)'
p3405
asbasbasbag67
(g83
g69
NtRp3406
(dp3407
g72
(dp3408
sg81
g3336
sg74
(lp3409
g67
(g88
g69
NtRp3410
(dp3411
g72
(dp3412
g92
g93
ssg81
g3406
sg74
(lp3413
S'remember'
p3414
asbag67
(g88
g69
NtRp3415
(dp3416
g72
(dp3417
g99
g100
ssg81
g3406
sg74
(lp3418
S':'
asbag67
(g88
g69
NtRp3419
(dp3420
g72
(dp3421
sg81
g3406
sg74
(lp3422
g67
(g68
g69
NtRp3423
(dp3424
g72
(dp3425
g80
I4
ssg81
g3419
sg74
(lp3426
g110
asbasbasbag67
(g83
g69
NtRp3427
(dp3428
g72
(dp3429
sg81
g3336
sg74
(lp3430
g67
(g88
g69
NtRp3431
(dp3432
g72
(dp3433
g92
g93
ssg81
g3427
sg74
(lp3434
S'user'
p3435
asbag67
(g88
g69
NtRp3436
(dp3437
g72
(dp3438
g99
g100
ssg81
g3427
sg74
(lp3439
S':'
asbag67
(g88
g69
NtRp3440
(dp3441
g72
(dp3442
sg81
g3427
sg74
(lp3443
g67
(g68
g69
NtRp3444
(dp3445
g72
(dp3446
g80
I4
ssg81
g3440
sg74
(lp3447
g67
(g76
g69
NtRp3448
(dp3449
g72
(dp3450
g80
I3
ssg81
Nsg74
(lp3451
g67
(g83
g69
NtRp3452
(dp3453
g72
(dp3454
sg81
g3448
sg74
(lp3455
g67
(g88
g69
NtRp3456
(dp3457
g72
(dp3458
g92
g93
ssg81
g3452
sg74
(lp3459
S'email'
p3460
asbag67
(g88
g69
NtRp3461
(dp3462
g72
(dp3463
g99
g100
ssg81
g3452
sg74
(lp3464
S':'
asbag67
(g88
g69
NtRp3465
(dp3466
g72
(dp3467
sg81
g3452
sg74
(lp3468
g67
(g68
g69
NtRp3469
(dp3470
g72
(dp3471
g80
I3
ssg81
g3465
sg74
(lp3472
S'kishore@gmail.com'
p3473
asbasbasbag67
(g83
g69
NtRp3474
(dp3475
g72
(dp3476
sg81
g3448
sg74
(lp3477
g67
(g88
g69
NtRp3478
(dp3479
g72
(dp3480
g92
g93
ssg81
g3474
sg74
(lp3481
S'first_name'
p3482
asbag67
(g88
g69
NtRp3483
(dp3484
g72
(dp3485
g99
g100
ssg81
g3474
sg74
(lp3486
S':'
asbag67
(g88
g69
NtRp3487
(dp3488
g72
(dp3489
sg81
g3474
sg74
(lp3490
g67
(g68
g69
NtRp3491
(dp3492
g72
(dp3493
g80
I3
ssg81
g3487
sg74
(lp3494
S'Kishore'
p3495
asbasbasbag67
(g83
g69
NtRp3496
(dp3497
g72
(dp3498
sg81
g3448
sg74
(lp3499
g67
(g88
g69
NtRp3500
(dp3501
g72
(dp3502
g92
g93
ssg81
g3496
sg74
(lp3503
S'id'
p3504
asbag67
(g88
g69
NtRp3505
(dp3506
g72
(dp3507
g99
g100
ssg81
g3496
sg74
(lp3508
S':'
asbag67
(g88
g69
NtRp3509
(dp3510
g72
(dp3511
sg81
g3496
sg74
(lp3512
g67
(g68
g69
NtRp3513
(dp3514
g72
(dp3515
g80
I3
ssg81
g3509
sg74
(lp3516
S'16'
p3517
asbasbasbag67
(g83
g69
NtRp3518
(dp3519
g72
(dp3520
sg81
g3448
sg74
(lp3521
g67
(g88
g69
NtRp3522
(dp3523
g72
(dp3524
g92
g93
ssg81
g3518
sg74
(lp3525
S'last_name'
p3526
asbag67
(g88
g69
NtRp3527
(dp3528
g72
(dp3529
g99
g100
ssg81
g3518
sg74
(lp3530
S':'
asbag67
(g88
g69
NtRp3531
(dp3532
g72
(dp3533
sg81
g3518
sg74
(lp3534
g67
(g68
g69
NtRp3535
(dp3536
g72
(dp3537
g80
I3
ssg81
g3531
sg74
(lp3538
S'Kothapalli'
p3539
asbasbasbag67
(g83
g69
NtRp3540
(dp3541
g72
(dp3542
sg81
g3448
sg74
(lp3543
g67
(g88
g69
NtRp3544
(dp3545
g72
(dp3546
g92
g93
ssg81
g3540
sg74
(lp3547
S'registration_id'
p3548
asbag67
(g88
g69
NtRp3549
(dp3550
g72
(dp3551
g99
g100
ssg81
g3540
sg74
(lp3552
S':'
asbag67
(g88
g69
NtRp3553
(dp3554
g72
(dp3555
sg81
g3540
sg74
(lp3556
g67
(g68
g69
NtRp3557
(dp3558
g72
(dp3559
g80
I3
ssg81
g3553
sg74
(lp3560
S''
asbasbasbag67
(g83
g69
NtRp3561
(dp3562
g72
(dp3563
sg81
g3448
sg74
(lp3564
g67
(g88
g69
NtRp3565
(dp3566
g72
(dp3567
g92
g93
ssg81
g3561
sg74
(lp3568
S'registration_key'
p3569
asbag67
(g88
g69
NtRp3570
(dp3571
g72
(dp3572
g99
g100
ssg81
g3561
sg74
(lp3573
S':'
asbag67
(g88
g69
NtRp3574
(dp3575
g72
(dp3576
sg81
g3561
sg74
(lp3577
g67
(g68
g69
NtRp3578
(dp3579
g72
(dp3580
g80
I3
ssg81
g3574
sg74
(lp3581
S''
asbasbasbag67
(g83
g69
NtRp3582
(dp3583
g72
(dp3584
sg81
g3448
sg74
(lp3585
g67
(g88
g69
NtRp3586
(dp3587
g72
(dp3588
g92
g93
ssg81
g3582
sg74
(lp3589
S'reset_password_key'
p3590
asbag67
(g88
g69
NtRp3591
(dp3592
g72
(dp3593
g99
g100
ssg81
g3582
sg74
(lp3594
S':'
asbag67
(g88
g69
NtRp3595
(dp3596
g72
(dp3597
sg81
g3582
sg74
(lp3598
g67
(g68
g69
NtRp3599
(dp3600
g72
(dp3601
g80
I3
ssg81
g3595
sg74
(lp3602
S''
asbasbasbasbasbasbasbag67
(g83
g69
NtRp3603
(dp3604
g72
(dp3605
sg81
g3336
sg74
(lp3606
g67
(g88
g69
NtRp3607
(dp3608
g72
(dp3609
g92
g93
ssg81
g3603
sg74
(lp3610
S'user_groups'
p3611
asbag67
(g88
g69
NtRp3612
(dp3613
g72
(dp3614
g99
g100
ssg81
g3603
sg74
(lp3615
S':'
asbag67
(g88
g69
NtRp3616
(dp3617
g72
(dp3618
sg81
g3603
sg74
(lp3619
g67
(g68
g69
NtRp3620
(dp3621
g72
(dp3622
g80
I4
ssg81
g3616
sg74
(lp3623
g67
(g76
g69
NtRp3624
(dp3625
g72
(dp3626
g80
I3
ssg81
Nsg74
(lp3627
g67
(g83
g69
NtRp3628
(dp3629
g72
(dp3630
sg81
g3624
sg74
(lp3631
g67
(g88
g69
NtRp3632
(dp3633
g72
(dp3634
g92
g93
ssg81
g3628
sg74
(lp3635
S'17'
p3636
asbag67
(g88
g69
NtRp3637
(dp3638
g72
(dp3639
g99
g100
ssg81
g3628
sg74
(lp3640
S':'
asbag67
(g88
g69
NtRp3641
(dp3642
g72
(dp3643
sg81
g3628
sg74
(lp3644
g67
(g68
g69
NtRp3645
(dp3646
g72
(dp3647
g80
I3
ssg81
g3641
sg74
(lp3648
S'IIIT_FACULTY_DEPARTMENT'
p3649
asbasbasbasbasbasbasbasbasbasbasbag67
(g83
g69
NtRp3650
(dp3651
g72
(dp3652
sg81
g3311
sg74
(lp3653
g67
(g88
g69
NtRp3654
(dp3655
g72
(dp3656
g92
g93
ssg81
g3650
sg74
(lp3657
S'flash'
p3658
asbag67
(g88
g69
NtRp3659
(dp3660
g72
(dp3661
g99
g100
ssg81
g3650
sg74
(lp3662
S':'
asbag67
(g88
g69
NtRp3663
(dp3664
g72
(dp3665
sg81
g3650
sg74
(lp3666
g67
(g68
g69
NtRp3667
(dp3668
g72
(dp3669
g80
I5
ssg81
g3663
sg74
(lp3670
S'None'
p3671
asbasbasbasbasbsS'etype'
p3672
S"<type 'exceptions.SyntaxError'>"
p3673
sS'date'
p3674
S'Thu Mar 21 18:33:41 2013'
p3675
sS'response'
p3676
g67
(g68
g69
NtRp3677
(dp3678
g72
(dp3679
sg74
(lp3680
g67
(g76
g69
NtRp3681
(dp3682
g72
(dp3683
g80
I5
ssg81
Nsg74
(lp3684
g67
(g83
g69
NtRp3685
(dp3686
g72
(dp3687
sg81
g3681
sg74
(lp3688
g67
(g88
g69
NtRp3689
(dp3690
g72
(dp3691
g92
g93
ssg81
g3685
sg74
(lp3692
g165
asbag67
(g88
g69
NtRp3693
(dp3694
g72
(dp3695
g99
g100
ssg81
g3685
sg74
(lp3696
S':'
asbag67
(g88
g69
NtRp3697
(dp3698
g72
(dp3699
sg81
g3685
sg74
(lp3700
g67
(g68
g69
NtRp3701
(dp3702
g72
(dp3703
g80
I5
ssg81
g3697
sg74
(lp3704
S'<cStringIO.StringO object at 0xad672e40>'
p3705
asbasbasbag67
(g83
g69
NtRp3706
(dp3707
g72
(dp3708
sg81
g3681
sg74
(lp3709
g67
(g88
g69
NtRp3710
(dp3711
g72
(dp3712
g92
g93
ssg81
g3706
sg74
(lp3713
g253
asbag67
(g88
g69
NtRp3714
(dp3715
g72
(dp3716
g99
g100
ssg81
g3706
sg74
(lp3717
S':'
asbag67
(g88
g69
NtRp3718
(dp3719
g72
(dp3720
sg81
g3706
sg74
(lp3721
g67
(g68
g69
NtRp3722
(dp3723
g72
(dp3724
g80
I5
ssg81
g3718
sg74
(lp3725
g67
(g76
g69
NtRp3726
(dp3727
g72
(dp3728
g80
I4
ssg81
Nsg74
(lp3729
g67
(g83
g69
NtRp3730
(dp3731
g72
(dp3732
sg81
g3726
sg74
(lp3733
g67
(g88
g69
NtRp3734
(dp3735
g72
(dp3736
g92
g93
ssg81
g3730
sg74
(lp3737
S'session_id_ggg'
p3738
asbag67
(g88
g69
NtRp3739
(dp3740
g72
(dp3741
g99
g100
ssg81
g3730
sg74
(lp3742
S':'
asbag67
(g88
g69
NtRp3743
(dp3744
g72
(dp3745
sg81
g3730
sg74
(lp3746
g67
(g68
g69
NtRp3747
(dp3748
g72
(dp3749
g80
I4
ssg81
g3743
sg74
(lp3750
g485
ag67
(g76
g69
NtRp3751
(dp3752
g72
(dp3753
g80
I3
ssg81
Nsg74
(lp3754
g67
(g83
g69
NtRp3755
(dp3756
g72
(dp3757
sg81
g3751
sg74
(lp3758
g67
(g88
g69
NtRp3759
(dp3760
g72
(dp3761
g92
g93
ssg81
g3755
sg74
(lp3762
g304
asbag67
(g88
g69
NtRp3763
(dp3764
g72
(dp3765
g99
g100
ssg81
g3755
sg74
(lp3766
S':'
asbag67
(g88
g69
NtRp3767
(dp3768
g72
(dp3769
sg81
g3755
sg74
(lp3770
g67
(g68
g69
NtRp3771
(dp3772
g72
(dp3773
g80
I3
ssg81
g3767
sg74
(lp3774
S''
asbasbasbag67
(g83
g69
NtRp3775
(dp3776
g72
(dp3777
sg81
g3751
sg74
(lp3778
g67
(g88
g69
NtRp3779
(dp3780
g72
(dp3781
g92
g93
ssg81
g3775
sg74
(lp3782
g325
asbag67
(g88
g69
NtRp3783
(dp3784
g72
(dp3785
g99
g100
ssg81
g3775
sg74
(lp3786
S':'
asbag67
(g88
g69
NtRp3787
(dp3788
g72
(dp3789
sg81
g3775
sg74
(lp3790
g67
(g68
g69
NtRp3791
(dp3792
g72
(dp3793
g80
I3
ssg81
g3787
sg74
(lp3794
S''
asbasbasbag67
(g83
g69
NtRp3795
(dp3796
g72
(dp3797
sg81
g3751
sg74
(lp3798
g67
(g88
g69
NtRp3799
(dp3800
g72
(dp3801
g92
g93
ssg81
g3795
sg74
(lp3802
g346
asbag67
(g88
g69
NtRp3803
(dp3804
g72
(dp3805
g99
g100
ssg81
g3795
sg74
(lp3806
S':'
asbag67
(g88
g69
NtRp3807
(dp3808
g72
(dp3809
sg81
g3795
sg74
(lp3810
g67
(g68
g69
NtRp3811
(dp3812
g72
(dp3813
g80
I3
ssg81
g3807
sg74
(lp3814
S''
asbasbasbag67
(g83
g69
NtRp3815
(dp3816
g72
(dp3817
sg81
g3751
sg74
(lp3818
g67
(g88
g69
NtRp3819
(dp3820
g72
(dp3821
g92
g93
ssg81
g3815
sg74
(lp3822
g367
asbag67
(g88
g69
NtRp3823
(dp3824
g72
(dp3825
g99
g100
ssg81
g3815
sg74
(lp3826
S':'
asbag67
(g88
g69
NtRp3827
(dp3828
g72
(dp3829
sg81
g3815
sg74
(lp3830
g67
(g68
g69
NtRp3831
(dp3832
g72
(dp3833
g80
I3
ssg81
g3827
sg74
(lp3834
S''
asbasbasbag67
(g83
g69
NtRp3835
(dp3836
g72
(dp3837
sg81
g3751
sg74
(lp3838
g67
(g88
g69
NtRp3839
(dp3840
g72
(dp3841
g92
g93
ssg81
g3835
sg74
(lp3842
g388
asbag67
(g88
g69
NtRp3843
(dp3844
g72
(dp3845
g99
g100
ssg81
g3835
sg74
(lp3846
S':'
asbag67
(g88
g69
NtRp3847
(dp3848
g72
(dp3849
sg81
g3835
sg74
(lp3850
g67
(g68
g69
NtRp3851
(dp3852
g72
(dp3853
g80
I3
ssg81
g3847
sg74
(lp3854
S''
asbasbasbag67
(g83
g69
NtRp3855
(dp3856
g72
(dp3857
sg81
g3751
sg74
(lp3858
g67
(g88
g69
NtRp3859
(dp3860
g72
(dp3861
g92
g93
ssg81
g3855
sg74
(lp3862
g409
asbag67
(g88
g69
NtRp3863
(dp3864
g72
(dp3865
g99
g100
ssg81
g3855
sg74
(lp3866
S':'
asbag67
(g88
g69
NtRp3867
(dp3868
g72
(dp3869
sg81
g3855
sg74
(lp3870
g67
(g68
g69
NtRp3871
(dp3872
g72
(dp3873
g80
I3
ssg81
g3867
sg74
(lp3874
S'/'
asbasbasbag67
(g83
g69
NtRp3875
(dp3876
g72
(dp3877
sg81
g3751
sg74
(lp3878
g67
(g88
g69
NtRp3879
(dp3880
g72
(dp3881
g92
g93
ssg81
g3875
sg74
(lp3882
g430
asbag67
(g88
g69
NtRp3883
(dp3884
g72
(dp3885
g99
g100
ssg81
g3875
sg74
(lp3886
S':'
asbag67
(g88
g69
NtRp3887
(dp3888
g72
(dp3889
sg81
g3875
sg74
(lp3890
g67
(g68
g69
NtRp3891
(dp3892
g72
(dp3893
g80
I3
ssg81
g3887
sg74
(lp3894
S''
asbasbasbag67
(g83
g69
NtRp3895
(dp3896
g72
(dp3897
sg81
g3751
sg74
(lp3898
g67
(g88
g69
NtRp3899
(dp3900
g72
(dp3901
g92
g93
ssg81
g3895
sg74
(lp3902
g451
asbag67
(g88
g69
NtRp3903
(dp3904
g72
(dp3905
g99
g100
ssg81
g3895
sg74
(lp3906
S':'
asbag67
(g88
g69
NtRp3907
(dp3908
g72
(dp3909
sg81
g3895
sg74
(lp3910
g67
(g68
g69
NtRp3911
(dp3912
g72
(dp3913
g80
I3
ssg81
g3907
sg74
(lp3914
S''
asbasbasbasbasbasbasbasbasbasbasbag67
(g83
g69
NtRp3915
(dp3916
g72
(dp3917
sg81
g3681
sg74
(lp3918
g67
(g88
g69
NtRp3919
(dp3920
g72
(dp3921
g92
g93
ssg81
g3915
sg74
(lp3922
S'delimiters'
p3923
asbag67
(g88
g69
NtRp3924
(dp3925
g72
(dp3926
g99
g100
ssg81
g3915
sg74
(lp3927
S':'
asbag67
(g88
g69
NtRp3928
(dp3929
g72
(dp3930
sg81
g3915
sg74
(lp3931
g67
(g68
g69
NtRp3932
(dp3933
g72
(dp3934
g80
I5
ssg81
g3928
sg74
(lp3935
g67
(g76
g69
NtRp3936
(dp3937
g72
(dp3938
g80
I4
ssg81
Nsg74
(lp3939
g67
(g83
g69
NtRp3940
(dp3941
g72
(dp3942
sg81
g3936
sg74
(lp3943
g67
(g88
g69
NtRp3944
(dp3945
g72
(dp3946
sg81
g3940
sg74
(lp3947
g67
(g68
g69
NtRp3948
(dp3949
g72
(dp3950
g80
I4
ssg81
g3944
sg74
(lp3951
S'{{'
p3952
asbasbasbag67
(g83
g69
NtRp3953
(dp3954
g72
(dp3955
sg81
g3936
sg74
(lp3956
g67
(g88
g69
NtRp3957
(dp3958
g72
(dp3959
sg81
g3953
sg74
(lp3960
g67
(g68
g69
NtRp3961
(dp3962
g72
(dp3963
g80
I4
ssg81
g3957
sg74
(lp3964
S'}}'
p3965
asbasbasbasbasbasbasbag67
(g83
g69
NtRp3966
(dp3967
g72
(dp3968
sg81
g3681
sg74
(lp3969
g67
(g88
g69
NtRp3970
(dp3971
g72
(dp3972
g92
g93
ssg81
g3966
sg74
(lp3973
S'files'
p3974
asbag67
(g88
g69
NtRp3975
(dp3976
g72
(dp3977
g99
g100
ssg81
g3966
sg74
(lp3978
S':'
asbag67
(g88
g69
NtRp3979
(dp3980
g72
(dp3981
sg81
g3966
sg74
(lp3982
g67
(g68
g69
NtRp3983
(dp3984
g72
(dp3985
g80
I5
ssg81
g3979
sg74
(lp3986
g67
(g76
g69
NtRp3987
(dp3988
g72
(dp3989
g80
I4
ssg81
Nsg74
(lp3990
sbasbasbasbag67
(g83
g69
NtRp3991
(dp3992
g72
(dp3993
sg81
g3681
sg74
(lp3994
g67
(g88
g69
NtRp3995
(dp3996
g72
(dp3997
g92
g93
ssg81
g3991
sg74
(lp3998
S'flash'
p3999
asbag67
(g88
g69
NtRp4000
(dp4001
g72
(dp4002
g99
g100
ssg81
g3991
sg74
(lp4003
S':'
asbag67
(g88
g69
NtRp4004
(dp4005
g72
(dp4006
sg81
g3991
sg74
(lp4007
g67
(g68
g69
NtRp4008
(dp4009
g72
(dp4010
g80
I5
ssg81
g4004
sg74
(lp4011
cgluon.languages
lazyT_unpickle
p4012
(S's\x12\x00\x00\x00Online Examination'
tRp4013
asbasbasbag67
(g83
g69
NtRp4014
(dp4015
g72
(dp4016
sg81
g3681
sg74
(lp4017
g67
(g88
g69
NtRp4018
(dp4019
g72
(dp4020
g92
g93
ssg81
g4014
sg74
(lp4021
S'generic_patterns'
p4022
asbag67
(g88
g69
NtRp4023
(dp4024
g72
(dp4025
g99
g100
ssg81
g4014
sg74
(lp4026
S':'
asbag67
(g88
g69
NtRp4027
(dp4028
g72
(dp4029
sg81
g4014
sg74
(lp4030
g67
(g68
g69
NtRp4031
(dp4032
g72
(dp4033
g80
I5
ssg81
g4027
sg74
(lp4034
g67
(g76
g69
NtRp4035
(dp4036
g72
(dp4037
g80
I4
ssg81
Nsg74
(lp4038
g67
(g83
g69
NtRp4039
(dp4040
g72
(dp4041
sg81
g4035
sg74
(lp4042
g67
(g88
g69
NtRp4043
(dp4044
g72
(dp4045
sg81
g4039
sg74
(lp4046
g67
(g68
g69
NtRp4047
(dp4048
g72
(dp4049
g80
I4
ssg81
g4043
sg74
(lp4050
S'*'
asbasbasbasbasbasbasbag67
(g83
g69
NtRp4051
(dp4052
g72
(dp4053
sg81
g3681
sg74
(lp4054
g67
(g88
g69
NtRp4055
(dp4056
g72
(dp4057
g92
g93
ssg81
g4051
sg74
(lp4058
S'google_analytics_id'
p4059
asbag67
(g88
g69
NtRp4060
(dp4061
g72
(dp4062
g99
g100
ssg81
g4051
sg74
(lp4063
S':'
asbag67
(g88
g69
NtRp4064
(dp4065
g72
(dp4066
sg81
g4051
sg74
(lp4067
g67
(g68
g69
NtRp4068
(dp4069
g72
(dp4070
g80
I5
ssg81
g4064
sg74
(lp4071
S'None'
p4072
asbasbasbag67
(g83
g69
NtRp4073
(dp4074
g72
(dp4075
sg81
g3681
sg74
(lp4076
g67
(g88
g69
NtRp4077
(dp4078
g72
(dp4079
g92
g93
ssg81
g4073
sg74
(lp4080
S'headers'
p4081
asbag67
(g88
g69
NtRp4082
(dp4083
g72
(dp4084
g99
g100
ssg81
g4073
sg74
(lp4085
S':'
asbag67
(g88
g69
NtRp4086
(dp4087
g72
(dp4088
sg81
g4073
sg74
(lp4089
g67
(g68
g69
NtRp4090
(dp4091
g72
(dp4092
g80
I5
ssg81
g4086
sg74
(lp4093
g67
(g76
g69
NtRp4094
(dp4095
g72
(dp4096
g80
I4
ssg81
Nsg74
(lp4097
g67
(g83
g69
NtRp4098
(dp4099
g72
(dp4100
sg81
g4094
sg74
(lp4101
g67
(g88
g69
NtRp4102
(dp4103
g72
(dp4104
g92
g93
ssg81
g4098
sg74
(lp4105
S'X-Powered-By'
p4106
asbag67
(g88
g69
NtRp4107
(dp4108
g72
(dp4109
g99
g100
ssg81
g4098
sg74
(lp4110
S':'
asbag67
(g88
g69
NtRp4111
(dp4112
g72
(dp4113
sg81
g4098
sg74
(lp4114
g67
(g68
g69
NtRp4115
(dp4116
g72
(dp4117
g80
I4
ssg81
g4111
sg74
(lp4118
S'web2py'
p4119
asbasbasbasbasbasbasbag67
(g83
g69
NtRp4120
(dp4121
g72
(dp4122
sg81
g3681
sg74
(lp4123
g67
(g88
g69
NtRp4124
(dp4125
g72
(dp4126
g92
g93
ssg81
g4120
sg74
(lp4127
S'logo'
p4128
asbag67
(g88
g69
NtRp4129
(dp4130
g72
(dp4131
g99
g100
ssg81
g4120
sg74
(lp4132
S':'
asbag67
(g88
g69
NtRp4133
(dp4134
g72
(dp4135
sg81
g4120
sg74
(lp4136
g67
(g68
g69
NtRp4137
(dp4138
g72
(dp4139
g80
I5
ssg81
g4133
sg74
(lp4140
g67
(cgluon.html
A
p4141
g69
NtRp4142
(dp4143
g72
(dp4144
S'_class'
p4145
S'brand'
p4146
sS'_href'
p4147
S'http://www.web2py.com/'
p4148
ssg81
Nsg74
(lp4149
g67
(cgluon.html
B
p4150
g69
NtRp4151
(dp4152
g72
(dp4153
sg81
g4142
sg74
(lp4154
S'web'
p4155
ag67
(cgluon.html
SPAN
p4156
g69
NtRp4157
(dp4158
g72
(dp4159
sg81
g4151
sg74
(lp4160
I2
asbaS'py'
p4161
asbacgluon.html
XML_unpickle
p4162
(S's\r\x00\x00\x00&trade;&nbsp;'
tRp4163
asbasbasbasbag67
(g83
g69
NtRp4164
(dp4165
g72
(dp4166
sg81
g3681
sg74
(lp4167
g67
(g88
g69
NtRp4168
(dp4169
g72
(dp4170
g92
g93
ssg81
g4164
sg74
(lp4171
S'menu'
p4172
asbag67
(g88
g69
NtRp4173
(dp4174
g72
(dp4175
g99
g100
ssg81
g4164
sg74
(lp4176
S':'
asbag67
(g88
g69
NtRp4177
(dp4178
g72
(dp4179
sg81
g4164
sg74
(lp4180
g67
(g68
g69
NtRp4181
(dp4182
g72
(dp4183
g80
I5
ssg81
g4177
sg74
(lp4184
g67
(g76
g69
NtRp4185
(dp4186
g72
(dp4187
g80
I4
ssg81
Nsg74
(lp4188
g67
(g83
g69
NtRp4189
(dp4190
g72
(dp4191
sg81
g4185
sg74
(lp4192
g67
(g88
g69
NtRp4193
(dp4194
g72
(dp4195
sg81
g4189
sg74
(lp4196
g67
(g68
g69
NtRp4197
(dp4198
g72
(dp4199
g80
I4
ssg81
g4193
sg74
(lp4200
g67
(g76
g69
NtRp4201
(dp4202
g72
(dp4203
g80
I3
ssg81
Nsg74
(lp4204
g67
(g83
g69
NtRp4205
(dp4206
g72
(dp4207
sg81
g4201
sg74
(lp4208
g67
(g88
g69
NtRp4209
(dp4210
g72
(dp4211
sg81
g4205
sg74
(lp4212
g67
(g68
g69
NtRp4213
(dp4214
g72
(dp4215
g80
I3
ssg81
g4209
sg74
(lp4216
g4012
(S's\x04\x00\x00\x00Home'
tRp4217
asbasbasbag67
(g83
g69
NtRp4218
(dp4219
g72
(dp4220
sg81
g4201
sg74
(lp4221
g67
(g88
g69
NtRp4222
(dp4223
g72
(dp4224
sg81
g4218
sg74
(lp4225
g67
(g68
g69
NtRp4226
(dp4227
g72
(dp4228
g80
I3
ssg81
g4222
sg74
(lp4229
g110
asbasbasbag67
(g83
g69
NtRp4230
(dp4231
g72
(dp4232
sg81
g4201
sg74
(lp4233
g67
(g88
g69
NtRp4234
(dp4235
g72
(dp4236
sg81
g4230
sg74
(lp4237
g67
(g68
g69
NtRp4238
(dp4239
g72
(dp4240
g80
I3
ssg81
g4234
sg74
(lp4241
S'/ggg/default/index'
p4242
asbasbasbag67
(g83
g69
NtRp4243
(dp4244
g72
(dp4245
sg81
g4201
sg74
(lp4246
g67
(g88
g69
NtRp4247
(dp4248
g72
(dp4249
sg81
g4243
sg74
(lp4250
g67
(g68
g69
NtRp4251
(dp4252
g72
(dp4253
g80
I3
ssg81
g4247
sg74
(lp4254
g67
(g76
g69
NtRp4255
(dp4256
g72
(dp4257
g80
I2
ssg81
Nsg74
(lp4258
sbasbasbasbasbasbasbasbag67
(g83
g69
NtRp4259
(dp4260
g72
(dp4261
sg81
g4185
sg74
(lp4262
g67
(g88
g69
NtRp4263
(dp4264
g72
(dp4265
sg81
g4259
sg74
(lp4266
g67
(g68
g69
NtRp4267
(dp4268
g72
(dp4269
g80
I4
ssg81
g4263
sg74
(lp4270
g67
(g76
g69
NtRp4271
(dp4272
g72
(dp4273
g80
I3
ssg81
Nsg74
(lp4274
g67
(g83
g69
NtRp4275
(dp4276
g72
(dp4277
sg81
g4271
sg74
(lp4278
g67
(g88
g69
NtRp4279
(dp4280
g72
(dp4281
sg81
g4275
sg74
(lp4282
g67
(g68
g69
NtRp4283
(dp4284
g72
(dp4285
g80
I3
ssg81
g4279
sg74
(lp4286
g67
(g4156
g69
NtRp4287
(dp4288
g72
(dp4289
g4145
S'highlighted'
p4290
ssg81
Nsg74
(lp4291
g4119
asbasbasbasbag67
(g83
g69
NtRp4292
(dp4293
g72
(dp4294
sg81
g4271
sg74
(lp4295
g67
(g88
g69
NtRp4296
(dp4297
g72
(dp4298
sg81
g4292
sg74
(lp4299
g67
(g68
g69
NtRp4300
(dp4301
g72
(dp4302
g80
I3
ssg81
g4296
sg74
(lp4303
g110
asbasbasbag67
(g83
g69
NtRp4304
(dp4305
g72
(dp4306
sg81
g4271
sg74
(lp4307
g67
(g88
g69
NtRp4308
(dp4309
g72
(dp4310
sg81
g4304
sg74
(lp4311
g67
(g68
g69
NtRp4312
(dp4313
g72
(dp4314
g80
I3
ssg81
g4308
sg74
(lp4315
S'http://web2py.com'
p4316
asbasbasbag67
(g83
g69
NtRp4317
(dp4318
g72
(dp4319
sg81
g4271
sg74
(lp4320
g67
(g88
g69
NtRp4321
(dp4322
g72
(dp4323
sg81
g4317
sg74
(lp4324
g67
(g68
g69
NtRp4325
(dp4326
g72
(dp4327
g80
I3
ssg81
g4321
sg74
(lp4328
g67
(g76
g69
NtRp4329
(dp4330
g72
(dp4331
g80
I2
ssg81
Nsg74
(lp4332
g67
(g83
g69
NtRp4333
(dp4334
g72
(dp4335
sg81
g4329
sg74
(lp4336
g67
(g88
g69
NtRp4337
(dp4338
g72
(dp4339
sg81
g4333
sg74
(lp4340
g67
(g68
g69
NtRp4341
(dp4342
g72
(dp4343
g80
I2
ssg81
g4337
sg74
(lp4344
g67
(g76
g69
NtRp4345
(dp4346
g72
(dp4347
g80
I1
ssg81
Nsg74
(lp4348
g67
(g83
g69
NtRp4349
(dp4350
g72
(dp4351
sg81
g4345
sg74
(lp4352
g67
(g88
g69
NtRp4353
(dp4354
g72
(dp4355
sg81
g4349
sg74
(lp4356
g67
(g68
g69
NtRp4357
(dp4358
g72
(dp4359
g80
I1
ssg81
g4353
sg74
(lp4360
g4012
(S's\x08\x00\x00\x00My Sites'
tRp4361
asbasbasbag67
(g83
g69
NtRp4362
(dp4363
g72
(dp4364
sg81
g4345
sg74
(lp4365
g67
(g88
g69
NtRp4366
(dp4367
g72
(dp4368
sg81
g4362
sg74
(lp4369
g67
(g68
g69
NtRp4370
(dp4371
g72
(dp4372
g80
I1
ssg81
g4366
sg74
(lp4373
I00
asbasbasbag67
(g83
g69
NtRp4374
(dp4375
g72
(dp4376
sg81
g4345
sg74
(lp4377
g67
(g88
g69
NtRp4378
(dp4379
g72
(dp4380
sg81
g4374
sg74
(lp4381
g67
(g68
g69
NtRp4382
(dp4383
g72
(dp4384
g80
I1
ssg81
g4378
sg74
(lp4385
S'/admin/default/site'
p4386
asbasbasbasbasbasbasbag67
(g83
g69
NtRp4387
(dp4388
g72
(dp4389
sg81
g4329
sg74
(lp4390
g67
(g88
g69
NtRp4391
(dp4392
g72
(dp4393
sg81
g4387
sg74
(lp4394
g67
(g68
g69
NtRp4395
(dp4396
g72
(dp4397
g80
I2
ssg81
g4391
sg74
(lp4398
g67
(g76
g69
NtRp4399
(dp4400
g72
(dp4401
g80
I1
ssg81
Nsg74
(lp4402
g67
(g83
g69
NtRp4403
(dp4404
g72
(dp4405
sg81
g4399
sg74
(lp4406
g67
(g88
g69
NtRp4407
(dp4408
g72
(dp4409
sg81
g4403
sg74
(lp4410
g67
(g68
g69
NtRp4411
(dp4412
g72
(dp4413
g80
I1
ssg81
g4407
sg74
(lp4414
g4012
(S's\x08\x00\x00\x00This App'
tRp4415
asbasbasbag67
(g83
g69
NtRp4416
(dp4417
g72
(dp4418
sg81
g4399
sg74
(lp4419
g67
(g88
g69
NtRp4420
(dp4421
g72
(dp4422
sg81
g4416
sg74
(lp4423
g67
(g68
g69
NtRp4424
(dp4425
g72
(dp4426
g80
I1
ssg81
g4420
sg74
(lp4427
I00
asbasbasbag67
(g83
g69
NtRp4428
(dp4429
g72
(dp4430
sg81
g4399
sg74
(lp4431
g67
(g88
g69
NtRp4432
(dp4433
g72
(dp4434
sg81
g4428
sg74
(lp4435
g67
(g68
g69
NtRp4436
(dp4437
g72
(dp4438
g80
I1
ssg81
g4432
sg74
(lp4439
S'/admin/default/design/ggg'
p4440
asbasbasbag67
(g83
g69
NtRp4441
(dp4442
g72
(dp4443
sg81
g4399
sg74
(lp4444
g67
(g88
g69
NtRp4445
(dp4446
g72
(dp4447
sg81
g4441
sg74
(lp4448
g67
(g68
g69
NtRp4449
(dp4450
g72
(dp4451
g80
I1
ssg81
g4445
sg74
(lp4452
(lp4453
(g4012
(S's\n\x00\x00\x00Controller'
tRp4454
I00
S'/admin/default/edit/ggg/controllers/default.py'
tp4455
a(g4012
(S's\x04\x00\x00\x00View'
tRp4456
I00
S'/admin/default/edit/ggg/views/default/index.html'
tp4457
a(g4012
(S's\x06\x00\x00\x00Layout'
tRp4458
I00
S'/admin/default/edit/ggg/views/layout.html'
tp4459
a(g4012
(S's\n\x00\x00\x00Stylesheet'
tRp4460
I00
S'/admin/default/edit/ggg/static/css/web2py.css'
tp4461
a(g4012
(S's\x08\x00\x00\x00DB Model'
tRp4462
I00
S'/admin/default/edit/ggg/models/db.py'
tp4463
a(g4012
(S's\n\x00\x00\x00Menu Model'
tRp4464
I00
S'/admin/default/edit/ggg/models/menu.py'
tp4465
a(g4012
(S's\x08\x00\x00\x00Database'
tRp4466
I00
S'/ggg/appadmin/index'
tp4467
a(g4012
(S's\x06\x00\x00\x00Errors'
tRp4468
I00
S'/admin/default/errors/ggg'
tp4469
a(g4012
(S's\x05\x00\x00\x00About'
tRp4470
I00
S'/admin/default/about/ggg'
tp4471
aasbasbasbasbasbasbasbag67
(g83
g69
NtRp4472
(dp4473
g72
(dp4474
sg81
g4329
sg74
(lp4475
g67
(g88
g69
NtRp4476
(dp4477
g72
(dp4478
sg81
g4472
sg74
(lp4479
g67
(g68
g69
NtRp4480
(dp4481
g72
(dp4482
g80
I2
ssg81
g4476
sg74
(lp4483
g67
(g76
g69
NtRp4484
(dp4485
g72
(dp4486
g80
I1
ssg81
Nsg74
(lp4487
g67
(g83
g69
NtRp4488
(dp4489
g72
(dp4490
sg81
g4484
sg74
(lp4491
g67
(g88
g69
NtRp4492
(dp4493
g72
(dp4494
sg81
g4488
sg74
(lp4495
g67
(g68
g69
NtRp4496
(dp4497
g72
(dp4498
g80
I1
ssg81
g4492
sg74
(lp4499
S'web2py.com'
p4500
asbasbasbag67
(g83
g69
NtRp4501
(dp4502
g72
(dp4503
sg81
g4484
sg74
(lp4504
g67
(g88
g69
NtRp4505
(dp4506
g72
(dp4507
sg81
g4501
sg74
(lp4508
g67
(g68
g69
NtRp4509
(dp4510
g72
(dp4511
g80
I1
ssg81
g4505
sg74
(lp4512
I00
asbasbasbag67
(g83
g69
NtRp4513
(dp4514
g72
(dp4515
sg81
g4484
sg74
(lp4516
g67
(g88
g69
NtRp4517
(dp4518
g72
(dp4519
sg81
g4513
sg74
(lp4520
g67
(g68
g69
NtRp4521
(dp4522
g72
(dp4523
g80
I1
ssg81
g4517
sg74
(lp4524
S'http://www.web2py.com'
p4525
asbasbasbag67
(g83
g69
NtRp4526
(dp4527
g72
(dp4528
sg81
g4484
sg74
(lp4529
g67
(g88
g69
NtRp4530
(dp4531
g72
(dp4532
sg81
g4526
sg74
(lp4533
g67
(g68
g69
NtRp4534
(dp4535
g72
(dp4536
g80
I1
ssg81
g4530
sg74
(lp4537
(lp4538
(g4012
(S's\x08\x00\x00\x00Download'
tRp4539
I00
S'http://www.web2py.com/examples/default/download'
p4540
tp4541
a(g4012
(S's\x07\x00\x00\x00Support'
tRp4542
I00
S'http://www.web2py.com/examples/default/support'
p4543
tp4544
a(g4012
(S's\x04\x00\x00\x00Demo'
tRp4545
I00
S'http://web2py.com/demo_admin'
p4546
tp4547
a(g4012
(S's\x0e\x00\x00\x00Quick Examples'
tRp4548
I00
S'http://web2py.com/examples/default/examples'
p4549
tp4550
a(g4012
(S's\x03\x00\x00\x00FAQ'
tRp4551
I00
S'http://web2py.com/AlterEgo'
p4552
tp4553
a(g4012
(S's\x06\x00\x00\x00Videos'
tRp4554
I00
S'http://www.web2py.com/examples/default/videos/'
p4555
tp4556
a(g4012
(S's\x11\x00\x00\x00Free Applications'
tRp4557
I00
S'http://web2py.com/appliances'
p4558
tp4559
a(g4012
(S's\x07\x00\x00\x00Plugins'
tRp4560
I00
S'http://web2py.com/plugins'
p4561
tp4562
a(g4012
(S's\x07\x00\x00\x00Layouts'
tRp4563
I00
S'http://web2py.com/layouts'
p4564
tp4565
a(g4012
(S's\x07\x00\x00\x00Recipes'
tRp4566
I00
S'http://web2pyslices.com/'
p4567
tp4568
a(g4012
(S's\x08\x00\x00\x00Semantic'
tRp4569
I00
S'http://web2py.com/semantic'
p4570
tp4571
aasbasbasbasbasbasbasbag67
(g83
g69
NtRp4572
(dp4573
g72
(dp4574
sg81
g4329
sg74
(lp4575
g67
(g88
g69
NtRp4576
(dp4577
g72
(dp4578
sg81
g4572
sg74
(lp4579
g67
(g68
g69
NtRp4580
(dp4581
g72
(dp4582
g80
I2
ssg81
g4576
sg74
(lp4583
g67
(g76
g69
NtRp4584
(dp4585
g72
(dp4586
g80
I1
ssg81
Nsg74
(lp4587
g67
(g83
g69
NtRp4588
(dp4589
g72
(dp4590
sg81
g4584
sg74
(lp4591
g67
(g88
g69
NtRp4592
(dp4593
g72
(dp4594
sg81
g4588
sg74
(lp4595
g67
(g68
g69
NtRp4596
(dp4597
g72
(dp4598
g80
I1
ssg81
g4592
sg74
(lp4599
g4012
(S's\r\x00\x00\x00Documentation'
tRp4600
asbasbasbag67
(g83
g69
NtRp4601
(dp4602
g72
(dp4603
sg81
g4584
sg74
(lp4604
g67
(g88
g69
NtRp4605
(dp4606
g72
(dp4607
sg81
g4601
sg74
(lp4608
g67
(g68
g69
NtRp4609
(dp4610
g72
(dp4611
g80
I1
ssg81
g4605
sg74
(lp4612
I00
asbasbasbag67
(g83
g69
NtRp4613
(dp4614
g72
(dp4615
sg81
g4584
sg74
(lp4616
g67
(g88
g69
NtRp4617
(dp4618
g72
(dp4619
sg81
g4613
sg74
(lp4620
g67
(g68
g69
NtRp4621
(dp4622
g72
(dp4623
g80
I1
ssg81
g4617
sg74
(lp4624
S'http://www.web2py.com/book'
p4625
asbasbasbag67
(g83
g69
NtRp4626
(dp4627
g72
(dp4628
sg81
g4584
sg74
(lp4629
g67
(g88
g69
NtRp4630
(dp4631
g72
(dp4632
sg81
g4626
sg74
(lp4633
g67
(g68
g69
NtRp4634
(dp4635
g72
(dp4636
g80
I1
ssg81
g4630
sg74
(lp4637
(lp4638
(g4012
(S's\x07\x00\x00\x00Preface'
tRp4639
I00
S'http://www.web2py.com/book/default/chapter/00'
p4640
tp4641
a(g4012
(S's\x0c\x00\x00\x00Introduction'
tRp4642
I00
S'http://www.web2py.com/book/default/chapter/01'
p4643
tp4644
a(g4012
(S's\x06\x00\x00\x00Python'
tRp4645
I00
S'http://www.web2py.com/book/default/chapter/02'
p4646
tp4647
a(g4012
(S's\x08\x00\x00\x00Overview'
tRp4648
I00
S'http://www.web2py.com/book/default/chapter/03'
p4649
tp4650
a(g4012
(S's\x08\x00\x00\x00The Core'
tRp4651
I00
S'http://www.web2py.com/book/default/chapter/04'
p4652
tp4653
a(g4012
(S's\t\x00\x00\x00The Views'
tRp4654
I00
S'http://www.web2py.com/book/default/chapter/05'
p4655
tp4656
a(g4012
(S's\x08\x00\x00\x00Database'
tRp4657
I00
S'http://www.web2py.com/book/default/chapter/06'
p4658
tp4659
a(g4012
(S's\x14\x00\x00\x00Forms and Validators'
tRp4660
I00
S'http://www.web2py.com/book/default/chapter/07'
p4661
tp4662
a(g4012
(S's\r\x00\x00\x00Email and SMS'
tRp4663
I00
S'http://www.web2py.com/book/default/chapter/08'
p4664
tp4665
a(g4012
(S's\x0e\x00\x00\x00Access Control'
tRp4666
I00
S'http://www.web2py.com/book/default/chapter/09'
p4667
tp4668
a(g4012
(S's\x08\x00\x00\x00Services'
tRp4669
I00
S'http://www.web2py.com/book/default/chapter/10'
p4670
tp4671
a(g4012
(S's\x0c\x00\x00\x00Ajax Recipes'
tRp4672
I00
S'http://www.web2py.com/book/default/chapter/11'
p4673
tp4674
a(g4012
(S's\x16\x00\x00\x00Components and Plugins'
tRp4675
I00
S'http://www.web2py.com/book/default/chapter/12'
p4676
tp4677
a(g4012
(S's\x12\x00\x00\x00Deployment Recipes'
tRp4678
I00
S'http://www.web2py.com/book/default/chapter/13'
p4679
tp4680
a(g4012
(S's\r\x00\x00\x00Other Recipes'
tRp4681
I00
S'http://www.web2py.com/book/default/chapter/14'
p4682
tp4683
a(g4012
(S's\r\x00\x00\x00Buy this book'
tRp4684
I00
S'http://stores.lulu.com/web2py'
p4685
tp4686
aasbasbasbasbasbasbasbag67
(g83
g69
NtRp4687
(dp4688
g72
(dp4689
sg81
g4329
sg74
(lp4690
g67
(g88
g69
NtRp4691
(dp4692
g72
(dp4693
sg81
g4687
sg74
(lp4694
g67
(g68
g69
NtRp4695
(dp4696
g72
(dp4697
g80
I2
ssg81
g4691
sg74
(lp4698
g67
(g76
g69
NtRp4699
(dp4700
g72
(dp4701
g80
I1
ssg81
Nsg74
(lp4702
g67
(g83
g69
NtRp4703
(dp4704
g72
(dp4705
sg81
g4699
sg74
(lp4706
g67
(g88
g69
NtRp4707
(dp4708
g72
(dp4709
sg81
g4703
sg74
(lp4710
g67
(g68
g69
NtRp4711
(dp4712
g72
(dp4713
g80
I1
ssg81
g4707
sg74
(lp4714
g4012
(S's\t\x00\x00\x00Community'
tRp4715
asbasbasbag67
(g83
g69
NtRp4716
(dp4717
g72
(dp4718
sg81
g4699
sg74
(lp4719
g67
(g88
g69
NtRp4720
(dp4721
g72
(dp4722
sg81
g4716
sg74
(lp4723
g67
(g68
g69
NtRp4724
(dp4725
g72
(dp4726
g80
I1
ssg81
g4720
sg74
(lp4727
I00
asbasbasbag67
(g83
g69
NtRp4728
(dp4729
g72
(dp4730
sg81
g4699
sg74
(lp4731
g67
(g88
g69
NtRp4732
(dp4733
g72
(dp4734
sg81
g4728
sg74
(lp4735
g67
(g68
g69
NtRp4736
(dp4737
g72
(dp4738
g80
I1
ssg81
g4732
sg74
(lp4739
Nasbasbasbag67
(g83
g69
NtRp4740
(dp4741
g72
(dp4742
sg81
g4699
sg74
(lp4743
g67
(g88
g69
NtRp4744
(dp4745
g72
(dp4746
sg81
g4740
sg74
(lp4747
g67
(g68
g69
NtRp4748
(dp4749
g72
(dp4750
g80
I1
ssg81
g4744
sg74
(lp4751
(lp4752
(g4012
(S's\x06\x00\x00\x00Groups'
tRp4753
I00
S'http://www.web2py.com/examples/default/usergroups'
p4754
tp4755
a(g4012
(S's\x07\x00\x00\x00Twitter'
tRp4756
I00
S'http://twitter.com/web2py'
p4757
tp4758
a(g4012
(S's\t\x00\x00\x00Live Chat'
tRp4759
I00
S'http://webchat.freenode.net/?channels=web2py'
p4760
tp4761
aasbasbasbasbasbasbasbag67
(g83
g69
NtRp4762
(dp4763
g72
(dp4764
sg81
g4329
sg74
(lp4765
g67
(g88
g69
NtRp4766
(dp4767
g72
(dp4768
sg81
g4762
sg74
(lp4769
g67
(g68
g69
NtRp4770
(dp4771
g72
(dp4772
g80
I2
ssg81
g4766
sg74
(lp4773
g67
(g76
g69
NtRp4774
(dp4775
g72
(dp4776
g80
I1
ssg81
Nsg74
(lp4777
g67
(g83
g69
NtRp4778
(dp4779
g72
(dp4780
sg81
g4774
sg74
(lp4781
g67
(g88
g69
NtRp4782
(dp4783
g72
(dp4784
sg81
g4778
sg74
(lp4785
g67
(g68
g69
NtRp4786
(dp4787
g72
(dp4788
g80
I1
ssg81
g4782
sg74
(lp4789
g4012
(S's\x07\x00\x00\x00Plugins'
tRp4790
asbasbasbag67
(g83
g69
NtRp4791
(dp4792
g72
(dp4793
sg81
g4774
sg74
(lp4794
g67
(g88
g69
NtRp4795
(dp4796
g72
(dp4797
sg81
g4791
sg74
(lp4798
g67
(g68
g69
NtRp4799
(dp4800
g72
(dp4801
g80
I1
ssg81
g4795
sg74
(lp4802
I00
asbasbasbag67
(g83
g69
NtRp4803
(dp4804
g72
(dp4805
sg81
g4774
sg74
(lp4806
g67
(g88
g69
NtRp4807
(dp4808
g72
(dp4809
sg81
g4803
sg74
(lp4810
g67
(g68
g69
NtRp4811
(dp4812
g72
(dp4813
g80
I1
ssg81
g4807
sg74
(lp4814
Nasbasbasbag67
(g83
g69
NtRp4815
(dp4816
g72
(dp4817
sg81
g4774
sg74
(lp4818
g67
(g88
g69
NtRp4819
(dp4820
g72
(dp4821
sg81
g4815
sg74
(lp4822
g67
(g68
g69
NtRp4823
(dp4824
g72
(dp4825
g80
I1
ssg81
g4819
sg74
(lp4826
(lp4827
(S'plugin_wiki'
p4828
I00
S'http://web2py.com/examples/default/download'
p4829
tp4830
a(g4012
(S's\r\x00\x00\x00Other Plugins'
tRp4831
I00
g4561
tp4832
a(g4012
(S's\x0e\x00\x00\x00Layout Plugins'
tRp4833
I00
g4564
tp4834
aasbasbasbasbasbasbasbasbasbasbasbasbasbasbasbasbasbasbasbag67
(g83
g69
NtRp4835
(dp4836
g72
(dp4837
sg81
g3681
sg74
(lp4838
g67
(g88
g69
NtRp4839
(dp4840
g72
(dp4841
g92
g93
ssg81
g4835
sg74
(lp4842
S'meta'
p4843
asbag67
(g88
g69
NtRp4844
(dp4845
g72
(dp4846
g99
g100
ssg81
g4835
sg74
(lp4847
S':'
asbag67
(g88
g69
NtRp4848
(dp4849
g72
(dp4850
sg81
g4835
sg74
(lp4851
g67
(g68
g69
NtRp4852
(dp4853
g72
(dp4854
g80
I5
ssg81
g4848
sg74
(lp4855
g67
(g76
g69
NtRp4856
(dp4857
g72
(dp4858
g80
I4
ssg81
Nsg74
(lp4859
g67
(g83
g69
NtRp4860
(dp4861
g72
(dp4862
sg81
g4856
sg74
(lp4863
g67
(g88
g69
NtRp4864
(dp4865
g72
(dp4866
g92
g93
ssg81
g4860
sg74
(lp4867
S'author'
p4868
asbag67
(g88
g69
NtRp4869
(dp4870
g72
(dp4871
g99
g100
ssg81
g4860
sg74
(lp4872
S':'
asbag67
(g88
g69
NtRp4873
(dp4874
g72
(dp4875
sg81
g4860
sg74
(lp4876
g67
(g68
g69
NtRp4877
(dp4878
g72
(dp4879
g80
I4
ssg81
g4873
sg74
(lp4880
S'Your Name <you@example.com>'
p4881
asbasbasbag67
(g83
g69
NtRp4882
(dp4883
g72
(dp4884
sg81
g4856
sg74
(lp4885
g67
(g88
g69
NtRp4886
(dp4887
g72
(dp4888
g92
g93
ssg81
g4882
sg74
(lp4889
S'description'
p4890
asbag67
(g88
g69
NtRp4891
(dp4892
g72
(dp4893
g99
g100
ssg81
g4882
sg74
(lp4894
S':'
asbag67
(g88
g69
NtRp4895
(dp4896
g72
(dp4897
sg81
g4882
sg74
(lp4898
g67
(g68
g69
NtRp4899
(dp4900
g72
(dp4901
g80
I4
ssg81
g4895
sg74
(lp4902
S'a cool new app'
p4903
asbasbasbag67
(g83
g69
NtRp4904
(dp4905
g72
(dp4906
sg81
g4856
sg74
(lp4907
g67
(g88
g69
NtRp4908
(dp4909
g72
(dp4910
g92
g93
ssg81
g4904
sg74
(lp4911
S'generator'
p4912
asbag67
(g88
g69
NtRp4913
(dp4914
g72
(dp4915
g99
g100
ssg81
g4904
sg74
(lp4916
S':'
asbag67
(g88
g69
NtRp4917
(dp4918
g72
(dp4919
sg81
g4904
sg74
(lp4920
g67
(g68
g69
NtRp4921
(dp4922
g72
(dp4923
g80
I4
ssg81
g4917
sg74
(lp4924
S'Web2py Web Framework'
p4925
asbasbasbag67
(g83
g69
NtRp4926
(dp4927
g72
(dp4928
sg81
g4856
sg74
(lp4929
g67
(g88
g69
NtRp4930
(dp4931
g72
(dp4932
g92
g93
ssg81
g4926
sg74
(lp4933
S'keywords'
p4934
asbag67
(g88
g69
NtRp4935
(dp4936
g72
(dp4937
g99
g100
ssg81
g4926
sg74
(lp4938
S':'
asbag67
(g88
g69
NtRp4939
(dp4940
g72
(dp4941
sg81
g4926
sg74
(lp4942
g67
(g68
g69
NtRp4943
(dp4944
g72
(dp4945
g80
I4
ssg81
g4939
sg74
(lp4946
S'web2py, python, framework'
p4947
asbasbasbasbasbasbasbag67
(g83
g69
NtRp4948
(dp4949
g72
(dp4950
sg81
g3681
sg74
(lp4951
g67
(g88
g69
NtRp4952
(dp4953
g72
(dp4954
g92
g93
ssg81
g4948
sg74
(lp4955
S'models_to_run'
p4956
asbag67
(g88
g69
NtRp4957
(dp4958
g72
(dp4959
g99
g100
ssg81
g4948
sg74
(lp4960
S':'
asbag67
(g88
g69
NtRp4961
(dp4962
g72
(dp4963
sg81
g4948
sg74
(lp4964
g67
(g68
g69
NtRp4965
(dp4966
g72
(dp4967
g80
I5
ssg81
g4961
sg74
(lp4968
g67
(g76
g69
NtRp4969
(dp4970
g72
(dp4971
g80
I4
ssg81
Nsg74
(lp4972
g67
(g83
g69
NtRp4973
(dp4974
g72
(dp4975
sg81
g4969
sg74
(lp4976
g67
(g88
g69
NtRp4977
(dp4978
g72
(dp4979
sg81
g4973
sg74
(lp4980
g67
(g68
g69
NtRp4981
(dp4982
g72
(dp4983
g80
I4
ssg81
g4977
sg74
(lp4984
S'^\\w+\\.py$'
p4985
asbasbasbag67
(g83
g69
NtRp4986
(dp4987
g72
(dp4988
sg81
g4969
sg74
(lp4989
g67
(g88
g69
NtRp4990
(dp4991
g72
(dp4992
sg81
g4986
sg74
(lp4993
g67
(g68
g69
NtRp4994
(dp4995
g72
(dp4996
g80
I4
ssg81
g4990
sg74
(lp4997
S'^default/\\w+\\.py$'
p4998
asbasbasbag67
(g83
g69
NtRp4999
(dp5000
g72
(dp5001
sg81
g4969
sg74
(lp5002
g67
(g88
g69
NtRp5003
(dp5004
g72
(dp5005
sg81
g4999
sg74
(lp5006
g67
(g68
g69
NtRp5007
(dp5008
g72
(dp5009
g80
I4
ssg81
g5003
sg74
(lp5010
S'^default/index/\\w+\\.py$'
p5011
asbasbasbasbasbasbasbag67
(g83
g69
NtRp5012
(dp5013
g72
(dp5014
sg81
g3681
sg74
(lp5015
g67
(g88
g69
NtRp5016
(dp5017
g72
(dp5018
g92
g93
ssg81
g5012
sg74
(lp5019
S'postprocessing'
p5020
asbag67
(g88
g69
NtRp5021
(dp5022
g72
(dp5023
g99
g100
ssg81
g5012
sg74
(lp5024
S':'
asbag67
(g88
g69
NtRp5025
(dp5026
g72
(dp5027
sg81
g5012
sg74
(lp5028
g67
(g68
g69
NtRp5029
(dp5030
g72
(dp5031
g80
I5
ssg81
g5025
sg74
(lp5032
g67
(g76
g69
NtRp5033
(dp5034
g72
(dp5035
g80
I4
ssg81
Nsg74
(lp5036
sbasbasbasbag67
(g83
g69
NtRp5037
(dp5038
g72
(dp5039
sg81
g3681
sg74
(lp5040
g67
(g88
g69
NtRp5041
(dp5042
g72
(dp5043
g92
g93
ssg81
g5037
sg74
(lp5044
S'session_cookie_expires'
p5045
asbag67
(g88
g69
NtRp5046
(dp5047
g72
(dp5048
g99
g100
ssg81
g5037
sg74
(lp5049
S':'
asbag67
(g88
g69
NtRp5050
(dp5051
g72
(dp5052
sg81
g5037
sg74
(lp5053
g67
(g68
g69
NtRp5054
(dp5055
g72
(dp5056
g80
I5
ssg81
g5050
sg74
(lp5057
S'None'
p5058
asbasbasbag67
(g83
g69
NtRp5059
(dp5060
g72
(dp5061
sg81
g3681
sg74
(lp5062
g67
(g88
g69
NtRp5063
(dp5064
g72
(dp5065
g92
g93
ssg81
g5059
sg74
(lp5066
S'session_data_name'
p5067
asbag67
(g88
g69
NtRp5068
(dp5069
g72
(dp5070
g99
g100
ssg81
g5059
sg74
(lp5071
S':'
asbag67
(g88
g69
NtRp5072
(dp5073
g72
(dp5074
sg81
g5059
sg74
(lp5075
g67
(g68
g69
NtRp5076
(dp5077
g72
(dp5078
g80
I5
ssg81
g5072
sg74
(lp5079
S'session_data_ggg'
p5080
asbasbasbag67
(g83
g69
NtRp5081
(dp5082
g72
(dp5083
sg81
g3681
sg74
(lp5084
g67
(g88
g69
NtRp5085
(dp5086
g72
(dp5087
g92
g93
ssg81
g5081
sg74
(lp5088
S'session_file'
p5089
asbag67
(g88
g69
NtRp5090
(dp5091
g72
(dp5092
g99
g100
ssg81
g5081
sg74
(lp5093
S':'
asbag67
(g88
g69
NtRp5094
(dp5095
g72
(dp5096
sg81
g5081
sg74
(lp5097
g67
(g68
g69
NtRp5098
(dp5099
g72
(dp5100
g80
I5
ssg81
g5094
sg74
(lp5101
S"<open file '/home/gaurav/classwork/WEB_PROGRAMMING/web2py/applications/ggg/sessions/127.0.0.1-7c2fad7f-4e3f-442a-8209-aa4c44b1b049', mode 'rb+' at 0x9b80338>"
p5102
asbasbasbag67
(g83
g69
NtRp5103
(dp5104
g72
(dp5105
sg81
g3681
sg74
(lp5106
g67
(g88
g69
NtRp5107
(dp5108
g72
(dp5109
g92
g93
ssg81
g5103
sg74
(lp5110
S'session_filename'
p5111
asbag67
(g88
g69
NtRp5112
(dp5113
g72
(dp5114
g99
g100
ssg81
g5103
sg74
(lp5115
S':'
asbag67
(g88
g69
NtRp5116
(dp5117
g72
(dp5118
sg81
g5103
sg74
(lp5119
g67
(g68
g69
NtRp5120
(dp5121
g72
(dp5122
g80
I5
ssg81
g5116
sg74
(lp5123
S'/home/gaurav/classwork/WEB_PROGRAMMING/web2py/applications/ggg/sessions/127.0.0.1-7c2fad7f-4e3f-442a-8209-aa4c44b1b049'
p5124
asbasbasbag67
(g83
g69
NtRp5125
(dp5126
g72
(dp5127
sg81
g3681
sg74
(lp5128
g67
(g88
g69
NtRp5129
(dp5130
g72
(dp5131
g92
g93
ssg81
g5125
sg74
(lp5132
S'session_id'
p5133
asbag67
(g88
g69
NtRp5134
(dp5135
g72
(dp5136
g99
g100
ssg81
g5125
sg74
(lp5137
S':'
asbag67
(g88
g69
NtRp5138
(dp5139
g72
(dp5140
sg81
g5125
sg74
(lp5141
g67
(g68
g69
NtRp5142
(dp5143
g72
(dp5144
g80
I5
ssg81
g5138
sg74
(lp5145
g485
asbasbasbag67
(g83
g69
NtRp5146
(dp5147
g72
(dp5148
sg81
g3681
sg74
(lp5149
g67
(g88
g69
NtRp5150
(dp5151
g72
(dp5152
g92
g93
ssg81
g5146
sg74
(lp5153
S'session_id_name'
p5154
asbag67
(g88
g69
NtRp5155
(dp5156
g72
(dp5157
g99
g100
ssg81
g5146
sg74
(lp5158
S':'
asbag67
(g88
g69
NtRp5159
(dp5160
g72
(dp5161
sg81
g5146
sg74
(lp5162
g67
(g68
g69
NtRp5163
(dp5164
g72
(dp5165
g80
I5
ssg81
g5159
sg74
(lp5166
g3738
asbasbasbag67
(g83
g69
NtRp5167
(dp5168
g72
(dp5169
sg81
g3681
sg74
(lp5170
g67
(g88
g69
NtRp5171
(dp5172
g72
(dp5173
g92
g93
ssg81
g5167
sg74
(lp5174
S'session_locked'
p5175
asbag67
(g88
g69
NtRp5176
(dp5177
g72
(dp5178
g99
g100
ssg81
g5167
sg74
(lp5179
S':'
asbag67
(g88
g69
NtRp5180
(dp5181
g72
(dp5182
sg81
g5167
sg74
(lp5183
g67
(g68
g69
NtRp5184
(dp5185
g72
(dp5186
g80
I5
ssg81
g5180
sg74
(lp5187
g1801
asbasbasbag67
(g83
g69
NtRp5188
(dp5189
g72
(dp5190
sg81
g3681
sg74
(lp5191
g67
(g88
g69
NtRp5192
(dp5193
g72
(dp5194
g92
g93
ssg81
g5188
sg74
(lp5195
S'session_new'
p5196
asbag67
(g88
g69
NtRp5197
(dp5198
g72
(dp5199
g99
g100
ssg81
g5188
sg74
(lp5200
S':'
asbag67
(g88
g69
NtRp5201
(dp5202
g72
(dp5203
sg81
g5188
sg74
(lp5204
g67
(g68
g69
NtRp5205
(dp5206
g72
(dp5207
g80
I5
ssg81
g5201
sg74
(lp5208
g110
asbasbasbag67
(g83
g69
NtRp5209
(dp5210
g72
(dp5211
sg81
g3681
sg74
(lp5212
g67
(g88
g69
NtRp5213
(dp5214
g72
(dp5215
g92
g93
ssg81
g5209
sg74
(lp5216
S'session_storage_type'
p5217
asbag67
(g88
g69
NtRp5218
(dp5219
g72
(dp5220
g99
g100
ssg81
g5209
sg74
(lp5221
S':'
asbag67
(g88
g69
NtRp5222
(dp5223
g72
(dp5224
sg81
g5209
sg74
(lp5225
g67
(g68
g69
NtRp5226
(dp5227
g72
(dp5228
g80
I5
ssg81
g5222
sg74
(lp5229
g3253
asbasbasbag67
(g83
g69
NtRp5230
(dp5231
g72
(dp5232
sg81
g3681
sg74
(lp5233
g67
(g88
g69
NtRp5234
(dp5235
g72
(dp5236
g92
g93
ssg81
g5230
sg74
(lp5237
S'status'
p5238
asbag67
(g88
g69
NtRp5239
(dp5240
g72
(dp5241
g99
g100
ssg81
g5230
sg74
(lp5242
S':'
asbag67
(g88
g69
NtRp5243
(dp5244
g72
(dp5245
sg81
g5230
sg74
(lp5246
g67
(g68
g69
NtRp5247
(dp5248
g72
(dp5249
g80
I5
ssg81
g5243
sg74
(lp5250
S'200'
p5251
asbasbasbag67
(g83
g69
NtRp5252
(dp5253
g72
(dp5254
sg81
g3681
sg74
(lp5255
g67
(g88
g69
NtRp5256
(dp5257
g72
(dp5258
g92
g93
ssg81
g5252
sg74
(lp5259
S'subtitle'
p5260
asbag67
(g88
g69
NtRp5261
(dp5262
g72
(dp5263
g99
g100
ssg81
g5252
sg74
(lp5264
S':'
asbag67
(g88
g69
NtRp5265
(dp5266
g72
(dp5267
sg81
g5252
sg74
(lp5268
g67
(g68
g69
NtRp5269
(dp5270
g72
(dp5271
g80
I5
ssg81
g5265
sg74
(lp5272
g4012
(S's\r\x00\x00\x00customize me!'
tRp5273
asbasbasbag67
(g83
g69
NtRp5274
(dp5275
g72
(dp5276
sg81
g3681
sg74
(lp5277
g67
(g88
g69
NtRp5278
(dp5279
g72
(dp5280
g92
g93
ssg81
g5274
sg74
(lp5281
S'title'
p5282
asbag67
(g88
g69
NtRp5283
(dp5284
g72
(dp5285
g99
g100
ssg81
g5274
sg74
(lp5286
S':'
asbag67
(g88
g69
NtRp5287
(dp5288
g72
(dp5289
sg81
g5274
sg74
(lp5290
g67
(g68
g69
NtRp5291
(dp5292
g72
(dp5293
g80
I5
ssg81
g5287
sg74
(lp5294
S'Ggg'
p5295
asbasbasbag67
(g83
g69
NtRp5296
(dp5297
g72
(dp5298
sg81
g3681
sg74
(lp5299
g67
(g88
g69
NtRp5300
(dp5301
g72
(dp5302
g92
g93
ssg81
g5296
sg74
(lp5303
S'view'
p5304
asbag67
(g88
g69
NtRp5305
(dp5306
g72
(dp5307
g99
g100
ssg81
g5296
sg74
(lp5308
S':'
asbag67
(g88
g69
NtRp5309
(dp5310
g72
(dp5311
sg81
g5296
sg74
(lp5312
g67
(g68
g69
NtRp5313
(dp5314
g72
(dp5315
g80
I5
ssg81
g5309
sg74
(lp5316
S'default/index.html'
p5317
asbasbasbasbasbsS'locals'
p5318
(dp5319
g4
S"'/home/gaurav/classwork/WEB_PROGRAMMING/web2py/applications/ggg/views/default/index.html'"
p5320
sg6
S'\'response.write(\\\'<!DOCTYPE html PUBLIC "-//W3C//D...n</div>\\\\r\\\\n</body>\\\\r\\\\n</html>\\\\r\\\\n\\\', escape=False)\''
p5321
sssS'traceback'
p5322
S'Traceback (most recent call last):\n  File "/home/gaurav/classwork/WEB_PROGRAMMING/web2py/gluon/restricted.py", line 211, in restricted\n    ccode = compile2(code, layer)\n  File "/home/gaurav/classwork/WEB_PROGRAMMING/web2py/gluon/restricted.py", line 194, in compile2\n    return compile(code.rstrip().replace(\'\\r\\n\', \'\\n\') + \'\\n\', layer, \'exec\')\n  File "/home/gaurav/classwork/WEB_PROGRAMMING/web2py/applications/ggg/views/default/index.html", line 3\n    response.write(\'" type="text/javascript"></script>\\r\\n<script src="\', escape=False)\n           ^\nSyntaxError: invalid syntax\n'
p5323
s.