(dp1
S'output'
p2
S"<type 'exceptions.TypeError'> __init__() got an unexpected keyword argument 'multiple'"
p3
sS'layer'
p4
S'/home/gaurav/classwork/WEB_PROGRAMMING/web2py/applications/ggg/models/db.py'
p5
sS'code'
p6
S"# -*- coding: utf-8 -*-\n\n#########################################################################\n## This scaffolding model makes your app work on Google App Engine too\n## File is released under public domain and you can use without limitations\n#########################################################################\n\n## if SSL/HTTPS is properly configured and you want all HTTP requests to\n## be redirected to HTTPS, uncomment the line below:\n# request.requires_https()\n\nif not request.env.web2py_runtime_gae:\n    ## if NOT running on Google App Engine use SQLite or other DB\n    db = DAL('sqlite://storage.sqlite',pool_size=1,check_reserved=['all'])\nelse:\n    ## connect to Google BigTable (optional 'google:datastore://namespace')\n    db = DAL('google:datastore')\n    ## store sessions and tickets there\n    session.connect(request, response, db=db)\n    ## or store session in Memcache, Redis, etc.\n    ## from gluon.contrib.memdb import MEMDB\n    ## from google.appengine.api.memcache import Client\n    ## session.connect(request, response, db = MEMDB(Client()))\n\n## by default give a view/generic.extension to all actions from localhost\n## none otherwise. a pattern can be 'controller/function.extension'\nresponse.generic_patterns = ['*'] if request.is_local else []\n## (optional) optimize handling of static files\n# response.optimize_css = 'concat,minify,inline'\n# response.optimize_js = 'concat,minify,inline'\n\n#########################################################################\n## Here is sample code if you need for\n## - email capabilities\n## - authentication (registration, login, logout, ... )\n## - authorization (role based authorization)\n## - services (xml, csv, json, xmlrpc, jsonrpc, amf, rss)\n## - old style crud actions\n## (more options discussed in gluon/tools.py)\n#########################################################################\n\nfrom gluon.tools import Auth, Crud, Service, PluginManager, prettydate\nauth = Auth(db)\ncrud, service, plugins = Crud(db), Service(), PluginManager()\n\n## create all tables needed by auth if not custom tables\nauth.define_tables(username=False, signature=False)\n\n## configure email\nmail = auth.settings.mailer\nmail.settings.server = 'logging' or 'smtp.gmail.com:587'\nmail.settings.sender = 'you@gmail.com'\nmail.settings.login = 'username:password'\n\n## configure auth policy\nauth.settings.registration_requires_verification = False\nauth.settings.registration_requires_approval = False\nauth.settings.reset_password_requires_verification = True\n\n## if you need to use OpenID, Facebook, MySpace, Twitter, Linkedin, etc.\n## register with janrain.com, write your domain:api_key in private/janrain.key\nfrom gluon.contrib.login_methods.rpx_account import use_janrain\nuse_janrain(auth, filename='private/janrain.key')\n\n#########################################################################\n## Define your tables below (or better in another model file) for example\n##\n## >>> db.define_table('mytable',Field('myfield','string'))\n##\n## Fields can be 'string','text','password','integer','double','boolean'\n##       'date','time','datetime','blob','upload', 'reference TABLENAME'\n## There is an implicit 'id integer autoincrement' field\n## Consult manual for more options, validators, etc.\n##\n## More API examples for controllers:\n##\n## >>> db.mytable.insert(myfield='value')\n## >>> rows=db(db.mytable.myfield=='value').select(db.mytable.ALL)\n## >>> for row in rows: print row.id, row.myfield\n#########################################################################\n\n## after defining tables, uncomment below to enable auditing\n# auth.enable_record_versioning(db)\n\n\n\n\n\n\n\ndb.define_table('courses',\t\t\t\t\t\t\t#The courses the institution offers\n\t  Field('name','string'),\n\t  Field('credits','integer',requires=IS_IN_SET([1,2,3,4,5])))\n\ndb.define_table('faculty',\n\t  Field('name',requires=IS_IN_DB(db,'auth_user.id','auth_user.first_name')),\n\t  Field('courses',requires=IS_IN_SET(['Data Structures','ITWS II','Maths-II','Basic Electronic Circuits','Computer Systems Organisations'])),\n\t  Field('designation',requires=IS_IN_SET(['Professor','Assistant_Professor','Lecturer']))) \n\ndb.define_table('student',\n\t  Field('email',readable=False,writable=False),\n\t  Field('institution_name','string'),\n\t  Field('courses_taken',requires=IS_IN_DB(db,'courses.id','courses.name')),\n\t  Field('date_of_birth','date'),\n\t  Field('fathers_name','string'),\n\t  Field('mothers_name','string'),\n\t  Field('address','text'),\n\t  Field('coun','integer',readable=False,writable=False),\n\t  Field('final_marks','integer',readable=False,writable=False),\n\t  Field('given','integer',default=0,readable=False,writable=False)\n\t  )\n\ndb.define_table('questions',\n\t  Field('course',requires=IS_IN_DB(db,'courses.id','courses.name')),\n\t  Field('que_number','integer'),\n\t  Field('question','string'),\n\t  Field('option_a','string'),\n\t  Field('option_b','string'),\n\t  Field('option_c','string'),\n\t  Field('option_d','string'),\n\t  Field('ans','string'),\n\t  Field('maxmarks','integer'),\n\t  Field('stid','string',readable=False,writable=False),\n\t  Field('obtained_marks','integer',default=0,readable=False,writable=False)\n\t  )\ndb.define_table('answer',\n\t  Field('op',requires=IS_IN_SET(['A','B','C','D']),multiple=True,widget=SQLFORM.widgets.checkboxes.widget))\n"
p7
sS'snapshot'
p8
(dp9
S'exception'
p10
(dp11
S'__hash__'
p12
S"<method-wrapper '__hash__' of exceptions.TypeError object>"
p13
sS'__setattr__'
p14
S"<method-wrapper '__setattr__' of exceptions.TypeError object>"
p15
sS'__reduce_ex__'
p16
S'<built-in method __reduce_ex__ of exceptions.TypeError object>'
p17
sS'__getslice__'
p18
S"<method-wrapper '__getslice__' of exceptions.TypeError object>"
p19
sS'__getitem__'
p20
S"<method-wrapper '__getitem__' of exceptions.TypeError object>"
p21
sS'__setstate__'
p22
S'<built-in method __setstate__ of exceptions.TypeError object>'
p23
sS'__reduce__'
p24
S'<built-in method __reduce__ of exceptions.TypeError object>'
p25
sS'__str__'
p26
S"<method-wrapper '__str__' of exceptions.TypeError object>"
p27
sS'__format__'
p28
S'<built-in method __format__ of exceptions.TypeError object>'
p29
sS'__getattribute__'
p30
S"<method-wrapper '__getattribute__' of exceptions.TypeError object>"
p31
sS'__class__'
p32
S"<type 'exceptions.TypeError'>"
p33
sS'__unicode__'
p34
S'<built-in method __unicode__ of exceptions.TypeError object>'
p35
sS'__delattr__'
p36
S"<method-wrapper '__delattr__' of exceptions.TypeError object>"
p37
sS'__subclasshook__'
p38
S'<built-in method __subclasshook__ of type object>'
p39
sS'__repr__'
p40
S"<method-wrapper '__repr__' of exceptions.TypeError object>"
p41
sS'args'
p42
S'("__init__() got an unexpected keyword argument \'multiple\'",)'
p43
sS'__dict__'
p44
S'{}'
p45
sS'__sizeof__'
p46
S'<built-in method __sizeof__ of exceptions.TypeError object>'
p47
sS'__doc__'
p48
S"'Inappropriate argument type.'"
p49
sS'__init__'
p50
S"<method-wrapper '__init__' of exceptions.TypeError object>"
p51
sS'__new__'
p52
S'<built-in method __new__ of type object>'
p53
ssS'evalue'
p54
S"__init__() got an unexpected keyword argument 'multiple'"
p55
sS'request'
p56
ccopy_reg
_reconstructor
p57
(cgluon.html
BEAUTIFY
p58
c__builtin__
object
p59
NtRp60
(dp61
S'attributes'
p62
(dp63
sS'components'
p64
(lp65
g57
(cgluon.html
TABLE
p66
g59
NtRp67
(dp68
g62
(dp69
S'level'
p70
I5
ssS'parent'
p71
Nsg64
(lp72
g57
(cgluon.html
TR
p73
g59
NtRp74
(dp75
g62
(dp76
sg71
g67
sg64
(lp77
g57
(cgluon.html
TD
p78
g59
NtRp79
(dp80
g62
(dp81
S'_style'
p82
S'font-weight:bold;vertical-align:top'
p83
ssg71
g74
sg64
(lp84
S'ajax'
p85
asbag57
(g78
g59
NtRp86
(dp87
g62
(dp88
S'_valign'
p89
S'top'
p90
ssg71
g74
sg64
(lp91
S':'
asbag57
(g78
g59
NtRp92
(dp93
g62
(dp94
sg71
g74
sg64
(lp95
g57
(g58
g59
NtRp96
(dp97
g62
(dp98
g70
I5
ssg71
g92
sg64
(lp99
S'False'
p100
asbasbasbag57
(g73
g59
NtRp101
(dp102
g62
(dp103
sg71
g67
sg64
(lp104
g57
(g78
g59
NtRp105
(dp106
g62
(dp107
g82
g83
ssg71
g101
sg64
(lp108
S'application'
p109
asbag57
(g78
g59
NtRp110
(dp111
g62
(dp112
g89
g90
ssg71
g101
sg64
(lp113
S':'
asbag57
(g78
g59
NtRp114
(dp115
g62
(dp116
sg71
g101
sg64
(lp117
g57
(g58
g59
NtRp118
(dp119
g62
(dp120
g70
I5
ssg71
g114
sg64
(lp121
S'ggg'
p122
asbasbasbag57
(g73
g59
NtRp123
(dp124
g62
(dp125
sg71
g67
sg64
(lp126
g57
(g78
g59
NtRp127
(dp128
g62
(dp129
g82
g83
ssg71
g123
sg64
(lp130
g42
asbag57
(g78
g59
NtRp131
(dp132
g62
(dp133
g89
g90
ssg71
g123
sg64
(lp134
S':'
asbag57
(g78
g59
NtRp135
(dp136
g62
(dp137
sg71
g123
sg64
(lp138
g57
(g58
g59
NtRp139
(dp140
g62
(dp141
g70
I5
ssg71
g135
sg64
(lp142
g57
(g66
g59
NtRp143
(dp144
g62
(dp145
g70
I4
ssg71
Nsg64
(lp146
g57
(g73
g59
NtRp147
(dp148
g62
(dp149
sg71
g143
sg64
(lp150
g57
(g78
g59
NtRp151
(dp152
g62
(dp153
sg71
g147
sg64
(lp154
g57
(g58
g59
NtRp155
(dp156
g62
(dp157
g70
I4
ssg71
g151
sg64
(lp158
S'db'
p159
asbasbasbasbasbasbasbag57
(g73
g59
NtRp160
(dp161
g62
(dp162
sg71
g67
sg64
(lp163
g57
(g78
g59
NtRp164
(dp165
g62
(dp166
g82
g83
ssg71
g160
sg64
(lp167
S'body'
p168
asbag57
(g78
g59
NtRp169
(dp170
g62
(dp171
g89
g90
ssg71
g160
sg64
(lp172
S':'
asbag57
(g78
g59
NtRp173
(dp174
g62
(dp175
sg71
g160
sg64
(lp176
g57
(g58
g59
NtRp177
(dp178
g62
(dp179
g70
I5
ssg71
g173
sg64
(lp180
S'<cStringIO.StringO object at 0xa2802e0>'
p181
asbasbasbag57
(g73
g59
NtRp182
(dp183
g62
(dp184
sg71
g67
sg64
(lp185
g57
(g78
g59
NtRp186
(dp187
g62
(dp188
g82
g83
ssg71
g182
sg64
(lp189
S'cid'
p190
asbag57
(g78
g59
NtRp191
(dp192
g62
(dp193
g89
g90
ssg71
g182
sg64
(lp194
S':'
asbag57
(g78
g59
NtRp195
(dp196
g62
(dp197
sg71
g182
sg64
(lp198
g57
(g58
g59
NtRp199
(dp200
g62
(dp201
g70
I5
ssg71
g195
sg64
(lp202
S'None'
p203
asbasbasbag57
(g73
g59
NtRp204
(dp205
g62
(dp206
sg71
g67
sg64
(lp207
g57
(g78
g59
NtRp208
(dp209
g62
(dp210
g82
g83
ssg71
g204
sg64
(lp211
S'client'
p212
asbag57
(g78
g59
NtRp213
(dp214
g62
(dp215
g89
g90
ssg71
g204
sg64
(lp216
S':'
asbag57
(g78
g59
NtRp217
(dp218
g62
(dp219
sg71
g204
sg64
(lp220
g57
(g58
g59
NtRp221
(dp222
g62
(dp223
g70
I5
ssg71
g217
sg64
(lp224
S'127.0.0.1'
p225
asbasbasbag57
(g73
g59
NtRp226
(dp227
g62
(dp228
sg71
g67
sg64
(lp229
g57
(g78
g59
NtRp230
(dp231
g62
(dp232
g82
g83
ssg71
g226
sg64
(lp233
S'controller'
p234
asbag57
(g78
g59
NtRp235
(dp236
g62
(dp237
g89
g90
ssg71
g226
sg64
(lp238
S':'
asbag57
(g78
g59
NtRp239
(dp240
g62
(dp241
sg71
g226
sg64
(lp242
g57
(g58
g59
NtRp243
(dp244
g62
(dp245
g70
I5
ssg71
g239
sg64
(lp246
S'appadmin'
p247
asbasbasbag57
(g73
g59
NtRp248
(dp249
g62
(dp250
sg71
g67
sg64
(lp251
g57
(g78
g59
NtRp252
(dp253
g62
(dp254
g82
g83
ssg71
g248
sg64
(lp255
S'cookies'
p256
asbag57
(g78
g59
NtRp257
(dp258
g62
(dp259
g89
g90
ssg71
g248
sg64
(lp260
S':'
asbag57
(g78
g59
NtRp261
(dp262
g62
(dp263
sg71
g248
sg64
(lp264
g57
(g58
g59
NtRp265
(dp266
g62
(dp267
g70
I5
ssg71
g261
sg64
(lp268
g57
(g66
g59
NtRp269
(dp270
g62
(dp271
g70
I4
ssg71
Nsg64
(lp272
g57
(g73
g59
NtRp273
(dp274
g62
(dp275
sg71
g269
sg64
(lp276
g57
(g78
g59
NtRp277
(dp278
g62
(dp279
g82
g83
ssg71
g273
sg64
(lp280
S'session_id_admin'
p281
asbag57
(g78
g59
NtRp282
(dp283
g62
(dp284
g89
g90
ssg71
g273
sg64
(lp285
S':'
asbag57
(g78
g59
NtRp286
(dp287
g62
(dp288
sg71
g273
sg64
(lp289
g57
(g58
g59
NtRp290
(dp291
g62
(dp292
g70
I4
ssg71
g286
sg64
(lp293
S'127.0.0.1-1556986a-8aa2-469b-b0ed-44c2f56d6e3d'
p294
ag57
(g66
g59
NtRp295
(dp296
g62
(dp297
g70
I3
ssg71
Nsg64
(lp298
g57
(g73
g59
NtRp299
(dp300
g62
(dp301
sg71
g295
sg64
(lp302
g57
(g78
g59
NtRp303
(dp304
g62
(dp305
g82
g83
ssg71
g299
sg64
(lp306
S'comment'
p307
asbag57
(g78
g59
NtRp308
(dp309
g62
(dp310
g89
g90
ssg71
g299
sg64
(lp311
S':'
asbag57
(g78
g59
NtRp312
(dp313
g62
(dp314
sg71
g299
sg64
(lp315
g57
(g58
g59
NtRp316
(dp317
g62
(dp318
g70
I3
ssg71
g312
sg64
(lp319
S''
asbasbasbag57
(g73
g59
NtRp320
(dp321
g62
(dp322
sg71
g295
sg64
(lp323
g57
(g78
g59
NtRp324
(dp325
g62
(dp326
g82
g83
ssg71
g320
sg64
(lp327
S'domain'
p328
asbag57
(g78
g59
NtRp329
(dp330
g62
(dp331
g89
g90
ssg71
g320
sg64
(lp332
S':'
asbag57
(g78
g59
NtRp333
(dp334
g62
(dp335
sg71
g320
sg64
(lp336
g57
(g58
g59
NtRp337
(dp338
g62
(dp339
g70
I3
ssg71
g333
sg64
(lp340
S''
asbasbasbag57
(g73
g59
NtRp341
(dp342
g62
(dp343
sg71
g295
sg64
(lp344
g57
(g78
g59
NtRp345
(dp346
g62
(dp347
g82
g83
ssg71
g341
sg64
(lp348
S'expires'
p349
asbag57
(g78
g59
NtRp350
(dp351
g62
(dp352
g89
g90
ssg71
g341
sg64
(lp353
S':'
asbag57
(g78
g59
NtRp354
(dp355
g62
(dp356
sg71
g341
sg64
(lp357
g57
(g58
g59
NtRp358
(dp359
g62
(dp360
g70
I3
ssg71
g354
sg64
(lp361
S''
asbasbasbag57
(g73
g59
NtRp362
(dp363
g62
(dp364
sg71
g295
sg64
(lp365
g57
(g78
g59
NtRp366
(dp367
g62
(dp368
g82
g83
ssg71
g362
sg64
(lp369
S'httponly'
p370
asbag57
(g78
g59
NtRp371
(dp372
g62
(dp373
g89
g90
ssg71
g362
sg64
(lp374
S':'
asbag57
(g78
g59
NtRp375
(dp376
g62
(dp377
sg71
g362
sg64
(lp378
g57
(g58
g59
NtRp379
(dp380
g62
(dp381
g70
I3
ssg71
g375
sg64
(lp382
S''
asbasbasbag57
(g73
g59
NtRp383
(dp384
g62
(dp385
sg71
g295
sg64
(lp386
g57
(g78
g59
NtRp387
(dp388
g62
(dp389
g82
g83
ssg71
g383
sg64
(lp390
S'max-age'
p391
asbag57
(g78
g59
NtRp392
(dp393
g62
(dp394
g89
g90
ssg71
g383
sg64
(lp395
S':'
asbag57
(g78
g59
NtRp396
(dp397
g62
(dp398
sg71
g383
sg64
(lp399
g57
(g58
g59
NtRp400
(dp401
g62
(dp402
g70
I3
ssg71
g396
sg64
(lp403
S''
asbasbasbag57
(g73
g59
NtRp404
(dp405
g62
(dp406
sg71
g295
sg64
(lp407
g57
(g78
g59
NtRp408
(dp409
g62
(dp410
g82
g83
ssg71
g404
sg64
(lp411
S'path'
p412
asbag57
(g78
g59
NtRp413
(dp414
g62
(dp415
g89
g90
ssg71
g404
sg64
(lp416
S':'
asbag57
(g78
g59
NtRp417
(dp418
g62
(dp419
sg71
g404
sg64
(lp420
g57
(g58
g59
NtRp421
(dp422
g62
(dp423
g70
I3
ssg71
g417
sg64
(lp424
S''
asbasbasbag57
(g73
g59
NtRp425
(dp426
g62
(dp427
sg71
g295
sg64
(lp428
g57
(g78
g59
NtRp429
(dp430
g62
(dp431
g82
g83
ssg71
g425
sg64
(lp432
S'secure'
p433
asbag57
(g78
g59
NtRp434
(dp435
g62
(dp436
g89
g90
ssg71
g425
sg64
(lp437
S':'
asbag57
(g78
g59
NtRp438
(dp439
g62
(dp440
sg71
g425
sg64
(lp441
g57
(g58
g59
NtRp442
(dp443
g62
(dp444
g70
I3
ssg71
g438
sg64
(lp445
S''
asbasbasbag57
(g73
g59
NtRp446
(dp447
g62
(dp448
sg71
g295
sg64
(lp449
g57
(g78
g59
NtRp450
(dp451
g62
(dp452
g82
g83
ssg71
g446
sg64
(lp453
S'version'
p454
asbag57
(g78
g59
NtRp455
(dp456
g62
(dp457
g89
g90
ssg71
g446
sg64
(lp458
S':'
asbag57
(g78
g59
NtRp459
(dp460
g62
(dp461
sg71
g446
sg64
(lp462
g57
(g58
g59
NtRp463
(dp464
g62
(dp465
g70
I3
ssg71
g459
sg64
(lp466
S''
asbasbasbasbasbasbasbag57
(g73
g59
NtRp467
(dp468
g62
(dp469
sg71
g269
sg64
(lp470
g57
(g78
g59
NtRp471
(dp472
g62
(dp473
g82
g83
ssg71
g467
sg64
(lp474
S'session_id_ggg'
p475
asbag57
(g78
g59
NtRp476
(dp477
g62
(dp478
g89
g90
ssg71
g467
sg64
(lp479
S':'
asbag57
(g78
g59
NtRp480
(dp481
g62
(dp482
sg71
g467
sg64
(lp483
g57
(g58
g59
NtRp484
(dp485
g62
(dp486
g70
I4
ssg71
g480
sg64
(lp487
S'127.0.0.1-409e99a1-9a33-4932-9c2d-5a3b3471484a'
p488
ag57
(g66
g59
NtRp489
(dp490
g62
(dp491
g70
I3
ssg71
Nsg64
(lp492
g57
(g73
g59
NtRp493
(dp494
g62
(dp495
sg71
g489
sg64
(lp496
g57
(g78
g59
NtRp497
(dp498
g62
(dp499
g82
g83
ssg71
g493
sg64
(lp500
g307
asbag57
(g78
g59
NtRp501
(dp502
g62
(dp503
g89
g90
ssg71
g493
sg64
(lp504
S':'
asbag57
(g78
g59
NtRp505
(dp506
g62
(dp507
sg71
g493
sg64
(lp508
g57
(g58
g59
NtRp509
(dp510
g62
(dp511
g70
I3
ssg71
g505
sg64
(lp512
S''
asbasbasbag57
(g73
g59
NtRp513
(dp514
g62
(dp515
sg71
g489
sg64
(lp516
g57
(g78
g59
NtRp517
(dp518
g62
(dp519
g82
g83
ssg71
g513
sg64
(lp520
g328
asbag57
(g78
g59
NtRp521
(dp522
g62
(dp523
g89
g90
ssg71
g513
sg64
(lp524
S':'
asbag57
(g78
g59
NtRp525
(dp526
g62
(dp527
sg71
g513
sg64
(lp528
g57
(g58
g59
NtRp529
(dp530
g62
(dp531
g70
I3
ssg71
g525
sg64
(lp532
S''
asbasbasbag57
(g73
g59
NtRp533
(dp534
g62
(dp535
sg71
g489
sg64
(lp536
g57
(g78
g59
NtRp537
(dp538
g62
(dp539
g82
g83
ssg71
g533
sg64
(lp540
g349
asbag57
(g78
g59
NtRp541
(dp542
g62
(dp543
g89
g90
ssg71
g533
sg64
(lp544
S':'
asbag57
(g78
g59
NtRp545
(dp546
g62
(dp547
sg71
g533
sg64
(lp548
g57
(g58
g59
NtRp549
(dp550
g62
(dp551
g70
I3
ssg71
g545
sg64
(lp552
S''
asbasbasbag57
(g73
g59
NtRp553
(dp554
g62
(dp555
sg71
g489
sg64
(lp556
g57
(g78
g59
NtRp557
(dp558
g62
(dp559
g82
g83
ssg71
g553
sg64
(lp560
g370
asbag57
(g78
g59
NtRp561
(dp562
g62
(dp563
g89
g90
ssg71
g553
sg64
(lp564
S':'
asbag57
(g78
g59
NtRp565
(dp566
g62
(dp567
sg71
g553
sg64
(lp568
g57
(g58
g59
NtRp569
(dp570
g62
(dp571
g70
I3
ssg71
g565
sg64
(lp572
S''
asbasbasbag57
(g73
g59
NtRp573
(dp574
g62
(dp575
sg71
g489
sg64
(lp576
g57
(g78
g59
NtRp577
(dp578
g62
(dp579
g82
g83
ssg71
g573
sg64
(lp580
g391
asbag57
(g78
g59
NtRp581
(dp582
g62
(dp583
g89
g90
ssg71
g573
sg64
(lp584
S':'
asbag57
(g78
g59
NtRp585
(dp586
g62
(dp587
sg71
g573
sg64
(lp588
g57
(g58
g59
NtRp589
(dp590
g62
(dp591
g70
I3
ssg71
g585
sg64
(lp592
S''
asbasbasbag57
(g73
g59
NtRp593
(dp594
g62
(dp595
sg71
g489
sg64
(lp596
g57
(g78
g59
NtRp597
(dp598
g62
(dp599
g82
g83
ssg71
g593
sg64
(lp600
g412
asbag57
(g78
g59
NtRp601
(dp602
g62
(dp603
g89
g90
ssg71
g593
sg64
(lp604
S':'
asbag57
(g78
g59
NtRp605
(dp606
g62
(dp607
sg71
g593
sg64
(lp608
g57
(g58
g59
NtRp609
(dp610
g62
(dp611
g70
I3
ssg71
g605
sg64
(lp612
S''
asbasbasbag57
(g73
g59
NtRp613
(dp614
g62
(dp615
sg71
g489
sg64
(lp616
g57
(g78
g59
NtRp617
(dp618
g62
(dp619
g82
g83
ssg71
g613
sg64
(lp620
g433
asbag57
(g78
g59
NtRp621
(dp622
g62
(dp623
g89
g90
ssg71
g613
sg64
(lp624
S':'
asbag57
(g78
g59
NtRp625
(dp626
g62
(dp627
sg71
g613
sg64
(lp628
g57
(g58
g59
NtRp629
(dp630
g62
(dp631
g70
I3
ssg71
g625
sg64
(lp632
S''
asbasbasbag57
(g73
g59
NtRp633
(dp634
g62
(dp635
sg71
g489
sg64
(lp636
g57
(g78
g59
NtRp637
(dp638
g62
(dp639
g82
g83
ssg71
g633
sg64
(lp640
g454
asbag57
(g78
g59
NtRp641
(dp642
g62
(dp643
g89
g90
ssg71
g633
sg64
(lp644
S':'
asbag57
(g78
g59
NtRp645
(dp646
g62
(dp647
sg71
g633
sg64
(lp648
g57
(g58
g59
NtRp649
(dp650
g62
(dp651
g70
I3
ssg71
g645
sg64
(lp652
S''
asbasbasbasbasbasbasbag57
(g73
g59
NtRp653
(dp654
g62
(dp655
sg71
g269
sg64
(lp656
g57
(g78
g59
NtRp657
(dp658
g62
(dp659
g82
g83
ssg71
g653
sg64
(lp660
S'session_id_welcome'
p661
asbag57
(g78
g59
NtRp662
(dp663
g62
(dp664
g89
g90
ssg71
g653
sg64
(lp665
S':'
asbag57
(g78
g59
NtRp666
(dp667
g62
(dp668
sg71
g653
sg64
(lp669
g57
(g58
g59
NtRp670
(dp671
g62
(dp672
g70
I4
ssg71
g666
sg64
(lp673
S'127.0.0.1-b5602ca3-fed8-4178-be53-8fb7d43d23a7'
p674
ag57
(g66
g59
NtRp675
(dp676
g62
(dp677
g70
I3
ssg71
Nsg64
(lp678
g57
(g73
g59
NtRp679
(dp680
g62
(dp681
sg71
g675
sg64
(lp682
g57
(g78
g59
NtRp683
(dp684
g62
(dp685
g82
g83
ssg71
g679
sg64
(lp686
g307
asbag57
(g78
g59
NtRp687
(dp688
g62
(dp689
g89
g90
ssg71
g679
sg64
(lp690
S':'
asbag57
(g78
g59
NtRp691
(dp692
g62
(dp693
sg71
g679
sg64
(lp694
g57
(g58
g59
NtRp695
(dp696
g62
(dp697
g70
I3
ssg71
g691
sg64
(lp698
S''
asbasbasbag57
(g73
g59
NtRp699
(dp700
g62
(dp701
sg71
g675
sg64
(lp702
g57
(g78
g59
NtRp703
(dp704
g62
(dp705
g82
g83
ssg71
g699
sg64
(lp706
g328
asbag57
(g78
g59
NtRp707
(dp708
g62
(dp709
g89
g90
ssg71
g699
sg64
(lp710
S':'
asbag57
(g78
g59
NtRp711
(dp712
g62
(dp713
sg71
g699
sg64
(lp714
g57
(g58
g59
NtRp715
(dp716
g62
(dp717
g70
I3
ssg71
g711
sg64
(lp718
S''
asbasbasbag57
(g73
g59
NtRp719
(dp720
g62
(dp721
sg71
g675
sg64
(lp722
g57
(g78
g59
NtRp723
(dp724
g62
(dp725
g82
g83
ssg71
g719
sg64
(lp726
g349
asbag57
(g78
g59
NtRp727
(dp728
g62
(dp729
g89
g90
ssg71
g719
sg64
(lp730
S':'
asbag57
(g78
g59
NtRp731
(dp732
g62
(dp733
sg71
g719
sg64
(lp734
g57
(g58
g59
NtRp735
(dp736
g62
(dp737
g70
I3
ssg71
g731
sg64
(lp738
S''
asbasbasbag57
(g73
g59
NtRp739
(dp740
g62
(dp741
sg71
g675
sg64
(lp742
g57
(g78
g59
NtRp743
(dp744
g62
(dp745
g82
g83
ssg71
g739
sg64
(lp746
g370
asbag57
(g78
g59
NtRp747
(dp748
g62
(dp749
g89
g90
ssg71
g739
sg64
(lp750
S':'
asbag57
(g78
g59
NtRp751
(dp752
g62
(dp753
sg71
g739
sg64
(lp754
g57
(g58
g59
NtRp755
(dp756
g62
(dp757
g70
I3
ssg71
g751
sg64
(lp758
S''
asbasbasbag57
(g73
g59
NtRp759
(dp760
g62
(dp761
sg71
g675
sg64
(lp762
g57
(g78
g59
NtRp763
(dp764
g62
(dp765
g82
g83
ssg71
g759
sg64
(lp766
g391
asbag57
(g78
g59
NtRp767
(dp768
g62
(dp769
g89
g90
ssg71
g759
sg64
(lp770
S':'
asbag57
(g78
g59
NtRp771
(dp772
g62
(dp773
sg71
g759
sg64
(lp774
g57
(g58
g59
NtRp775
(dp776
g62
(dp777
g70
I3
ssg71
g771
sg64
(lp778
S''
asbasbasbag57
(g73
g59
NtRp779
(dp780
g62
(dp781
sg71
g675
sg64
(lp782
g57
(g78
g59
NtRp783
(dp784
g62
(dp785
g82
g83
ssg71
g779
sg64
(lp786
g412
asbag57
(g78
g59
NtRp787
(dp788
g62
(dp789
g89
g90
ssg71
g779
sg64
(lp790
S':'
asbag57
(g78
g59
NtRp791
(dp792
g62
(dp793
sg71
g779
sg64
(lp794
g57
(g58
g59
NtRp795
(dp796
g62
(dp797
g70
I3
ssg71
g791
sg64
(lp798
S''
asbasbasbag57
(g73
g59
NtRp799
(dp800
g62
(dp801
sg71
g675
sg64
(lp802
g57
(g78
g59
NtRp803
(dp804
g62
(dp805
g82
g83
ssg71
g799
sg64
(lp806
g433
asbag57
(g78
g59
NtRp807
(dp808
g62
(dp809
g89
g90
ssg71
g799
sg64
(lp810
S':'
asbag57
(g78
g59
NtRp811
(dp812
g62
(dp813
sg71
g799
sg64
(lp814
g57
(g58
g59
NtRp815
(dp816
g62
(dp817
g70
I3
ssg71
g811
sg64
(lp818
S''
asbasbasbag57
(g73
g59
NtRp819
(dp820
g62
(dp821
sg71
g675
sg64
(lp822
g57
(g78
g59
NtRp823
(dp824
g62
(dp825
g82
g83
ssg71
g819
sg64
(lp826
g454
asbag57
(g78
g59
NtRp827
(dp828
g62
(dp829
g89
g90
ssg71
g819
sg64
(lp830
S':'
asbag57
(g78
g59
NtRp831
(dp832
g62
(dp833
sg71
g819
sg64
(lp834
g57
(g58
g59
NtRp835
(dp836
g62
(dp837
g70
I3
ssg71
g831
sg64
(lp838
S''
asbasbasbasbasbasbasbasbasbasbasbag57
(g73
g59
NtRp839
(dp840
g62
(dp841
sg71
g67
sg64
(lp842
g57
(g78
g59
NtRp843
(dp844
g62
(dp845
g82
g83
ssg71
g839
sg64
(lp846
S'env'
p847
asbag57
(g78
g59
NtRp848
(dp849
g62
(dp850
g89
g90
ssg71
g839
sg64
(lp851
S':'
asbag57
(g78
g59
NtRp852
(dp853
g62
(dp854
sg71
g839
sg64
(lp855
g57
(g58
g59
NtRp856
(dp857
g62
(dp858
g70
I5
ssg71
g852
sg64
(lp859
g57
(g66
g59
NtRp860
(dp861
g62
(dp862
g70
I4
ssg71
Nsg64
(lp863
g57
(g73
g59
NtRp864
(dp865
g62
(dp866
sg71
g860
sg64
(lp867
g57
(g78
g59
NtRp868
(dp869
g62
(dp870
g82
g83
ssg71
g864
sg64
(lp871
S'app_folders'
p872
asbag57
(g78
g59
NtRp873
(dp874
g62
(dp875
g89
g90
ssg71
g864
sg64
(lp876
S':'
asbag57
(g78
g59
NtRp877
(dp878
g62
(dp879
sg71
g864
sg64
(lp880
g57
(g58
g59
NtRp881
(dp882
g62
(dp883
g70
I4
ssg71
g877
sg64
(lp884
S"set(['/home/gaurav/classwork/WEB_PROGRAMMING/web2py/applications/ggg/', '/home/gaurav/classwork/WEB_PROGRAMMING/web2py/applications/admin/', '/home/gaurav/classwork/WEB_PROGRAMMING/web2py/applications/welcome/'])"
p885
asbasbasbag57
(g73
g59
NtRp886
(dp887
g62
(dp888
sg71
g860
sg64
(lp889
g57
(g78
g59
NtRp890
(dp891
g62
(dp892
g82
g83
ssg71
g886
sg64
(lp893
S'applications_parent'
p894
asbag57
(g78
g59
NtRp895
(dp896
g62
(dp897
g89
g90
ssg71
g886
sg64
(lp898
S':'
asbag57
(g78
g59
NtRp899
(dp900
g62
(dp901
sg71
g886
sg64
(lp902
g57
(g58
g59
NtRp903
(dp904
g62
(dp905
g70
I4
ssg71
g899
sg64
(lp906
S'/home/gaurav/classwork/WEB_PROGRAMMING/web2py'
p907
asbasbasbag57
(g73
g59
NtRp908
(dp909
g62
(dp910
sg71
g860
sg64
(lp911
g57
(g78
g59
NtRp912
(dp913
g62
(dp914
g82
g83
ssg71
g908
sg64
(lp915
S'cmd_args'
p916
asbag57
(g78
g59
NtRp917
(dp918
g62
(dp919
g89
g90
ssg71
g908
sg64
(lp920
S':'
asbag57
(g78
g59
NtRp921
(dp922
g62
(dp923
sg71
g908
sg64
(lp924
g57
(g58
g59
NtRp925
(dp926
g62
(dp927
g70
I4
ssg71
g921
sg64
(lp928
g57
(g66
g59
NtRp929
(dp930
g62
(dp931
g70
I3
ssg71
Nsg64
(lp932
sbasbasbasbag57
(g73
g59
NtRp933
(dp934
g62
(dp935
sg71
g860
sg64
(lp936
g57
(g78
g59
NtRp937
(dp938
g62
(dp939
g82
g83
ssg71
g933
sg64
(lp940
S'cmd_options'
p941
asbag57
(g78
g59
NtRp942
(dp943
g62
(dp944
g89
g90
ssg71
g933
sg64
(lp945
S':'
asbag57
(g78
g59
NtRp946
(dp947
g62
(dp948
sg71
g933
sg64
(lp949
g57
(g58
g59
NtRp950
(dp951
g62
(dp952
g70
I4
ssg71
g946
sg64
(lp953
S"<Values at 0x9a146ac: {'verbose': False, 'ip': '127.0.0.1', 'with_scheduler': False, 'ips': [], 'shutdown_timeout': 5, 'taskbar': False, 'port': 8000, 'maxthreads': None, 'softcron': False, 'server_name': 'gaurav-Compaq-Presario-C700-Notebook-PC', 'bpython': False, 'nogui': False, 'pid_filename': 'httpserver.pid', 'extcron': False, 'runcron': False, 'run_system_tests': False, 'test': None, 'folder': '/home/gaurav/classwork/WEB_PROGRAMMING/web2py', 'config': '', 'import_models': False, 'winservice': '', 'shell': None, 'run': '', 'log_filename': 'httpserver.log', 'debuglevel': 30, 'args': [''], 'socket_timeout': 5, 'ssl_ca_certificate': None, 'scheduler': None, 'profiler_filename': None, 'ssl_private_key': '', 'scheduler_groups': None, 'password': '<ask>', 'request_queue_size': 5, 'ssl_certificate': '', 'cronjob': False, 'numthreads': None, 'quiet': False, 'interfaces': None, 'minthreads': None, 'timeout': 10, 'plain': False, 'nobanner': False}>"
p954
asbasbasbag57
(g73
g59
NtRp955
(dp956
g62
(dp957
sg71
g860
sg64
(lp958
g57
(g78
g59
NtRp959
(dp960
g62
(dp961
g82
g83
ssg71
g955
sg64
(lp962
S'db_sessions'
p963
asbag57
(g78
g59
NtRp964
(dp965
g62
(dp966
g89
g90
ssg71
g955
sg64
(lp967
S':'
asbag57
(g78
g59
NtRp968
(dp969
g62
(dp970
sg71
g955
sg64
(lp971
g57
(g58
g59
NtRp972
(dp973
g62
(dp974
g70
I4
ssg71
g968
sg64
(lp975
S'set([])'
p976
asbasbasbag57
(g73
g59
NtRp977
(dp978
g62
(dp979
sg71
g860
sg64
(lp980
g57
(g78
g59
NtRp981
(dp982
g62
(dp983
g82
g83
ssg71
g977
sg64
(lp984
S'debugging'
p985
asbag57
(g78
g59
NtRp986
(dp987
g62
(dp988
g89
g90
ssg71
g977
sg64
(lp989
S':'
asbag57
(g78
g59
NtRp990
(dp991
g62
(dp992
sg71
g977
sg64
(lp993
g57
(g58
g59
NtRp994
(dp995
g62
(dp996
g70
I4
ssg71
g990
sg64
(lp997
g100
asbasbasbag57
(g73
g59
NtRp998
(dp999
g62
(dp1000
sg71
g860
sg64
(lp1001
g57
(g78
g59
NtRp1002
(dp1003
g62
(dp1004
g82
g83
ssg71
g998
sg64
(lp1005
S'gluon_parent'
p1006
asbag57
(g78
g59
NtRp1007
(dp1008
g62
(dp1009
g89
g90
ssg71
g998
sg64
(lp1010
S':'
asbag57
(g78
g59
NtRp1011
(dp1012
g62
(dp1013
sg71
g998
sg64
(lp1014
g57
(g58
g59
NtRp1015
(dp1016
g62
(dp1017
g70
I4
ssg71
g1011
sg64
(lp1018
S'/home/gaurav/classwork/WEB_PROGRAMMING/web2py'
p1019
asbasbasbag57
(g73
g59
NtRp1020
(dp1021
g62
(dp1022
sg71
g860
sg64
(lp1023
g57
(g78
g59
NtRp1024
(dp1025
g62
(dp1026
g82
g83
ssg71
g1020
sg64
(lp1027
S'http_accept'
p1028
asbag57
(g78
g59
NtRp1029
(dp1030
g62
(dp1031
g89
g90
ssg71
g1020
sg64
(lp1032
S':'
asbag57
(g78
g59
NtRp1033
(dp1034
g62
(dp1035
sg71
g1020
sg64
(lp1036
g57
(g58
g59
NtRp1037
(dp1038
g62
(dp1039
g70
I4
ssg71
g1033
sg64
(lp1040
S'text/html,application/xhtml+xml,application/xml;q=0.9,*/*;q=0.8'
p1041
asbasbasbag57
(g73
g59
NtRp1042
(dp1043
g62
(dp1044
sg71
g860
sg64
(lp1045
g57
(g78
g59
NtRp1046
(dp1047
g62
(dp1048
g82
g83
ssg71
g1042
sg64
(lp1049
S'http_accept_encoding'
p1050
asbag57
(g78
g59
NtRp1051
(dp1052
g62
(dp1053
g89
g90
ssg71
g1042
sg64
(lp1054
S':'
asbag57
(g78
g59
NtRp1055
(dp1056
g62
(dp1057
sg71
g1042
sg64
(lp1058
g57
(g58
g59
NtRp1059
(dp1060
g62
(dp1061
g70
I4
ssg71
g1055
sg64
(lp1062
S'gzip, deflate'
p1063
asbasbasbag57
(g73
g59
NtRp1064
(dp1065
g62
(dp1066
sg71
g860
sg64
(lp1067
g57
(g78
g59
NtRp1068
(dp1069
g62
(dp1070
g82
g83
ssg71
g1064
sg64
(lp1071
S'http_accept_language'
p1072
asbag57
(g78
g59
NtRp1073
(dp1074
g62
(dp1075
g89
g90
ssg71
g1064
sg64
(lp1076
S':'
asbag57
(g78
g59
NtRp1077
(dp1078
g62
(dp1079
sg71
g1064
sg64
(lp1080
g57
(g58
g59
NtRp1081
(dp1082
g62
(dp1083
g70
I4
ssg71
g1077
sg64
(lp1084
S'en-US,en;q=0.5'
p1085
asbasbasbag57
(g73
g59
NtRp1086
(dp1087
g62
(dp1088
sg71
g860
sg64
(lp1089
g57
(g78
g59
NtRp1090
(dp1091
g62
(dp1092
g82
g83
ssg71
g1086
sg64
(lp1093
S'http_cache_control'
p1094
asbag57
(g78
g59
NtRp1095
(dp1096
g62
(dp1097
g89
g90
ssg71
g1086
sg64
(lp1098
S':'
asbag57
(g78
g59
NtRp1099
(dp1100
g62
(dp1101
sg71
g1086
sg64
(lp1102
g57
(g58
g59
NtRp1103
(dp1104
g62
(dp1105
g70
I4
ssg71
g1099
sg64
(lp1106
S'max-age=0'
p1107
asbasbasbag57
(g73
g59
NtRp1108
(dp1109
g62
(dp1110
sg71
g860
sg64
(lp1111
g57
(g78
g59
NtRp1112
(dp1113
g62
(dp1114
g82
g83
ssg71
g1108
sg64
(lp1115
S'http_connection'
p1116
asbag57
(g78
g59
NtRp1117
(dp1118
g62
(dp1119
g89
g90
ssg71
g1108
sg64
(lp1120
S':'
asbag57
(g78
g59
NtRp1121
(dp1122
g62
(dp1123
sg71
g1108
sg64
(lp1124
g57
(g58
g59
NtRp1125
(dp1126
g62
(dp1127
g70
I4
ssg71
g1121
sg64
(lp1128
S'keep-alive'
p1129
asbasbasbag57
(g73
g59
NtRp1130
(dp1131
g62
(dp1132
sg71
g860
sg64
(lp1133
g57
(g78
g59
NtRp1134
(dp1135
g62
(dp1136
g82
g83
ssg71
g1130
sg64
(lp1137
S'http_cookie'
p1138
asbag57
(g78
g59
NtRp1139
(dp1140
g62
(dp1141
g89
g90
ssg71
g1130
sg64
(lp1142
S':'
asbag57
(g78
g59
NtRp1143
(dp1144
g62
(dp1145
sg71
g1130
sg64
(lp1146
g57
(g58
g59
NtRp1147
(dp1148
g62
(dp1149
g70
I4
ssg71
g1143
sg64
(lp1150
S'session_id_welcome=127.0.0.1-b5602ca3-fed8-4178-be53-8fb7d43d23a7; session_id_admin=127.0.0.1-1556986a-8aa2-469b-b0ed-44c2f56d6e3d; session_id_ggg=127.0.0.1-409e99a1-9a33-4932-9c2d-5a3b3471484a'
p1151
asbasbasbag57
(g73
g59
NtRp1152
(dp1153
g62
(dp1154
sg71
g860
sg64
(lp1155
g57
(g78
g59
NtRp1156
(dp1157
g62
(dp1158
g82
g83
ssg71
g1152
sg64
(lp1159
S'http_host'
p1160
asbag57
(g78
g59
NtRp1161
(dp1162
g62
(dp1163
g89
g90
ssg71
g1152
sg64
(lp1164
S':'
asbag57
(g78
g59
NtRp1165
(dp1166
g62
(dp1167
sg71
g1152
sg64
(lp1168
g57
(g58
g59
NtRp1169
(dp1170
g62
(dp1171
g70
I4
ssg71
g1165
sg64
(lp1172
S'127.0.0.1:8000'
p1173
asbasbasbag57
(g73
g59
NtRp1174
(dp1175
g62
(dp1176
sg71
g860
sg64
(lp1177
g57
(g78
g59
NtRp1178
(dp1179
g62
(dp1180
g82
g83
ssg71
g1174
sg64
(lp1181
S'http_referer'
p1182
asbag57
(g78
g59
NtRp1183
(dp1184
g62
(dp1185
g89
g90
ssg71
g1174
sg64
(lp1186
S':'
asbag57
(g78
g59
NtRp1187
(dp1188
g62
(dp1189
sg71
g1174
sg64
(lp1190
g57
(g58
g59
NtRp1191
(dp1192
g62
(dp1193
g70
I4
ssg71
g1187
sg64
(lp1194
S'http://127.0.0.1:8000/ggg/appadmin/index'
p1195
asbasbasbag57
(g73
g59
NtRp1196
(dp1197
g62
(dp1198
sg71
g860
sg64
(lp1199
g57
(g78
g59
NtRp1200
(dp1201
g62
(dp1202
g82
g83
ssg71
g1196
sg64
(lp1203
S'http_user_agent'
p1204
asbag57
(g78
g59
NtRp1205
(dp1206
g62
(dp1207
g89
g90
ssg71
g1196
sg64
(lp1208
S':'
asbag57
(g78
g59
NtRp1209
(dp1210
g62
(dp1211
sg71
g1196
sg64
(lp1212
g57
(g58
g59
NtRp1213
(dp1214
g62
(dp1215
g70
I4
ssg71
g1209
sg64
(lp1216
S'Mozilla/5.0 (X11; Ubuntu; Linux i686; rv:16.0) Gecko/20100101 Firefox/16.0'
p1217
asbasbasbag57
(g73
g59
NtRp1218
(dp1219
g62
(dp1220
sg71
g860
sg64
(lp1221
g57
(g78
g59
NtRp1222
(dp1223
g62
(dp1224
g82
g83
ssg71
g1218
sg64
(lp1225
S'is_jython'
p1226
asbag57
(g78
g59
NtRp1227
(dp1228
g62
(dp1229
g89
g90
ssg71
g1218
sg64
(lp1230
S':'
asbag57
(g78
g59
NtRp1231
(dp1232
g62
(dp1233
sg71
g1218
sg64
(lp1234
g57
(g58
g59
NtRp1235
(dp1236
g62
(dp1237
g70
I4
ssg71
g1231
sg64
(lp1238
g100
asbasbasbag57
(g73
g59
NtRp1239
(dp1240
g62
(dp1241
sg71
g860
sg64
(lp1242
g57
(g78
g59
NtRp1243
(dp1244
g62
(dp1245
g82
g83
ssg71
g1239
sg64
(lp1246
S'is_pypy'
p1247
asbag57
(g78
g59
NtRp1248
(dp1249
g62
(dp1250
g89
g90
ssg71
g1239
sg64
(lp1251
S':'
asbag57
(g78
g59
NtRp1252
(dp1253
g62
(dp1254
sg71
g1239
sg64
(lp1255
g57
(g58
g59
NtRp1256
(dp1257
g62
(dp1258
g70
I4
ssg71
g1252
sg64
(lp1259
g100
asbasbasbag57
(g73
g59
NtRp1260
(dp1261
g62
(dp1262
sg71
g860
sg64
(lp1263
g57
(g78
g59
NtRp1264
(dp1265
g62
(dp1266
g82
g83
ssg71
g1260
sg64
(lp1267
S'local_hosts'
p1268
asbag57
(g78
g59
NtRp1269
(dp1270
g62
(dp1271
g89
g90
ssg71
g1260
sg64
(lp1272
S':'
asbag57
(g78
g59
NtRp1273
(dp1274
g62
(dp1275
sg71
g1260
sg64
(lp1276
g57
(g58
g59
NtRp1277
(dp1278
g62
(dp1279
g70
I4
ssg71
g1273
sg64
(lp1280
g57
(g66
g59
NtRp1281
(dp1282
g62
(dp1283
g70
I3
ssg71
Nsg64
(lp1284
g57
(g73
g59
NtRp1285
(dp1286
g62
(dp1287
sg71
g1281
sg64
(lp1288
g57
(g78
g59
NtRp1289
(dp1290
g62
(dp1291
sg71
g1285
sg64
(lp1292
g57
(g58
g59
NtRp1293
(dp1294
g62
(dp1295
g70
I3
ssg71
g1289
sg64
(lp1296
S'gaurav-Compaq-Presario-C700-Notebook-PC'
p1297
asbasbasbag57
(g73
g59
NtRp1298
(dp1299
g62
(dp1300
sg71
g1281
sg64
(lp1301
g57
(g78
g59
NtRp1302
(dp1303
g62
(dp1304
sg71
g1298
sg64
(lp1305
g57
(g58
g59
NtRp1306
(dp1307
g62
(dp1308
g70
I3
ssg71
g1302
sg64
(lp1309
S'::1'
p1310
asbasbasbag57
(g73
g59
NtRp1311
(dp1312
g62
(dp1313
sg71
g1281
sg64
(lp1314
g57
(g78
g59
NtRp1315
(dp1316
g62
(dp1317
sg71
g1311
sg64
(lp1318
g57
(g58
g59
NtRp1319
(dp1320
g62
(dp1321
g70
I3
ssg71
g1315
sg64
(lp1322
S'127.0.1.1'
p1323
asbasbasbag57
(g73
g59
NtRp1324
(dp1325
g62
(dp1326
sg71
g1281
sg64
(lp1327
g57
(g78
g59
NtRp1328
(dp1329
g62
(dp1330
sg71
g1324
sg64
(lp1331
g57
(g58
g59
NtRp1332
(dp1333
g62
(dp1334
g70
I3
ssg71
g1328
sg64
(lp1335
S'::ffff:127.0.0.1'
p1336
asbasbasbag57
(g73
g59
NtRp1337
(dp1338
g62
(dp1339
sg71
g1281
sg64
(lp1340
g57
(g78
g59
NtRp1341
(dp1342
g62
(dp1343
sg71
g1337
sg64
(lp1344
g57
(g58
g59
NtRp1345
(dp1346
g62
(dp1347
g70
I3
ssg71
g1341
sg64
(lp1348
S'127.0.0.1'
p1349
asbasbasbasbasbasbasbag57
(g73
g59
NtRp1350
(dp1351
g62
(dp1352
sg71
g860
sg64
(lp1353
g57
(g78
g59
NtRp1354
(dp1355
g62
(dp1356
g82
g83
ssg71
g1350
sg64
(lp1357
S'path_info'
p1358
asbag57
(g78
g59
NtRp1359
(dp1360
g62
(dp1361
g89
g90
ssg71
g1350
sg64
(lp1362
S':'
asbag57
(g78
g59
NtRp1363
(dp1364
g62
(dp1365
sg71
g1350
sg64
(lp1366
g57
(g58
g59
NtRp1367
(dp1368
g62
(dp1369
g70
I4
ssg71
g1363
sg64
(lp1370
S'/ggg/appadmin/select/db'
p1371
asbasbasbag57
(g73
g59
NtRp1372
(dp1373
g62
(dp1374
sg71
g860
sg64
(lp1375
g57
(g78
g59
NtRp1376
(dp1377
g62
(dp1378
g82
g83
ssg71
g1372
sg64
(lp1379
S'query_string'
p1380
asbag57
(g78
g59
NtRp1381
(dp1382
g62
(dp1383
g89
g90
ssg71
g1372
sg64
(lp1384
S':'
asbag57
(g78
g59
NtRp1385
(dp1386
g62
(dp1387
sg71
g1372
sg64
(lp1388
g57
(g58
g59
NtRp1389
(dp1390
g62
(dp1391
g70
I4
ssg71
g1385
sg64
(lp1392
S'query=db.answer.id%3E0'
p1393
asbasbasbag57
(g73
g59
NtRp1394
(dp1395
g62
(dp1396
sg71
g860
sg64
(lp1397
g57
(g78
g59
NtRp1398
(dp1399
g62
(dp1400
g82
g83
ssg71
g1394
sg64
(lp1401
S'remote_addr'
p1402
asbag57
(g78
g59
NtRp1403
(dp1404
g62
(dp1405
g89
g90
ssg71
g1394
sg64
(lp1406
S':'
asbag57
(g78
g59
NtRp1407
(dp1408
g62
(dp1409
sg71
g1394
sg64
(lp1410
g57
(g58
g59
NtRp1411
(dp1412
g62
(dp1413
g70
I4
ssg71
g1407
sg64
(lp1414
g225
asbasbasbag57
(g73
g59
NtRp1415
(dp1416
g62
(dp1417
sg71
g860
sg64
(lp1418
g57
(g78
g59
NtRp1419
(dp1420
g62
(dp1421
g82
g83
ssg71
g1415
sg64
(lp1422
S'remote_port'
p1423
asbag57
(g78
g59
NtRp1424
(dp1425
g62
(dp1426
g89
g90
ssg71
g1415
sg64
(lp1427
S':'
asbag57
(g78
g59
NtRp1428
(dp1429
g62
(dp1430
sg71
g1415
sg64
(lp1431
g57
(g58
g59
NtRp1432
(dp1433
g62
(dp1434
g70
I4
ssg71
g1428
sg64
(lp1435
S'58203'
p1436
asbasbasbag57
(g73
g59
NtRp1437
(dp1438
g62
(dp1439
sg71
g860
sg64
(lp1440
g57
(g78
g59
NtRp1441
(dp1442
g62
(dp1443
g82
g83
ssg71
g1437
sg64
(lp1444
S'request_method'
p1445
asbag57
(g78
g59
NtRp1446
(dp1447
g62
(dp1448
g89
g90
ssg71
g1437
sg64
(lp1449
S':'
asbag57
(g78
g59
NtRp1450
(dp1451
g62
(dp1452
sg71
g1437
sg64
(lp1453
g57
(g58
g59
NtRp1454
(dp1455
g62
(dp1456
g70
I4
ssg71
g1450
sg64
(lp1457
S'GET'
p1458
asbasbasbag57
(g73
g59
NtRp1459
(dp1460
g62
(dp1461
sg71
g860
sg64
(lp1462
g57
(g78
g59
NtRp1463
(dp1464
g62
(dp1465
g82
g83
ssg71
g1459
sg64
(lp1466
S'request_uri'
p1467
asbag57
(g78
g59
NtRp1468
(dp1469
g62
(dp1470
g89
g90
ssg71
g1459
sg64
(lp1471
S':'
asbag57
(g78
g59
NtRp1472
(dp1473
g62
(dp1474
sg71
g1459
sg64
(lp1475
g57
(g58
g59
NtRp1476
(dp1477
g62
(dp1478
g70
I4
ssg71
g1472
sg64
(lp1479
S'/ggg/appadmin/select/db?query=db.answer.id%3E0'
p1480
asbasbasbag57
(g73
g59
NtRp1481
(dp1482
g62
(dp1483
sg71
g860
sg64
(lp1484
g57
(g78
g59
NtRp1485
(dp1486
g62
(dp1487
g82
g83
ssg71
g1481
sg64
(lp1488
S'script_name'
p1489
asbag57
(g78
g59
NtRp1490
(dp1491
g62
(dp1492
g89
g90
ssg71
g1481
sg64
(lp1493
S':'
asbag57
(g78
g59
NtRp1494
(dp1495
g62
(dp1496
sg71
g1481
sg64
(lp1497
g57
(g58
g59
NtRp1498
(dp1499
g62
(dp1500
g70
I4
ssg71
g1494
sg64
(lp1501
S''
asbasbasbag57
(g73
g59
NtRp1502
(dp1503
g62
(dp1504
sg71
g860
sg64
(lp1505
g57
(g78
g59
NtRp1506
(dp1507
g62
(dp1508
g82
g83
ssg71
g1502
sg64
(lp1509
S'server_name'
p1510
asbag57
(g78
g59
NtRp1511
(dp1512
g62
(dp1513
g89
g90
ssg71
g1502
sg64
(lp1514
S':'
asbag57
(g78
g59
NtRp1515
(dp1516
g62
(dp1517
sg71
g1502
sg64
(lp1518
g57
(g58
g59
NtRp1519
(dp1520
g62
(dp1521
g70
I4
ssg71
g1515
sg64
(lp1522
S'gaurav-Compaq-Presario-C700-Notebook-PC'
p1523
asbasbasbag57
(g73
g59
NtRp1524
(dp1525
g62
(dp1526
sg71
g860
sg64
(lp1527
g57
(g78
g59
NtRp1528
(dp1529
g62
(dp1530
g82
g83
ssg71
g1524
sg64
(lp1531
S'server_port'
p1532
asbag57
(g78
g59
NtRp1533
(dp1534
g62
(dp1535
g89
g90
ssg71
g1524
sg64
(lp1536
S':'
asbag57
(g78
g59
NtRp1537
(dp1538
g62
(dp1539
sg71
g1524
sg64
(lp1540
g57
(g58
g59
NtRp1541
(dp1542
g62
(dp1543
g70
I4
ssg71
g1537
sg64
(lp1544
S'8000'
p1545
asbasbasbag57
(g73
g59
NtRp1546
(dp1547
g62
(dp1548
sg71
g860
sg64
(lp1549
g57
(g78
g59
NtRp1550
(dp1551
g62
(dp1552
g82
g83
ssg71
g1546
sg64
(lp1553
S'server_protocol'
p1554
asbag57
(g78
g59
NtRp1555
(dp1556
g62
(dp1557
g89
g90
ssg71
g1546
sg64
(lp1558
S':'
asbag57
(g78
g59
NtRp1559
(dp1560
g62
(dp1561
sg71
g1546
sg64
(lp1562
g57
(g58
g59
NtRp1563
(dp1564
g62
(dp1565
g70
I4
ssg71
g1559
sg64
(lp1566
S'HTTP/1.1'
p1567
asbasbasbag57
(g73
g59
NtRp1568
(dp1569
g62
(dp1570
sg71
g860
sg64
(lp1571
g57
(g78
g59
NtRp1572
(dp1573
g62
(dp1574
g82
g83
ssg71
g1568
sg64
(lp1575
S'server_software'
p1576
asbag57
(g78
g59
NtRp1577
(dp1578
g62
(dp1579
g89
g90
ssg71
g1568
sg64
(lp1580
S':'
asbag57
(g78
g59
NtRp1581
(dp1582
g62
(dp1583
sg71
g1568
sg64
(lp1584
g57
(g58
g59
NtRp1585
(dp1586
g62
(dp1587
g70
I4
ssg71
g1581
sg64
(lp1588
S'Rocket 1.2.6'
p1589
asbasbasbag57
(g73
g59
NtRp1590
(dp1591
g62
(dp1592
sg71
g860
sg64
(lp1593
g57
(g78
g59
NtRp1594
(dp1595
g62
(dp1596
g82
g83
ssg71
g1590
sg64
(lp1597
S'web2py_path'
p1598
asbag57
(g78
g59
NtRp1599
(dp1600
g62
(dp1601
g89
g90
ssg71
g1590
sg64
(lp1602
S':'
asbag57
(g78
g59
NtRp1603
(dp1604
g62
(dp1605
sg71
g1590
sg64
(lp1606
g57
(g58
g59
NtRp1607
(dp1608
g62
(dp1609
g70
I4
ssg71
g1603
sg64
(lp1610
g907
asbasbasbag57
(g73
g59
NtRp1611
(dp1612
g62
(dp1613
sg71
g860
sg64
(lp1614
g57
(g78
g59
NtRp1615
(dp1616
g62
(dp1617
g82
g83
ssg71
g1611
sg64
(lp1618
S'web2py_version'
p1619
asbag57
(g78
g59
NtRp1620
(dp1621
g62
(dp1622
g89
g90
ssg71
g1611
sg64
(lp1623
S':'
asbag57
(g78
g59
NtRp1624
(dp1625
g62
(dp1626
sg71
g1611
sg64
(lp1627
g57
(g58
g59
NtRp1628
(dp1629
g62
(dp1630
g70
I4
ssg71
g1624
sg64
(lp1631
g57
(g66
g59
NtRp1632
(dp1633
g62
(dp1634
g70
I3
ssg71
Nsg64
(lp1635
g57
(g73
g59
NtRp1636
(dp1637
g62
(dp1638
sg71
g1632
sg64
(lp1639
g57
(g78
g59
NtRp1640
(dp1641
g62
(dp1642
sg71
g1636
sg64
(lp1643
g57
(g58
g59
NtRp1644
(dp1645
g62
(dp1646
g70
I3
ssg71
g1640
sg64
(lp1647
S'2'
asbasbasbag57
(g73
g59
NtRp1648
(dp1649
g62
(dp1650
sg71
g1632
sg64
(lp1651
g57
(g78
g59
NtRp1652
(dp1653
g62
(dp1654
sg71
g1648
sg64
(lp1655
g57
(g58
g59
NtRp1656
(dp1657
g62
(dp1658
g70
I3
ssg71
g1652
sg64
(lp1659
S'3'
asbasbasbag57
(g73
g59
NtRp1660
(dp1661
g62
(dp1662
sg71
g1632
sg64
(lp1663
g57
(g78
g59
NtRp1664
(dp1665
g62
(dp1666
sg71
g1660
sg64
(lp1667
g57
(g58
g59
NtRp1668
(dp1669
g62
(dp1670
g70
I3
ssg71
g1664
sg64
(lp1671
S'2'
asbasbasbag57
(g73
g59
NtRp1672
(dp1673
g62
(dp1674
sg71
g1632
sg64
(lp1675
g57
(g78
g59
NtRp1676
(dp1677
g62
(dp1678
sg71
g1672
sg64
(lp1679
g57
(g58
g59
NtRp1680
(dp1681
g62
(dp1682
g70
I3
ssg71
g1676
sg64
(lp1683
S'datetime.datetime(2012, 12, 17, 15, 3, 30)'
p1684
asbasbasbag57
(g73
g59
NtRp1685
(dp1686
g62
(dp1687
sg71
g1632
sg64
(lp1688
g57
(g78
g59
NtRp1689
(dp1690
g62
(dp1691
sg71
g1685
sg64
(lp1692
g57
(g58
g59
NtRp1693
(dp1694
g62
(dp1695
g70
I3
ssg71
g1689
sg64
(lp1696
S'stable'
p1697
asbasbasbasbasbasbasbag57
(g73
g59
NtRp1698
(dp1699
g62
(dp1700
sg71
g860
sg64
(lp1701
g57
(g78
g59
NtRp1702
(dp1703
g62
(dp1704
g82
g83
ssg71
g1698
sg64
(lp1705
S'wsgi_errors'
p1706
asbag57
(g78
g59
NtRp1707
(dp1708
g62
(dp1709
g89
g90
ssg71
g1698
sg64
(lp1710
S':'
asbag57
(g78
g59
NtRp1711
(dp1712
g62
(dp1713
sg71
g1698
sg64
(lp1714
g57
(g58
g59
NtRp1715
(dp1716
g62
(dp1717
g70
I4
ssg71
g1711
sg64
(lp1718
S"<open file '<stderr>', mode 'w' at 0xb751a0d0>"
p1719
asbasbasbag57
(g73
g59
NtRp1720
(dp1721
g62
(dp1722
sg71
g860
sg64
(lp1723
g57
(g78
g59
NtRp1724
(dp1725
g62
(dp1726
g82
g83
ssg71
g1720
sg64
(lp1727
S'wsgi_file_wrapper'
p1728
asbag57
(g78
g59
NtRp1729
(dp1730
g62
(dp1731
g89
g90
ssg71
g1720
sg64
(lp1732
S':'
asbag57
(g78
g59
NtRp1733
(dp1734
g62
(dp1735
sg71
g1720
sg64
(lp1736
g57
(g58
g59
NtRp1737
(dp1738
g62
(dp1739
g70
I4
ssg71
g1733
sg64
(lp1740
S'<class wsgiref.util.FileWrapper at 0x99c6ecc>'
p1741
asbasbasbag57
(g73
g59
NtRp1742
(dp1743
g62
(dp1744
sg71
g860
sg64
(lp1745
g57
(g78
g59
NtRp1746
(dp1747
g62
(dp1748
g82
g83
ssg71
g1742
sg64
(lp1749
S'wsgi_input'
p1750
asbag57
(g78
g59
NtRp1751
(dp1752
g62
(dp1753
g89
g90
ssg71
g1742
sg64
(lp1754
S':'
asbag57
(g78
g59
NtRp1755
(dp1756
g62
(dp1757
sg71
g1742
sg64
(lp1758
g57
(g58
g59
NtRp1759
(dp1760
g62
(dp1761
g70
I4
ssg71
g1755
sg64
(lp1762
S'<socket._fileobject object at 0xae5e41ec>'
p1763
asbasbasbag57
(g73
g59
NtRp1764
(dp1765
g62
(dp1766
sg71
g860
sg64
(lp1767
g57
(g78
g59
NtRp1768
(dp1769
g62
(dp1770
g82
g83
ssg71
g1764
sg64
(lp1771
S'wsgi_multiprocess'
p1772
asbag57
(g78
g59
NtRp1773
(dp1774
g62
(dp1775
g89
g90
ssg71
g1764
sg64
(lp1776
S':'
asbag57
(g78
g59
NtRp1777
(dp1778
g62
(dp1779
sg71
g1764
sg64
(lp1780
g57
(g58
g59
NtRp1781
(dp1782
g62
(dp1783
g70
I4
ssg71
g1777
sg64
(lp1784
g100
asbasbasbag57
(g73
g59
NtRp1785
(dp1786
g62
(dp1787
sg71
g860
sg64
(lp1788
g57
(g78
g59
NtRp1789
(dp1790
g62
(dp1791
g82
g83
ssg71
g1785
sg64
(lp1792
S'wsgi_multithread'
p1793
asbag57
(g78
g59
NtRp1794
(dp1795
g62
(dp1796
g89
g90
ssg71
g1785
sg64
(lp1797
S':'
asbag57
(g78
g59
NtRp1798
(dp1799
g62
(dp1800
sg71
g1785
sg64
(lp1801
g57
(g58
g59
NtRp1802
(dp1803
g62
(dp1804
g70
I4
ssg71
g1798
sg64
(lp1805
S'True'
p1806
asbasbasbag57
(g73
g59
NtRp1807
(dp1808
g62
(dp1809
sg71
g860
sg64
(lp1810
g57
(g78
g59
NtRp1811
(dp1812
g62
(dp1813
g82
g83
ssg71
g1807
sg64
(lp1814
S'wsgi_run_once'
p1815
asbag57
(g78
g59
NtRp1816
(dp1817
g62
(dp1818
g89
g90
ssg71
g1807
sg64
(lp1819
S':'
asbag57
(g78
g59
NtRp1820
(dp1821
g62
(dp1822
sg71
g1807
sg64
(lp1823
g57
(g58
g59
NtRp1824
(dp1825
g62
(dp1826
g70
I4
ssg71
g1820
sg64
(lp1827
g100
asbasbasbag57
(g73
g59
NtRp1828
(dp1829
g62
(dp1830
sg71
g860
sg64
(lp1831
g57
(g78
g59
NtRp1832
(dp1833
g62
(dp1834
g82
g83
ssg71
g1828
sg64
(lp1835
S'wsgi_url_scheme'
p1836
asbag57
(g78
g59
NtRp1837
(dp1838
g62
(dp1839
g89
g90
ssg71
g1828
sg64
(lp1840
S':'
asbag57
(g78
g59
NtRp1841
(dp1842
g62
(dp1843
sg71
g1828
sg64
(lp1844
g57
(g58
g59
NtRp1845
(dp1846
g62
(dp1847
g70
I4
ssg71
g1841
sg64
(lp1848
S'http'
p1849
asbasbasbag57
(g73
g59
NtRp1850
(dp1851
g62
(dp1852
sg71
g860
sg64
(lp1853
g57
(g78
g59
NtRp1854
(dp1855
g62
(dp1856
g82
g83
ssg71
g1850
sg64
(lp1857
S'wsgi_version'
p1858
asbag57
(g78
g59
NtRp1859
(dp1860
g62
(dp1861
g89
g90
ssg71
g1850
sg64
(lp1862
S':'
asbag57
(g78
g59
NtRp1863
(dp1864
g62
(dp1865
sg71
g1850
sg64
(lp1866
g57
(g58
g59
NtRp1867
(dp1868
g62
(dp1869
g70
I4
ssg71
g1863
sg64
(lp1870
g57
(g66
g59
NtRp1871
(dp1872
g62
(dp1873
g70
I3
ssg71
Nsg64
(lp1874
g57
(g73
g59
NtRp1875
(dp1876
g62
(dp1877
sg71
g1871
sg64
(lp1878
g57
(g78
g59
NtRp1879
(dp1880
g62
(dp1881
sg71
g1875
sg64
(lp1882
g57
(g58
g59
NtRp1883
(dp1884
g62
(dp1885
g70
I3
ssg71
g1879
sg64
(lp1886
S'1'
asbasbasbag57
(g73
g59
NtRp1887
(dp1888
g62
(dp1889
sg71
g1871
sg64
(lp1890
g57
(g78
g59
NtRp1891
(dp1892
g62
(dp1893
sg71
g1887
sg64
(lp1894
g57
(g58
g59
NtRp1895
(dp1896
g62
(dp1897
g70
I3
ssg71
g1891
sg64
(lp1898
S'0'
asbasbasbasbasbasbasbasbasbasbasbag57
(g73
g59
NtRp1899
(dp1900
g62
(dp1901
sg71
g67
sg64
(lp1902
g57
(g78
g59
NtRp1903
(dp1904
g62
(dp1905
g82
g83
ssg71
g1899
sg64
(lp1906
S'extension'
p1907
asbag57
(g78
g59
NtRp1908
(dp1909
g62
(dp1910
g89
g90
ssg71
g1899
sg64
(lp1911
S':'
asbag57
(g78
g59
NtRp1912
(dp1913
g62
(dp1914
sg71
g1899
sg64
(lp1915
g57
(g58
g59
NtRp1916
(dp1917
g62
(dp1918
g70
I5
ssg71
g1912
sg64
(lp1919
S'html'
p1920
asbasbasbag57
(g73
g59
NtRp1921
(dp1922
g62
(dp1923
sg71
g67
sg64
(lp1924
g57
(g78
g59
NtRp1925
(dp1926
g62
(dp1927
g82
g83
ssg71
g1921
sg64
(lp1928
S'folder'
p1929
asbag57
(g78
g59
NtRp1930
(dp1931
g62
(dp1932
g89
g90
ssg71
g1921
sg64
(lp1933
S':'
asbag57
(g78
g59
NtRp1934
(dp1935
g62
(dp1936
sg71
g1921
sg64
(lp1937
g57
(g58
g59
NtRp1938
(dp1939
g62
(dp1940
g70
I5
ssg71
g1934
sg64
(lp1941
S'/home/gaurav/classwork/WEB_PROGRAMMING/web2py/applications/ggg/'
p1942
asbasbasbag57
(g73
g59
NtRp1943
(dp1944
g62
(dp1945
sg71
g67
sg64
(lp1946
g57
(g78
g59
NtRp1947
(dp1948
g62
(dp1949
g82
g83
ssg71
g1943
sg64
(lp1950
S'function'
p1951
asbag57
(g78
g59
NtRp1952
(dp1953
g62
(dp1954
g89
g90
ssg71
g1943
sg64
(lp1955
S':'
asbag57
(g78
g59
NtRp1956
(dp1957
g62
(dp1958
sg71
g1943
sg64
(lp1959
g57
(g58
g59
NtRp1960
(dp1961
g62
(dp1962
g70
I5
ssg71
g1956
sg64
(lp1963
S'select'
p1964
asbasbasbag57
(g73
g59
NtRp1965
(dp1966
g62
(dp1967
sg71
g67
sg64
(lp1968
g57
(g78
g59
NtRp1969
(dp1970
g62
(dp1971
g82
g83
ssg71
g1965
sg64
(lp1972
S'get_vars'
p1973
asbag57
(g78
g59
NtRp1974
(dp1975
g62
(dp1976
g89
g90
ssg71
g1965
sg64
(lp1977
S':'
asbag57
(g78
g59
NtRp1978
(dp1979
g62
(dp1980
sg71
g1965
sg64
(lp1981
g57
(g58
g59
NtRp1982
(dp1983
g62
(dp1984
g70
I5
ssg71
g1978
sg64
(lp1985
g57
(g66
g59
NtRp1986
(dp1987
g62
(dp1988
g70
I4
ssg71
Nsg64
(lp1989
g57
(g73
g59
NtRp1990
(dp1991
g62
(dp1992
sg71
g1986
sg64
(lp1993
g57
(g78
g59
NtRp1994
(dp1995
g62
(dp1996
g82
g83
ssg71
g1990
sg64
(lp1997
S'query'
p1998
asbag57
(g78
g59
NtRp1999
(dp2000
g62
(dp2001
g89
g90
ssg71
g1990
sg64
(lp2002
S':'
asbag57
(g78
g59
NtRp2003
(dp2004
g62
(dp2005
sg71
g1990
sg64
(lp2006
g57
(g58
g59
NtRp2007
(dp2008
g62
(dp2009
g70
I4
ssg71
g2003
sg64
(lp2010
S'db.answer.id>0'
p2011
asbasbasbasbasbasbasbag57
(g73
g59
NtRp2012
(dp2013
g62
(dp2014
sg71
g67
sg64
(lp2015
g57
(g78
g59
NtRp2016
(dp2017
g62
(dp2018
g82
g83
ssg71
g2012
sg64
(lp2019
S'global_settings'
p2020
asbag57
(g78
g59
NtRp2021
(dp2022
g62
(dp2023
g89
g90
ssg71
g2012
sg64
(lp2024
S':'
asbag57
(g78
g59
NtRp2025
(dp2026
g62
(dp2027
sg71
g2012
sg64
(lp2028
g57
(g58
g59
NtRp2029
(dp2030
g62
(dp2031
g70
I5
ssg71
g2025
sg64
(lp2032
g57
(g66
g59
NtRp2033
(dp2034
g62
(dp2035
g70
I4
ssg71
Nsg64
(lp2036
g57
(g73
g59
NtRp2037
(dp2038
g62
(dp2039
sg71
g2033
sg64
(lp2040
g57
(g78
g59
NtRp2041
(dp2042
g62
(dp2043
g82
g83
ssg71
g2037
sg64
(lp2044
g872
asbag57
(g78
g59
NtRp2045
(dp2046
g62
(dp2047
g89
g90
ssg71
g2037
sg64
(lp2048
S':'
asbag57
(g78
g59
NtRp2049
(dp2050
g62
(dp2051
sg71
g2037
sg64
(lp2052
g57
(g58
g59
NtRp2053
(dp2054
g62
(dp2055
g70
I4
ssg71
g2049
sg64
(lp2056
S"set(['/home/gaurav/classwork/WEB_PROGRAMMING/web2py/applications/ggg/', '/home/gaurav/classwork/WEB_PROGRAMMING/web2py/applications/admin/', '/home/gaurav/classwork/WEB_PROGRAMMING/web2py/applications/welcome/'])"
p2057
asbasbasbag57
(g73
g59
NtRp2058
(dp2059
g62
(dp2060
sg71
g2033
sg64
(lp2061
g57
(g78
g59
NtRp2062
(dp2063
g62
(dp2064
g82
g83
ssg71
g2058
sg64
(lp2065
g894
asbag57
(g78
g59
NtRp2066
(dp2067
g62
(dp2068
g89
g90
ssg71
g2058
sg64
(lp2069
S':'
asbag57
(g78
g59
NtRp2070
(dp2071
g62
(dp2072
sg71
g2058
sg64
(lp2073
g57
(g58
g59
NtRp2074
(dp2075
g62
(dp2076
g70
I4
ssg71
g2070
sg64
(lp2077
g907
asbasbasbag57
(g73
g59
NtRp2078
(dp2079
g62
(dp2080
sg71
g2033
sg64
(lp2081
g57
(g78
g59
NtRp2082
(dp2083
g62
(dp2084
g82
g83
ssg71
g2078
sg64
(lp2085
g916
asbag57
(g78
g59
NtRp2086
(dp2087
g62
(dp2088
g89
g90
ssg71
g2078
sg64
(lp2089
S':'
asbag57
(g78
g59
NtRp2090
(dp2091
g62
(dp2092
sg71
g2078
sg64
(lp2093
g57
(g58
g59
NtRp2094
(dp2095
g62
(dp2096
g70
I4
ssg71
g2090
sg64
(lp2097
g57
(g66
g59
NtRp2098
(dp2099
g62
(dp2100
g70
I3
ssg71
Nsg64
(lp2101
sbasbasbasbag57
(g73
g59
NtRp2102
(dp2103
g62
(dp2104
sg71
g2033
sg64
(lp2105
g57
(g78
g59
NtRp2106
(dp2107
g62
(dp2108
g82
g83
ssg71
g2102
sg64
(lp2109
g941
asbag57
(g78
g59
NtRp2110
(dp2111
g62
(dp2112
g89
g90
ssg71
g2102
sg64
(lp2113
S':'
asbag57
(g78
g59
NtRp2114
(dp2115
g62
(dp2116
sg71
g2102
sg64
(lp2117
g57
(g58
g59
NtRp2118
(dp2119
g62
(dp2120
g70
I4
ssg71
g2114
sg64
(lp2121
S"<Values at 0x9a146ac: {'verbose': False, 'ip': '127.0.0.1', 'with_scheduler': False, 'ips': [], 'shutdown_timeout': 5, 'taskbar': False, 'port': 8000, 'maxthreads': None, 'softcron': False, 'server_name': 'gaurav-Compaq-Presario-C700-Notebook-PC', 'bpython': False, 'nogui': False, 'pid_filename': 'httpserver.pid', 'extcron': False, 'runcron': False, 'run_system_tests': False, 'test': None, 'folder': '/home/gaurav/classwork/WEB_PROGRAMMING/web2py', 'config': '', 'import_models': False, 'winservice': '', 'shell': None, 'run': '', 'log_filename': 'httpserver.log', 'debuglevel': 30, 'args': [''], 'socket_timeout': 5, 'ssl_ca_certificate': None, 'scheduler': None, 'profiler_filename': None, 'ssl_private_key': '', 'scheduler_groups': None, 'password': '<ask>', 'request_queue_size': 5, 'ssl_certificate': '', 'cronjob': False, 'numthreads': None, 'quiet': False, 'interfaces': None, 'minthreads': None, 'timeout': 10, 'plain': False, 'nobanner': False}>"
p2122
asbasbasbag57
(g73
g59
NtRp2123
(dp2124
g62
(dp2125
sg71
g2033
sg64
(lp2126
g57
(g78
g59
NtRp2127
(dp2128
g62
(dp2129
g82
g83
ssg71
g2123
sg64
(lp2130
g963
asbag57
(g78
g59
NtRp2131
(dp2132
g62
(dp2133
g89
g90
ssg71
g2123
sg64
(lp2134
S':'
asbag57
(g78
g59
NtRp2135
(dp2136
g62
(dp2137
sg71
g2123
sg64
(lp2138
g57
(g58
g59
NtRp2139
(dp2140
g62
(dp2141
g70
I4
ssg71
g2135
sg64
(lp2142
S'set([])'
p2143
asbasbasbag57
(g73
g59
NtRp2144
(dp2145
g62
(dp2146
sg71
g2033
sg64
(lp2147
g57
(g78
g59
NtRp2148
(dp2149
g62
(dp2150
g82
g83
ssg71
g2144
sg64
(lp2151
g985
asbag57
(g78
g59
NtRp2152
(dp2153
g62
(dp2154
g89
g90
ssg71
g2144
sg64
(lp2155
S':'
asbag57
(g78
g59
NtRp2156
(dp2157
g62
(dp2158
sg71
g2144
sg64
(lp2159
g57
(g58
g59
NtRp2160
(dp2161
g62
(dp2162
g70
I4
ssg71
g2156
sg64
(lp2163
g100
asbasbasbag57
(g73
g59
NtRp2164
(dp2165
g62
(dp2166
sg71
g2033
sg64
(lp2167
g57
(g78
g59
NtRp2168
(dp2169
g62
(dp2170
g82
g83
ssg71
g2164
sg64
(lp2171
g1006
asbag57
(g78
g59
NtRp2172
(dp2173
g62
(dp2174
g89
g90
ssg71
g2164
sg64
(lp2175
S':'
asbag57
(g78
g59
NtRp2176
(dp2177
g62
(dp2178
sg71
g2164
sg64
(lp2179
g57
(g58
g59
NtRp2180
(dp2181
g62
(dp2182
g70
I4
ssg71
g2176
sg64
(lp2183
g1019
asbasbasbag57
(g73
g59
NtRp2184
(dp2185
g62
(dp2186
sg71
g2033
sg64
(lp2187
g57
(g78
g59
NtRp2188
(dp2189
g62
(dp2190
g82
g83
ssg71
g2184
sg64
(lp2191
g1226
asbag57
(g78
g59
NtRp2192
(dp2193
g62
(dp2194
g89
g90
ssg71
g2184
sg64
(lp2195
S':'
asbag57
(g78
g59
NtRp2196
(dp2197
g62
(dp2198
sg71
g2184
sg64
(lp2199
g57
(g58
g59
NtRp2200
(dp2201
g62
(dp2202
g70
I4
ssg71
g2196
sg64
(lp2203
g100
asbasbasbag57
(g73
g59
NtRp2204
(dp2205
g62
(dp2206
sg71
g2033
sg64
(lp2207
g57
(g78
g59
NtRp2208
(dp2209
g62
(dp2210
g82
g83
ssg71
g2204
sg64
(lp2211
g1247
asbag57
(g78
g59
NtRp2212
(dp2213
g62
(dp2214
g89
g90
ssg71
g2204
sg64
(lp2215
S':'
asbag57
(g78
g59
NtRp2216
(dp2217
g62
(dp2218
sg71
g2204
sg64
(lp2219
g57
(g58
g59
NtRp2220
(dp2221
g62
(dp2222
g70
I4
ssg71
g2216
sg64
(lp2223
g100
asbasbasbag57
(g73
g59
NtRp2224
(dp2225
g62
(dp2226
sg71
g2033
sg64
(lp2227
g57
(g78
g59
NtRp2228
(dp2229
g62
(dp2230
g82
g83
ssg71
g2224
sg64
(lp2231
g1268
asbag57
(g78
g59
NtRp2232
(dp2233
g62
(dp2234
g89
g90
ssg71
g2224
sg64
(lp2235
S':'
asbag57
(g78
g59
NtRp2236
(dp2237
g62
(dp2238
sg71
g2224
sg64
(lp2239
g57
(g58
g59
NtRp2240
(dp2241
g62
(dp2242
g70
I4
ssg71
g2236
sg64
(lp2243
g57
(g66
g59
NtRp2244
(dp2245
g62
(dp2246
g70
I3
ssg71
Nsg64
(lp2247
g57
(g73
g59
NtRp2248
(dp2249
g62
(dp2250
sg71
g2244
sg64
(lp2251
g57
(g78
g59
NtRp2252
(dp2253
g62
(dp2254
sg71
g2248
sg64
(lp2255
g57
(g58
g59
NtRp2256
(dp2257
g62
(dp2258
g70
I3
ssg71
g2252
sg64
(lp2259
g1297
asbasbasbag57
(g73
g59
NtRp2260
(dp2261
g62
(dp2262
sg71
g2244
sg64
(lp2263
g57
(g78
g59
NtRp2264
(dp2265
g62
(dp2266
sg71
g2260
sg64
(lp2267
g57
(g58
g59
NtRp2268
(dp2269
g62
(dp2270
g70
I3
ssg71
g2264
sg64
(lp2271
g1310
asbasbasbag57
(g73
g59
NtRp2272
(dp2273
g62
(dp2274
sg71
g2244
sg64
(lp2275
g57
(g78
g59
NtRp2276
(dp2277
g62
(dp2278
sg71
g2272
sg64
(lp2279
g57
(g58
g59
NtRp2280
(dp2281
g62
(dp2282
g70
I3
ssg71
g2276
sg64
(lp2283
g1323
asbasbasbag57
(g73
g59
NtRp2284
(dp2285
g62
(dp2286
sg71
g2244
sg64
(lp2287
g57
(g78
g59
NtRp2288
(dp2289
g62
(dp2290
sg71
g2284
sg64
(lp2291
g57
(g58
g59
NtRp2292
(dp2293
g62
(dp2294
g70
I3
ssg71
g2288
sg64
(lp2295
g1336
asbasbasbag57
(g73
g59
NtRp2296
(dp2297
g62
(dp2298
sg71
g2244
sg64
(lp2299
g57
(g78
g59
NtRp2300
(dp2301
g62
(dp2302
sg71
g2296
sg64
(lp2303
g57
(g58
g59
NtRp2304
(dp2305
g62
(dp2306
g70
I3
ssg71
g2300
sg64
(lp2307
g1349
asbasbasbasbasbasbasbag57
(g73
g59
NtRp2308
(dp2309
g62
(dp2310
sg71
g2033
sg64
(lp2311
g57
(g78
g59
NtRp2312
(dp2313
g62
(dp2314
g82
g83
ssg71
g2308
sg64
(lp2315
g1619
asbag57
(g78
g59
NtRp2316
(dp2317
g62
(dp2318
g89
g90
ssg71
g2308
sg64
(lp2319
S':'
asbag57
(g78
g59
NtRp2320
(dp2321
g62
(dp2322
sg71
g2308
sg64
(lp2323
g57
(g58
g59
NtRp2324
(dp2325
g62
(dp2326
g70
I4
ssg71
g2320
sg64
(lp2327
g57
(g66
g59
NtRp2328
(dp2329
g62
(dp2330
g70
I3
ssg71
Nsg64
(lp2331
g57
(g73
g59
NtRp2332
(dp2333
g62
(dp2334
sg71
g2328
sg64
(lp2335
g57
(g78
g59
NtRp2336
(dp2337
g62
(dp2338
sg71
g2332
sg64
(lp2339
g57
(g58
g59
NtRp2340
(dp2341
g62
(dp2342
g70
I3
ssg71
g2336
sg64
(lp2343
S'2'
asbasbasbag57
(g73
g59
NtRp2344
(dp2345
g62
(dp2346
sg71
g2328
sg64
(lp2347
g57
(g78
g59
NtRp2348
(dp2349
g62
(dp2350
sg71
g2344
sg64
(lp2351
g57
(g58
g59
NtRp2352
(dp2353
g62
(dp2354
g70
I3
ssg71
g2348
sg64
(lp2355
S'3'
asbasbasbag57
(g73
g59
NtRp2356
(dp2357
g62
(dp2358
sg71
g2328
sg64
(lp2359
g57
(g78
g59
NtRp2360
(dp2361
g62
(dp2362
sg71
g2356
sg64
(lp2363
g57
(g58
g59
NtRp2364
(dp2365
g62
(dp2366
g70
I3
ssg71
g2360
sg64
(lp2367
S'2'
asbasbasbag57
(g73
g59
NtRp2368
(dp2369
g62
(dp2370
sg71
g2328
sg64
(lp2371
g57
(g78
g59
NtRp2372
(dp2373
g62
(dp2374
sg71
g2368
sg64
(lp2375
g57
(g58
g59
NtRp2376
(dp2377
g62
(dp2378
g70
I3
ssg71
g2372
sg64
(lp2379
S'datetime.datetime(2012, 12, 17, 15, 3, 30)'
p2380
asbasbasbag57
(g73
g59
NtRp2381
(dp2382
g62
(dp2383
sg71
g2328
sg64
(lp2384
g57
(g78
g59
NtRp2385
(dp2386
g62
(dp2387
sg71
g2381
sg64
(lp2388
g57
(g58
g59
NtRp2389
(dp2390
g62
(dp2391
g70
I3
ssg71
g2385
sg64
(lp2392
g1697
asbasbasbasbasbasbasbasbasbasbasbag57
(g73
g59
NtRp2393
(dp2394
g62
(dp2395
sg71
g67
sg64
(lp2396
g57
(g78
g59
NtRp2397
(dp2398
g62
(dp2399
g82
g83
ssg71
g2393
sg64
(lp2400
S'is_https'
p2401
asbag57
(g78
g59
NtRp2402
(dp2403
g62
(dp2404
g89
g90
ssg71
g2393
sg64
(lp2405
S':'
asbag57
(g78
g59
NtRp2406
(dp2407
g62
(dp2408
sg71
g2393
sg64
(lp2409
g57
(g58
g59
NtRp2410
(dp2411
g62
(dp2412
g70
I5
ssg71
g2406
sg64
(lp2413
g100
asbasbasbag57
(g73
g59
NtRp2414
(dp2415
g62
(dp2416
sg71
g67
sg64
(lp2417
g57
(g78
g59
NtRp2418
(dp2419
g62
(dp2420
g82
g83
ssg71
g2414
sg64
(lp2421
S'is_local'
p2422
asbag57
(g78
g59
NtRp2423
(dp2424
g62
(dp2425
g89
g90
ssg71
g2414
sg64
(lp2426
S':'
asbag57
(g78
g59
NtRp2427
(dp2428
g62
(dp2429
sg71
g2414
sg64
(lp2430
g57
(g58
g59
NtRp2431
(dp2432
g62
(dp2433
g70
I5
ssg71
g2427
sg64
(lp2434
g1806
asbasbasbag57
(g73
g59
NtRp2435
(dp2436
g62
(dp2437
sg71
g67
sg64
(lp2438
g57
(g78
g59
NtRp2439
(dp2440
g62
(dp2441
g82
g83
ssg71
g2435
sg64
(lp2442
S'is_restful'
p2443
asbag57
(g78
g59
NtRp2444
(dp2445
g62
(dp2446
g89
g90
ssg71
g2435
sg64
(lp2447
S':'
asbag57
(g78
g59
NtRp2448
(dp2449
g62
(dp2450
sg71
g2435
sg64
(lp2451
g57
(g58
g59
NtRp2452
(dp2453
g62
(dp2454
g70
I5
ssg71
g2448
sg64
(lp2455
g100
asbasbasbag57
(g73
g59
NtRp2456
(dp2457
g62
(dp2458
sg71
g67
sg64
(lp2459
g57
(g78
g59
NtRp2460
(dp2461
g62
(dp2462
g82
g83
ssg71
g2456
sg64
(lp2463
S'now'
p2464
asbag57
(g78
g59
NtRp2465
(dp2466
g62
(dp2467
g89
g90
ssg71
g2456
sg64
(lp2468
S':'
asbag57
(g78
g59
NtRp2469
(dp2470
g62
(dp2471
sg71
g2456
sg64
(lp2472
g57
(g58
g59
NtRp2473
(dp2474
g62
(dp2475
g70
I5
ssg71
g2469
sg64
(lp2476
S'datetime.datetime(2013, 3, 18, 21, 55, 1, 111663)'
p2477
asbasbasbag57
(g73
g59
NtRp2478
(dp2479
g62
(dp2480
sg71
g67
sg64
(lp2481
g57
(g78
g59
NtRp2482
(dp2483
g62
(dp2484
g82
g83
ssg71
g2478
sg64
(lp2485
S'post_vars'
p2486
asbag57
(g78
g59
NtRp2487
(dp2488
g62
(dp2489
g89
g90
ssg71
g2478
sg64
(lp2490
S':'
asbag57
(g78
g59
NtRp2491
(dp2492
g62
(dp2493
sg71
g2478
sg64
(lp2494
g57
(g58
g59
NtRp2495
(dp2496
g62
(dp2497
g70
I5
ssg71
g2491
sg64
(lp2498
g57
(g66
g59
NtRp2499
(dp2500
g62
(dp2501
g70
I4
ssg71
Nsg64
(lp2502
sbasbasbasbag57
(g73
g59
NtRp2503
(dp2504
g62
(dp2505
sg71
g67
sg64
(lp2506
g57
(g78
g59
NtRp2507
(dp2508
g62
(dp2509
g82
g83
ssg71
g2503
sg64
(lp2510
S'raw_args'
p2511
asbag57
(g78
g59
NtRp2512
(dp2513
g62
(dp2514
g89
g90
ssg71
g2503
sg64
(lp2515
S':'
asbag57
(g78
g59
NtRp2516
(dp2517
g62
(dp2518
sg71
g2503
sg64
(lp2519
g57
(g58
g59
NtRp2520
(dp2521
g62
(dp2522
g70
I5
ssg71
g2516
sg64
(lp2523
g159
asbasbasbag57
(g73
g59
NtRp2524
(dp2525
g62
(dp2526
sg71
g67
sg64
(lp2527
g57
(g78
g59
NtRp2528
(dp2529
g62
(dp2530
g82
g83
ssg71
g2524
sg64
(lp2531
S'raw_extension'
p2532
asbag57
(g78
g59
NtRp2533
(dp2534
g62
(dp2535
g89
g90
ssg71
g2524
sg64
(lp2536
S':'
asbag57
(g78
g59
NtRp2537
(dp2538
g62
(dp2539
sg71
g2524
sg64
(lp2540
g57
(g58
g59
NtRp2541
(dp2542
g62
(dp2543
g70
I5
ssg71
g2537
sg64
(lp2544
S'None'
p2545
asbasbasbag57
(g73
g59
NtRp2546
(dp2547
g62
(dp2548
sg71
g67
sg64
(lp2549
g57
(g78
g59
NtRp2550
(dp2551
g62
(dp2552
g82
g83
ssg71
g2546
sg64
(lp2553
S'url'
p2554
asbag57
(g78
g59
NtRp2555
(dp2556
g62
(dp2557
g89
g90
ssg71
g2546
sg64
(lp2558
S':'
asbag57
(g78
g59
NtRp2559
(dp2560
g62
(dp2561
sg71
g2546
sg64
(lp2562
g57
(g58
g59
NtRp2563
(dp2564
g62
(dp2565
g70
I5
ssg71
g2559
sg64
(lp2566
g1371
asbasbasbag57
(g73
g59
NtRp2567
(dp2568
g62
(dp2569
sg71
g67
sg64
(lp2570
g57
(g78
g59
NtRp2571
(dp2572
g62
(dp2573
g82
g83
ssg71
g2567
sg64
(lp2574
S'utcnow'
p2575
asbag57
(g78
g59
NtRp2576
(dp2577
g62
(dp2578
g89
g90
ssg71
g2567
sg64
(lp2579
S':'
asbag57
(g78
g59
NtRp2580
(dp2581
g62
(dp2582
sg71
g2567
sg64
(lp2583
g57
(g58
g59
NtRp2584
(dp2585
g62
(dp2586
g70
I5
ssg71
g2580
sg64
(lp2587
S'datetime.datetime(2013, 3, 18, 16, 25, 1, 111701)'
p2588
asbasbasbag57
(g73
g59
NtRp2589
(dp2590
g62
(dp2591
sg71
g67
sg64
(lp2592
g57
(g78
g59
NtRp2593
(dp2594
g62
(dp2595
g82
g83
ssg71
g2589
sg64
(lp2596
S'uuid'
p2597
asbag57
(g78
g59
NtRp2598
(dp2599
g62
(dp2600
g89
g90
ssg71
g2589
sg64
(lp2601
S':'
asbag57
(g78
g59
NtRp2602
(dp2603
g62
(dp2604
sg71
g2589
sg64
(lp2605
g57
(g58
g59
NtRp2606
(dp2607
g62
(dp2608
g70
I5
ssg71
g2602
sg64
(lp2609
S'ggg/127.0.0.1.2013-03-18.21-55-01.39c5cd77-7b39-4ea7-a65f-d57721602cdf'
p2610
asbasbasbag57
(g73
g59
NtRp2611
(dp2612
g62
(dp2613
sg71
g67
sg64
(lp2614
g57
(g78
g59
NtRp2615
(dp2616
g62
(dp2617
g82
g83
ssg71
g2611
sg64
(lp2618
S'vars'
p2619
asbag57
(g78
g59
NtRp2620
(dp2621
g62
(dp2622
g89
g90
ssg71
g2611
sg64
(lp2623
S':'
asbag57
(g78
g59
NtRp2624
(dp2625
g62
(dp2626
sg71
g2611
sg64
(lp2627
g57
(g58
g59
NtRp2628
(dp2629
g62
(dp2630
g70
I5
ssg71
g2624
sg64
(lp2631
g57
(g66
g59
NtRp2632
(dp2633
g62
(dp2634
g70
I4
ssg71
Nsg64
(lp2635
g57
(g73
g59
NtRp2636
(dp2637
g62
(dp2638
sg71
g2632
sg64
(lp2639
g57
(g78
g59
NtRp2640
(dp2641
g62
(dp2642
g82
g83
ssg71
g2636
sg64
(lp2643
g1998
asbag57
(g78
g59
NtRp2644
(dp2645
g62
(dp2646
g89
g90
ssg71
g2636
sg64
(lp2647
S':'
asbag57
(g78
g59
NtRp2648
(dp2649
g62
(dp2650
sg71
g2636
sg64
(lp2651
g57
(g58
g59
NtRp2652
(dp2653
g62
(dp2654
g70
I4
ssg71
g2648
sg64
(lp2655
g2011
asbasbasbasbasbasbasbag57
(g73
g59
NtRp2656
(dp2657
g62
(dp2658
sg71
g67
sg64
(lp2659
g57
(g78
g59
NtRp2660
(dp2661
g62
(dp2662
g82
g83
ssg71
g2656
sg64
(lp2663
S'wsgi'
p2664
asbag57
(g78
g59
NtRp2665
(dp2666
g62
(dp2667
g89
g90
ssg71
g2656
sg64
(lp2668
S':'
asbag57
(g78
g59
NtRp2669
(dp2670
g62
(dp2671
sg71
g2656
sg64
(lp2672
g57
(g58
g59
NtRp2673
(dp2674
g62
(dp2675
g70
I5
ssg71
g2669
sg64
(lp2676
g57
(g66
g59
NtRp2677
(dp2678
g62
(dp2679
g70
I4
ssg71
Nsg64
(lp2680
g57
(g73
g59
NtRp2681
(dp2682
g62
(dp2683
sg71
g2677
sg64
(lp2684
g57
(g78
g59
NtRp2685
(dp2686
g62
(dp2687
g82
g83
ssg71
g2681
sg64
(lp2688
S'environ'
p2689
asbag57
(g78
g59
NtRp2690
(dp2691
g62
(dp2692
g89
g90
ssg71
g2681
sg64
(lp2693
S':'
asbag57
(g78
g59
NtRp2694
(dp2695
g62
(dp2696
sg71
g2681
sg64
(lp2697
g57
(g58
g59
NtRp2698
(dp2699
g62
(dp2700
g70
I4
ssg71
g2694
sg64
(lp2701
g57
(g66
g59
NtRp2702
(dp2703
g62
(dp2704
g70
I3
ssg71
Nsg64
(lp2705
g57
(g73
g59
NtRp2706
(dp2707
g62
(dp2708
sg71
g2702
sg64
(lp2709
g57
(g78
g59
NtRp2710
(dp2711
g62
(dp2712
g82
g83
ssg71
g2706
sg64
(lp2713
S'HTTP_ACCEPT'
p2714
asbag57
(g78
g59
NtRp2715
(dp2716
g62
(dp2717
g89
g90
ssg71
g2706
sg64
(lp2718
S':'
asbag57
(g78
g59
NtRp2719
(dp2720
g62
(dp2721
sg71
g2706
sg64
(lp2722
g57
(g58
g59
NtRp2723
(dp2724
g62
(dp2725
g70
I3
ssg71
g2719
sg64
(lp2726
g1041
asbasbasbag57
(g73
g59
NtRp2727
(dp2728
g62
(dp2729
sg71
g2702
sg64
(lp2730
g57
(g78
g59
NtRp2731
(dp2732
g62
(dp2733
g82
g83
ssg71
g2727
sg64
(lp2734
S'HTTP_ACCEPT_ENCODING'
p2735
asbag57
(g78
g59
NtRp2736
(dp2737
g62
(dp2738
g89
g90
ssg71
g2727
sg64
(lp2739
S':'
asbag57
(g78
g59
NtRp2740
(dp2741
g62
(dp2742
sg71
g2727
sg64
(lp2743
g57
(g58
g59
NtRp2744
(dp2745
g62
(dp2746
g70
I3
ssg71
g2740
sg64
(lp2747
g1063
asbasbasbag57
(g73
g59
NtRp2748
(dp2749
g62
(dp2750
sg71
g2702
sg64
(lp2751
g57
(g78
g59
NtRp2752
(dp2753
g62
(dp2754
g82
g83
ssg71
g2748
sg64
(lp2755
S'HTTP_ACCEPT_LANGUAGE'
p2756
asbag57
(g78
g59
NtRp2757
(dp2758
g62
(dp2759
g89
g90
ssg71
g2748
sg64
(lp2760
S':'
asbag57
(g78
g59
NtRp2761
(dp2762
g62
(dp2763
sg71
g2748
sg64
(lp2764
g57
(g58
g59
NtRp2765
(dp2766
g62
(dp2767
g70
I3
ssg71
g2761
sg64
(lp2768
g1085
asbasbasbag57
(g73
g59
NtRp2769
(dp2770
g62
(dp2771
sg71
g2702
sg64
(lp2772
g57
(g78
g59
NtRp2773
(dp2774
g62
(dp2775
g82
g83
ssg71
g2769
sg64
(lp2776
S'HTTP_CACHE_CONTROL'
p2777
asbag57
(g78
g59
NtRp2778
(dp2779
g62
(dp2780
g89
g90
ssg71
g2769
sg64
(lp2781
S':'
asbag57
(g78
g59
NtRp2782
(dp2783
g62
(dp2784
sg71
g2769
sg64
(lp2785
g57
(g58
g59
NtRp2786
(dp2787
g62
(dp2788
g70
I3
ssg71
g2782
sg64
(lp2789
g1107
asbasbasbag57
(g73
g59
NtRp2790
(dp2791
g62
(dp2792
sg71
g2702
sg64
(lp2793
g57
(g78
g59
NtRp2794
(dp2795
g62
(dp2796
g82
g83
ssg71
g2790
sg64
(lp2797
S'HTTP_CONNECTION'
p2798
asbag57
(g78
g59
NtRp2799
(dp2800
g62
(dp2801
g89
g90
ssg71
g2790
sg64
(lp2802
S':'
asbag57
(g78
g59
NtRp2803
(dp2804
g62
(dp2805
sg71
g2790
sg64
(lp2806
g57
(g58
g59
NtRp2807
(dp2808
g62
(dp2809
g70
I3
ssg71
g2803
sg64
(lp2810
g1129
asbasbasbag57
(g73
g59
NtRp2811
(dp2812
g62
(dp2813
sg71
g2702
sg64
(lp2814
g57
(g78
g59
NtRp2815
(dp2816
g62
(dp2817
g82
g83
ssg71
g2811
sg64
(lp2818
S'HTTP_COOKIE'
p2819
asbag57
(g78
g59
NtRp2820
(dp2821
g62
(dp2822
g89
g90
ssg71
g2811
sg64
(lp2823
S':'
asbag57
(g78
g59
NtRp2824
(dp2825
g62
(dp2826
sg71
g2811
sg64
(lp2827
g57
(g58
g59
NtRp2828
(dp2829
g62
(dp2830
g70
I3
ssg71
g2824
sg64
(lp2831
g1151
asbasbasbag57
(g73
g59
NtRp2832
(dp2833
g62
(dp2834
sg71
g2702
sg64
(lp2835
g57
(g78
g59
NtRp2836
(dp2837
g62
(dp2838
g82
g83
ssg71
g2832
sg64
(lp2839
S'HTTP_HOST'
p2840
asbag57
(g78
g59
NtRp2841
(dp2842
g62
(dp2843
g89
g90
ssg71
g2832
sg64
(lp2844
S':'
asbag57
(g78
g59
NtRp2845
(dp2846
g62
(dp2847
sg71
g2832
sg64
(lp2848
g57
(g58
g59
NtRp2849
(dp2850
g62
(dp2851
g70
I3
ssg71
g2845
sg64
(lp2852
g1173
asbasbasbag57
(g73
g59
NtRp2853
(dp2854
g62
(dp2855
sg71
g2702
sg64
(lp2856
g57
(g78
g59
NtRp2857
(dp2858
g62
(dp2859
g82
g83
ssg71
g2853
sg64
(lp2860
S'HTTP_REFERER'
p2861
asbag57
(g78
g59
NtRp2862
(dp2863
g62
(dp2864
g89
g90
ssg71
g2853
sg64
(lp2865
S':'
asbag57
(g78
g59
NtRp2866
(dp2867
g62
(dp2868
sg71
g2853
sg64
(lp2869
g57
(g58
g59
NtRp2870
(dp2871
g62
(dp2872
g70
I3
ssg71
g2866
sg64
(lp2873
g1195
asbasbasbag57
(g73
g59
NtRp2874
(dp2875
g62
(dp2876
sg71
g2702
sg64
(lp2877
g57
(g78
g59
NtRp2878
(dp2879
g62
(dp2880
g82
g83
ssg71
g2874
sg64
(lp2881
S'HTTP_USER_AGENT'
p2882
asbag57
(g78
g59
NtRp2883
(dp2884
g62
(dp2885
g89
g90
ssg71
g2874
sg64
(lp2886
S':'
asbag57
(g78
g59
NtRp2887
(dp2888
g62
(dp2889
sg71
g2874
sg64
(lp2890
g57
(g58
g59
NtRp2891
(dp2892
g62
(dp2893
g70
I3
ssg71
g2887
sg64
(lp2894
g1217
asbasbasbag57
(g73
g59
NtRp2895
(dp2896
g62
(dp2897
sg71
g2702
sg64
(lp2898
g57
(g78
g59
NtRp2899
(dp2900
g62
(dp2901
g82
g83
ssg71
g2895
sg64
(lp2902
S'PATH_INFO'
p2903
asbag57
(g78
g59
NtRp2904
(dp2905
g62
(dp2906
g89
g90
ssg71
g2895
sg64
(lp2907
S':'
asbag57
(g78
g59
NtRp2908
(dp2909
g62
(dp2910
sg71
g2895
sg64
(lp2911
g57
(g58
g59
NtRp2912
(dp2913
g62
(dp2914
g70
I3
ssg71
g2908
sg64
(lp2915
g1371
asbasbasbag57
(g73
g59
NtRp2916
(dp2917
g62
(dp2918
sg71
g2702
sg64
(lp2919
g57
(g78
g59
NtRp2920
(dp2921
g62
(dp2922
g82
g83
ssg71
g2916
sg64
(lp2923
S'QUERY_STRING'
p2924
asbag57
(g78
g59
NtRp2925
(dp2926
g62
(dp2927
g89
g90
ssg71
g2916
sg64
(lp2928
S':'
asbag57
(g78
g59
NtRp2929
(dp2930
g62
(dp2931
sg71
g2916
sg64
(lp2932
g57
(g58
g59
NtRp2933
(dp2934
g62
(dp2935
g70
I3
ssg71
g2929
sg64
(lp2936
g1393
asbasbasbag57
(g73
g59
NtRp2937
(dp2938
g62
(dp2939
sg71
g2702
sg64
(lp2940
g57
(g78
g59
NtRp2941
(dp2942
g62
(dp2943
g82
g83
ssg71
g2937
sg64
(lp2944
S'REMOTE_ADDR'
p2945
asbag57
(g78
g59
NtRp2946
(dp2947
g62
(dp2948
g89
g90
ssg71
g2937
sg64
(lp2949
S':'
asbag57
(g78
g59
NtRp2950
(dp2951
g62
(dp2952
sg71
g2937
sg64
(lp2953
g57
(g58
g59
NtRp2954
(dp2955
g62
(dp2956
g70
I3
ssg71
g2950
sg64
(lp2957
g225
asbasbasbag57
(g73
g59
NtRp2958
(dp2959
g62
(dp2960
sg71
g2702
sg64
(lp2961
g57
(g78
g59
NtRp2962
(dp2963
g62
(dp2964
g82
g83
ssg71
g2958
sg64
(lp2965
S'REMOTE_PORT'
p2966
asbag57
(g78
g59
NtRp2967
(dp2968
g62
(dp2969
g89
g90
ssg71
g2958
sg64
(lp2970
S':'
asbag57
(g78
g59
NtRp2971
(dp2972
g62
(dp2973
sg71
g2958
sg64
(lp2974
g57
(g58
g59
NtRp2975
(dp2976
g62
(dp2977
g70
I3
ssg71
g2971
sg64
(lp2978
g1436
asbasbasbag57
(g73
g59
NtRp2979
(dp2980
g62
(dp2981
sg71
g2702
sg64
(lp2982
g57
(g78
g59
NtRp2983
(dp2984
g62
(dp2985
g82
g83
ssg71
g2979
sg64
(lp2986
S'REQUEST_METHOD'
p2987
asbag57
(g78
g59
NtRp2988
(dp2989
g62
(dp2990
g89
g90
ssg71
g2979
sg64
(lp2991
S':'
asbag57
(g78
g59
NtRp2992
(dp2993
g62
(dp2994
sg71
g2979
sg64
(lp2995
g57
(g58
g59
NtRp2996
(dp2997
g62
(dp2998
g70
I3
ssg71
g2992
sg64
(lp2999
g1458
asbasbasbag57
(g73
g59
NtRp3000
(dp3001
g62
(dp3002
sg71
g2702
sg64
(lp3003
g57
(g78
g59
NtRp3004
(dp3005
g62
(dp3006
g82
g83
ssg71
g3000
sg64
(lp3007
S'REQUEST_URI'
p3008
asbag57
(g78
g59
NtRp3009
(dp3010
g62
(dp3011
g89
g90
ssg71
g3000
sg64
(lp3012
S':'
asbag57
(g78
g59
NtRp3013
(dp3014
g62
(dp3015
sg71
g3000
sg64
(lp3016
g57
(g58
g59
NtRp3017
(dp3018
g62
(dp3019
g70
I3
ssg71
g3013
sg64
(lp3020
g1480
asbasbasbag57
(g73
g59
NtRp3021
(dp3022
g62
(dp3023
sg71
g2702
sg64
(lp3024
g57
(g78
g59
NtRp3025
(dp3026
g62
(dp3027
g82
g83
ssg71
g3021
sg64
(lp3028
S'SCRIPT_NAME'
p3029
asbag57
(g78
g59
NtRp3030
(dp3031
g62
(dp3032
g89
g90
ssg71
g3021
sg64
(lp3033
S':'
asbag57
(g78
g59
NtRp3034
(dp3035
g62
(dp3036
sg71
g3021
sg64
(lp3037
g57
(g58
g59
NtRp3038
(dp3039
g62
(dp3040
g70
I3
ssg71
g3034
sg64
(lp3041
S''
asbasbasbag57
(g73
g59
NtRp3042
(dp3043
g62
(dp3044
sg71
g2702
sg64
(lp3045
g57
(g78
g59
NtRp3046
(dp3047
g62
(dp3048
g82
g83
ssg71
g3042
sg64
(lp3049
S'SERVER_NAME'
p3050
asbag57
(g78
g59
NtRp3051
(dp3052
g62
(dp3053
g89
g90
ssg71
g3042
sg64
(lp3054
S':'
asbag57
(g78
g59
NtRp3055
(dp3056
g62
(dp3057
sg71
g3042
sg64
(lp3058
g57
(g58
g59
NtRp3059
(dp3060
g62
(dp3061
g70
I3
ssg71
g3055
sg64
(lp3062
g1523
asbasbasbag57
(g73
g59
NtRp3063
(dp3064
g62
(dp3065
sg71
g2702
sg64
(lp3066
g57
(g78
g59
NtRp3067
(dp3068
g62
(dp3069
g82
g83
ssg71
g3063
sg64
(lp3070
S'SERVER_PORT'
p3071
asbag57
(g78
g59
NtRp3072
(dp3073
g62
(dp3074
g89
g90
ssg71
g3063
sg64
(lp3075
S':'
asbag57
(g78
g59
NtRp3076
(dp3077
g62
(dp3078
sg71
g3063
sg64
(lp3079
g57
(g58
g59
NtRp3080
(dp3081
g62
(dp3082
g70
I3
ssg71
g3076
sg64
(lp3083
g1545
asbasbasbag57
(g73
g59
NtRp3084
(dp3085
g62
(dp3086
sg71
g2702
sg64
(lp3087
g57
(g78
g59
NtRp3088
(dp3089
g62
(dp3090
g82
g83
ssg71
g3084
sg64
(lp3091
S'SERVER_PROTOCOL'
p3092
asbag57
(g78
g59
NtRp3093
(dp3094
g62
(dp3095
g89
g90
ssg71
g3084
sg64
(lp3096
S':'
asbag57
(g78
g59
NtRp3097
(dp3098
g62
(dp3099
sg71
g3084
sg64
(lp3100
g57
(g58
g59
NtRp3101
(dp3102
g62
(dp3103
g70
I3
ssg71
g3097
sg64
(lp3104
g1567
asbasbasbag57
(g73
g59
NtRp3105
(dp3106
g62
(dp3107
sg71
g2702
sg64
(lp3108
g57
(g78
g59
NtRp3109
(dp3110
g62
(dp3111
g82
g83
ssg71
g3105
sg64
(lp3112
S'SERVER_SOFTWARE'
p3113
asbag57
(g78
g59
NtRp3114
(dp3115
g62
(dp3116
g89
g90
ssg71
g3105
sg64
(lp3117
S':'
asbag57
(g78
g59
NtRp3118
(dp3119
g62
(dp3120
sg71
g3105
sg64
(lp3121
g57
(g58
g59
NtRp3122
(dp3123
g62
(dp3124
g70
I3
ssg71
g3118
sg64
(lp3125
g1589
asbasbasbag57
(g73
g59
NtRp3126
(dp3127
g62
(dp3128
sg71
g2702
sg64
(lp3129
g57
(g78
g59
NtRp3130
(dp3131
g62
(dp3132
g82
g83
ssg71
g3126
sg64
(lp3133
S'wsgi.errors'
p3134
asbag57
(g78
g59
NtRp3135
(dp3136
g62
(dp3137
g89
g90
ssg71
g3126
sg64
(lp3138
S':'
asbag57
(g78
g59
NtRp3139
(dp3140
g62
(dp3141
sg71
g3126
sg64
(lp3142
g57
(g58
g59
NtRp3143
(dp3144
g62
(dp3145
g70
I3
ssg71
g3139
sg64
(lp3146
S"<open file '<stderr>', mode 'w' at 0xb751a0d0>"
p3147
asbasbasbag57
(g73
g59
NtRp3148
(dp3149
g62
(dp3150
sg71
g2702
sg64
(lp3151
g57
(g78
g59
NtRp3152
(dp3153
g62
(dp3154
g82
g83
ssg71
g3148
sg64
(lp3155
S'wsgi.file_wrapper'
p3156
asbag57
(g78
g59
NtRp3157
(dp3158
g62
(dp3159
g89
g90
ssg71
g3148
sg64
(lp3160
S':'
asbag57
(g78
g59
NtRp3161
(dp3162
g62
(dp3163
sg71
g3148
sg64
(lp3164
g57
(g58
g59
NtRp3165
(dp3166
g62
(dp3167
g70
I3
ssg71
g3161
sg64
(lp3168
S'<class wsgiref.util.FileWrapper at 0x99c6ecc>'
p3169
asbasbasbag57
(g73
g59
NtRp3170
(dp3171
g62
(dp3172
sg71
g2702
sg64
(lp3173
g57
(g78
g59
NtRp3174
(dp3175
g62
(dp3176
g82
g83
ssg71
g3170
sg64
(lp3177
S'wsgi.input'
p3178
asbag57
(g78
g59
NtRp3179
(dp3180
g62
(dp3181
g89
g90
ssg71
g3170
sg64
(lp3182
S':'
asbag57
(g78
g59
NtRp3183
(dp3184
g62
(dp3185
sg71
g3170
sg64
(lp3186
g57
(g58
g59
NtRp3187
(dp3188
g62
(dp3189
g70
I3
ssg71
g3183
sg64
(lp3190
S'<cStringIO.StringO object at 0xa2802e0>'
p3191
asbasbasbag57
(g73
g59
NtRp3192
(dp3193
g62
(dp3194
sg71
g2702
sg64
(lp3195
g57
(g78
g59
NtRp3196
(dp3197
g62
(dp3198
g82
g83
ssg71
g3192
sg64
(lp3199
S'wsgi.multiprocess'
p3200
asbag57
(g78
g59
NtRp3201
(dp3202
g62
(dp3203
g89
g90
ssg71
g3192
sg64
(lp3204
S':'
asbag57
(g78
g59
NtRp3205
(dp3206
g62
(dp3207
sg71
g3192
sg64
(lp3208
g57
(g58
g59
NtRp3209
(dp3210
g62
(dp3211
g70
I3
ssg71
g3205
sg64
(lp3212
g100
asbasbasbag57
(g73
g59
NtRp3213
(dp3214
g62
(dp3215
sg71
g2702
sg64
(lp3216
g57
(g78
g59
NtRp3217
(dp3218
g62
(dp3219
g82
g83
ssg71
g3213
sg64
(lp3220
S'wsgi.multithread'
p3221
asbag57
(g78
g59
NtRp3222
(dp3223
g62
(dp3224
g89
g90
ssg71
g3213
sg64
(lp3225
S':'
asbag57
(g78
g59
NtRp3226
(dp3227
g62
(dp3228
sg71
g3213
sg64
(lp3229
g57
(g58
g59
NtRp3230
(dp3231
g62
(dp3232
g70
I3
ssg71
g3226
sg64
(lp3233
g1806
asbasbasbag57
(g73
g59
NtRp3234
(dp3235
g62
(dp3236
sg71
g2702
sg64
(lp3237
g57
(g78
g59
NtRp3238
(dp3239
g62
(dp3240
g82
g83
ssg71
g3234
sg64
(lp3241
S'wsgi.run_once'
p3242
asbag57
(g78
g59
NtRp3243
(dp3244
g62
(dp3245
g89
g90
ssg71
g3234
sg64
(lp3246
S':'
asbag57
(g78
g59
NtRp3247
(dp3248
g62
(dp3249
sg71
g3234
sg64
(lp3250
g57
(g58
g59
NtRp3251
(dp3252
g62
(dp3253
g70
I3
ssg71
g3247
sg64
(lp3254
g100
asbasbasbag57
(g73
g59
NtRp3255
(dp3256
g62
(dp3257
sg71
g2702
sg64
(lp3258
g57
(g78
g59
NtRp3259
(dp3260
g62
(dp3261
g82
g83
ssg71
g3255
sg64
(lp3262
S'wsgi.url_scheme'
p3263
asbag57
(g78
g59
NtRp3264
(dp3265
g62
(dp3266
g89
g90
ssg71
g3255
sg64
(lp3267
S':'
asbag57
(g78
g59
NtRp3268
(dp3269
g62
(dp3270
sg71
g3255
sg64
(lp3271
g57
(g58
g59
NtRp3272
(dp3273
g62
(dp3274
g70
I3
ssg71
g3268
sg64
(lp3275
g1849
asbasbasbag57
(g73
g59
NtRp3276
(dp3277
g62
(dp3278
sg71
g2702
sg64
(lp3279
g57
(g78
g59
NtRp3280
(dp3281
g62
(dp3282
g82
g83
ssg71
g3276
sg64
(lp3283
S'wsgi.version'
p3284
asbag57
(g78
g59
NtRp3285
(dp3286
g62
(dp3287
g89
g90
ssg71
g3276
sg64
(lp3288
S':'
asbag57
(g78
g59
NtRp3289
(dp3290
g62
(dp3291
sg71
g3276
sg64
(lp3292
g57
(g58
g59
NtRp3293
(dp3294
g62
(dp3295
g70
I3
ssg71
g3289
sg64
(lp3296
S'1'
asbasbasbasbasbasbasbasbasbasbasbasbasbsS'frames'
p3297
(lp3298
(dp3299
S'file'
p3300
S'/home/gaurav/classwork/WEB_PROGRAMMING/web2py/gluon/restricted.py'
p3301
sS'dump'
p3302
(dp3303
S'environment'
p3304
S"{'A': <class 'gluon.html.A'>, 'Auth': <class 'gluon.tools.Auth'>, 'B': <class 'gluon.html.B'>, 'BEAUTIFY': <class 'gluon.html.BEAUTIFY'>, 'BODY': <class 'gluon.html.BODY'>, 'BR': <class 'gluon.html.BR'>, 'BUTTON': <class 'gluon.html.BUTTON'>, 'CAT': <class 'gluon.html.CAT'>, 'CENTER': <class 'gluon.html.CENTER'>, 'CLEANUP': <class 'gluon.validators.CLEANUP'>, ...}"
p3305
sS'ccode'
p3306
S'<code object <module> at 0xae4bfe30, file "/home...G/web2py/applications/ggg/models/db.py", line 12>'
p3307
ssS'lnum'
p3308
I212
sS'lines'
p3309
(dp3310
I207
S'    try:'
p3311
sI208
S'        if isinstance(code, types.CodeType):'
p3312
sI209
S'            ccode = code'
p3313
sI210
S'        else:'
p3314
sI211
S'            ccode = compile2(code, layer)'
p3315
sI212
S'        exec ccode in environment'
p3316
sI213
S'    except HTTP:'
p3317
sI214
S'        raise'
p3318
sI215
S'    except RestrictedError:'
p3319
sI216
S'        # do not encapsulate (obfuscate) the original RestrictedError'
p3320
ssS'call'
p3321
S"(code='# -*- coding: utf-8 -*-\\n\\n#######################...=True,widget=SQLFORM.widgets.checkboxes.widget))\\n', environment={'A': <class 'gluon.html.A'>, 'Auth': <class 'gluon.tools.Auth'>, 'B': <class 'gluon.html.B'>, 'BEAUTIFY': <class 'gluon.html.BEAUTIFY'>, 'BODY': <class 'gluon.html.BODY'>, 'BR': <class 'gluon.html.BR'>, 'BUTTON': <class 'gluon.html.BUTTON'>, 'CAT': <class 'gluon.html.CAT'>, 'CENTER': <class 'gluon.html.CENTER'>, 'CLEANUP': <class 'gluon.validators.CLEANUP'>, ...}, layer='/home/gaurav/classwork/WEB_PROGRAMMING/web2py/applications/ggg/models/db.py')"
p3322
sS'func'
p3323
S'restricted'
p3324
sa(dp3325
g3300
S'/home/gaurav/classwork/WEB_PROGRAMMING/web2py/applications/ggg/models/db.py'
p3326
sg3302
(dp3327
S'widget'
p3328
S'undefined'
p3329
sS'multiple'
p3330
g3329
sS'SQLFORM.widgets'
p3331
S"<Storage {'multiple': <class 'gluon.sqlhtml.Mult...ss 'gluon.sqlhtml.OptionsWidget'>, 'blob': None}>"
p3332
sS'builtinTrue'
p3333
g1806
sS'SQLFORM.widgets.checkboxes'
p3334
S"<class 'gluon.sqlhtml.CheckboxesWidget'>"
p3335
sS'SQLFORM.widgets.checkboxes.widget'
p3336
S"<bound method type.widget of <class 'gluon.sqlhtml.CheckboxesWidget'>>"
p3337
sS'Field'
p3338
S"<class 'gluon.dal.Field'>"
p3339
sS'IS_IN_SET'
p3340
S"<class 'gluon.validators.IS_IN_SET'>"
p3341
sS'SQLFORM'
p3342
S"<class 'gluon.sqlhtml.SQLFORM'>"
p3343
sS'requires'
p3344
g3329
ssg3308
I127
sg3309
(dp3345
I118
S"\t  Field('option_b','string'),"
p3346
sI119
S"\t  Field('option_c','string'),"
p3347
sI120
S"\t  Field('option_d','string'),"
p3348
sI121
S"\t  Field('ans','string'),"
p3349
sI122
S"\t  Field('maxmarks','integer'),"
p3350
sI123
S"\t  Field('stid','string',readable=False,writable=False),"
p3351
sI124
S"\t  Field('obtained_marks','integer',default=0,readable=False,writable=False)"
p3352
sI125
S'\t  )'
p3353
sI126
S"db.define_table('answer',"
p3354
sI127
S"\t  Field('op',requires=IS_IN_SET(['A','B','C','D']),multiple=True,widget=SQLFORM.widgets.checkboxes.widget))"
p3355
ssg3321
S'()'
p3356
sg3323
S'<module>'
p3357
sasS'pyver'
p3358
S'Python 2.7.3: /usr/bin/python'
p3359
sS'session'
p3360
g57
(g58
g59
NtRp3361
(dp3362
g62
(dp3363
sg64
(lp3364
g57
(g66
g59
NtRp3365
(dp3366
g62
(dp3367
g70
I5
ssg71
Nsg64
(lp3368
g57
(g73
g59
NtRp3369
(dp3370
g62
(dp3371
sg71
g3365
sg64
(lp3372
g57
(g78
g59
NtRp3373
(dp3374
g62
(dp3375
g82
g83
ssg71
g3369
sg64
(lp3376
S'auth'
p3377
asbag57
(g78
g59
NtRp3378
(dp3379
g62
(dp3380
g89
g90
ssg71
g3369
sg64
(lp3381
S':'
asbag57
(g78
g59
NtRp3382
(dp3383
g62
(dp3384
sg71
g3369
sg64
(lp3385
g57
(g58
g59
NtRp3386
(dp3387
g62
(dp3388
g70
I5
ssg71
g3382
sg64
(lp3389
g57
(g66
g59
NtRp3390
(dp3391
g62
(dp3392
g70
I4
ssg71
Nsg64
(lp3393
g57
(g73
g59
NtRp3394
(dp3395
g62
(dp3396
sg71
g3390
sg64
(lp3397
g57
(g78
g59
NtRp3398
(dp3399
g62
(dp3400
g82
g83
ssg71
g3394
sg64
(lp3401
S'expiration'
p3402
asbag57
(g78
g59
NtRp3403
(dp3404
g62
(dp3405
g89
g90
ssg71
g3394
sg64
(lp3406
S':'
asbag57
(g78
g59
NtRp3407
(dp3408
g62
(dp3409
sg71
g3394
sg64
(lp3410
g57
(g58
g59
NtRp3411
(dp3412
g62
(dp3413
g70
I4
ssg71
g3407
sg64
(lp3414
S'3600'
p3415
asbasbasbag57
(g73
g59
NtRp3416
(dp3417
g62
(dp3418
sg71
g3390
sg64
(lp3419
g57
(g78
g59
NtRp3420
(dp3421
g62
(dp3422
g82
g83
ssg71
g3416
sg64
(lp3423
S'hmac_key'
p3424
asbag57
(g78
g59
NtRp3425
(dp3426
g62
(dp3427
g89
g90
ssg71
g3416
sg64
(lp3428
S':'
asbag57
(g78
g59
NtRp3429
(dp3430
g62
(dp3431
sg71
g3416
sg64
(lp3432
g57
(g58
g59
NtRp3433
(dp3434
g62
(dp3435
g70
I4
ssg71
g3429
sg64
(lp3436
S'164ad20b-5b9b-4240-93e7-6b7698f0feaf'
p3437
asbasbasbag57
(g73
g59
NtRp3438
(dp3439
g62
(dp3440
sg71
g3390
sg64
(lp3441
g57
(g78
g59
NtRp3442
(dp3443
g62
(dp3444
g82
g83
ssg71
g3438
sg64
(lp3445
S'last_visit'
p3446
asbag57
(g78
g59
NtRp3447
(dp3448
g62
(dp3449
g89
g90
ssg71
g3438
sg64
(lp3450
S':'
asbag57
(g78
g59
NtRp3451
(dp3452
g62
(dp3453
sg71
g3438
sg64
(lp3454
g57
(g58
g59
NtRp3455
(dp3456
g62
(dp3457
g70
I4
ssg71
g3451
sg64
(lp3458
S'datetime.datetime(2013, 3, 18, 21, 49, 10, 581914)'
p3459
asbasbasbag57
(g73
g59
NtRp3460
(dp3461
g62
(dp3462
sg71
g3390
sg64
(lp3463
g57
(g78
g59
NtRp3464
(dp3465
g62
(dp3466
g82
g83
ssg71
g3460
sg64
(lp3467
S'remember'
p3468
asbag57
(g78
g59
NtRp3469
(dp3470
g62
(dp3471
g89
g90
ssg71
g3460
sg64
(lp3472
S':'
asbag57
(g78
g59
NtRp3473
(dp3474
g62
(dp3475
sg71
g3460
sg64
(lp3476
g57
(g58
g59
NtRp3477
(dp3478
g62
(dp3479
g70
I4
ssg71
g3473
sg64
(lp3480
g100
asbasbasbag57
(g73
g59
NtRp3481
(dp3482
g62
(dp3483
sg71
g3390
sg64
(lp3484
g57
(g78
g59
NtRp3485
(dp3486
g62
(dp3487
g82
g83
ssg71
g3481
sg64
(lp3488
S'user'
p3489
asbag57
(g78
g59
NtRp3490
(dp3491
g62
(dp3492
g89
g90
ssg71
g3481
sg64
(lp3493
S':'
asbag57
(g78
g59
NtRp3494
(dp3495
g62
(dp3496
sg71
g3481
sg64
(lp3497
g57
(g58
g59
NtRp3498
(dp3499
g62
(dp3500
g70
I4
ssg71
g3494
sg64
(lp3501
g57
(g66
g59
NtRp3502
(dp3503
g62
(dp3504
g70
I3
ssg71
Nsg64
(lp3505
g57
(g73
g59
NtRp3506
(dp3507
g62
(dp3508
sg71
g3502
sg64
(lp3509
g57
(g78
g59
NtRp3510
(dp3511
g62
(dp3512
g82
g83
ssg71
g3506
sg64
(lp3513
S'email'
p3514
asbag57
(g78
g59
NtRp3515
(dp3516
g62
(dp3517
g89
g90
ssg71
g3506
sg64
(lp3518
S':'
asbag57
(g78
g59
NtRp3519
(dp3520
g62
(dp3521
sg71
g3506
sg64
(lp3522
g57
(g58
g59
NtRp3523
(dp3524
g62
(dp3525
g70
I3
ssg71
g3519
sg64
(lp3526
S'kishore@gmail.com'
p3527
asbasbasbag57
(g73
g59
NtRp3528
(dp3529
g62
(dp3530
sg71
g3502
sg64
(lp3531
g57
(g78
g59
NtRp3532
(dp3533
g62
(dp3534
g82
g83
ssg71
g3528
sg64
(lp3535
S'first_name'
p3536
asbag57
(g78
g59
NtRp3537
(dp3538
g62
(dp3539
g89
g90
ssg71
g3528
sg64
(lp3540
S':'
asbag57
(g78
g59
NtRp3541
(dp3542
g62
(dp3543
sg71
g3528
sg64
(lp3544
g57
(g58
g59
NtRp3545
(dp3546
g62
(dp3547
g70
I3
ssg71
g3541
sg64
(lp3548
S'Kishore'
p3549
asbasbasbag57
(g73
g59
NtRp3550
(dp3551
g62
(dp3552
sg71
g3502
sg64
(lp3553
g57
(g78
g59
NtRp3554
(dp3555
g62
(dp3556
g82
g83
ssg71
g3550
sg64
(lp3557
S'id'
p3558
asbag57
(g78
g59
NtRp3559
(dp3560
g62
(dp3561
g89
g90
ssg71
g3550
sg64
(lp3562
S':'
asbag57
(g78
g59
NtRp3563
(dp3564
g62
(dp3565
sg71
g3550
sg64
(lp3566
g57
(g58
g59
NtRp3567
(dp3568
g62
(dp3569
g70
I3
ssg71
g3563
sg64
(lp3570
S'16'
p3571
asbasbasbag57
(g73
g59
NtRp3572
(dp3573
g62
(dp3574
sg71
g3502
sg64
(lp3575
g57
(g78
g59
NtRp3576
(dp3577
g62
(dp3578
g82
g83
ssg71
g3572
sg64
(lp3579
S'last_name'
p3580
asbag57
(g78
g59
NtRp3581
(dp3582
g62
(dp3583
g89
g90
ssg71
g3572
sg64
(lp3584
S':'
asbag57
(g78
g59
NtRp3585
(dp3586
g62
(dp3587
sg71
g3572
sg64
(lp3588
g57
(g58
g59
NtRp3589
(dp3590
g62
(dp3591
g70
I3
ssg71
g3585
sg64
(lp3592
S'Kothapalli'
p3593
asbasbasbag57
(g73
g59
NtRp3594
(dp3595
g62
(dp3596
sg71
g3502
sg64
(lp3597
g57
(g78
g59
NtRp3598
(dp3599
g62
(dp3600
g82
g83
ssg71
g3594
sg64
(lp3601
S'registration_id'
p3602
asbag57
(g78
g59
NtRp3603
(dp3604
g62
(dp3605
g89
g90
ssg71
g3594
sg64
(lp3606
S':'
asbag57
(g78
g59
NtRp3607
(dp3608
g62
(dp3609
sg71
g3594
sg64
(lp3610
g57
(g58
g59
NtRp3611
(dp3612
g62
(dp3613
g70
I3
ssg71
g3607
sg64
(lp3614
S''
asbasbasbag57
(g73
g59
NtRp3615
(dp3616
g62
(dp3617
sg71
g3502
sg64
(lp3618
g57
(g78
g59
NtRp3619
(dp3620
g62
(dp3621
g82
g83
ssg71
g3615
sg64
(lp3622
S'registration_key'
p3623
asbag57
(g78
g59
NtRp3624
(dp3625
g62
(dp3626
g89
g90
ssg71
g3615
sg64
(lp3627
S':'
asbag57
(g78
g59
NtRp3628
(dp3629
g62
(dp3630
sg71
g3615
sg64
(lp3631
g57
(g58
g59
NtRp3632
(dp3633
g62
(dp3634
g70
I3
ssg71
g3628
sg64
(lp3635
S''
asbasbasbag57
(g73
g59
NtRp3636
(dp3637
g62
(dp3638
sg71
g3502
sg64
(lp3639
g57
(g78
g59
NtRp3640
(dp3641
g62
(dp3642
g82
g83
ssg71
g3636
sg64
(lp3643
S'reset_password_key'
p3644
asbag57
(g78
g59
NtRp3645
(dp3646
g62
(dp3647
g89
g90
ssg71
g3636
sg64
(lp3648
S':'
asbag57
(g78
g59
NtRp3649
(dp3650
g62
(dp3651
sg71
g3636
sg64
(lp3652
g57
(g58
g59
NtRp3653
(dp3654
g62
(dp3655
g70
I3
ssg71
g3649
sg64
(lp3656
S''
asbasbasbasbasbasbasbag57
(g73
g59
NtRp3657
(dp3658
g62
(dp3659
sg71
g3390
sg64
(lp3660
g57
(g78
g59
NtRp3661
(dp3662
g62
(dp3663
g82
g83
ssg71
g3657
sg64
(lp3664
S'user_groups'
p3665
asbag57
(g78
g59
NtRp3666
(dp3667
g62
(dp3668
g89
g90
ssg71
g3657
sg64
(lp3669
S':'
asbag57
(g78
g59
NtRp3670
(dp3671
g62
(dp3672
sg71
g3657
sg64
(lp3673
g57
(g58
g59
NtRp3674
(dp3675
g62
(dp3676
g70
I4
ssg71
g3670
sg64
(lp3677
g57
(g66
g59
NtRp3678
(dp3679
g62
(dp3680
g70
I3
ssg71
Nsg64
(lp3681
g57
(g73
g59
NtRp3682
(dp3683
g62
(dp3684
sg71
g3678
sg64
(lp3685
g57
(g78
g59
NtRp3686
(dp3687
g62
(dp3688
g82
g83
ssg71
g3682
sg64
(lp3689
S'17'
p3690
asbag57
(g78
g59
NtRp3691
(dp3692
g62
(dp3693
g89
g90
ssg71
g3682
sg64
(lp3694
S':'
asbag57
(g78
g59
NtRp3695
(dp3696
g62
(dp3697
sg71
g3682
sg64
(lp3698
g57
(g58
g59
NtRp3699
(dp3700
g62
(dp3701
g70
I3
ssg71
g3695
sg64
(lp3702
S'IIIT_FACULTY_DEPARTMENT'
p3703
asbasbasbasbasbasbasbasbasbasbasbag57
(g73
g59
NtRp3704
(dp3705
g62
(dp3706
sg71
g3365
sg64
(lp3707
g57
(g78
g59
NtRp3708
(dp3709
g62
(dp3710
g82
g83
ssg71
g3704
sg64
(lp3711
S'flash'
p3712
asbag57
(g78
g59
NtRp3713
(dp3714
g62
(dp3715
g89
g90
ssg71
g3704
sg64
(lp3716
S':'
asbag57
(g78
g59
NtRp3717
(dp3718
g62
(dp3719
sg71
g3704
sg64
(lp3720
g57
(g58
g59
NtRp3721
(dp3722
g62
(dp3723
g70
I5
ssg71
g3717
sg64
(lp3724
S'None'
p3725
asbasbasbag57
(g73
g59
NtRp3726
(dp3727
g62
(dp3728
sg71
g3365
sg64
(lp3729
g57
(g78
g59
NtRp3730
(dp3731
g62
(dp3732
g82
g83
ssg71
g3726
sg64
(lp3733
S'last_orderby'
p3734
asbag57
(g78
g59
NtRp3735
(dp3736
g62
(dp3737
g89
g90
ssg71
g3726
sg64
(lp3738
S':'
asbag57
(g78
g59
NtRp3739
(dp3740
g62
(dp3741
sg71
g3726
sg64
(lp3742
g57
(g58
g59
NtRp3743
(dp3744
g62
(dp3745
g70
I5
ssg71
g3739
sg64
(lp3746
S'None'
p3747
asbasbasbag57
(g73
g59
NtRp3748
(dp3749
g62
(dp3750
sg71
g3365
sg64
(lp3751
g57
(g78
g59
NtRp3752
(dp3753
g62
(dp3754
g82
g83
ssg71
g3748
sg64
(lp3755
S'last_query'
p3756
asbag57
(g78
g59
NtRp3757
(dp3758
g62
(dp3759
g89
g90
ssg71
g3748
sg64
(lp3760
S':'
asbag57
(g78
g59
NtRp3761
(dp3762
g62
(dp3763
sg71
g3748
sg64
(lp3764
g57
(g58
g59
NtRp3765
(dp3766
g62
(dp3767
g70
I5
ssg71
g3761
sg64
(lp3768
S'db.answer.id>0'
p3769
asbasbasbasbasbsS'etype'
p3770
S"<type 'exceptions.TypeError'>"
p3771
sS'date'
p3772
S'Mon Mar 18 21:55:01 2013'
p3773
sS'response'
p3774
g57
(g58
g59
NtRp3775
(dp3776
g62
(dp3777
sg64
(lp3778
g57
(g66
g59
NtRp3779
(dp3780
g62
(dp3781
g70
I5
ssg71
Nsg64
(lp3782
g57
(g73
g59
NtRp3783
(dp3784
g62
(dp3785
sg71
g3779
sg64
(lp3786
g57
(g78
g59
NtRp3787
(dp3788
g62
(dp3789
g82
g83
ssg71
g3783
sg64
(lp3790
g168
asbag57
(g78
g59
NtRp3791
(dp3792
g62
(dp3793
g89
g90
ssg71
g3783
sg64
(lp3794
S':'
asbag57
(g78
g59
NtRp3795
(dp3796
g62
(dp3797
sg71
g3783
sg64
(lp3798
g57
(g58
g59
NtRp3799
(dp3800
g62
(dp3801
g70
I5
ssg71
g3795
sg64
(lp3802
S'<cStringIO.StringO object at 0xa2616c0>'
p3803
asbasbasbag57
(g73
g59
NtRp3804
(dp3805
g62
(dp3806
sg71
g3779
sg64
(lp3807
g57
(g78
g59
NtRp3808
(dp3809
g62
(dp3810
g82
g83
ssg71
g3804
sg64
(lp3811
g256
asbag57
(g78
g59
NtRp3812
(dp3813
g62
(dp3814
g89
g90
ssg71
g3804
sg64
(lp3815
S':'
asbag57
(g78
g59
NtRp3816
(dp3817
g62
(dp3818
sg71
g3804
sg64
(lp3819
g57
(g58
g59
NtRp3820
(dp3821
g62
(dp3822
g70
I5
ssg71
g3816
sg64
(lp3823
g57
(g66
g59
NtRp3824
(dp3825
g62
(dp3826
g70
I4
ssg71
Nsg64
(lp3827
g57
(g73
g59
NtRp3828
(dp3829
g62
(dp3830
sg71
g3824
sg64
(lp3831
g57
(g78
g59
NtRp3832
(dp3833
g62
(dp3834
g82
g83
ssg71
g3828
sg64
(lp3835
S'session_id_ggg'
p3836
asbag57
(g78
g59
NtRp3837
(dp3838
g62
(dp3839
g89
g90
ssg71
g3828
sg64
(lp3840
S':'
asbag57
(g78
g59
NtRp3841
(dp3842
g62
(dp3843
sg71
g3828
sg64
(lp3844
g57
(g58
g59
NtRp3845
(dp3846
g62
(dp3847
g70
I4
ssg71
g3841
sg64
(lp3848
g488
ag57
(g66
g59
NtRp3849
(dp3850
g62
(dp3851
g70
I3
ssg71
Nsg64
(lp3852
g57
(g73
g59
NtRp3853
(dp3854
g62
(dp3855
sg71
g3849
sg64
(lp3856
g57
(g78
g59
NtRp3857
(dp3858
g62
(dp3859
g82
g83
ssg71
g3853
sg64
(lp3860
g307
asbag57
(g78
g59
NtRp3861
(dp3862
g62
(dp3863
g89
g90
ssg71
g3853
sg64
(lp3864
S':'
asbag57
(g78
g59
NtRp3865
(dp3866
g62
(dp3867
sg71
g3853
sg64
(lp3868
g57
(g58
g59
NtRp3869
(dp3870
g62
(dp3871
g70
I3
ssg71
g3865
sg64
(lp3872
S''
asbasbasbag57
(g73
g59
NtRp3873
(dp3874
g62
(dp3875
sg71
g3849
sg64
(lp3876
g57
(g78
g59
NtRp3877
(dp3878
g62
(dp3879
g82
g83
ssg71
g3873
sg64
(lp3880
g328
asbag57
(g78
g59
NtRp3881
(dp3882
g62
(dp3883
g89
g90
ssg71
g3873
sg64
(lp3884
S':'
asbag57
(g78
g59
NtRp3885
(dp3886
g62
(dp3887
sg71
g3873
sg64
(lp3888
g57
(g58
g59
NtRp3889
(dp3890
g62
(dp3891
g70
I3
ssg71
g3885
sg64
(lp3892
S''
asbasbasbag57
(g73
g59
NtRp3893
(dp3894
g62
(dp3895
sg71
g3849
sg64
(lp3896
g57
(g78
g59
NtRp3897
(dp3898
g62
(dp3899
g82
g83
ssg71
g3893
sg64
(lp3900
g349
asbag57
(g78
g59
NtRp3901
(dp3902
g62
(dp3903
g89
g90
ssg71
g3893
sg64
(lp3904
S':'
asbag57
(g78
g59
NtRp3905
(dp3906
g62
(dp3907
sg71
g3893
sg64
(lp3908
g57
(g58
g59
NtRp3909
(dp3910
g62
(dp3911
g70
I3
ssg71
g3905
sg64
(lp3912
S''
asbasbasbag57
(g73
g59
NtRp3913
(dp3914
g62
(dp3915
sg71
g3849
sg64
(lp3916
g57
(g78
g59
NtRp3917
(dp3918
g62
(dp3919
g82
g83
ssg71
g3913
sg64
(lp3920
g370
asbag57
(g78
g59
NtRp3921
(dp3922
g62
(dp3923
g89
g90
ssg71
g3913
sg64
(lp3924
S':'
asbag57
(g78
g59
NtRp3925
(dp3926
g62
(dp3927
sg71
g3913
sg64
(lp3928
g57
(g58
g59
NtRp3929
(dp3930
g62
(dp3931
g70
I3
ssg71
g3925
sg64
(lp3932
S''
asbasbasbag57
(g73
g59
NtRp3933
(dp3934
g62
(dp3935
sg71
g3849
sg64
(lp3936
g57
(g78
g59
NtRp3937
(dp3938
g62
(dp3939
g82
g83
ssg71
g3933
sg64
(lp3940
g391
asbag57
(g78
g59
NtRp3941
(dp3942
g62
(dp3943
g89
g90
ssg71
g3933
sg64
(lp3944
S':'
asbag57
(g78
g59
NtRp3945
(dp3946
g62
(dp3947
sg71
g3933
sg64
(lp3948
g57
(g58
g59
NtRp3949
(dp3950
g62
(dp3951
g70
I3
ssg71
g3945
sg64
(lp3952
S''
asbasbasbag57
(g73
g59
NtRp3953
(dp3954
g62
(dp3955
sg71
g3849
sg64
(lp3956
g57
(g78
g59
NtRp3957
(dp3958
g62
(dp3959
g82
g83
ssg71
g3953
sg64
(lp3960
g412
asbag57
(g78
g59
NtRp3961
(dp3962
g62
(dp3963
g89
g90
ssg71
g3953
sg64
(lp3964
S':'
asbag57
(g78
g59
NtRp3965
(dp3966
g62
(dp3967
sg71
g3953
sg64
(lp3968
g57
(g58
g59
NtRp3969
(dp3970
g62
(dp3971
g70
I3
ssg71
g3965
sg64
(lp3972
S'/'
asbasbasbag57
(g73
g59
NtRp3973
(dp3974
g62
(dp3975
sg71
g3849
sg64
(lp3976
g57
(g78
g59
NtRp3977
(dp3978
g62
(dp3979
g82
g83
ssg71
g3973
sg64
(lp3980
g433
asbag57
(g78
g59
NtRp3981
(dp3982
g62
(dp3983
g89
g90
ssg71
g3973
sg64
(lp3984
S':'
asbag57
(g78
g59
NtRp3985
(dp3986
g62
(dp3987
sg71
g3973
sg64
(lp3988
g57
(g58
g59
NtRp3989
(dp3990
g62
(dp3991
g70
I3
ssg71
g3985
sg64
(lp3992
S''
asbasbasbag57
(g73
g59
NtRp3993
(dp3994
g62
(dp3995
sg71
g3849
sg64
(lp3996
g57
(g78
g59
NtRp3997
(dp3998
g62
(dp3999
g82
g83
ssg71
g3993
sg64
(lp4000
g454
asbag57
(g78
g59
NtRp4001
(dp4002
g62
(dp4003
g89
g90
ssg71
g3993
sg64
(lp4004
S':'
asbag57
(g78
g59
NtRp4005
(dp4006
g62
(dp4007
sg71
g3993
sg64
(lp4008
g57
(g58
g59
NtRp4009
(dp4010
g62
(dp4011
g70
I3
ssg71
g4005
sg64
(lp4012
S''
asbasbasbasbasbasbasbasbasbasbasbag57
(g73
g59
NtRp4013
(dp4014
g62
(dp4015
sg71
g3779
sg64
(lp4016
g57
(g78
g59
NtRp4017
(dp4018
g62
(dp4019
g82
g83
ssg71
g4013
sg64
(lp4020
S'delimiters'
p4021
asbag57
(g78
g59
NtRp4022
(dp4023
g62
(dp4024
g89
g90
ssg71
g4013
sg64
(lp4025
S':'
asbag57
(g78
g59
NtRp4026
(dp4027
g62
(dp4028
sg71
g4013
sg64
(lp4029
g57
(g58
g59
NtRp4030
(dp4031
g62
(dp4032
g70
I5
ssg71
g4026
sg64
(lp4033
g57
(g66
g59
NtRp4034
(dp4035
g62
(dp4036
g70
I4
ssg71
Nsg64
(lp4037
g57
(g73
g59
NtRp4038
(dp4039
g62
(dp4040
sg71
g4034
sg64
(lp4041
g57
(g78
g59
NtRp4042
(dp4043
g62
(dp4044
sg71
g4038
sg64
(lp4045
g57
(g58
g59
NtRp4046
(dp4047
g62
(dp4048
g70
I4
ssg71
g4042
sg64
(lp4049
S'{{'
p4050
asbasbasbag57
(g73
g59
NtRp4051
(dp4052
g62
(dp4053
sg71
g4034
sg64
(lp4054
g57
(g78
g59
NtRp4055
(dp4056
g62
(dp4057
sg71
g4051
sg64
(lp4058
g57
(g58
g59
NtRp4059
(dp4060
g62
(dp4061
g70
I4
ssg71
g4055
sg64
(lp4062
S'}}'
p4063
asbasbasbasbasbasbasbag57
(g73
g59
NtRp4064
(dp4065
g62
(dp4066
sg71
g3779
sg64
(lp4067
g57
(g78
g59
NtRp4068
(dp4069
g62
(dp4070
g82
g83
ssg71
g4064
sg64
(lp4071
S'files'
p4072
asbag57
(g78
g59
NtRp4073
(dp4074
g62
(dp4075
g89
g90
ssg71
g4064
sg64
(lp4076
S':'
asbag57
(g78
g59
NtRp4077
(dp4078
g62
(dp4079
sg71
g4064
sg64
(lp4080
g57
(g58
g59
NtRp4081
(dp4082
g62
(dp4083
g70
I5
ssg71
g4077
sg64
(lp4084
g57
(g66
g59
NtRp4085
(dp4086
g62
(dp4087
g70
I4
ssg71
Nsg64
(lp4088
sbasbasbasbag57
(g73
g59
NtRp4089
(dp4090
g62
(dp4091
sg71
g3779
sg64
(lp4092
g57
(g78
g59
NtRp4093
(dp4094
g62
(dp4095
g82
g83
ssg71
g4089
sg64
(lp4096
S'flash'
p4097
asbag57
(g78
g59
NtRp4098
(dp4099
g62
(dp4100
g89
g90
ssg71
g4089
sg64
(lp4101
S':'
asbag57
(g78
g59
NtRp4102
(dp4103
g62
(dp4104
sg71
g4089
sg64
(lp4105
g57
(g58
g59
NtRp4106
(dp4107
g62
(dp4108
g70
I5
ssg71
g4102
sg64
(lp4109
S''
asbasbasbag57
(g73
g59
NtRp4110
(dp4111
g62
(dp4112
sg71
g3779
sg64
(lp4113
g57
(g78
g59
NtRp4114
(dp4115
g62
(dp4116
g82
g83
ssg71
g4110
sg64
(lp4117
S'generic_patterns'
p4118
asbag57
(g78
g59
NtRp4119
(dp4120
g62
(dp4121
g89
g90
ssg71
g4110
sg64
(lp4122
S':'
asbag57
(g78
g59
NtRp4123
(dp4124
g62
(dp4125
sg71
g4110
sg64
(lp4126
g57
(g58
g59
NtRp4127
(dp4128
g62
(dp4129
g70
I5
ssg71
g4123
sg64
(lp4130
g57
(g66
g59
NtRp4131
(dp4132
g62
(dp4133
g70
I4
ssg71
Nsg64
(lp4134
g57
(g73
g59
NtRp4135
(dp4136
g62
(dp4137
sg71
g4131
sg64
(lp4138
g57
(g78
g59
NtRp4139
(dp4140
g62
(dp4141
sg71
g4135
sg64
(lp4142
g57
(g58
g59
NtRp4143
(dp4144
g62
(dp4145
g70
I4
ssg71
g4139
sg64
(lp4146
S'*'
asbasbasbasbasbasbasbag57
(g73
g59
NtRp4147
(dp4148
g62
(dp4149
sg71
g3779
sg64
(lp4150
g57
(g78
g59
NtRp4151
(dp4152
g62
(dp4153
g82
g83
ssg71
g4147
sg64
(lp4154
S'headers'
p4155
asbag57
(g78
g59
NtRp4156
(dp4157
g62
(dp4158
g89
g90
ssg71
g4147
sg64
(lp4159
S':'
asbag57
(g78
g59
NtRp4160
(dp4161
g62
(dp4162
sg71
g4147
sg64
(lp4163
g57
(g58
g59
NtRp4164
(dp4165
g62
(dp4166
g70
I5
ssg71
g4160
sg64
(lp4167
g57
(g66
g59
NtRp4168
(dp4169
g62
(dp4170
g70
I4
ssg71
Nsg64
(lp4171
g57
(g73
g59
NtRp4172
(dp4173
g62
(dp4174
sg71
g4168
sg64
(lp4175
g57
(g78
g59
NtRp4176
(dp4177
g62
(dp4178
g82
g83
ssg71
g4172
sg64
(lp4179
S'X-Powered-By'
p4180
asbag57
(g78
g59
NtRp4181
(dp4182
g62
(dp4183
g89
g90
ssg71
g4172
sg64
(lp4184
S':'
asbag57
(g78
g59
NtRp4185
(dp4186
g62
(dp4187
sg71
g4172
sg64
(lp4188
g57
(g58
g59
NtRp4189
(dp4190
g62
(dp4191
g70
I4
ssg71
g4185
sg64
(lp4192
S'web2py'
p4193
asbasbasbasbasbasbasbag57
(g73
g59
NtRp4194
(dp4195
g62
(dp4196
sg71
g3779
sg64
(lp4197
g57
(g78
g59
NtRp4198
(dp4199
g62
(dp4200
g82
g83
ssg71
g4194
sg64
(lp4201
S'menu'
p4202
asbag57
(g78
g59
NtRp4203
(dp4204
g62
(dp4205
g89
g90
ssg71
g4194
sg64
(lp4206
S':'
asbag57
(g78
g59
NtRp4207
(dp4208
g62
(dp4209
sg71
g4194
sg64
(lp4210
g57
(g58
g59
NtRp4211
(dp4212
g62
(dp4213
g70
I5
ssg71
g4207
sg64
(lp4214
g57
(g66
g59
NtRp4215
(dp4216
g62
(dp4217
g70
I4
ssg71
Nsg64
(lp4218
sbasbasbasbag57
(g73
g59
NtRp4219
(dp4220
g62
(dp4221
sg71
g3779
sg64
(lp4222
g57
(g78
g59
NtRp4223
(dp4224
g62
(dp4225
g82
g83
ssg71
g4219
sg64
(lp4226
S'meta'
p4227
asbag57
(g78
g59
NtRp4228
(dp4229
g62
(dp4230
g89
g90
ssg71
g4219
sg64
(lp4231
S':'
asbag57
(g78
g59
NtRp4232
(dp4233
g62
(dp4234
sg71
g4219
sg64
(lp4235
g57
(g58
g59
NtRp4236
(dp4237
g62
(dp4238
g70
I5
ssg71
g4232
sg64
(lp4239
g57
(g66
g59
NtRp4240
(dp4241
g62
(dp4242
g70
I4
ssg71
Nsg64
(lp4243
sbasbasbasbag57
(g73
g59
NtRp4244
(dp4245
g62
(dp4246
sg71
g3779
sg64
(lp4247
g57
(g78
g59
NtRp4248
(dp4249
g62
(dp4250
g82
g83
ssg71
g4244
sg64
(lp4251
S'models_to_run'
p4252
asbag57
(g78
g59
NtRp4253
(dp4254
g62
(dp4255
g89
g90
ssg71
g4244
sg64
(lp4256
S':'
asbag57
(g78
g59
NtRp4257
(dp4258
g62
(dp4259
sg71
g4244
sg64
(lp4260
g57
(g58
g59
NtRp4261
(dp4262
g62
(dp4263
g70
I5
ssg71
g4257
sg64
(lp4264
g57
(g66
g59
NtRp4265
(dp4266
g62
(dp4267
g70
I4
ssg71
Nsg64
(lp4268
g57
(g73
g59
NtRp4269
(dp4270
g62
(dp4271
sg71
g4265
sg64
(lp4272
g57
(g78
g59
NtRp4273
(dp4274
g62
(dp4275
sg71
g4269
sg64
(lp4276
g57
(g58
g59
NtRp4277
(dp4278
g62
(dp4279
g70
I4
ssg71
g4273
sg64
(lp4280
S'^\\w+\\.py$'
p4281
asbasbasbag57
(g73
g59
NtRp4282
(dp4283
g62
(dp4284
sg71
g4265
sg64
(lp4285
g57
(g78
g59
NtRp4286
(dp4287
g62
(dp4288
sg71
g4282
sg64
(lp4289
g57
(g58
g59
NtRp4290
(dp4291
g62
(dp4292
g70
I4
ssg71
g4286
sg64
(lp4293
S'^appadmin/\\w+\\.py$'
p4294
asbasbasbag57
(g73
g59
NtRp4295
(dp4296
g62
(dp4297
sg71
g4265
sg64
(lp4298
g57
(g78
g59
NtRp4299
(dp4300
g62
(dp4301
sg71
g4295
sg64
(lp4302
g57
(g58
g59
NtRp4303
(dp4304
g62
(dp4305
g70
I4
ssg71
g4299
sg64
(lp4306
S'^appadmin/select/\\w+\\.py$'
p4307
asbasbasbasbasbasbasbag57
(g73
g59
NtRp4308
(dp4309
g62
(dp4310
sg71
g3779
sg64
(lp4311
g57
(g78
g59
NtRp4312
(dp4313
g62
(dp4314
g82
g83
ssg71
g4308
sg64
(lp4315
S'postprocessing'
p4316
asbag57
(g78
g59
NtRp4317
(dp4318
g62
(dp4319
g89
g90
ssg71
g4308
sg64
(lp4320
S':'
asbag57
(g78
g59
NtRp4321
(dp4322
g62
(dp4323
sg71
g4308
sg64
(lp4324
g57
(g58
g59
NtRp4325
(dp4326
g62
(dp4327
g70
I5
ssg71
g4321
sg64
(lp4328
g57
(g66
g59
NtRp4329
(dp4330
g62
(dp4331
g70
I4
ssg71
Nsg64
(lp4332
sbasbasbasbag57
(g73
g59
NtRp4333
(dp4334
g62
(dp4335
sg71
g3779
sg64
(lp4336
g57
(g78
g59
NtRp4337
(dp4338
g62
(dp4339
g82
g83
ssg71
g4333
sg64
(lp4340
S'session_cookie_expires'
p4341
asbag57
(g78
g59
NtRp4342
(dp4343
g62
(dp4344
g89
g90
ssg71
g4333
sg64
(lp4345
S':'
asbag57
(g78
g59
NtRp4346
(dp4347
g62
(dp4348
sg71
g4333
sg64
(lp4349
g57
(g58
g59
NtRp4350
(dp4351
g62
(dp4352
g70
I5
ssg71
g4346
sg64
(lp4353
S'None'
p4354
asbasbasbag57
(g73
g59
NtRp4355
(dp4356
g62
(dp4357
sg71
g3779
sg64
(lp4358
g57
(g78
g59
NtRp4359
(dp4360
g62
(dp4361
g82
g83
ssg71
g4355
sg64
(lp4362
S'session_data_name'
p4363
asbag57
(g78
g59
NtRp4364
(dp4365
g62
(dp4366
g89
g90
ssg71
g4355
sg64
(lp4367
S':'
asbag57
(g78
g59
NtRp4368
(dp4369
g62
(dp4370
sg71
g4355
sg64
(lp4371
g57
(g58
g59
NtRp4372
(dp4373
g62
(dp4374
g70
I5
ssg71
g4368
sg64
(lp4375
S'session_data_ggg'
p4376
asbasbasbag57
(g73
g59
NtRp4377
(dp4378
g62
(dp4379
sg71
g3779
sg64
(lp4380
g57
(g78
g59
NtRp4381
(dp4382
g62
(dp4383
g82
g83
ssg71
g4377
sg64
(lp4384
S'session_file'
p4385
asbag57
(g78
g59
NtRp4386
(dp4387
g62
(dp4388
g89
g90
ssg71
g4377
sg64
(lp4389
S':'
asbag57
(g78
g59
NtRp4390
(dp4391
g62
(dp4392
sg71
g4377
sg64
(lp4393
g57
(g58
g59
NtRp4394
(dp4395
g62
(dp4396
g70
I5
ssg71
g4390
sg64
(lp4397
S"<open file '/home/gaurav/classwork/WEB_PROGRAMMING/web2py/applications/ggg/sessions/127.0.0.1-409e99a1-9a33-4932-9c2d-5a3b3471484a', mode 'rb+' at 0xae264860>"
p4398
asbasbasbag57
(g73
g59
NtRp4399
(dp4400
g62
(dp4401
sg71
g3779
sg64
(lp4402
g57
(g78
g59
NtRp4403
(dp4404
g62
(dp4405
g82
g83
ssg71
g4399
sg64
(lp4406
S'session_filename'
p4407
asbag57
(g78
g59
NtRp4408
(dp4409
g62
(dp4410
g89
g90
ssg71
g4399
sg64
(lp4411
S':'
asbag57
(g78
g59
NtRp4412
(dp4413
g62
(dp4414
sg71
g4399
sg64
(lp4415
g57
(g58
g59
NtRp4416
(dp4417
g62
(dp4418
g70
I5
ssg71
g4412
sg64
(lp4419
S'/home/gaurav/classwork/WEB_PROGRAMMING/web2py/applications/ggg/sessions/127.0.0.1-409e99a1-9a33-4932-9c2d-5a3b3471484a'
p4420
asbasbasbag57
(g73
g59
NtRp4421
(dp4422
g62
(dp4423
sg71
g3779
sg64
(lp4424
g57
(g78
g59
NtRp4425
(dp4426
g62
(dp4427
g82
g83
ssg71
g4421
sg64
(lp4428
S'session_id'
p4429
asbag57
(g78
g59
NtRp4430
(dp4431
g62
(dp4432
g89
g90
ssg71
g4421
sg64
(lp4433
S':'
asbag57
(g78
g59
NtRp4434
(dp4435
g62
(dp4436
sg71
g4421
sg64
(lp4437
g57
(g58
g59
NtRp4438
(dp4439
g62
(dp4440
g70
I5
ssg71
g4434
sg64
(lp4441
g488
asbasbasbag57
(g73
g59
NtRp4442
(dp4443
g62
(dp4444
sg71
g3779
sg64
(lp4445
g57
(g78
g59
NtRp4446
(dp4447
g62
(dp4448
g82
g83
ssg71
g4442
sg64
(lp4449
S'session_id_name'
p4450
asbag57
(g78
g59
NtRp4451
(dp4452
g62
(dp4453
g89
g90
ssg71
g4442
sg64
(lp4454
S':'
asbag57
(g78
g59
NtRp4455
(dp4456
g62
(dp4457
sg71
g4442
sg64
(lp4458
g57
(g58
g59
NtRp4459
(dp4460
g62
(dp4461
g70
I5
ssg71
g4455
sg64
(lp4462
g3836
asbasbasbag57
(g73
g59
NtRp4463
(dp4464
g62
(dp4465
sg71
g3779
sg64
(lp4466
g57
(g78
g59
NtRp4467
(dp4468
g62
(dp4469
g82
g83
ssg71
g4463
sg64
(lp4470
S'session_locked'
p4471
asbag57
(g78
g59
NtRp4472
(dp4473
g62
(dp4474
g89
g90
ssg71
g4463
sg64
(lp4475
S':'
asbag57
(g78
g59
NtRp4476
(dp4477
g62
(dp4478
sg71
g4463
sg64
(lp4479
g57
(g58
g59
NtRp4480
(dp4481
g62
(dp4482
g70
I5
ssg71
g4476
sg64
(lp4483
g1806
asbasbasbag57
(g73
g59
NtRp4484
(dp4485
g62
(dp4486
sg71
g3779
sg64
(lp4487
g57
(g78
g59
NtRp4488
(dp4489
g62
(dp4490
g82
g83
ssg71
g4484
sg64
(lp4491
S'session_new'
p4492
asbag57
(g78
g59
NtRp4493
(dp4494
g62
(dp4495
g89
g90
ssg71
g4484
sg64
(lp4496
S':'
asbag57
(g78
g59
NtRp4497
(dp4498
g62
(dp4499
sg71
g4484
sg64
(lp4500
g57
(g58
g59
NtRp4501
(dp4502
g62
(dp4503
g70
I5
ssg71
g4497
sg64
(lp4504
g100
asbasbasbag57
(g73
g59
NtRp4505
(dp4506
g62
(dp4507
sg71
g3779
sg64
(lp4508
g57
(g78
g59
NtRp4509
(dp4510
g62
(dp4511
g82
g83
ssg71
g4505
sg64
(lp4512
S'session_storage_type'
p4513
asbag57
(g78
g59
NtRp4514
(dp4515
g62
(dp4516
g89
g90
ssg71
g4505
sg64
(lp4517
S':'
asbag57
(g78
g59
NtRp4518
(dp4519
g62
(dp4520
sg71
g4505
sg64
(lp4521
g57
(g58
g59
NtRp4522
(dp4523
g62
(dp4524
g70
I5
ssg71
g4518
sg64
(lp4525
g3300
asbasbasbag57
(g73
g59
NtRp4526
(dp4527
g62
(dp4528
sg71
g3779
sg64
(lp4529
g57
(g78
g59
NtRp4530
(dp4531
g62
(dp4532
g82
g83
ssg71
g4526
sg64
(lp4533
S'status'
p4534
asbag57
(g78
g59
NtRp4535
(dp4536
g62
(dp4537
g89
g90
ssg71
g4526
sg64
(lp4538
S':'
asbag57
(g78
g59
NtRp4539
(dp4540
g62
(dp4541
sg71
g4526
sg64
(lp4542
g57
(g58
g59
NtRp4543
(dp4544
g62
(dp4545
g70
I5
ssg71
g4539
sg64
(lp4546
S'200'
p4547
asbasbasbag57
(g73
g59
NtRp4548
(dp4549
g62
(dp4550
sg71
g3779
sg64
(lp4551
g57
(g78
g59
NtRp4552
(dp4553
g62
(dp4554
g82
g83
ssg71
g4548
sg64
(lp4555
S'view'
p4556
asbag57
(g78
g59
NtRp4557
(dp4558
g62
(dp4559
g89
g90
ssg71
g4548
sg64
(lp4560
S':'
asbag57
(g78
g59
NtRp4561
(dp4562
g62
(dp4563
sg71
g4548
sg64
(lp4564
g57
(g58
g59
NtRp4565
(dp4566
g62
(dp4567
g70
I5
ssg71
g4561
sg64
(lp4568
S'appadmin/select.html'
p4569
asbasbasbasbasbsS'locals'
p4570
(dp4571
S'Service'
p4572
S"<class 'gluon.tools.Service'>"
p4573
sS'OBJECT'
p4574
S"<class 'gluon.html.OBJECT'>"
p4575
sS'SQLDB'
p4576
S"<class 'gluon.dal.DAL'>"
p4577
sg3360
S"<Storage {'last_query': 'db.answer.id>0', '_form...login]': 'a3cb0bda-1dc4-4af7-968e-e098b2279761'}>"
p4578
sS'LINK'
p4579
S"<class 'gluon.html.LINK'>"
p4580
sS'BR'
p4581
S"<class 'gluon.html.BR'>"
p4582
sS'local_import'
p4583
S'<function <lambda>>'
p4584
sS'OPTGROUP'
p4585
S"<class 'gluon.html.OPTGROUP'>"
p4586
sS'__package__'
p4587
S'None'
p4588
sS'PRE'
p4589
S"<class 'gluon.html.PRE'>"
p4590
sS'IS_INT_IN_RANGE'
p4591
S"<class 'gluon.validators.IS_INT_IN_RANGE'>"
p4592
sS'IS_LOWER'
p4593
S"<class 'gluon.validators.IS_LOWER'>"
p4594
sS'IS_STRONG'
p4595
S"<class 'gluon.validators.IS_STRONG'>"
p4596
sS'cache'
p4597
S'<gluon.cache.Cache object>'
p4598
sS'IS_IN_DB'
p4599
S"<class 'gluon.validators.IS_IN_DB'>"
p4600
sS'TAG'
p4601
S'<gluon.html.__TAG__ object>'
p4602
sS'SQLField'
p4603
S"<class 'gluon.dal.Field'>"
p4604
sS'mail'
p4605
S'<gluon.tools.Mail object>'
p4606
sS'BODY'
p4607
S"<class 'gluon.html.BODY'>"
p4608
sS'IS_DATE_IN_RANGE'
p4609
S"<class 'gluon.validators.IS_DATE_IN_RANGE'>"
p4610
sS'TH'
p4611
S"<class 'gluon.html.TH'>"
p4612
sS'URL'
p4613
S'<function URL>'
p4614
sS'__file__'
p4615
S"'/home/gaurav/classwork/WEB_PROGRAMMING/web2py/applications/ggg/models/db.py'"
p4616
sS'db'
p4617
S'<DAL uri="sqlite://storage.sqlite">'
p4618
sS'auth'
p4619
S'<gluon.tools.Auth object>'
p4620
sS'P'
S"<class 'gluon.html.P'>"
p4621
sS'TFOOT'
p4622
S"<class 'gluon.html.TFOOT'>"
p4623
sS'XHTML'
p4624
S"<class 'gluon.html.XHTML'>"
p4625
sS'ON'
p4626
g1806
sS'OL'
p4627
S"<class 'gluon.html.OL'>"
p4628
sS'TEXTAREA'
p4629
S"<class 'gluon.html.TEXTAREA'>"
p4630
sS'MENU'
p4631
S"<class 'gluon.html.MENU'>"
p4632
sS'LOAD'
p4633
S'<function LOAD>'
p4634
sS'CODE'
p4635
S"<class 'gluon.html.CODE'>"
p4636
sS'HTTP'
p4637
S"<class 'gluon.http.HTTP'>"
p4638
sS'HR'
p4639
S"<class 'gluon.html.HR'>"
p4640
sS'IS_DATETIME'
p4641
S"<class 'gluon.validators.IS_DATETIME'>"
p4642
sS'HEAD'
p4643
S"<class 'gluon.html.HEAD'>"
p4644
sS'LABEL'
p4645
S"<class 'gluon.html.LABEL'>"
p4646
sS'CLEANUP'
p4647
S"<class 'gluon.validators.CLEANUP'>"
p4648
sS'plugins'
p4649
S'<gluon.tools.PluginManager object>'
p4650
sS'SELECT'
p4651
S"<class 'gluon.html.SELECT'>"
p4652
sS'use_janrain'
p4653
S'<function use_janrain>'
p4654
sS'CENTER'
p4655
S"<class 'gluon.html.CENTER'>"
p4656
sS'prettydate'
p4657
S'<function prettydate>'
p4658
sS'Crud'
p4659
S"<class 'gluon.tools.Crud'>"
p4660
sS'Auth'
p4661
S"<class 'gluon.tools.Auth'>"
p4662
sS'__builtins__'
p4663
S"{'ArithmeticError': <type 'exceptions.ArithmeticError'>, 'AssertionError': <type 'exceptions.AssertionError'>, 'AttributeError': <type 'exceptions.AttributeError'>, 'BaseException': <type 'exceptions.BaseException'>, 'BufferError': <type 'exceptions.BufferError'>, 'BytesWarning': <type 'exceptions.BytesWarning'>, 'DeprecationWarning': <type 'exceptions.DeprecationWarning'>, 'EOFError': <type 'exceptions.EOFError'>, 'Ellipsis': Ellipsis, 'EnvironmentError': <type 'exceptions.EnvironmentError'>, ...}"
p4664
sS'HTML'
p4665
S"<class 'gluon.html.HTML'>"
p4666
sS'SQLFORM'
p4667
S"<class 'gluon.sqlhtml.SQLFORM'>"
p4668
sS'EM'
p4669
S"<class 'gluon.html.EM'>"
p4670
sS'redirect'
p4671
S'<function redirect>'
p4672
sS'FIELDSET'
p4673
S"<class 'gluon.html.FIELDSET'>"
p4674
sS'IS_EQUAL_TO'
p4675
S"<class 'gluon.validators.IS_EQUAL_TO'>"
p4676
sS'embed64'
p4677
S'<function embed64>'
p4678
sS'IS_LIST_OF'
p4679
S"<class 'gluon.validators.IS_LIST_OF'>"
p4680
sS'__name__'
p4681
S"'__restricted__'"
p4682
sS'EMBED'
p4683
S"<class 'gluon.html.EMBED'>"
p4684
sS'FORM'
p4685
S"<class 'gluon.html.FORM'>"
p4686
sS'H2'
p4687
S"<class 'gluon.html.H2'>"
p4688
sS'H3'
p4689
S"<class 'gluon.html.H3'>"
p4690
sS'BUTTON'
p4691
S"<class 'gluon.html.BUTTON'>"
p4692
sS'H1'
p4693
S"<class 'gluon.html.H1'>"
p4694
sS'H6'
p4695
S"<class 'gluon.html.H6'>"
p4696
sS'H4'
p4697
S"<class 'gluon.html.H4'>"
p4698
sS'H5'
p4699
S"<class 'gluon.html.H5'>"
p4700
sS'UL'
p4701
S"<class 'gluon.html.UL'>"
p4702
sS'IS_UPPER'
p4703
S"<class 'gluon.validators.IS_UPPER'>"
p4704
sS'xmlescape'
p4705
S'<function xmlescape>'
p4706
sS'IS_TIME'
p4707
S"<class 'gluon.validators.IS_TIME'>"
p4708
sS'OPTION'
p4709
S"<class 'gluon.html.OPTION'>"
p4710
sS'TITLE'
p4711
S"<class 'gluon.html.TITLE'>"
p4712
sS'CRYPT'
p4713
S"<class 'gluon.validators.CRYPT'>"
p4714
sS'IS_EMPTY_OR'
p4715
S"<class 'gluon.validators.IS_EMPTY_OR'>"
p4716
sS'MARKMIN'
p4717
S"<class 'gluon.html.MARKMIN'>"
p4718
sS'INPUT'
p4719
S"<class 'gluon.html.INPUT'>"
p4720
sS'STRONG'
p4721
S"<class 'gluon.html.STRONG'>"
p4722
sS'COL'
p4723
S"<class 'gluon.html.COL'>"
p4724
sS'service'
p4725
S'<gluon.tools.Service object>'
p4726
sS'SCRIPT'
p4727
S"<class 'gluon.html.SCRIPT'>"
p4728
sS'TABLE'
p4729
S"<class 'gluon.html.TABLE'>"
p4730
sS'IS_IPV4'
p4731
S"<class 'gluon.validators.IS_IPV4'>"
p4732
sS'IS_LENGTH'
p4733
S"<class 'gluon.validators.IS_LENGTH'>"
p4734
sS'XML'
p4735
S"<class 'gluon.html.XML'>"
p4736
sS'B'
S"<class 'gluon.html.B'>"
p4737
sS'IMG'
p4738
S"<class 'gluon.html.IMG'>"
p4739
sS'SQLTABLE'
p4740
S"<class 'gluon.sqlhtml.SQLTABLE'>"
p4741
sS'IS_MATCH'
p4742
S"<class 'gluon.validators.IS_MATCH'>"
p4743
sS'IS_ALPHANUMERIC'
p4744
S"<class 'gluon.validators.IS_ALPHANUMERIC'>"
p4745
sS'SPAN'
p4746
S"<class 'gluon.html.SPAN'>"
p4747
sS'IS_SLUG'
p4748
S"<class 'gluon.validators.IS_SLUG'>"
p4749
sS'BEAUTIFY'
p4750
S"<class 'gluon.html.BEAUTIFY'>"
p4751
sS'META'
p4752
S"<class 'gluon.html.META'>"
p4753
sS'IS_DATE'
p4754
S"<class 'gluon.validators.IS_DATE'>"
p4755
sS'IS_EMAIL'
p4756
S"<class 'gluon.validators.IS_EMAIL'>"
p4757
sS'IS_NOT_EMPTY'
p4758
S"<class 'gluon.validators.IS_NOT_EMPTY'>"
p4759
sS'IS_FLOAT_IN_RANGE'
p4760
S"<class 'gluon.validators.IS_FLOAT_IN_RANGE'>"
p4761
sS'TBODY'
p4762
S"<class 'gluon.html.TBODY'>"
p4763
sS'CAT'
p4764
S"<class 'gluon.html.CAT'>"
p4765
sS'Field'
p4766
S"<class 'gluon.dal.Field'>"
p4767
sS'DIV'
p4768
S"<class 'gluon.html.DIV'>"
p4769
sS'LEGEND'
p4770
S"<class 'gluon.html.LEGEND'>"
p4771
sS'COLGROUP'
p4772
S"<class 'gluon.html.COLGROUP'>"
p4773
sS'DAL'
p4774
S"<class 'gluon.dal.DAL'>"
p4775
sS'TT'
p4776
S"<class 'gluon.html.TT'>"
p4777
sS'TR'
p4778
S"<class 'gluon.html.TR'>"
p4779
sS'LI'
p4780
S"<class 'gluon.html.LI'>"
p4781
sS'IFRAME'
p4782
S"<class 'gluon.html.IFRAME'>"
p4783
sS'TD'
p4784
S"<class 'gluon.html.TD'>"
p4785
sS'PluginManager'
p4786
S"<class 'gluon.tools.PluginManager'>"
p4787
sS'IS_URL'
p4788
S"<class 'gluon.validators.IS_URL'>"
p4789
sS'A'
S"<class 'gluon.html.A'>"
p4790
sS'STYLE'
p4791
S"<class 'gluon.html.STYLE'>"
p4792
sS'IS_DATETIME_IN_RANGE'
p4793
S"<class 'gluon.validators.IS_DATETIME_IN_RANGE'>"
p4794
sS'IS_IMAGE'
p4795
S"<class 'gluon.validators.IS_IMAGE'>"
p4796
sS'I'
S"<class 'gluon.html.I'>"
p4797
sS'crud'
p4798
S'<gluon.tools.Crud object>'
p4799
sS'IS_NOT_IN_DB'
p4800
S"<class 'gluon.validators.IS_NOT_IN_DB'>"
p4801
sg3774
S"<Storage {'body': <cStringIO.StringO object at 0... at 0xade3ca74>, 'view': 'appadmin/select.html'}>"
p4802
sS'THEAD'
p4803
S"<class 'gluon.html.THEAD'>"
p4804
sS'IS_NULL_OR'
p4805
S"<class 'gluon.validators.IS_EMPTY_OR'>"
p4806
sg56
S"<Storage {'function': 'select', 'body': <cString...y/applications/ggg/', 'post_vars': <Storage {}>}>"
p4807
sS'IS_EXPR'
p4808
S"<class 'gluon.validators.IS_EXPR'>"
p4809
sS'IS_IN_SET'
p4810
S"<class 'gluon.validators.IS_IN_SET'>"
p4811
sS'IS_UPLOAD_FILENAME'
p4812
S"<class 'gluon.validators.IS_UPLOAD_FILENAME'>"
p4813
sS'IS_DECIMAL_IN_RANGE'
p4814
S"<class 'gluon.validators.IS_DECIMAL_IN_RANGE'>"
p4815
sS'T'
S'<gluon.languages.translator object>'
p4816
sssS'traceback'
p4817
S'Traceback (most recent call last):\n  File "/home/gaurav/classwork/WEB_PROGRAMMING/web2py/gluon/restricted.py", line 212, in restricted\n    exec ccode in environment\n  File "/home/gaurav/classwork/WEB_PROGRAMMING/web2py/applications/ggg/models/db.py", line 127, in <module>\n    Field(\'op\',requires=IS_IN_SET([\'A\',\'B\',\'C\',\'D\']),multiple=True,widget=SQLFORM.widgets.checkboxes.widget))\nTypeError: __init__() got an unexpected keyword argument \'multiple\'\n'
p4818
s.