(dp1
S'output'
p2
S"<type 'exceptions.IndentationError'> expected an indented block (default.py, line 119)"
p3
sS'layer'
p4
S'/home/saurabh/web2py/applications/ggg/controllers/default.py'
p5
sS'code'
p6
S'# -*- coding: utf-8 -*-\n# this file is released under public domain and you can use without limitations\n\n#########################################################################\n## This is a samples controller\n## - index is the default action of any application\n## - user is required for authentication and authorization\n## - download is for downloading files uploaded in the db (does streaming)\n## - call exposes all registered services (none by default)\n#########################################################################\n\n\ndef index():\n    """\n    example action using the internationalization operator T and flash\n    rendered by views/default/index.html or views/generic.html\n\n    if you need a simple wiki simple replace the two lines below with:\n    return auth.wiki()\n    """\n    response.flash = T("Welcome to web2py!")\n    if(auth.user):\n\t db(auth.user.email==db.student.email).update(coun=1)\n    return dict(message=T(\'Hello World\'))\n   \n\n\ndef user():\n    """\n    exposes:\n    http://..../[app]/default/user/login\n    http://..../[app]/default/user/logout\n    http://..../[app]/default/user/register\n    http://..../[app]/default/user/profile\n    http://..../[app]/default/user/retrieve_password\n    http://..../[app]/default/user/change_password\n    use @auth.requires_login()\n        @auth.requires_membership(\'group name\')\n        @auth.requires_permission(\'read\',\'table name\',record_id)\n    to decorate functions that need access control\n    """\n    return dict(form=auth())\n\n\ndef download():\n    """\n    allows downloading of uploaded files\n    http://..../[app]/default/download/[filename]\n    """\n    return response.download(request, db)\n\n\ndef call():\n    """\n    exposes services. for example:\n    http://..../[app]/default/call/jsonrpc\n    decorate with @services.jsonrpc the functions to expose\n    supports xml, json, xmlrpc, jsonrpc, amfrpc, rss, csv\n    """\n    return service()\n\n\n@auth.requires_signature()\ndef data():\n    """\n    http://..../[app]/default/data/tables\n    http://..../[app]/default/data/create/[table]\n    http://..../[app]/default/data/read/[table]/[id]\n    http://..../[app]/default/data/update/[table]/[id]\n    http://..../[app]/default/data/delete/[table]/[id]\n    http://..../[app]/default/data/select/[table]\n    http://..../[app]/default/data/search/[table]\n    but URLs must be signed, i.e. linked with\n      A(\'table\',_href=URL(\'data/tables\',user_signature=True))\n    or with the signed load operator\n      LOAD(\'default\',\'data.load\',args=\'tables\',ajax=True,user_signature=True)\n    """\n    return dict(form=crud())\n\n\n\n\n\n#------------------------------------------------------------------------------------------------------------------------------#\n\n\n@auth.requires_login()\ndef student_info():\n     a=auth.user.email\n     response.flash=a\n     form=SQLFORM(db.student)\n     form.vars.email=a\n     if (form.accepts(request,session)):\n\t  response.flash="Personal Information Successfully Added"\n     return dict(form=form)\n\n@auth.requires_login()\n@auth.requires_membership(\'IIIT_FACULTY_DEPARTMENT\')\ndef set_paper():\n     form=SQLFORM(db.questions)\n     if form.accepts(request,session):\n\t  response.flash="Question Inserted"\n     return dict(form=form)\n\n\n@auth.requires_login()\ndef exam():\n     p=db(auth.user.email==db.student.email).select(db.student.coun)\n     n=p[0][\'coun\']\n     que={}\n     que=db(db.questions.que_number==n).select(db.questions.que_number,\n\t       \t\t\t\t       db.questions.question,\n\t\t\t\t\t       db.questions.option_a,\n\t                                       db.questions.option_b,\n\t                                       db.questions.option_c,\n\t                                       db.questions.option_d,\n\t\t\t\t\t       )\n     if que:\n     print "hello"\n     return dict(que=que)\n     else:\n     redirect(URL(\'default\',\'index\'))\n\t  \n\n\n\n\n@auth.requires_login()\ndef next():\n     p=db(auth.user.email==db.student.email).select(db.student.coun)\n     n=p[0][\'coun\']\n     correct=db(db.questions.que_number==n).select(db.questions.ans)\n     given=request.post_vars[\'ans\']\n     correct=correct[0][\'ans\']\n     print correct\n     print given\n     if(correct==given):\n\t  #db.questions.marks=1\n\t  m=1\n     print n\n     db(auth.user.email==db.student.email).update(coun=n+1)\n     que=db(db.questions.que_number>0).select(db.questions.que_number)\n     redirect(URL(\'default\',\'exam\'))\n\n\ndef prev():\n     p=db(auth.user.email==db.student.email).select(db.student.coun)\n     n=p[0][\'coun\']\n     if(n-1>0):\n\t  db(auth.user.email==db.student.email).update(coun=n-1)\n     if(n-1>0):\n\t  redirect(URL(\'default\',\'exam\'))\n     else:\n\t  redirect(URL(\'default\',\'noq\'))\ndef courses():\n     return locals()\ndef noq():\n     return locals()\n\ndef list():\n     k=db(db.auth_user.id>0).select(db.auth_user.first_name,db.auth_user.last_name)\n     return dict(k=k)\n\n\ndef faculty():\n     f=db(db.faculty.name==db.auth_user.id).select(db.auth_user.first_name,db.faculty.name,db.faculty.courses,db.faculty.designation)\n     return dict(f=f) \n\nresponse._vars=response._caller(exam)\n'
p7
sS'snapshot'
p8
(dp9
S'exception'
p10
(dp11
S'__getslice__'
p12
S"<method-wrapper '__getslice__' of exceptions.IndentationError object>"
p13
sS'text'
p14
S'\'     print "hello"\\n\''
p15
sS'__str__'
p16
S"<method-wrapper '__str__' of exceptions.IndentationError object>"
p17
sS'__reduce__'
p18
S'<built-in method __reduce__ of exceptions.IndentationError object>'
p19
sS'__dict__'
p20
S'{}'
p21
sS'__sizeof__'
p22
S'<built-in method __sizeof__ of exceptions.IndentationError object>'
p23
sS'__init__'
p24
S"<method-wrapper '__init__' of exceptions.IndentationError object>"
p25
sS'__setattr__'
p26
S"<method-wrapper '__setattr__' of exceptions.IndentationError object>"
p27
sS'__reduce_ex__'
p28
S'<built-in method __reduce_ex__ of exceptions.IndentationError object>'
p29
sS'__new__'
p30
S'<built-in method __new__ of type object>'
p31
sS'__format__'
p32
S'<built-in method __format__ of exceptions.IndentationError object>'
p33
sS'__class__'
p34
S"<type 'exceptions.IndentationError'>"
p35
sS'filename'
p36
S"'/home/saurabh/web2py/applications/ggg/controllers/default.py'"
p37
sS'lineno'
p38
S'119'
p39
sS'msg'
p40
S"'expected an indented block'"
p41
sS'__doc__'
p42
S"'Improper indentation.'"
p43
sS'__getitem__'
p44
S"<method-wrapper '__getitem__' of exceptions.IndentationError object>"
p45
sS'__setstate__'
p46
S'<built-in method __setstate__ of exceptions.IndentationError object>'
p47
sS'__getattribute__'
p48
S"<method-wrapper '__getattribute__' of exceptions.IndentationError object>"
p49
sS'print_file_and_line'
p50
S'None'
p51
sS'args'
p52
S'(\'expected an indented block\', (\'/home/saurabh/web2py/applications/ggg/controllers/default.py\', 119, 10, \'     print "hello"\\n\'))'
p53
sS'__subclasshook__'
p54
S'<built-in method __subclasshook__ of type object>'
p55
sS'offset'
p56
S'10'
p57
sS'__unicode__'
p58
S'<built-in method __unicode__ of exceptions.IndentationError object>'
p59
sS'__delattr__'
p60
S"<method-wrapper '__delattr__' of exceptions.IndentationError object>"
p61
sS'__repr__'
p62
S"<method-wrapper '__repr__' of exceptions.IndentationError object>"
p63
sS'__hash__'
p64
S"<method-wrapper '__hash__' of exceptions.IndentationError object>"
p65
ssS'evalue'
p66
S'expected an indented block (default.py, line 119)'
p67
sS'request'
p68
ccopy_reg
_reconstructor
p69
(cgluon.html
BEAUTIFY
p70
c__builtin__
object
p71
NtRp72
(dp73
S'attributes'
p74
(dp75
sS'components'
p76
(lp77
g69
(cgluon.html
TABLE
p78
g71
NtRp79
(dp80
g74
(dp81
S'level'
p82
I5
ssS'parent'
p83
Nsg76
(lp84
g69
(cgluon.html
TR
p85
g71
NtRp86
(dp87
g74
(dp88
sg83
g79
sg76
(lp89
g69
(cgluon.html
TD
p90
g71
NtRp91
(dp92
g74
(dp93
S'_style'
p94
S'font-weight:bold;vertical-align:top'
p95
ssg83
g86
sg76
(lp96
S'ajax'
p97
asbag69
(g90
g71
NtRp98
(dp99
g74
(dp100
S'_valign'
p101
S'top'
p102
ssg83
g86
sg76
(lp103
S':'
asbag69
(g90
g71
NtRp104
(dp105
g74
(dp106
sg83
g86
sg76
(lp107
g69
(g70
g71
NtRp108
(dp109
g74
(dp110
g82
I5
ssg83
g104
sg76
(lp111
S'False'
p112
asbasbasbag69
(g85
g71
NtRp113
(dp114
g74
(dp115
sg83
g79
sg76
(lp116
g69
(g90
g71
NtRp117
(dp118
g74
(dp119
g94
g95
ssg83
g113
sg76
(lp120
S'application'
p121
asbag69
(g90
g71
NtRp122
(dp123
g74
(dp124
g101
g102
ssg83
g113
sg76
(lp125
S':'
asbag69
(g90
g71
NtRp126
(dp127
g74
(dp128
sg83
g113
sg76
(lp129
g69
(g70
g71
NtRp130
(dp131
g74
(dp132
g82
I5
ssg83
g126
sg76
(lp133
S'ggg'
p134
asbasbasbag69
(g85
g71
NtRp135
(dp136
g74
(dp137
sg83
g79
sg76
(lp138
g69
(g90
g71
NtRp139
(dp140
g74
(dp141
g94
g95
ssg83
g135
sg76
(lp142
g52
asbag69
(g90
g71
NtRp143
(dp144
g74
(dp145
g101
g102
ssg83
g135
sg76
(lp146
S':'
asbag69
(g90
g71
NtRp147
(dp148
g74
(dp149
sg83
g135
sg76
(lp150
g69
(g70
g71
NtRp151
(dp152
g74
(dp153
g82
I5
ssg83
g147
sg76
(lp154
g69
(g78
g71
NtRp155
(dp156
g74
(dp157
g82
I4
ssg83
Nsg76
(lp158
sbasbasbasbag69
(g85
g71
NtRp159
(dp160
g74
(dp161
sg83
g79
sg76
(lp162
g69
(g90
g71
NtRp163
(dp164
g74
(dp165
g94
g95
ssg83
g159
sg76
(lp166
S'body'
p167
asbag69
(g90
g71
NtRp168
(dp169
g74
(dp170
g101
g102
ssg83
g159
sg76
(lp171
S':'
asbag69
(g90
g71
NtRp172
(dp173
g74
(dp174
sg83
g159
sg76
(lp175
g69
(g70
g71
NtRp176
(dp177
g74
(dp178
g82
I5
ssg83
g172
sg76
(lp179
S'<cStringIO.StringO object at 0x1a2a3e8>'
p180
asbasbasbag69
(g85
g71
NtRp181
(dp182
g74
(dp183
sg83
g79
sg76
(lp184
g69
(g90
g71
NtRp185
(dp186
g74
(dp187
g94
g95
ssg83
g181
sg76
(lp188
S'cid'
p189
asbag69
(g90
g71
NtRp190
(dp191
g74
(dp192
g101
g102
ssg83
g181
sg76
(lp193
S':'
asbag69
(g90
g71
NtRp194
(dp195
g74
(dp196
sg83
g181
sg76
(lp197
g69
(g70
g71
NtRp198
(dp199
g74
(dp200
g82
I5
ssg83
g194
sg76
(lp201
S'None'
p202
asbasbasbag69
(g85
g71
NtRp203
(dp204
g74
(dp205
sg83
g79
sg76
(lp206
g69
(g90
g71
NtRp207
(dp208
g74
(dp209
g94
g95
ssg83
g203
sg76
(lp210
S'client'
p211
asbag69
(g90
g71
NtRp212
(dp213
g74
(dp214
g101
g102
ssg83
g203
sg76
(lp215
S':'
asbag69
(g90
g71
NtRp216
(dp217
g74
(dp218
sg83
g203
sg76
(lp219
g69
(g70
g71
NtRp220
(dp221
g74
(dp222
g82
I5
ssg83
g216
sg76
(lp223
S'127.0.0.1'
p224
asbasbasbag69
(g85
g71
NtRp225
(dp226
g74
(dp227
sg83
g79
sg76
(lp228
g69
(g90
g71
NtRp229
(dp230
g74
(dp231
g94
g95
ssg83
g225
sg76
(lp232
S'controller'
p233
asbag69
(g90
g71
NtRp234
(dp235
g74
(dp236
g101
g102
ssg83
g225
sg76
(lp237
S':'
asbag69
(g90
g71
NtRp238
(dp239
g74
(dp240
sg83
g225
sg76
(lp241
g69
(g70
g71
NtRp242
(dp243
g74
(dp244
g82
I5
ssg83
g238
sg76
(lp245
S'default'
p246
asbasbasbag69
(g85
g71
NtRp247
(dp248
g74
(dp249
sg83
g79
sg76
(lp250
g69
(g90
g71
NtRp251
(dp252
g74
(dp253
g94
g95
ssg83
g247
sg76
(lp254
S'cookies'
p255
asbag69
(g90
g71
NtRp256
(dp257
g74
(dp258
g101
g102
ssg83
g247
sg76
(lp259
S':'
asbag69
(g90
g71
NtRp260
(dp261
g74
(dp262
sg83
g247
sg76
(lp263
g69
(g70
g71
NtRp264
(dp265
g74
(dp266
g82
I5
ssg83
g260
sg76
(lp267
g69
(g78
g71
NtRp268
(dp269
g74
(dp270
g82
I4
ssg83
Nsg76
(lp271
g69
(g85
g71
NtRp272
(dp273
g74
(dp274
sg83
g268
sg76
(lp275
g69
(g90
g71
NtRp276
(dp277
g74
(dp278
g94
g95
ssg83
g272
sg76
(lp279
S'session_id_admin'
p280
asbag69
(g90
g71
NtRp281
(dp282
g74
(dp283
g101
g102
ssg83
g272
sg76
(lp284
S':'
asbag69
(g90
g71
NtRp285
(dp286
g74
(dp287
sg83
g272
sg76
(lp288
g69
(g70
g71
NtRp289
(dp290
g74
(dp291
g82
I4
ssg83
g285
sg76
(lp292
S'127.0.0.1-6c32ab8a-6fb4-4262-bdd0-7e49bdd282a5'
p293
ag69
(g78
g71
NtRp294
(dp295
g74
(dp296
g82
I3
ssg83
Nsg76
(lp297
g69
(g85
g71
NtRp298
(dp299
g74
(dp300
sg83
g294
sg76
(lp301
g69
(g90
g71
NtRp302
(dp303
g74
(dp304
g94
g95
ssg83
g298
sg76
(lp305
S'comment'
p306
asbag69
(g90
g71
NtRp307
(dp308
g74
(dp309
g101
g102
ssg83
g298
sg76
(lp310
S':'
asbag69
(g90
g71
NtRp311
(dp312
g74
(dp313
sg83
g298
sg76
(lp314
g69
(g70
g71
NtRp315
(dp316
g74
(dp317
g82
I3
ssg83
g311
sg76
(lp318
S''
asbasbasbag69
(g85
g71
NtRp319
(dp320
g74
(dp321
sg83
g294
sg76
(lp322
g69
(g90
g71
NtRp323
(dp324
g74
(dp325
g94
g95
ssg83
g319
sg76
(lp326
S'domain'
p327
asbag69
(g90
g71
NtRp328
(dp329
g74
(dp330
g101
g102
ssg83
g319
sg76
(lp331
S':'
asbag69
(g90
g71
NtRp332
(dp333
g74
(dp334
sg83
g319
sg76
(lp335
g69
(g70
g71
NtRp336
(dp337
g74
(dp338
g82
I3
ssg83
g332
sg76
(lp339
S''
asbasbasbag69
(g85
g71
NtRp340
(dp341
g74
(dp342
sg83
g294
sg76
(lp343
g69
(g90
g71
NtRp344
(dp345
g74
(dp346
g94
g95
ssg83
g340
sg76
(lp347
S'expires'
p348
asbag69
(g90
g71
NtRp349
(dp350
g74
(dp351
g101
g102
ssg83
g340
sg76
(lp352
S':'
asbag69
(g90
g71
NtRp353
(dp354
g74
(dp355
sg83
g340
sg76
(lp356
g69
(g70
g71
NtRp357
(dp358
g74
(dp359
g82
I3
ssg83
g353
sg76
(lp360
S''
asbasbasbag69
(g85
g71
NtRp361
(dp362
g74
(dp363
sg83
g294
sg76
(lp364
g69
(g90
g71
NtRp365
(dp366
g74
(dp367
g94
g95
ssg83
g361
sg76
(lp368
S'httponly'
p369
asbag69
(g90
g71
NtRp370
(dp371
g74
(dp372
g101
g102
ssg83
g361
sg76
(lp373
S':'
asbag69
(g90
g71
NtRp374
(dp375
g74
(dp376
sg83
g361
sg76
(lp377
g69
(g70
g71
NtRp378
(dp379
g74
(dp380
g82
I3
ssg83
g374
sg76
(lp381
S''
asbasbasbag69
(g85
g71
NtRp382
(dp383
g74
(dp384
sg83
g294
sg76
(lp385
g69
(g90
g71
NtRp386
(dp387
g74
(dp388
g94
g95
ssg83
g382
sg76
(lp389
S'max-age'
p390
asbag69
(g90
g71
NtRp391
(dp392
g74
(dp393
g101
g102
ssg83
g382
sg76
(lp394
S':'
asbag69
(g90
g71
NtRp395
(dp396
g74
(dp397
sg83
g382
sg76
(lp398
g69
(g70
g71
NtRp399
(dp400
g74
(dp401
g82
I3
ssg83
g395
sg76
(lp402
S''
asbasbasbag69
(g85
g71
NtRp403
(dp404
g74
(dp405
sg83
g294
sg76
(lp406
g69
(g90
g71
NtRp407
(dp408
g74
(dp409
g94
g95
ssg83
g403
sg76
(lp410
S'path'
p411
asbag69
(g90
g71
NtRp412
(dp413
g74
(dp414
g101
g102
ssg83
g403
sg76
(lp415
S':'
asbag69
(g90
g71
NtRp416
(dp417
g74
(dp418
sg83
g403
sg76
(lp419
g69
(g70
g71
NtRp420
(dp421
g74
(dp422
g82
I3
ssg83
g416
sg76
(lp423
S''
asbasbasbag69
(g85
g71
NtRp424
(dp425
g74
(dp426
sg83
g294
sg76
(lp427
g69
(g90
g71
NtRp428
(dp429
g74
(dp430
g94
g95
ssg83
g424
sg76
(lp431
S'secure'
p432
asbag69
(g90
g71
NtRp433
(dp434
g74
(dp435
g101
g102
ssg83
g424
sg76
(lp436
S':'
asbag69
(g90
g71
NtRp437
(dp438
g74
(dp439
sg83
g424
sg76
(lp440
g69
(g70
g71
NtRp441
(dp442
g74
(dp443
g82
I3
ssg83
g437
sg76
(lp444
S''
asbasbasbag69
(g85
g71
NtRp445
(dp446
g74
(dp447
sg83
g294
sg76
(lp448
g69
(g90
g71
NtRp449
(dp450
g74
(dp451
g94
g95
ssg83
g445
sg76
(lp452
S'version'
p453
asbag69
(g90
g71
NtRp454
(dp455
g74
(dp456
g101
g102
ssg83
g445
sg76
(lp457
S':'
asbag69
(g90
g71
NtRp458
(dp459
g74
(dp460
sg83
g445
sg76
(lp461
g69
(g70
g71
NtRp462
(dp463
g74
(dp464
g82
I3
ssg83
g458
sg76
(lp465
S''
asbasbasbasbasbasbasbag69
(g85
g71
NtRp466
(dp467
g74
(dp468
sg83
g268
sg76
(lp469
g69
(g90
g71
NtRp470
(dp471
g74
(dp472
g94
g95
ssg83
g466
sg76
(lp473
S'session_id_ggg'
p474
asbag69
(g90
g71
NtRp475
(dp476
g74
(dp477
g101
g102
ssg83
g466
sg76
(lp478
S':'
asbag69
(g90
g71
NtRp479
(dp480
g74
(dp481
sg83
g466
sg76
(lp482
g69
(g70
g71
NtRp483
(dp484
g74
(dp485
g82
I4
ssg83
g479
sg76
(lp486
S'127.0.0.1-929b9b0c-f53b-49f1-97f4-7c5cb217c3d8'
p487
ag69
(g78
g71
NtRp488
(dp489
g74
(dp490
g82
I3
ssg83
Nsg76
(lp491
g69
(g85
g71
NtRp492
(dp493
g74
(dp494
sg83
g488
sg76
(lp495
g69
(g90
g71
NtRp496
(dp497
g74
(dp498
g94
g95
ssg83
g492
sg76
(lp499
g306
asbag69
(g90
g71
NtRp500
(dp501
g74
(dp502
g101
g102
ssg83
g492
sg76
(lp503
S':'
asbag69
(g90
g71
NtRp504
(dp505
g74
(dp506
sg83
g492
sg76
(lp507
g69
(g70
g71
NtRp508
(dp509
g74
(dp510
g82
I3
ssg83
g504
sg76
(lp511
S''
asbasbasbag69
(g85
g71
NtRp512
(dp513
g74
(dp514
sg83
g488
sg76
(lp515
g69
(g90
g71
NtRp516
(dp517
g74
(dp518
g94
g95
ssg83
g512
sg76
(lp519
g327
asbag69
(g90
g71
NtRp520
(dp521
g74
(dp522
g101
g102
ssg83
g512
sg76
(lp523
S':'
asbag69
(g90
g71
NtRp524
(dp525
g74
(dp526
sg83
g512
sg76
(lp527
g69
(g70
g71
NtRp528
(dp529
g74
(dp530
g82
I3
ssg83
g524
sg76
(lp531
S''
asbasbasbag69
(g85
g71
NtRp532
(dp533
g74
(dp534
sg83
g488
sg76
(lp535
g69
(g90
g71
NtRp536
(dp537
g74
(dp538
g94
g95
ssg83
g532
sg76
(lp539
g348
asbag69
(g90
g71
NtRp540
(dp541
g74
(dp542
g101
g102
ssg83
g532
sg76
(lp543
S':'
asbag69
(g90
g71
NtRp544
(dp545
g74
(dp546
sg83
g532
sg76
(lp547
g69
(g70
g71
NtRp548
(dp549
g74
(dp550
g82
I3
ssg83
g544
sg76
(lp551
S''
asbasbasbag69
(g85
g71
NtRp552
(dp553
g74
(dp554
sg83
g488
sg76
(lp555
g69
(g90
g71
NtRp556
(dp557
g74
(dp558
g94
g95
ssg83
g552
sg76
(lp559
g369
asbag69
(g90
g71
NtRp560
(dp561
g74
(dp562
g101
g102
ssg83
g552
sg76
(lp563
S':'
asbag69
(g90
g71
NtRp564
(dp565
g74
(dp566
sg83
g552
sg76
(lp567
g69
(g70
g71
NtRp568
(dp569
g74
(dp570
g82
I3
ssg83
g564
sg76
(lp571
S''
asbasbasbag69
(g85
g71
NtRp572
(dp573
g74
(dp574
sg83
g488
sg76
(lp575
g69
(g90
g71
NtRp576
(dp577
g74
(dp578
g94
g95
ssg83
g572
sg76
(lp579
g390
asbag69
(g90
g71
NtRp580
(dp581
g74
(dp582
g101
g102
ssg83
g572
sg76
(lp583
S':'
asbag69
(g90
g71
NtRp584
(dp585
g74
(dp586
sg83
g572
sg76
(lp587
g69
(g70
g71
NtRp588
(dp589
g74
(dp590
g82
I3
ssg83
g584
sg76
(lp591
S''
asbasbasbag69
(g85
g71
NtRp592
(dp593
g74
(dp594
sg83
g488
sg76
(lp595
g69
(g90
g71
NtRp596
(dp597
g74
(dp598
g94
g95
ssg83
g592
sg76
(lp599
g411
asbag69
(g90
g71
NtRp600
(dp601
g74
(dp602
g101
g102
ssg83
g592
sg76
(lp603
S':'
asbag69
(g90
g71
NtRp604
(dp605
g74
(dp606
sg83
g592
sg76
(lp607
g69
(g70
g71
NtRp608
(dp609
g74
(dp610
g82
I3
ssg83
g604
sg76
(lp611
S''
asbasbasbag69
(g85
g71
NtRp612
(dp613
g74
(dp614
sg83
g488
sg76
(lp615
g69
(g90
g71
NtRp616
(dp617
g74
(dp618
g94
g95
ssg83
g612
sg76
(lp619
g432
asbag69
(g90
g71
NtRp620
(dp621
g74
(dp622
g101
g102
ssg83
g612
sg76
(lp623
S':'
asbag69
(g90
g71
NtRp624
(dp625
g74
(dp626
sg83
g612
sg76
(lp627
g69
(g70
g71
NtRp628
(dp629
g74
(dp630
g82
I3
ssg83
g624
sg76
(lp631
S''
asbasbasbag69
(g85
g71
NtRp632
(dp633
g74
(dp634
sg83
g488
sg76
(lp635
g69
(g90
g71
NtRp636
(dp637
g74
(dp638
g94
g95
ssg83
g632
sg76
(lp639
g453
asbag69
(g90
g71
NtRp640
(dp641
g74
(dp642
g101
g102
ssg83
g632
sg76
(lp643
S':'
asbag69
(g90
g71
NtRp644
(dp645
g74
(dp646
sg83
g632
sg76
(lp647
g69
(g70
g71
NtRp648
(dp649
g74
(dp650
g82
I3
ssg83
g644
sg76
(lp651
S''
asbasbasbasbasbasbasbag69
(g85
g71
NtRp652
(dp653
g74
(dp654
sg83
g268
sg76
(lp655
g69
(g90
g71
NtRp656
(dp657
g74
(dp658
g94
g95
ssg83
g652
sg76
(lp659
S'session_id_welcome'
p660
asbag69
(g90
g71
NtRp661
(dp662
g74
(dp663
g101
g102
ssg83
g652
sg76
(lp664
S':'
asbag69
(g90
g71
NtRp665
(dp666
g74
(dp667
sg83
g652
sg76
(lp668
g69
(g70
g71
NtRp669
(dp670
g74
(dp671
g82
I4
ssg83
g665
sg76
(lp672
S'127.0.0.1-3c9ecfaa-58d3-46f5-95bb-5fddc1d3dc9e'
p673
ag69
(g78
g71
NtRp674
(dp675
g74
(dp676
g82
I3
ssg83
Nsg76
(lp677
g69
(g85
g71
NtRp678
(dp679
g74
(dp680
sg83
g674
sg76
(lp681
g69
(g90
g71
NtRp682
(dp683
g74
(dp684
g94
g95
ssg83
g678
sg76
(lp685
g306
asbag69
(g90
g71
NtRp686
(dp687
g74
(dp688
g101
g102
ssg83
g678
sg76
(lp689
S':'
asbag69
(g90
g71
NtRp690
(dp691
g74
(dp692
sg83
g678
sg76
(lp693
g69
(g70
g71
NtRp694
(dp695
g74
(dp696
g82
I3
ssg83
g690
sg76
(lp697
S''
asbasbasbag69
(g85
g71
NtRp698
(dp699
g74
(dp700
sg83
g674
sg76
(lp701
g69
(g90
g71
NtRp702
(dp703
g74
(dp704
g94
g95
ssg83
g698
sg76
(lp705
g327
asbag69
(g90
g71
NtRp706
(dp707
g74
(dp708
g101
g102
ssg83
g698
sg76
(lp709
S':'
asbag69
(g90
g71
NtRp710
(dp711
g74
(dp712
sg83
g698
sg76
(lp713
g69
(g70
g71
NtRp714
(dp715
g74
(dp716
g82
I3
ssg83
g710
sg76
(lp717
S''
asbasbasbag69
(g85
g71
NtRp718
(dp719
g74
(dp720
sg83
g674
sg76
(lp721
g69
(g90
g71
NtRp722
(dp723
g74
(dp724
g94
g95
ssg83
g718
sg76
(lp725
g348
asbag69
(g90
g71
NtRp726
(dp727
g74
(dp728
g101
g102
ssg83
g718
sg76
(lp729
S':'
asbag69
(g90
g71
NtRp730
(dp731
g74
(dp732
sg83
g718
sg76
(lp733
g69
(g70
g71
NtRp734
(dp735
g74
(dp736
g82
I3
ssg83
g730
sg76
(lp737
S''
asbasbasbag69
(g85
g71
NtRp738
(dp739
g74
(dp740
sg83
g674
sg76
(lp741
g69
(g90
g71
NtRp742
(dp743
g74
(dp744
g94
g95
ssg83
g738
sg76
(lp745
g369
asbag69
(g90
g71
NtRp746
(dp747
g74
(dp748
g101
g102
ssg83
g738
sg76
(lp749
S':'
asbag69
(g90
g71
NtRp750
(dp751
g74
(dp752
sg83
g738
sg76
(lp753
g69
(g70
g71
NtRp754
(dp755
g74
(dp756
g82
I3
ssg83
g750
sg76
(lp757
S''
asbasbasbag69
(g85
g71
NtRp758
(dp759
g74
(dp760
sg83
g674
sg76
(lp761
g69
(g90
g71
NtRp762
(dp763
g74
(dp764
g94
g95
ssg83
g758
sg76
(lp765
g390
asbag69
(g90
g71
NtRp766
(dp767
g74
(dp768
g101
g102
ssg83
g758
sg76
(lp769
S':'
asbag69
(g90
g71
NtRp770
(dp771
g74
(dp772
sg83
g758
sg76
(lp773
g69
(g70
g71
NtRp774
(dp775
g74
(dp776
g82
I3
ssg83
g770
sg76
(lp777
S''
asbasbasbag69
(g85
g71
NtRp778
(dp779
g74
(dp780
sg83
g674
sg76
(lp781
g69
(g90
g71
NtRp782
(dp783
g74
(dp784
g94
g95
ssg83
g778
sg76
(lp785
g411
asbag69
(g90
g71
NtRp786
(dp787
g74
(dp788
g101
g102
ssg83
g778
sg76
(lp789
S':'
asbag69
(g90
g71
NtRp790
(dp791
g74
(dp792
sg83
g778
sg76
(lp793
g69
(g70
g71
NtRp794
(dp795
g74
(dp796
g82
I3
ssg83
g790
sg76
(lp797
S''
asbasbasbag69
(g85
g71
NtRp798
(dp799
g74
(dp800
sg83
g674
sg76
(lp801
g69
(g90
g71
NtRp802
(dp803
g74
(dp804
g94
g95
ssg83
g798
sg76
(lp805
g432
asbag69
(g90
g71
NtRp806
(dp807
g74
(dp808
g101
g102
ssg83
g798
sg76
(lp809
S':'
asbag69
(g90
g71
NtRp810
(dp811
g74
(dp812
sg83
g798
sg76
(lp813
g69
(g70
g71
NtRp814
(dp815
g74
(dp816
g82
I3
ssg83
g810
sg76
(lp817
S''
asbasbasbag69
(g85
g71
NtRp818
(dp819
g74
(dp820
sg83
g674
sg76
(lp821
g69
(g90
g71
NtRp822
(dp823
g74
(dp824
g94
g95
ssg83
g818
sg76
(lp825
g453
asbag69
(g90
g71
NtRp826
(dp827
g74
(dp828
g101
g102
ssg83
g818
sg76
(lp829
S':'
asbag69
(g90
g71
NtRp830
(dp831
g74
(dp832
sg83
g818
sg76
(lp833
g69
(g70
g71
NtRp834
(dp835
g74
(dp836
g82
I3
ssg83
g830
sg76
(lp837
S''
asbasbasbasbasbasbasbasbasbasbasbag69
(g85
g71
NtRp838
(dp839
g74
(dp840
sg83
g79
sg76
(lp841
g69
(g90
g71
NtRp842
(dp843
g74
(dp844
g94
g95
ssg83
g838
sg76
(lp845
S'env'
p846
asbag69
(g90
g71
NtRp847
(dp848
g74
(dp849
g101
g102
ssg83
g838
sg76
(lp850
S':'
asbag69
(g90
g71
NtRp851
(dp852
g74
(dp853
sg83
g838
sg76
(lp854
g69
(g70
g71
NtRp855
(dp856
g74
(dp857
g82
I5
ssg83
g851
sg76
(lp858
g69
(g78
g71
NtRp859
(dp860
g74
(dp861
g82
I4
ssg83
Nsg76
(lp862
g69
(g85
g71
NtRp863
(dp864
g74
(dp865
sg83
g859
sg76
(lp866
g69
(g90
g71
NtRp867
(dp868
g74
(dp869
g94
g95
ssg83
g863
sg76
(lp870
S'app_folders'
p871
asbag69
(g90
g71
NtRp872
(dp873
g74
(dp874
g101
g102
ssg83
g863
sg76
(lp875
S':'
asbag69
(g90
g71
NtRp876
(dp877
g74
(dp878
sg83
g863
sg76
(lp879
g69
(g70
g71
NtRp880
(dp881
g74
(dp882
g82
I4
ssg83
g876
sg76
(lp883
S"set(['/home/saurabh/web2py/applications/ggg/', '/home/saurabh/web2py/applications/admin/', '/home/saurabh/web2py/applications/welcome/'])"
p884
asbasbasbag69
(g85
g71
NtRp885
(dp886
g74
(dp887
sg83
g859
sg76
(lp888
g69
(g90
g71
NtRp889
(dp890
g74
(dp891
g94
g95
ssg83
g885
sg76
(lp892
S'applications_parent'
p893
asbag69
(g90
g71
NtRp894
(dp895
g74
(dp896
g101
g102
ssg83
g885
sg76
(lp897
S':'
asbag69
(g90
g71
NtRp898
(dp899
g74
(dp900
sg83
g885
sg76
(lp901
g69
(g70
g71
NtRp902
(dp903
g74
(dp904
g82
I4
ssg83
g898
sg76
(lp905
S'/home/saurabh/web2py'
p906
asbasbasbag69
(g85
g71
NtRp907
(dp908
g74
(dp909
sg83
g859
sg76
(lp910
g69
(g90
g71
NtRp911
(dp912
g74
(dp913
g94
g95
ssg83
g907
sg76
(lp914
S'cmd_args'
p915
asbag69
(g90
g71
NtRp916
(dp917
g74
(dp918
g101
g102
ssg83
g907
sg76
(lp919
S':'
asbag69
(g90
g71
NtRp920
(dp921
g74
(dp922
sg83
g907
sg76
(lp923
g69
(g70
g71
NtRp924
(dp925
g74
(dp926
g82
I4
ssg83
g920
sg76
(lp927
g69
(g78
g71
NtRp928
(dp929
g74
(dp930
g82
I3
ssg83
Nsg76
(lp931
sbasbasbasbag69
(g85
g71
NtRp932
(dp933
g74
(dp934
sg83
g859
sg76
(lp935
g69
(g90
g71
NtRp936
(dp937
g74
(dp938
g94
g95
ssg83
g932
sg76
(lp939
S'cmd_options'
p940
asbag69
(g90
g71
NtRp941
(dp942
g74
(dp943
g101
g102
ssg83
g932
sg76
(lp944
S':'
asbag69
(g90
g71
NtRp945
(dp946
g74
(dp947
sg83
g932
sg76
(lp948
g69
(g70
g71
NtRp949
(dp950
g74
(dp951
g82
I4
ssg83
g945
sg76
(lp952
S"<Values at 0x17248c0: {'verbose': False, 'ip': '127.0.0.1', 'with_scheduler': False, 'ips': [], 'shutdown_timeout': 5, 'taskbar': False, 'port': 8000, 'maxthreads': None, 'softcron': False, 'server_name': 'saurabh-Inspiron-N4050', 'bpython': False, 'nogui': False, 'pid_filename': 'httpserver.pid', 'extcron': False, 'runcron': False, 'run_system_tests': False, 'test': None, 'folder': '/home/saurabh/web2py', 'config': '', 'minthreads': None, 'winservice': '', 'shell': None, 'run': '', 'log_filename': 'httpserver.log', 'debuglevel': 30, 'args': [''], 'socket_timeout': 5, 'ssl_ca_certificate': None, 'scheduler': None, 'profiler_filename': None, 'ssl_private_key': '', 'scheduler_groups': None, 'password': '<ask>', 'request_queue_size': 5, 'ssl_certificate': '', 'cronjob': False, 'numthreads': None, 'quiet': False, 'interfaces': None, 'import_models': False, 'timeout': 10, 'plain': False, 'nobanner': False}>"
p953
asbasbasbag69
(g85
g71
NtRp954
(dp955
g74
(dp956
sg83
g859
sg76
(lp957
g69
(g90
g71
NtRp958
(dp959
g74
(dp960
g94
g95
ssg83
g954
sg76
(lp961
S'db_sessions'
p962
asbag69
(g90
g71
NtRp963
(dp964
g74
(dp965
g101
g102
ssg83
g954
sg76
(lp966
S':'
asbag69
(g90
g71
NtRp967
(dp968
g74
(dp969
sg83
g954
sg76
(lp970
g69
(g70
g71
NtRp971
(dp972
g74
(dp973
g82
I4
ssg83
g967
sg76
(lp974
S'set([])'
p975
asbasbasbag69
(g85
g71
NtRp976
(dp977
g74
(dp978
sg83
g859
sg76
(lp979
g69
(g90
g71
NtRp980
(dp981
g74
(dp982
g94
g95
ssg83
g976
sg76
(lp983
S'debugging'
p984
asbag69
(g90
g71
NtRp985
(dp986
g74
(dp987
g101
g102
ssg83
g976
sg76
(lp988
S':'
asbag69
(g90
g71
NtRp989
(dp990
g74
(dp991
sg83
g976
sg76
(lp992
g69
(g70
g71
NtRp993
(dp994
g74
(dp995
g82
I4
ssg83
g989
sg76
(lp996
g112
asbasbasbag69
(g85
g71
NtRp997
(dp998
g74
(dp999
sg83
g859
sg76
(lp1000
g69
(g90
g71
NtRp1001
(dp1002
g74
(dp1003
g94
g95
ssg83
g997
sg76
(lp1004
S'gluon_parent'
p1005
asbag69
(g90
g71
NtRp1006
(dp1007
g74
(dp1008
g101
g102
ssg83
g997
sg76
(lp1009
S':'
asbag69
(g90
g71
NtRp1010
(dp1011
g74
(dp1012
sg83
g997
sg76
(lp1013
g69
(g70
g71
NtRp1014
(dp1015
g74
(dp1016
g82
I4
ssg83
g1010
sg76
(lp1017
S'/home/saurabh/web2py'
p1018
asbasbasbag69
(g85
g71
NtRp1019
(dp1020
g74
(dp1021
sg83
g859
sg76
(lp1022
g69
(g90
g71
NtRp1023
(dp1024
g74
(dp1025
g94
g95
ssg83
g1019
sg76
(lp1026
S'http_accept'
p1027
asbag69
(g90
g71
NtRp1028
(dp1029
g74
(dp1030
g101
g102
ssg83
g1019
sg76
(lp1031
S':'
asbag69
(g90
g71
NtRp1032
(dp1033
g74
(dp1034
sg83
g1019
sg76
(lp1035
g69
(g70
g71
NtRp1036
(dp1037
g74
(dp1038
g82
I4
ssg83
g1032
sg76
(lp1039
S'text/html,application/xhtml+xml,application/xml;q=0.9,*/*;q=0.8'
p1040
asbasbasbag69
(g85
g71
NtRp1041
(dp1042
g74
(dp1043
sg83
g859
sg76
(lp1044
g69
(g90
g71
NtRp1045
(dp1046
g74
(dp1047
g94
g95
ssg83
g1041
sg76
(lp1048
S'http_accept_encoding'
p1049
asbag69
(g90
g71
NtRp1050
(dp1051
g74
(dp1052
g101
g102
ssg83
g1041
sg76
(lp1053
S':'
asbag69
(g90
g71
NtRp1054
(dp1055
g74
(dp1056
sg83
g1041
sg76
(lp1057
g69
(g70
g71
NtRp1058
(dp1059
g74
(dp1060
g82
I4
ssg83
g1054
sg76
(lp1061
S'gzip, deflate'
p1062
asbasbasbag69
(g85
g71
NtRp1063
(dp1064
g74
(dp1065
sg83
g859
sg76
(lp1066
g69
(g90
g71
NtRp1067
(dp1068
g74
(dp1069
g94
g95
ssg83
g1063
sg76
(lp1070
S'http_accept_language'
p1071
asbag69
(g90
g71
NtRp1072
(dp1073
g74
(dp1074
g101
g102
ssg83
g1063
sg76
(lp1075
S':'
asbag69
(g90
g71
NtRp1076
(dp1077
g74
(dp1078
sg83
g1063
sg76
(lp1079
g69
(g70
g71
NtRp1080
(dp1081
g74
(dp1082
g82
I4
ssg83
g1076
sg76
(lp1083
S'en-US,en;q=0.5'
p1084
asbasbasbag69
(g85
g71
NtRp1085
(dp1086
g74
(dp1087
sg83
g859
sg76
(lp1088
g69
(g90
g71
NtRp1089
(dp1090
g74
(dp1091
g94
g95
ssg83
g1085
sg76
(lp1092
S'http_connection'
p1093
asbag69
(g90
g71
NtRp1094
(dp1095
g74
(dp1096
g101
g102
ssg83
g1085
sg76
(lp1097
S':'
asbag69
(g90
g71
NtRp1098
(dp1099
g74
(dp1100
sg83
g1085
sg76
(lp1101
g69
(g70
g71
NtRp1102
(dp1103
g74
(dp1104
g82
I4
ssg83
g1098
sg76
(lp1105
S'keep-alive'
p1106
asbasbasbag69
(g85
g71
NtRp1107
(dp1108
g74
(dp1109
sg83
g859
sg76
(lp1110
g69
(g90
g71
NtRp1111
(dp1112
g74
(dp1113
g94
g95
ssg83
g1107
sg76
(lp1114
S'http_cookie'
p1115
asbag69
(g90
g71
NtRp1116
(dp1117
g74
(dp1118
g101
g102
ssg83
g1107
sg76
(lp1119
S':'
asbag69
(g90
g71
NtRp1120
(dp1121
g74
(dp1122
sg83
g1107
sg76
(lp1123
g69
(g70
g71
NtRp1124
(dp1125
g74
(dp1126
g82
I4
ssg83
g1120
sg76
(lp1127
S'session_id_welcome=127.0.0.1-3c9ecfaa-58d3-46f5-95bb-5fddc1d3dc9e; session_id_admin=127.0.0.1-6c32ab8a-6fb4-4262-bdd0-7e49bdd282a5; session_id_ggg=127.0.0.1-929b9b0c-f53b-49f1-97f4-7c5cb217c3d8'
p1128
asbasbasbag69
(g85
g71
NtRp1129
(dp1130
g74
(dp1131
sg83
g859
sg76
(lp1132
g69
(g90
g71
NtRp1133
(dp1134
g74
(dp1135
g94
g95
ssg83
g1129
sg76
(lp1136
S'http_host'
p1137
asbag69
(g90
g71
NtRp1138
(dp1139
g74
(dp1140
g101
g102
ssg83
g1129
sg76
(lp1141
S':'
asbag69
(g90
g71
NtRp1142
(dp1143
g74
(dp1144
sg83
g1129
sg76
(lp1145
g69
(g70
g71
NtRp1146
(dp1147
g74
(dp1148
g82
I4
ssg83
g1142
sg76
(lp1149
S'127.0.0.1:8000'
p1150
asbasbasbag69
(g85
g71
NtRp1151
(dp1152
g74
(dp1153
sg83
g859
sg76
(lp1154
g69
(g90
g71
NtRp1155
(dp1156
g74
(dp1157
g94
g95
ssg83
g1151
sg76
(lp1158
S'http_referer'
p1159
asbag69
(g90
g71
NtRp1160
(dp1161
g74
(dp1162
g101
g102
ssg83
g1151
sg76
(lp1163
S':'
asbag69
(g90
g71
NtRp1164
(dp1165
g74
(dp1166
sg83
g1151
sg76
(lp1167
g69
(g70
g71
NtRp1168
(dp1169
g74
(dp1170
g82
I4
ssg83
g1164
sg76
(lp1171
S'http://127.0.0.1:8000/ggg/default/index'
p1172
asbasbasbag69
(g85
g71
NtRp1173
(dp1174
g74
(dp1175
sg83
g859
sg76
(lp1176
g69
(g90
g71
NtRp1177
(dp1178
g74
(dp1179
g94
g95
ssg83
g1173
sg76
(lp1180
S'http_user_agent'
p1181
asbag69
(g90
g71
NtRp1182
(dp1183
g74
(dp1184
g101
g102
ssg83
g1173
sg76
(lp1185
S':'
asbag69
(g90
g71
NtRp1186
(dp1187
g74
(dp1188
sg83
g1173
sg76
(lp1189
g69
(g70
g71
NtRp1190
(dp1191
g74
(dp1192
g82
I4
ssg83
g1186
sg76
(lp1193
S'Mozilla/5.0 (X11; Ubuntu; Linux x86_64; rv:19.0) Gecko/20100101 Firefox/19.0'
p1194
asbasbasbag69
(g85
g71
NtRp1195
(dp1196
g74
(dp1197
sg83
g859
sg76
(lp1198
g69
(g90
g71
NtRp1199
(dp1200
g74
(dp1201
g94
g95
ssg83
g1195
sg76
(lp1202
S'is_jython'
p1203
asbag69
(g90
g71
NtRp1204
(dp1205
g74
(dp1206
g101
g102
ssg83
g1195
sg76
(lp1207
S':'
asbag69
(g90
g71
NtRp1208
(dp1209
g74
(dp1210
sg83
g1195
sg76
(lp1211
g69
(g70
g71
NtRp1212
(dp1213
g74
(dp1214
g82
I4
ssg83
g1208
sg76
(lp1215
g112
asbasbasbag69
(g85
g71
NtRp1216
(dp1217
g74
(dp1218
sg83
g859
sg76
(lp1219
g69
(g90
g71
NtRp1220
(dp1221
g74
(dp1222
g94
g95
ssg83
g1216
sg76
(lp1223
S'is_pypy'
p1224
asbag69
(g90
g71
NtRp1225
(dp1226
g74
(dp1227
g101
g102
ssg83
g1216
sg76
(lp1228
S':'
asbag69
(g90
g71
NtRp1229
(dp1230
g74
(dp1231
sg83
g1216
sg76
(lp1232
g69
(g70
g71
NtRp1233
(dp1234
g74
(dp1235
g82
I4
ssg83
g1229
sg76
(lp1236
g112
asbasbasbag69
(g85
g71
NtRp1237
(dp1238
g74
(dp1239
sg83
g859
sg76
(lp1240
g69
(g90
g71
NtRp1241
(dp1242
g74
(dp1243
g94
g95
ssg83
g1237
sg76
(lp1244
S'local_hosts'
p1245
asbag69
(g90
g71
NtRp1246
(dp1247
g74
(dp1248
g101
g102
ssg83
g1237
sg76
(lp1249
S':'
asbag69
(g90
g71
NtRp1250
(dp1251
g74
(dp1252
sg83
g1237
sg76
(lp1253
g69
(g70
g71
NtRp1254
(dp1255
g74
(dp1256
g82
I4
ssg83
g1250
sg76
(lp1257
g69
(g78
g71
NtRp1258
(dp1259
g74
(dp1260
g82
I3
ssg83
Nsg76
(lp1261
g69
(g85
g71
NtRp1262
(dp1263
g74
(dp1264
sg83
g1258
sg76
(lp1265
g69
(g90
g71
NtRp1266
(dp1267
g74
(dp1268
sg83
g1262
sg76
(lp1269
g69
(g70
g71
NtRp1270
(dp1271
g74
(dp1272
g82
I3
ssg83
g1266
sg76
(lp1273
S'127.0.1.1'
p1274
asbasbasbag69
(g85
g71
NtRp1275
(dp1276
g74
(dp1277
sg83
g1258
sg76
(lp1278
g69
(g90
g71
NtRp1279
(dp1280
g74
(dp1281
sg83
g1275
sg76
(lp1282
g69
(g70
g71
NtRp1283
(dp1284
g74
(dp1285
g82
I3
ssg83
g1279
sg76
(lp1286
S'::1'
p1287
asbasbasbag69
(g85
g71
NtRp1288
(dp1289
g74
(dp1290
sg83
g1258
sg76
(lp1291
g69
(g90
g71
NtRp1292
(dp1293
g74
(dp1294
sg83
g1288
sg76
(lp1295
g69
(g70
g71
NtRp1296
(dp1297
g74
(dp1298
g82
I3
ssg83
g1292
sg76
(lp1299
S'saurabh-Inspiron-N4050'
p1300
asbasbasbag69
(g85
g71
NtRp1301
(dp1302
g74
(dp1303
sg83
g1258
sg76
(lp1304
g69
(g90
g71
NtRp1305
(dp1306
g74
(dp1307
sg83
g1301
sg76
(lp1308
g69
(g70
g71
NtRp1309
(dp1310
g74
(dp1311
g82
I3
ssg83
g1305
sg76
(lp1312
S'::ffff:127.0.0.1'
p1313
asbasbasbag69
(g85
g71
NtRp1314
(dp1315
g74
(dp1316
sg83
g1258
sg76
(lp1317
g69
(g90
g71
NtRp1318
(dp1319
g74
(dp1320
sg83
g1314
sg76
(lp1321
g69
(g70
g71
NtRp1322
(dp1323
g74
(dp1324
g82
I3
ssg83
g1318
sg76
(lp1325
S'127.0.0.1'
p1326
asbasbasbasbasbasbasbag69
(g85
g71
NtRp1327
(dp1328
g74
(dp1329
sg83
g859
sg76
(lp1330
g69
(g90
g71
NtRp1331
(dp1332
g74
(dp1333
g94
g95
ssg83
g1327
sg76
(lp1334
S'path_info'
p1335
asbag69
(g90
g71
NtRp1336
(dp1337
g74
(dp1338
g101
g102
ssg83
g1327
sg76
(lp1339
S':'
asbag69
(g90
g71
NtRp1340
(dp1341
g74
(dp1342
sg83
g1327
sg76
(lp1343
g69
(g70
g71
NtRp1344
(dp1345
g74
(dp1346
g82
I4
ssg83
g1340
sg76
(lp1347
S'/ggg/default/exam.html'
p1348
asbasbasbag69
(g85
g71
NtRp1349
(dp1350
g74
(dp1351
sg83
g859
sg76
(lp1352
g69
(g90
g71
NtRp1353
(dp1354
g74
(dp1355
g94
g95
ssg83
g1349
sg76
(lp1356
S'query_string'
p1357
asbag69
(g90
g71
NtRp1358
(dp1359
g74
(dp1360
g101
g102
ssg83
g1349
sg76
(lp1361
S':'
asbag69
(g90
g71
NtRp1362
(dp1363
g74
(dp1364
sg83
g1349
sg76
(lp1365
g69
(g70
g71
NtRp1366
(dp1367
g74
(dp1368
g82
I4
ssg83
g1362
sg76
(lp1369
S''
asbasbasbag69
(g85
g71
NtRp1370
(dp1371
g74
(dp1372
sg83
g859
sg76
(lp1373
g69
(g90
g71
NtRp1374
(dp1375
g74
(dp1376
g94
g95
ssg83
g1370
sg76
(lp1377
S'remote_addr'
p1378
asbag69
(g90
g71
NtRp1379
(dp1380
g74
(dp1381
g101
g102
ssg83
g1370
sg76
(lp1382
S':'
asbag69
(g90
g71
NtRp1383
(dp1384
g74
(dp1385
sg83
g1370
sg76
(lp1386
g69
(g70
g71
NtRp1387
(dp1388
g74
(dp1389
g82
I4
ssg83
g1383
sg76
(lp1390
g224
asbasbasbag69
(g85
g71
NtRp1391
(dp1392
g74
(dp1393
sg83
g859
sg76
(lp1394
g69
(g90
g71
NtRp1395
(dp1396
g74
(dp1397
g94
g95
ssg83
g1391
sg76
(lp1398
S'remote_port'
p1399
asbag69
(g90
g71
NtRp1400
(dp1401
g74
(dp1402
g101
g102
ssg83
g1391
sg76
(lp1403
S':'
asbag69
(g90
g71
NtRp1404
(dp1405
g74
(dp1406
sg83
g1391
sg76
(lp1407
g69
(g70
g71
NtRp1408
(dp1409
g74
(dp1410
g82
I4
ssg83
g1404
sg76
(lp1411
S'46009'
p1412
asbasbasbag69
(g85
g71
NtRp1413
(dp1414
g74
(dp1415
sg83
g859
sg76
(lp1416
g69
(g90
g71
NtRp1417
(dp1418
g74
(dp1419
g94
g95
ssg83
g1413
sg76
(lp1420
S'request_method'
p1421
asbag69
(g90
g71
NtRp1422
(dp1423
g74
(dp1424
g101
g102
ssg83
g1413
sg76
(lp1425
S':'
asbag69
(g90
g71
NtRp1426
(dp1427
g74
(dp1428
sg83
g1413
sg76
(lp1429
g69
(g70
g71
NtRp1430
(dp1431
g74
(dp1432
g82
I4
ssg83
g1426
sg76
(lp1433
S'GET'
p1434
asbasbasbag69
(g85
g71
NtRp1435
(dp1436
g74
(dp1437
sg83
g859
sg76
(lp1438
g69
(g90
g71
NtRp1439
(dp1440
g74
(dp1441
g94
g95
ssg83
g1435
sg76
(lp1442
S'request_uri'
p1443
asbag69
(g90
g71
NtRp1444
(dp1445
g74
(dp1446
g101
g102
ssg83
g1435
sg76
(lp1447
S':'
asbag69
(g90
g71
NtRp1448
(dp1449
g74
(dp1450
sg83
g1435
sg76
(lp1451
g69
(g70
g71
NtRp1452
(dp1453
g74
(dp1454
g82
I4
ssg83
g1448
sg76
(lp1455
g1348
asbasbasbag69
(g85
g71
NtRp1456
(dp1457
g74
(dp1458
sg83
g859
sg76
(lp1459
g69
(g90
g71
NtRp1460
(dp1461
g74
(dp1462
g94
g95
ssg83
g1456
sg76
(lp1463
S'script_name'
p1464
asbag69
(g90
g71
NtRp1465
(dp1466
g74
(dp1467
g101
g102
ssg83
g1456
sg76
(lp1468
S':'
asbag69
(g90
g71
NtRp1469
(dp1470
g74
(dp1471
sg83
g1456
sg76
(lp1472
g69
(g70
g71
NtRp1473
(dp1474
g74
(dp1475
g82
I4
ssg83
g1469
sg76
(lp1476
S''
asbasbasbag69
(g85
g71
NtRp1477
(dp1478
g74
(dp1479
sg83
g859
sg76
(lp1480
g69
(g90
g71
NtRp1481
(dp1482
g74
(dp1483
g94
g95
ssg83
g1477
sg76
(lp1484
S'server_name'
p1485
asbag69
(g90
g71
NtRp1486
(dp1487
g74
(dp1488
g101
g102
ssg83
g1477
sg76
(lp1489
S':'
asbag69
(g90
g71
NtRp1490
(dp1491
g74
(dp1492
sg83
g1477
sg76
(lp1493
g69
(g70
g71
NtRp1494
(dp1495
g74
(dp1496
g82
I4
ssg83
g1490
sg76
(lp1497
S'saurabh-Inspiron-N4050'
p1498
asbasbasbag69
(g85
g71
NtRp1499
(dp1500
g74
(dp1501
sg83
g859
sg76
(lp1502
g69
(g90
g71
NtRp1503
(dp1504
g74
(dp1505
g94
g95
ssg83
g1499
sg76
(lp1506
S'server_port'
p1507
asbag69
(g90
g71
NtRp1508
(dp1509
g74
(dp1510
g101
g102
ssg83
g1499
sg76
(lp1511
S':'
asbag69
(g90
g71
NtRp1512
(dp1513
g74
(dp1514
sg83
g1499
sg76
(lp1515
g69
(g70
g71
NtRp1516
(dp1517
g74
(dp1518
g82
I4
ssg83
g1512
sg76
(lp1519
S'8000'
p1520
asbasbasbag69
(g85
g71
NtRp1521
(dp1522
g74
(dp1523
sg83
g859
sg76
(lp1524
g69
(g90
g71
NtRp1525
(dp1526
g74
(dp1527
g94
g95
ssg83
g1521
sg76
(lp1528
S'server_protocol'
p1529
asbag69
(g90
g71
NtRp1530
(dp1531
g74
(dp1532
g101
g102
ssg83
g1521
sg76
(lp1533
S':'
asbag69
(g90
g71
NtRp1534
(dp1535
g74
(dp1536
sg83
g1521
sg76
(lp1537
g69
(g70
g71
NtRp1538
(dp1539
g74
(dp1540
g82
I4
ssg83
g1534
sg76
(lp1541
S'HTTP/1.1'
p1542
asbasbasbag69
(g85
g71
NtRp1543
(dp1544
g74
(dp1545
sg83
g859
sg76
(lp1546
g69
(g90
g71
NtRp1547
(dp1548
g74
(dp1549
g94
g95
ssg83
g1543
sg76
(lp1550
S'server_software'
p1551
asbag69
(g90
g71
NtRp1552
(dp1553
g74
(dp1554
g101
g102
ssg83
g1543
sg76
(lp1555
S':'
asbag69
(g90
g71
NtRp1556
(dp1557
g74
(dp1558
sg83
g1543
sg76
(lp1559
g69
(g70
g71
NtRp1560
(dp1561
g74
(dp1562
g82
I4
ssg83
g1556
sg76
(lp1563
S'Rocket 1.2.6'
p1564
asbasbasbag69
(g85
g71
NtRp1565
(dp1566
g74
(dp1567
sg83
g859
sg76
(lp1568
g69
(g90
g71
NtRp1569
(dp1570
g74
(dp1571
g94
g95
ssg83
g1565
sg76
(lp1572
S'web2py_path'
p1573
asbag69
(g90
g71
NtRp1574
(dp1575
g74
(dp1576
g101
g102
ssg83
g1565
sg76
(lp1577
S':'
asbag69
(g90
g71
NtRp1578
(dp1579
g74
(dp1580
sg83
g1565
sg76
(lp1581
g69
(g70
g71
NtRp1582
(dp1583
g74
(dp1584
g82
I4
ssg83
g1578
sg76
(lp1585
g906
asbasbasbag69
(g85
g71
NtRp1586
(dp1587
g74
(dp1588
sg83
g859
sg76
(lp1589
g69
(g90
g71
NtRp1590
(dp1591
g74
(dp1592
g94
g95
ssg83
g1586
sg76
(lp1593
S'web2py_version'
p1594
asbag69
(g90
g71
NtRp1595
(dp1596
g74
(dp1597
g101
g102
ssg83
g1586
sg76
(lp1598
S':'
asbag69
(g90
g71
NtRp1599
(dp1600
g74
(dp1601
sg83
g1586
sg76
(lp1602
g69
(g70
g71
NtRp1603
(dp1604
g74
(dp1605
g82
I4
ssg83
g1599
sg76
(lp1606
g69
(g78
g71
NtRp1607
(dp1608
g74
(dp1609
g82
I3
ssg83
Nsg76
(lp1610
g69
(g85
g71
NtRp1611
(dp1612
g74
(dp1613
sg83
g1607
sg76
(lp1614
g69
(g90
g71
NtRp1615
(dp1616
g74
(dp1617
sg83
g1611
sg76
(lp1618
g69
(g70
g71
NtRp1619
(dp1620
g74
(dp1621
g82
I3
ssg83
g1615
sg76
(lp1622
S'2'
asbasbasbag69
(g85
g71
NtRp1623
(dp1624
g74
(dp1625
sg83
g1607
sg76
(lp1626
g69
(g90
g71
NtRp1627
(dp1628
g74
(dp1629
sg83
g1623
sg76
(lp1630
g69
(g70
g71
NtRp1631
(dp1632
g74
(dp1633
g82
I3
ssg83
g1627
sg76
(lp1634
S'3'
asbasbasbag69
(g85
g71
NtRp1635
(dp1636
g74
(dp1637
sg83
g1607
sg76
(lp1638
g69
(g90
g71
NtRp1639
(dp1640
g74
(dp1641
sg83
g1635
sg76
(lp1642
g69
(g70
g71
NtRp1643
(dp1644
g74
(dp1645
g82
I3
ssg83
g1639
sg76
(lp1646
S'2'
asbasbasbag69
(g85
g71
NtRp1647
(dp1648
g74
(dp1649
sg83
g1607
sg76
(lp1650
g69
(g90
g71
NtRp1651
(dp1652
g74
(dp1653
sg83
g1647
sg76
(lp1654
g69
(g70
g71
NtRp1655
(dp1656
g74
(dp1657
g82
I3
ssg83
g1651
sg76
(lp1658
S'datetime.datetime(2012, 12, 17, 15, 3, 30)'
p1659
asbasbasbag69
(g85
g71
NtRp1660
(dp1661
g74
(dp1662
sg83
g1607
sg76
(lp1663
g69
(g90
g71
NtRp1664
(dp1665
g74
(dp1666
sg83
g1660
sg76
(lp1667
g69
(g70
g71
NtRp1668
(dp1669
g74
(dp1670
g82
I3
ssg83
g1664
sg76
(lp1671
S'stable'
p1672
asbasbasbasbasbasbasbag69
(g85
g71
NtRp1673
(dp1674
g74
(dp1675
sg83
g859
sg76
(lp1676
g69
(g90
g71
NtRp1677
(dp1678
g74
(dp1679
g94
g95
ssg83
g1673
sg76
(lp1680
S'wsgi_errors'
p1681
asbag69
(g90
g71
NtRp1682
(dp1683
g74
(dp1684
g101
g102
ssg83
g1673
sg76
(lp1685
S':'
asbag69
(g90
g71
NtRp1686
(dp1687
g74
(dp1688
sg83
g1673
sg76
(lp1689
g69
(g70
g71
NtRp1690
(dp1691
g74
(dp1692
g82
I4
ssg83
g1686
sg76
(lp1693
S"<open file '<stderr>', mode 'w' at 0x7fdd50f2a270>"
p1694
asbasbasbag69
(g85
g71
NtRp1695
(dp1696
g74
(dp1697
sg83
g859
sg76
(lp1698
g69
(g90
g71
NtRp1699
(dp1700
g74
(dp1701
g94
g95
ssg83
g1695
sg76
(lp1702
S'wsgi_file_wrapper'
p1703
asbag69
(g90
g71
NtRp1704
(dp1705
g74
(dp1706
g101
g102
ssg83
g1695
sg76
(lp1707
S':'
asbag69
(g90
g71
NtRp1708
(dp1709
g74
(dp1710
sg83
g1695
sg76
(lp1711
g69
(g70
g71
NtRp1712
(dp1713
g74
(dp1714
g82
I4
ssg83
g1708
sg76
(lp1715
S'<class wsgiref.util.FileWrapper at 0x168ec18>'
p1716
asbasbasbag69
(g85
g71
NtRp1717
(dp1718
g74
(dp1719
sg83
g859
sg76
(lp1720
g69
(g90
g71
NtRp1721
(dp1722
g74
(dp1723
g94
g95
ssg83
g1717
sg76
(lp1724
S'wsgi_input'
p1725
asbag69
(g90
g71
NtRp1726
(dp1727
g74
(dp1728
g101
g102
ssg83
g1717
sg76
(lp1729
S':'
asbag69
(g90
g71
NtRp1730
(dp1731
g74
(dp1732
sg83
g1717
sg76
(lp1733
g69
(g70
g71
NtRp1734
(dp1735
g74
(dp1736
g82
I4
ssg83
g1730
sg76
(lp1737
S'<socket._fileobject object at 0x7fdd403139d0>'
p1738
asbasbasbag69
(g85
g71
NtRp1739
(dp1740
g74
(dp1741
sg83
g859
sg76
(lp1742
g69
(g90
g71
NtRp1743
(dp1744
g74
(dp1745
g94
g95
ssg83
g1739
sg76
(lp1746
S'wsgi_multiprocess'
p1747
asbag69
(g90
g71
NtRp1748
(dp1749
g74
(dp1750
g101
g102
ssg83
g1739
sg76
(lp1751
S':'
asbag69
(g90
g71
NtRp1752
(dp1753
g74
(dp1754
sg83
g1739
sg76
(lp1755
g69
(g70
g71
NtRp1756
(dp1757
g74
(dp1758
g82
I4
ssg83
g1752
sg76
(lp1759
g112
asbasbasbag69
(g85
g71
NtRp1760
(dp1761
g74
(dp1762
sg83
g859
sg76
(lp1763
g69
(g90
g71
NtRp1764
(dp1765
g74
(dp1766
g94
g95
ssg83
g1760
sg76
(lp1767
S'wsgi_multithread'
p1768
asbag69
(g90
g71
NtRp1769
(dp1770
g74
(dp1771
g101
g102
ssg83
g1760
sg76
(lp1772
S':'
asbag69
(g90
g71
NtRp1773
(dp1774
g74
(dp1775
sg83
g1760
sg76
(lp1776
g69
(g70
g71
NtRp1777
(dp1778
g74
(dp1779
g82
I4
ssg83
g1773
sg76
(lp1780
S'True'
p1781
asbasbasbag69
(g85
g71
NtRp1782
(dp1783
g74
(dp1784
sg83
g859
sg76
(lp1785
g69
(g90
g71
NtRp1786
(dp1787
g74
(dp1788
g94
g95
ssg83
g1782
sg76
(lp1789
S'wsgi_run_once'
p1790
asbag69
(g90
g71
NtRp1791
(dp1792
g74
(dp1793
g101
g102
ssg83
g1782
sg76
(lp1794
S':'
asbag69
(g90
g71
NtRp1795
(dp1796
g74
(dp1797
sg83
g1782
sg76
(lp1798
g69
(g70
g71
NtRp1799
(dp1800
g74
(dp1801
g82
I4
ssg83
g1795
sg76
(lp1802
g112
asbasbasbag69
(g85
g71
NtRp1803
(dp1804
g74
(dp1805
sg83
g859
sg76
(lp1806
g69
(g90
g71
NtRp1807
(dp1808
g74
(dp1809
g94
g95
ssg83
g1803
sg76
(lp1810
S'wsgi_url_scheme'
p1811
asbag69
(g90
g71
NtRp1812
(dp1813
g74
(dp1814
g101
g102
ssg83
g1803
sg76
(lp1815
S':'
asbag69
(g90
g71
NtRp1816
(dp1817
g74
(dp1818
sg83
g1803
sg76
(lp1819
g69
(g70
g71
NtRp1820
(dp1821
g74
(dp1822
g82
I4
ssg83
g1816
sg76
(lp1823
S'http'
p1824
asbasbasbag69
(g85
g71
NtRp1825
(dp1826
g74
(dp1827
sg83
g859
sg76
(lp1828
g69
(g90
g71
NtRp1829
(dp1830
g74
(dp1831
g94
g95
ssg83
g1825
sg76
(lp1832
S'wsgi_version'
p1833
asbag69
(g90
g71
NtRp1834
(dp1835
g74
(dp1836
g101
g102
ssg83
g1825
sg76
(lp1837
S':'
asbag69
(g90
g71
NtRp1838
(dp1839
g74
(dp1840
sg83
g1825
sg76
(lp1841
g69
(g70
g71
NtRp1842
(dp1843
g74
(dp1844
g82
I4
ssg83
g1838
sg76
(lp1845
g69
(g78
g71
NtRp1846
(dp1847
g74
(dp1848
g82
I3
ssg83
Nsg76
(lp1849
g69
(g85
g71
NtRp1850
(dp1851
g74
(dp1852
sg83
g1846
sg76
(lp1853
g69
(g90
g71
NtRp1854
(dp1855
g74
(dp1856
sg83
g1850
sg76
(lp1857
g69
(g70
g71
NtRp1858
(dp1859
g74
(dp1860
g82
I3
ssg83
g1854
sg76
(lp1861
S'1'
asbasbasbag69
(g85
g71
NtRp1862
(dp1863
g74
(dp1864
sg83
g1846
sg76
(lp1865
g69
(g90
g71
NtRp1866
(dp1867
g74
(dp1868
sg83
g1862
sg76
(lp1869
g69
(g70
g71
NtRp1870
(dp1871
g74
(dp1872
g82
I3
ssg83
g1866
sg76
(lp1873
S'0'
asbasbasbasbasbasbasbasbasbasbasbag69
(g85
g71
NtRp1874
(dp1875
g74
(dp1876
sg83
g79
sg76
(lp1877
g69
(g90
g71
NtRp1878
(dp1879
g74
(dp1880
g94
g95
ssg83
g1874
sg76
(lp1881
S'extension'
p1882
asbag69
(g90
g71
NtRp1883
(dp1884
g74
(dp1885
g101
g102
ssg83
g1874
sg76
(lp1886
S':'
asbag69
(g90
g71
NtRp1887
(dp1888
g74
(dp1889
sg83
g1874
sg76
(lp1890
g69
(g70
g71
NtRp1891
(dp1892
g74
(dp1893
g82
I5
ssg83
g1887
sg76
(lp1894
S'html'
p1895
asbasbasbag69
(g85
g71
NtRp1896
(dp1897
g74
(dp1898
sg83
g79
sg76
(lp1899
g69
(g90
g71
NtRp1900
(dp1901
g74
(dp1902
g94
g95
ssg83
g1896
sg76
(lp1903
S'folder'
p1904
asbag69
(g90
g71
NtRp1905
(dp1906
g74
(dp1907
g101
g102
ssg83
g1896
sg76
(lp1908
S':'
asbag69
(g90
g71
NtRp1909
(dp1910
g74
(dp1911
sg83
g1896
sg76
(lp1912
g69
(g70
g71
NtRp1913
(dp1914
g74
(dp1915
g82
I5
ssg83
g1909
sg76
(lp1916
S'/home/saurabh/web2py/applications/ggg/'
p1917
asbasbasbag69
(g85
g71
NtRp1918
(dp1919
g74
(dp1920
sg83
g79
sg76
(lp1921
g69
(g90
g71
NtRp1922
(dp1923
g74
(dp1924
g94
g95
ssg83
g1918
sg76
(lp1925
S'function'
p1926
asbag69
(g90
g71
NtRp1927
(dp1928
g74
(dp1929
g101
g102
ssg83
g1918
sg76
(lp1930
S':'
asbag69
(g90
g71
NtRp1931
(dp1932
g74
(dp1933
sg83
g1918
sg76
(lp1934
g69
(g70
g71
NtRp1935
(dp1936
g74
(dp1937
g82
I5
ssg83
g1931
sg76
(lp1938
S'exam'
p1939
asbasbasbag69
(g85
g71
NtRp1940
(dp1941
g74
(dp1942
sg83
g79
sg76
(lp1943
g69
(g90
g71
NtRp1944
(dp1945
g74
(dp1946
g94
g95
ssg83
g1940
sg76
(lp1947
S'get_vars'
p1948
asbag69
(g90
g71
NtRp1949
(dp1950
g74
(dp1951
g101
g102
ssg83
g1940
sg76
(lp1952
S':'
asbag69
(g90
g71
NtRp1953
(dp1954
g74
(dp1955
sg83
g1940
sg76
(lp1956
g69
(g70
g71
NtRp1957
(dp1958
g74
(dp1959
g82
I5
ssg83
g1953
sg76
(lp1960
g69
(g78
g71
NtRp1961
(dp1962
g74
(dp1963
g82
I4
ssg83
Nsg76
(lp1964
sbasbasbasbag69
(g85
g71
NtRp1965
(dp1966
g74
(dp1967
sg83
g79
sg76
(lp1968
g69
(g90
g71
NtRp1969
(dp1970
g74
(dp1971
g94
g95
ssg83
g1965
sg76
(lp1972
S'global_settings'
p1973
asbag69
(g90
g71
NtRp1974
(dp1975
g74
(dp1976
g101
g102
ssg83
g1965
sg76
(lp1977
S':'
asbag69
(g90
g71
NtRp1978
(dp1979
g74
(dp1980
sg83
g1965
sg76
(lp1981
g69
(g70
g71
NtRp1982
(dp1983
g74
(dp1984
g82
I5
ssg83
g1978
sg76
(lp1985
g69
(g78
g71
NtRp1986
(dp1987
g74
(dp1988
g82
I4
ssg83
Nsg76
(lp1989
g69
(g85
g71
NtRp1990
(dp1991
g74
(dp1992
sg83
g1986
sg76
(lp1993
g69
(g90
g71
NtRp1994
(dp1995
g74
(dp1996
g94
g95
ssg83
g1990
sg76
(lp1997
g871
asbag69
(g90
g71
NtRp1998
(dp1999
g74
(dp2000
g101
g102
ssg83
g1990
sg76
(lp2001
S':'
asbag69
(g90
g71
NtRp2002
(dp2003
g74
(dp2004
sg83
g1990
sg76
(lp2005
g69
(g70
g71
NtRp2006
(dp2007
g74
(dp2008
g82
I4
ssg83
g2002
sg76
(lp2009
S"set(['/home/saurabh/web2py/applications/ggg/', '/home/saurabh/web2py/applications/admin/', '/home/saurabh/web2py/applications/welcome/'])"
p2010
asbasbasbag69
(g85
g71
NtRp2011
(dp2012
g74
(dp2013
sg83
g1986
sg76
(lp2014
g69
(g90
g71
NtRp2015
(dp2016
g74
(dp2017
g94
g95
ssg83
g2011
sg76
(lp2018
g893
asbag69
(g90
g71
NtRp2019
(dp2020
g74
(dp2021
g101
g102
ssg83
g2011
sg76
(lp2022
S':'
asbag69
(g90
g71
NtRp2023
(dp2024
g74
(dp2025
sg83
g2011
sg76
(lp2026
g69
(g70
g71
NtRp2027
(dp2028
g74
(dp2029
g82
I4
ssg83
g2023
sg76
(lp2030
g906
asbasbasbag69
(g85
g71
NtRp2031
(dp2032
g74
(dp2033
sg83
g1986
sg76
(lp2034
g69
(g90
g71
NtRp2035
(dp2036
g74
(dp2037
g94
g95
ssg83
g2031
sg76
(lp2038
g915
asbag69
(g90
g71
NtRp2039
(dp2040
g74
(dp2041
g101
g102
ssg83
g2031
sg76
(lp2042
S':'
asbag69
(g90
g71
NtRp2043
(dp2044
g74
(dp2045
sg83
g2031
sg76
(lp2046
g69
(g70
g71
NtRp2047
(dp2048
g74
(dp2049
g82
I4
ssg83
g2043
sg76
(lp2050
g69
(g78
g71
NtRp2051
(dp2052
g74
(dp2053
g82
I3
ssg83
Nsg76
(lp2054
sbasbasbasbag69
(g85
g71
NtRp2055
(dp2056
g74
(dp2057
sg83
g1986
sg76
(lp2058
g69
(g90
g71
NtRp2059
(dp2060
g74
(dp2061
g94
g95
ssg83
g2055
sg76
(lp2062
g940
asbag69
(g90
g71
NtRp2063
(dp2064
g74
(dp2065
g101
g102
ssg83
g2055
sg76
(lp2066
S':'
asbag69
(g90
g71
NtRp2067
(dp2068
g74
(dp2069
sg83
g2055
sg76
(lp2070
g69
(g70
g71
NtRp2071
(dp2072
g74
(dp2073
g82
I4
ssg83
g2067
sg76
(lp2074
S"<Values at 0x17248c0: {'verbose': False, 'ip': '127.0.0.1', 'with_scheduler': False, 'ips': [], 'shutdown_timeout': 5, 'taskbar': False, 'port': 8000, 'maxthreads': None, 'softcron': False, 'server_name': 'saurabh-Inspiron-N4050', 'bpython': False, 'nogui': False, 'pid_filename': 'httpserver.pid', 'extcron': False, 'runcron': False, 'run_system_tests': False, 'test': None, 'folder': '/home/saurabh/web2py', 'config': '', 'minthreads': None, 'winservice': '', 'shell': None, 'run': '', 'log_filename': 'httpserver.log', 'debuglevel': 30, 'args': [''], 'socket_timeout': 5, 'ssl_ca_certificate': None, 'scheduler': None, 'profiler_filename': None, 'ssl_private_key': '', 'scheduler_groups': None, 'password': '<ask>', 'request_queue_size': 5, 'ssl_certificate': '', 'cronjob': False, 'numthreads': None, 'quiet': False, 'interfaces': None, 'import_models': False, 'timeout': 10, 'plain': False, 'nobanner': False}>"
p2075
asbasbasbag69
(g85
g71
NtRp2076
(dp2077
g74
(dp2078
sg83
g1986
sg76
(lp2079
g69
(g90
g71
NtRp2080
(dp2081
g74
(dp2082
g94
g95
ssg83
g2076
sg76
(lp2083
g962
asbag69
(g90
g71
NtRp2084
(dp2085
g74
(dp2086
g101
g102
ssg83
g2076
sg76
(lp2087
S':'
asbag69
(g90
g71
NtRp2088
(dp2089
g74
(dp2090
sg83
g2076
sg76
(lp2091
g69
(g70
g71
NtRp2092
(dp2093
g74
(dp2094
g82
I4
ssg83
g2088
sg76
(lp2095
S'set([])'
p2096
asbasbasbag69
(g85
g71
NtRp2097
(dp2098
g74
(dp2099
sg83
g1986
sg76
(lp2100
g69
(g90
g71
NtRp2101
(dp2102
g74
(dp2103
g94
g95
ssg83
g2097
sg76
(lp2104
g984
asbag69
(g90
g71
NtRp2105
(dp2106
g74
(dp2107
g101
g102
ssg83
g2097
sg76
(lp2108
S':'
asbag69
(g90
g71
NtRp2109
(dp2110
g74
(dp2111
sg83
g2097
sg76
(lp2112
g69
(g70
g71
NtRp2113
(dp2114
g74
(dp2115
g82
I4
ssg83
g2109
sg76
(lp2116
g112
asbasbasbag69
(g85
g71
NtRp2117
(dp2118
g74
(dp2119
sg83
g1986
sg76
(lp2120
g69
(g90
g71
NtRp2121
(dp2122
g74
(dp2123
g94
g95
ssg83
g2117
sg76
(lp2124
g1005
asbag69
(g90
g71
NtRp2125
(dp2126
g74
(dp2127
g101
g102
ssg83
g2117
sg76
(lp2128
S':'
asbag69
(g90
g71
NtRp2129
(dp2130
g74
(dp2131
sg83
g2117
sg76
(lp2132
g69
(g70
g71
NtRp2133
(dp2134
g74
(dp2135
g82
I4
ssg83
g2129
sg76
(lp2136
g1018
asbasbasbag69
(g85
g71
NtRp2137
(dp2138
g74
(dp2139
sg83
g1986
sg76
(lp2140
g69
(g90
g71
NtRp2141
(dp2142
g74
(dp2143
g94
g95
ssg83
g2137
sg76
(lp2144
g1203
asbag69
(g90
g71
NtRp2145
(dp2146
g74
(dp2147
g101
g102
ssg83
g2137
sg76
(lp2148
S':'
asbag69
(g90
g71
NtRp2149
(dp2150
g74
(dp2151
sg83
g2137
sg76
(lp2152
g69
(g70
g71
NtRp2153
(dp2154
g74
(dp2155
g82
I4
ssg83
g2149
sg76
(lp2156
g112
asbasbasbag69
(g85
g71
NtRp2157
(dp2158
g74
(dp2159
sg83
g1986
sg76
(lp2160
g69
(g90
g71
NtRp2161
(dp2162
g74
(dp2163
g94
g95
ssg83
g2157
sg76
(lp2164
g1224
asbag69
(g90
g71
NtRp2165
(dp2166
g74
(dp2167
g101
g102
ssg83
g2157
sg76
(lp2168
S':'
asbag69
(g90
g71
NtRp2169
(dp2170
g74
(dp2171
sg83
g2157
sg76
(lp2172
g69
(g70
g71
NtRp2173
(dp2174
g74
(dp2175
g82
I4
ssg83
g2169
sg76
(lp2176
g112
asbasbasbag69
(g85
g71
NtRp2177
(dp2178
g74
(dp2179
sg83
g1986
sg76
(lp2180
g69
(g90
g71
NtRp2181
(dp2182
g74
(dp2183
g94
g95
ssg83
g2177
sg76
(lp2184
g1245
asbag69
(g90
g71
NtRp2185
(dp2186
g74
(dp2187
g101
g102
ssg83
g2177
sg76
(lp2188
S':'
asbag69
(g90
g71
NtRp2189
(dp2190
g74
(dp2191
sg83
g2177
sg76
(lp2192
g69
(g70
g71
NtRp2193
(dp2194
g74
(dp2195
g82
I4
ssg83
g2189
sg76
(lp2196
g69
(g78
g71
NtRp2197
(dp2198
g74
(dp2199
g82
I3
ssg83
Nsg76
(lp2200
g69
(g85
g71
NtRp2201
(dp2202
g74
(dp2203
sg83
g2197
sg76
(lp2204
g69
(g90
g71
NtRp2205
(dp2206
g74
(dp2207
sg83
g2201
sg76
(lp2208
g69
(g70
g71
NtRp2209
(dp2210
g74
(dp2211
g82
I3
ssg83
g2205
sg76
(lp2212
g1274
asbasbasbag69
(g85
g71
NtRp2213
(dp2214
g74
(dp2215
sg83
g2197
sg76
(lp2216
g69
(g90
g71
NtRp2217
(dp2218
g74
(dp2219
sg83
g2213
sg76
(lp2220
g69
(g70
g71
NtRp2221
(dp2222
g74
(dp2223
g82
I3
ssg83
g2217
sg76
(lp2224
g1287
asbasbasbag69
(g85
g71
NtRp2225
(dp2226
g74
(dp2227
sg83
g2197
sg76
(lp2228
g69
(g90
g71
NtRp2229
(dp2230
g74
(dp2231
sg83
g2225
sg76
(lp2232
g69
(g70
g71
NtRp2233
(dp2234
g74
(dp2235
g82
I3
ssg83
g2229
sg76
(lp2236
g1300
asbasbasbag69
(g85
g71
NtRp2237
(dp2238
g74
(dp2239
sg83
g2197
sg76
(lp2240
g69
(g90
g71
NtRp2241
(dp2242
g74
(dp2243
sg83
g2237
sg76
(lp2244
g69
(g70
g71
NtRp2245
(dp2246
g74
(dp2247
g82
I3
ssg83
g2241
sg76
(lp2248
g1313
asbasbasbag69
(g85
g71
NtRp2249
(dp2250
g74
(dp2251
sg83
g2197
sg76
(lp2252
g69
(g90
g71
NtRp2253
(dp2254
g74
(dp2255
sg83
g2249
sg76
(lp2256
g69
(g70
g71
NtRp2257
(dp2258
g74
(dp2259
g82
I3
ssg83
g2253
sg76
(lp2260
g1326
asbasbasbasbasbasbasbag69
(g85
g71
NtRp2261
(dp2262
g74
(dp2263
sg83
g1986
sg76
(lp2264
g69
(g90
g71
NtRp2265
(dp2266
g74
(dp2267
g94
g95
ssg83
g2261
sg76
(lp2268
g1594
asbag69
(g90
g71
NtRp2269
(dp2270
g74
(dp2271
g101
g102
ssg83
g2261
sg76
(lp2272
S':'
asbag69
(g90
g71
NtRp2273
(dp2274
g74
(dp2275
sg83
g2261
sg76
(lp2276
g69
(g70
g71
NtRp2277
(dp2278
g74
(dp2279
g82
I4
ssg83
g2273
sg76
(lp2280
g69
(g78
g71
NtRp2281
(dp2282
g74
(dp2283
g82
I3
ssg83
Nsg76
(lp2284
g69
(g85
g71
NtRp2285
(dp2286
g74
(dp2287
sg83
g2281
sg76
(lp2288
g69
(g90
g71
NtRp2289
(dp2290
g74
(dp2291
sg83
g2285
sg76
(lp2292
g69
(g70
g71
NtRp2293
(dp2294
g74
(dp2295
g82
I3
ssg83
g2289
sg76
(lp2296
S'2'
asbasbasbag69
(g85
g71
NtRp2297
(dp2298
g74
(dp2299
sg83
g2281
sg76
(lp2300
g69
(g90
g71
NtRp2301
(dp2302
g74
(dp2303
sg83
g2297
sg76
(lp2304
g69
(g70
g71
NtRp2305
(dp2306
g74
(dp2307
g82
I3
ssg83
g2301
sg76
(lp2308
S'3'
asbasbasbag69
(g85
g71
NtRp2309
(dp2310
g74
(dp2311
sg83
g2281
sg76
(lp2312
g69
(g90
g71
NtRp2313
(dp2314
g74
(dp2315
sg83
g2309
sg76
(lp2316
g69
(g70
g71
NtRp2317
(dp2318
g74
(dp2319
g82
I3
ssg83
g2313
sg76
(lp2320
S'2'
asbasbasbag69
(g85
g71
NtRp2321
(dp2322
g74
(dp2323
sg83
g2281
sg76
(lp2324
g69
(g90
g71
NtRp2325
(dp2326
g74
(dp2327
sg83
g2321
sg76
(lp2328
g69
(g70
g71
NtRp2329
(dp2330
g74
(dp2331
g82
I3
ssg83
g2325
sg76
(lp2332
S'datetime.datetime(2012, 12, 17, 15, 3, 30)'
p2333
asbasbasbag69
(g85
g71
NtRp2334
(dp2335
g74
(dp2336
sg83
g2281
sg76
(lp2337
g69
(g90
g71
NtRp2338
(dp2339
g74
(dp2340
sg83
g2334
sg76
(lp2341
g69
(g70
g71
NtRp2342
(dp2343
g74
(dp2344
g82
I3
ssg83
g2338
sg76
(lp2345
g1672
asbasbasbasbasbasbasbasbasbasbasbag69
(g85
g71
NtRp2346
(dp2347
g74
(dp2348
sg83
g79
sg76
(lp2349
g69
(g90
g71
NtRp2350
(dp2351
g74
(dp2352
g94
g95
ssg83
g2346
sg76
(lp2353
S'is_https'
p2354
asbag69
(g90
g71
NtRp2355
(dp2356
g74
(dp2357
g101
g102
ssg83
g2346
sg76
(lp2358
S':'
asbag69
(g90
g71
NtRp2359
(dp2360
g74
(dp2361
sg83
g2346
sg76
(lp2362
g69
(g70
g71
NtRp2363
(dp2364
g74
(dp2365
g82
I5
ssg83
g2359
sg76
(lp2366
g112
asbasbasbag69
(g85
g71
NtRp2367
(dp2368
g74
(dp2369
sg83
g79
sg76
(lp2370
g69
(g90
g71
NtRp2371
(dp2372
g74
(dp2373
g94
g95
ssg83
g2367
sg76
(lp2374
S'is_local'
p2375
asbag69
(g90
g71
NtRp2376
(dp2377
g74
(dp2378
g101
g102
ssg83
g2367
sg76
(lp2379
S':'
asbag69
(g90
g71
NtRp2380
(dp2381
g74
(dp2382
sg83
g2367
sg76
(lp2383
g69
(g70
g71
NtRp2384
(dp2385
g74
(dp2386
g82
I5
ssg83
g2380
sg76
(lp2387
g1781
asbasbasbag69
(g85
g71
NtRp2388
(dp2389
g74
(dp2390
sg83
g79
sg76
(lp2391
g69
(g90
g71
NtRp2392
(dp2393
g74
(dp2394
g94
g95
ssg83
g2388
sg76
(lp2395
S'is_restful'
p2396
asbag69
(g90
g71
NtRp2397
(dp2398
g74
(dp2399
g101
g102
ssg83
g2388
sg76
(lp2400
S':'
asbag69
(g90
g71
NtRp2401
(dp2402
g74
(dp2403
sg83
g2388
sg76
(lp2404
g69
(g70
g71
NtRp2405
(dp2406
g74
(dp2407
g82
I5
ssg83
g2401
sg76
(lp2408
g112
asbasbasbag69
(g85
g71
NtRp2409
(dp2410
g74
(dp2411
sg83
g79
sg76
(lp2412
g69
(g90
g71
NtRp2413
(dp2414
g74
(dp2415
g94
g95
ssg83
g2409
sg76
(lp2416
S'now'
p2417
asbag69
(g90
g71
NtRp2418
(dp2419
g74
(dp2420
g101
g102
ssg83
g2409
sg76
(lp2421
S':'
asbag69
(g90
g71
NtRp2422
(dp2423
g74
(dp2424
sg83
g2409
sg76
(lp2425
g69
(g70
g71
NtRp2426
(dp2427
g74
(dp2428
g82
I5
ssg83
g2422
sg76
(lp2429
S'datetime.datetime(2013, 3, 17, 20, 34, 37, 285286)'
p2430
asbasbasbag69
(g85
g71
NtRp2431
(dp2432
g74
(dp2433
sg83
g79
sg76
(lp2434
g69
(g90
g71
NtRp2435
(dp2436
g74
(dp2437
g94
g95
ssg83
g2431
sg76
(lp2438
S'post_vars'
p2439
asbag69
(g90
g71
NtRp2440
(dp2441
g74
(dp2442
g101
g102
ssg83
g2431
sg76
(lp2443
S':'
asbag69
(g90
g71
NtRp2444
(dp2445
g74
(dp2446
sg83
g2431
sg76
(lp2447
g69
(g70
g71
NtRp2448
(dp2449
g74
(dp2450
g82
I5
ssg83
g2444
sg76
(lp2451
g69
(g78
g71
NtRp2452
(dp2453
g74
(dp2454
g82
I4
ssg83
Nsg76
(lp2455
sbasbasbasbag69
(g85
g71
NtRp2456
(dp2457
g74
(dp2458
sg83
g79
sg76
(lp2459
g69
(g90
g71
NtRp2460
(dp2461
g74
(dp2462
g94
g95
ssg83
g2456
sg76
(lp2463
S'raw_args'
p2464
asbag69
(g90
g71
NtRp2465
(dp2466
g74
(dp2467
g101
g102
ssg83
g2456
sg76
(lp2468
S':'
asbag69
(g90
g71
NtRp2469
(dp2470
g74
(dp2471
sg83
g2456
sg76
(lp2472
g69
(g70
g71
NtRp2473
(dp2474
g74
(dp2475
g82
I5
ssg83
g2469
sg76
(lp2476
S''
asbasbasbag69
(g85
g71
NtRp2477
(dp2478
g74
(dp2479
sg83
g79
sg76
(lp2480
g69
(g90
g71
NtRp2481
(dp2482
g74
(dp2483
g94
g95
ssg83
g2477
sg76
(lp2484
S'raw_extension'
p2485
asbag69
(g90
g71
NtRp2486
(dp2487
g74
(dp2488
g101
g102
ssg83
g2477
sg76
(lp2489
S':'
asbag69
(g90
g71
NtRp2490
(dp2491
g74
(dp2492
sg83
g2477
sg76
(lp2493
g69
(g70
g71
NtRp2494
(dp2495
g74
(dp2496
g82
I5
ssg83
g2490
sg76
(lp2497
g1895
asbasbasbag69
(g85
g71
NtRp2498
(dp2499
g74
(dp2500
sg83
g79
sg76
(lp2501
g69
(g90
g71
NtRp2502
(dp2503
g74
(dp2504
g94
g95
ssg83
g2498
sg76
(lp2505
S'url'
p2506
asbag69
(g90
g71
NtRp2507
(dp2508
g74
(dp2509
g101
g102
ssg83
g2498
sg76
(lp2510
S':'
asbag69
(g90
g71
NtRp2511
(dp2512
g74
(dp2513
sg83
g2498
sg76
(lp2514
g69
(g70
g71
NtRp2515
(dp2516
g74
(dp2517
g82
I5
ssg83
g2511
sg76
(lp2518
g1348
asbasbasbag69
(g85
g71
NtRp2519
(dp2520
g74
(dp2521
sg83
g79
sg76
(lp2522
g69
(g90
g71
NtRp2523
(dp2524
g74
(dp2525
g94
g95
ssg83
g2519
sg76
(lp2526
S'utcnow'
p2527
asbag69
(g90
g71
NtRp2528
(dp2529
g74
(dp2530
g101
g102
ssg83
g2519
sg76
(lp2531
S':'
asbag69
(g90
g71
NtRp2532
(dp2533
g74
(dp2534
sg83
g2519
sg76
(lp2535
g69
(g70
g71
NtRp2536
(dp2537
g74
(dp2538
g82
I5
ssg83
g2532
sg76
(lp2539
S'datetime.datetime(2013, 3, 17, 15, 4, 37, 285309)'
p2540
asbasbasbag69
(g85
g71
NtRp2541
(dp2542
g74
(dp2543
sg83
g79
sg76
(lp2544
g69
(g90
g71
NtRp2545
(dp2546
g74
(dp2547
g94
g95
ssg83
g2541
sg76
(lp2548
S'uuid'
p2549
asbag69
(g90
g71
NtRp2550
(dp2551
g74
(dp2552
g101
g102
ssg83
g2541
sg76
(lp2553
S':'
asbag69
(g90
g71
NtRp2554
(dp2555
g74
(dp2556
sg83
g2541
sg76
(lp2557
g69
(g70
g71
NtRp2558
(dp2559
g74
(dp2560
g82
I5
ssg83
g2554
sg76
(lp2561
S'ggg/127.0.0.1.2013-03-17.20-34-37.1e56a87e-c0a3-453f-a50f-95765ab08391'
p2562
asbasbasbag69
(g85
g71
NtRp2563
(dp2564
g74
(dp2565
sg83
g79
sg76
(lp2566
g69
(g90
g71
NtRp2567
(dp2568
g74
(dp2569
g94
g95
ssg83
g2563
sg76
(lp2570
S'vars'
p2571
asbag69
(g90
g71
NtRp2572
(dp2573
g74
(dp2574
g101
g102
ssg83
g2563
sg76
(lp2575
S':'
asbag69
(g90
g71
NtRp2576
(dp2577
g74
(dp2578
sg83
g2563
sg76
(lp2579
g69
(g70
g71
NtRp2580
(dp2581
g74
(dp2582
g82
I5
ssg83
g2576
sg76
(lp2583
g69
(g78
g71
NtRp2584
(dp2585
g74
(dp2586
g82
I4
ssg83
Nsg76
(lp2587
sbasbasbasbag69
(g85
g71
NtRp2588
(dp2589
g74
(dp2590
sg83
g79
sg76
(lp2591
g69
(g90
g71
NtRp2592
(dp2593
g74
(dp2594
g94
g95
ssg83
g2588
sg76
(lp2595
S'wsgi'
p2596
asbag69
(g90
g71
NtRp2597
(dp2598
g74
(dp2599
g101
g102
ssg83
g2588
sg76
(lp2600
S':'
asbag69
(g90
g71
NtRp2601
(dp2602
g74
(dp2603
sg83
g2588
sg76
(lp2604
g69
(g70
g71
NtRp2605
(dp2606
g74
(dp2607
g82
I5
ssg83
g2601
sg76
(lp2608
g69
(g78
g71
NtRp2609
(dp2610
g74
(dp2611
g82
I4
ssg83
Nsg76
(lp2612
g69
(g85
g71
NtRp2613
(dp2614
g74
(dp2615
sg83
g2609
sg76
(lp2616
g69
(g90
g71
NtRp2617
(dp2618
g74
(dp2619
g94
g95
ssg83
g2613
sg76
(lp2620
S'environ'
p2621
asbag69
(g90
g71
NtRp2622
(dp2623
g74
(dp2624
g101
g102
ssg83
g2613
sg76
(lp2625
S':'
asbag69
(g90
g71
NtRp2626
(dp2627
g74
(dp2628
sg83
g2613
sg76
(lp2629
g69
(g70
g71
NtRp2630
(dp2631
g74
(dp2632
g82
I4
ssg83
g2626
sg76
(lp2633
g69
(g78
g71
NtRp2634
(dp2635
g74
(dp2636
g82
I3
ssg83
Nsg76
(lp2637
g69
(g85
g71
NtRp2638
(dp2639
g74
(dp2640
sg83
g2634
sg76
(lp2641
g69
(g90
g71
NtRp2642
(dp2643
g74
(dp2644
g94
g95
ssg83
g2638
sg76
(lp2645
S'HTTP_ACCEPT'
p2646
asbag69
(g90
g71
NtRp2647
(dp2648
g74
(dp2649
g101
g102
ssg83
g2638
sg76
(lp2650
S':'
asbag69
(g90
g71
NtRp2651
(dp2652
g74
(dp2653
sg83
g2638
sg76
(lp2654
g69
(g70
g71
NtRp2655
(dp2656
g74
(dp2657
g82
I3
ssg83
g2651
sg76
(lp2658
g1040
asbasbasbag69
(g85
g71
NtRp2659
(dp2660
g74
(dp2661
sg83
g2634
sg76
(lp2662
g69
(g90
g71
NtRp2663
(dp2664
g74
(dp2665
g94
g95
ssg83
g2659
sg76
(lp2666
S'HTTP_ACCEPT_ENCODING'
p2667
asbag69
(g90
g71
NtRp2668
(dp2669
g74
(dp2670
g101
g102
ssg83
g2659
sg76
(lp2671
S':'
asbag69
(g90
g71
NtRp2672
(dp2673
g74
(dp2674
sg83
g2659
sg76
(lp2675
g69
(g70
g71
NtRp2676
(dp2677
g74
(dp2678
g82
I3
ssg83
g2672
sg76
(lp2679
g1062
asbasbasbag69
(g85
g71
NtRp2680
(dp2681
g74
(dp2682
sg83
g2634
sg76
(lp2683
g69
(g90
g71
NtRp2684
(dp2685
g74
(dp2686
g94
g95
ssg83
g2680
sg76
(lp2687
S'HTTP_ACCEPT_LANGUAGE'
p2688
asbag69
(g90
g71
NtRp2689
(dp2690
g74
(dp2691
g101
g102
ssg83
g2680
sg76
(lp2692
S':'
asbag69
(g90
g71
NtRp2693
(dp2694
g74
(dp2695
sg83
g2680
sg76
(lp2696
g69
(g70
g71
NtRp2697
(dp2698
g74
(dp2699
g82
I3
ssg83
g2693
sg76
(lp2700
g1084
asbasbasbag69
(g85
g71
NtRp2701
(dp2702
g74
(dp2703
sg83
g2634
sg76
(lp2704
g69
(g90
g71
NtRp2705
(dp2706
g74
(dp2707
g94
g95
ssg83
g2701
sg76
(lp2708
S'HTTP_CONNECTION'
p2709
asbag69
(g90
g71
NtRp2710
(dp2711
g74
(dp2712
g101
g102
ssg83
g2701
sg76
(lp2713
S':'
asbag69
(g90
g71
NtRp2714
(dp2715
g74
(dp2716
sg83
g2701
sg76
(lp2717
g69
(g70
g71
NtRp2718
(dp2719
g74
(dp2720
g82
I3
ssg83
g2714
sg76
(lp2721
g1106
asbasbasbag69
(g85
g71
NtRp2722
(dp2723
g74
(dp2724
sg83
g2634
sg76
(lp2725
g69
(g90
g71
NtRp2726
(dp2727
g74
(dp2728
g94
g95
ssg83
g2722
sg76
(lp2729
S'HTTP_COOKIE'
p2730
asbag69
(g90
g71
NtRp2731
(dp2732
g74
(dp2733
g101
g102
ssg83
g2722
sg76
(lp2734
S':'
asbag69
(g90
g71
NtRp2735
(dp2736
g74
(dp2737
sg83
g2722
sg76
(lp2738
g69
(g70
g71
NtRp2739
(dp2740
g74
(dp2741
g82
I3
ssg83
g2735
sg76
(lp2742
g1128
asbasbasbag69
(g85
g71
NtRp2743
(dp2744
g74
(dp2745
sg83
g2634
sg76
(lp2746
g69
(g90
g71
NtRp2747
(dp2748
g74
(dp2749
g94
g95
ssg83
g2743
sg76
(lp2750
S'HTTP_HOST'
p2751
asbag69
(g90
g71
NtRp2752
(dp2753
g74
(dp2754
g101
g102
ssg83
g2743
sg76
(lp2755
S':'
asbag69
(g90
g71
NtRp2756
(dp2757
g74
(dp2758
sg83
g2743
sg76
(lp2759
g69
(g70
g71
NtRp2760
(dp2761
g74
(dp2762
g82
I3
ssg83
g2756
sg76
(lp2763
g1150
asbasbasbag69
(g85
g71
NtRp2764
(dp2765
g74
(dp2766
sg83
g2634
sg76
(lp2767
g69
(g90
g71
NtRp2768
(dp2769
g74
(dp2770
g94
g95
ssg83
g2764
sg76
(lp2771
S'HTTP_REFERER'
p2772
asbag69
(g90
g71
NtRp2773
(dp2774
g74
(dp2775
g101
g102
ssg83
g2764
sg76
(lp2776
S':'
asbag69
(g90
g71
NtRp2777
(dp2778
g74
(dp2779
sg83
g2764
sg76
(lp2780
g69
(g70
g71
NtRp2781
(dp2782
g74
(dp2783
g82
I3
ssg83
g2777
sg76
(lp2784
g1172
asbasbasbag69
(g85
g71
NtRp2785
(dp2786
g74
(dp2787
sg83
g2634
sg76
(lp2788
g69
(g90
g71
NtRp2789
(dp2790
g74
(dp2791
g94
g95
ssg83
g2785
sg76
(lp2792
S'HTTP_USER_AGENT'
p2793
asbag69
(g90
g71
NtRp2794
(dp2795
g74
(dp2796
g101
g102
ssg83
g2785
sg76
(lp2797
S':'
asbag69
(g90
g71
NtRp2798
(dp2799
g74
(dp2800
sg83
g2785
sg76
(lp2801
g69
(g70
g71
NtRp2802
(dp2803
g74
(dp2804
g82
I3
ssg83
g2798
sg76
(lp2805
g1194
asbasbasbag69
(g85
g71
NtRp2806
(dp2807
g74
(dp2808
sg83
g2634
sg76
(lp2809
g69
(g90
g71
NtRp2810
(dp2811
g74
(dp2812
g94
g95
ssg83
g2806
sg76
(lp2813
S'PATH_INFO'
p2814
asbag69
(g90
g71
NtRp2815
(dp2816
g74
(dp2817
g101
g102
ssg83
g2806
sg76
(lp2818
S':'
asbag69
(g90
g71
NtRp2819
(dp2820
g74
(dp2821
sg83
g2806
sg76
(lp2822
g69
(g70
g71
NtRp2823
(dp2824
g74
(dp2825
g82
I3
ssg83
g2819
sg76
(lp2826
g1348
asbasbasbag69
(g85
g71
NtRp2827
(dp2828
g74
(dp2829
sg83
g2634
sg76
(lp2830
g69
(g90
g71
NtRp2831
(dp2832
g74
(dp2833
g94
g95
ssg83
g2827
sg76
(lp2834
S'QUERY_STRING'
p2835
asbag69
(g90
g71
NtRp2836
(dp2837
g74
(dp2838
g101
g102
ssg83
g2827
sg76
(lp2839
S':'
asbag69
(g90
g71
NtRp2840
(dp2841
g74
(dp2842
sg83
g2827
sg76
(lp2843
g69
(g70
g71
NtRp2844
(dp2845
g74
(dp2846
g82
I3
ssg83
g2840
sg76
(lp2847
S''
asbasbasbag69
(g85
g71
NtRp2848
(dp2849
g74
(dp2850
sg83
g2634
sg76
(lp2851
g69
(g90
g71
NtRp2852
(dp2853
g74
(dp2854
g94
g95
ssg83
g2848
sg76
(lp2855
S'REMOTE_ADDR'
p2856
asbag69
(g90
g71
NtRp2857
(dp2858
g74
(dp2859
g101
g102
ssg83
g2848
sg76
(lp2860
S':'
asbag69
(g90
g71
NtRp2861
(dp2862
g74
(dp2863
sg83
g2848
sg76
(lp2864
g69
(g70
g71
NtRp2865
(dp2866
g74
(dp2867
g82
I3
ssg83
g2861
sg76
(lp2868
g224
asbasbasbag69
(g85
g71
NtRp2869
(dp2870
g74
(dp2871
sg83
g2634
sg76
(lp2872
g69
(g90
g71
NtRp2873
(dp2874
g74
(dp2875
g94
g95
ssg83
g2869
sg76
(lp2876
S'REMOTE_PORT'
p2877
asbag69
(g90
g71
NtRp2878
(dp2879
g74
(dp2880
g101
g102
ssg83
g2869
sg76
(lp2881
S':'
asbag69
(g90
g71
NtRp2882
(dp2883
g74
(dp2884
sg83
g2869
sg76
(lp2885
g69
(g70
g71
NtRp2886
(dp2887
g74
(dp2888
g82
I3
ssg83
g2882
sg76
(lp2889
g1412
asbasbasbag69
(g85
g71
NtRp2890
(dp2891
g74
(dp2892
sg83
g2634
sg76
(lp2893
g69
(g90
g71
NtRp2894
(dp2895
g74
(dp2896
g94
g95
ssg83
g2890
sg76
(lp2897
S'REQUEST_METHOD'
p2898
asbag69
(g90
g71
NtRp2899
(dp2900
g74
(dp2901
g101
g102
ssg83
g2890
sg76
(lp2902
S':'
asbag69
(g90
g71
NtRp2903
(dp2904
g74
(dp2905
sg83
g2890
sg76
(lp2906
g69
(g70
g71
NtRp2907
(dp2908
g74
(dp2909
g82
I3
ssg83
g2903
sg76
(lp2910
g1434
asbasbasbag69
(g85
g71
NtRp2911
(dp2912
g74
(dp2913
sg83
g2634
sg76
(lp2914
g69
(g90
g71
NtRp2915
(dp2916
g74
(dp2917
g94
g95
ssg83
g2911
sg76
(lp2918
S'REQUEST_URI'
p2919
asbag69
(g90
g71
NtRp2920
(dp2921
g74
(dp2922
g101
g102
ssg83
g2911
sg76
(lp2923
S':'
asbag69
(g90
g71
NtRp2924
(dp2925
g74
(dp2926
sg83
g2911
sg76
(lp2927
g69
(g70
g71
NtRp2928
(dp2929
g74
(dp2930
g82
I3
ssg83
g2924
sg76
(lp2931
g1348
asbasbasbag69
(g85
g71
NtRp2932
(dp2933
g74
(dp2934
sg83
g2634
sg76
(lp2935
g69
(g90
g71
NtRp2936
(dp2937
g74
(dp2938
g94
g95
ssg83
g2932
sg76
(lp2939
S'SCRIPT_NAME'
p2940
asbag69
(g90
g71
NtRp2941
(dp2942
g74
(dp2943
g101
g102
ssg83
g2932
sg76
(lp2944
S':'
asbag69
(g90
g71
NtRp2945
(dp2946
g74
(dp2947
sg83
g2932
sg76
(lp2948
g69
(g70
g71
NtRp2949
(dp2950
g74
(dp2951
g82
I3
ssg83
g2945
sg76
(lp2952
S''
asbasbasbag69
(g85
g71
NtRp2953
(dp2954
g74
(dp2955
sg83
g2634
sg76
(lp2956
g69
(g90
g71
NtRp2957
(dp2958
g74
(dp2959
g94
g95
ssg83
g2953
sg76
(lp2960
S'SERVER_NAME'
p2961
asbag69
(g90
g71
NtRp2962
(dp2963
g74
(dp2964
g101
g102
ssg83
g2953
sg76
(lp2965
S':'
asbag69
(g90
g71
NtRp2966
(dp2967
g74
(dp2968
sg83
g2953
sg76
(lp2969
g69
(g70
g71
NtRp2970
(dp2971
g74
(dp2972
g82
I3
ssg83
g2966
sg76
(lp2973
g1498
asbasbasbag69
(g85
g71
NtRp2974
(dp2975
g74
(dp2976
sg83
g2634
sg76
(lp2977
g69
(g90
g71
NtRp2978
(dp2979
g74
(dp2980
g94
g95
ssg83
g2974
sg76
(lp2981
S'SERVER_PORT'
p2982
asbag69
(g90
g71
NtRp2983
(dp2984
g74
(dp2985
g101
g102
ssg83
g2974
sg76
(lp2986
S':'
asbag69
(g90
g71
NtRp2987
(dp2988
g74
(dp2989
sg83
g2974
sg76
(lp2990
g69
(g70
g71
NtRp2991
(dp2992
g74
(dp2993
g82
I3
ssg83
g2987
sg76
(lp2994
g1520
asbasbasbag69
(g85
g71
NtRp2995
(dp2996
g74
(dp2997
sg83
g2634
sg76
(lp2998
g69
(g90
g71
NtRp2999
(dp3000
g74
(dp3001
g94
g95
ssg83
g2995
sg76
(lp3002
S'SERVER_PROTOCOL'
p3003
asbag69
(g90
g71
NtRp3004
(dp3005
g74
(dp3006
g101
g102
ssg83
g2995
sg76
(lp3007
S':'
asbag69
(g90
g71
NtRp3008
(dp3009
g74
(dp3010
sg83
g2995
sg76
(lp3011
g69
(g70
g71
NtRp3012
(dp3013
g74
(dp3014
g82
I3
ssg83
g3008
sg76
(lp3015
g1542
asbasbasbag69
(g85
g71
NtRp3016
(dp3017
g74
(dp3018
sg83
g2634
sg76
(lp3019
g69
(g90
g71
NtRp3020
(dp3021
g74
(dp3022
g94
g95
ssg83
g3016
sg76
(lp3023
S'SERVER_SOFTWARE'
p3024
asbag69
(g90
g71
NtRp3025
(dp3026
g74
(dp3027
g101
g102
ssg83
g3016
sg76
(lp3028
S':'
asbag69
(g90
g71
NtRp3029
(dp3030
g74
(dp3031
sg83
g3016
sg76
(lp3032
g69
(g70
g71
NtRp3033
(dp3034
g74
(dp3035
g82
I3
ssg83
g3029
sg76
(lp3036
g1564
asbasbasbag69
(g85
g71
NtRp3037
(dp3038
g74
(dp3039
sg83
g2634
sg76
(lp3040
g69
(g90
g71
NtRp3041
(dp3042
g74
(dp3043
g94
g95
ssg83
g3037
sg76
(lp3044
S'wsgi.errors'
p3045
asbag69
(g90
g71
NtRp3046
(dp3047
g74
(dp3048
g101
g102
ssg83
g3037
sg76
(lp3049
S':'
asbag69
(g90
g71
NtRp3050
(dp3051
g74
(dp3052
sg83
g3037
sg76
(lp3053
g69
(g70
g71
NtRp3054
(dp3055
g74
(dp3056
g82
I3
ssg83
g3050
sg76
(lp3057
S"<open file '<stderr>', mode 'w' at 0x7fdd50f2a270>"
p3058
asbasbasbag69
(g85
g71
NtRp3059
(dp3060
g74
(dp3061
sg83
g2634
sg76
(lp3062
g69
(g90
g71
NtRp3063
(dp3064
g74
(dp3065
g94
g95
ssg83
g3059
sg76
(lp3066
S'wsgi.file_wrapper'
p3067
asbag69
(g90
g71
NtRp3068
(dp3069
g74
(dp3070
g101
g102
ssg83
g3059
sg76
(lp3071
S':'
asbag69
(g90
g71
NtRp3072
(dp3073
g74
(dp3074
sg83
g3059
sg76
(lp3075
g69
(g70
g71
NtRp3076
(dp3077
g74
(dp3078
g82
I3
ssg83
g3072
sg76
(lp3079
S'<class wsgiref.util.FileWrapper at 0x168ec18>'
p3080
asbasbasbag69
(g85
g71
NtRp3081
(dp3082
g74
(dp3083
sg83
g2634
sg76
(lp3084
g69
(g90
g71
NtRp3085
(dp3086
g74
(dp3087
g94
g95
ssg83
g3081
sg76
(lp3088
S'wsgi.input'
p3089
asbag69
(g90
g71
NtRp3090
(dp3091
g74
(dp3092
g101
g102
ssg83
g3081
sg76
(lp3093
S':'
asbag69
(g90
g71
NtRp3094
(dp3095
g74
(dp3096
sg83
g3081
sg76
(lp3097
g69
(g70
g71
NtRp3098
(dp3099
g74
(dp3100
g82
I3
ssg83
g3094
sg76
(lp3101
S'<cStringIO.StringO object at 0x1a2a3e8>'
p3102
asbasbasbag69
(g85
g71
NtRp3103
(dp3104
g74
(dp3105
sg83
g2634
sg76
(lp3106
g69
(g90
g71
NtRp3107
(dp3108
g74
(dp3109
g94
g95
ssg83
g3103
sg76
(lp3110
S'wsgi.multiprocess'
p3111
asbag69
(g90
g71
NtRp3112
(dp3113
g74
(dp3114
g101
g102
ssg83
g3103
sg76
(lp3115
S':'
asbag69
(g90
g71
NtRp3116
(dp3117
g74
(dp3118
sg83
g3103
sg76
(lp3119
g69
(g70
g71
NtRp3120
(dp3121
g74
(dp3122
g82
I3
ssg83
g3116
sg76
(lp3123
g112
asbasbasbag69
(g85
g71
NtRp3124
(dp3125
g74
(dp3126
sg83
g2634
sg76
(lp3127
g69
(g90
g71
NtRp3128
(dp3129
g74
(dp3130
g94
g95
ssg83
g3124
sg76
(lp3131
S'wsgi.multithread'
p3132
asbag69
(g90
g71
NtRp3133
(dp3134
g74
(dp3135
g101
g102
ssg83
g3124
sg76
(lp3136
S':'
asbag69
(g90
g71
NtRp3137
(dp3138
g74
(dp3139
sg83
g3124
sg76
(lp3140
g69
(g70
g71
NtRp3141
(dp3142
g74
(dp3143
g82
I3
ssg83
g3137
sg76
(lp3144
g1781
asbasbasbag69
(g85
g71
NtRp3145
(dp3146
g74
(dp3147
sg83
g2634
sg76
(lp3148
g69
(g90
g71
NtRp3149
(dp3150
g74
(dp3151
g94
g95
ssg83
g3145
sg76
(lp3152
S'wsgi.run_once'
p3153
asbag69
(g90
g71
NtRp3154
(dp3155
g74
(dp3156
g101
g102
ssg83
g3145
sg76
(lp3157
S':'
asbag69
(g90
g71
NtRp3158
(dp3159
g74
(dp3160
sg83
g3145
sg76
(lp3161
g69
(g70
g71
NtRp3162
(dp3163
g74
(dp3164
g82
I3
ssg83
g3158
sg76
(lp3165
g112
asbasbasbag69
(g85
g71
NtRp3166
(dp3167
g74
(dp3168
sg83
g2634
sg76
(lp3169
g69
(g90
g71
NtRp3170
(dp3171
g74
(dp3172
g94
g95
ssg83
g3166
sg76
(lp3173
S'wsgi.url_scheme'
p3174
asbag69
(g90
g71
NtRp3175
(dp3176
g74
(dp3177
g101
g102
ssg83
g3166
sg76
(lp3178
S':'
asbag69
(g90
g71
NtRp3179
(dp3180
g74
(dp3181
sg83
g3166
sg76
(lp3182
g69
(g70
g71
NtRp3183
(dp3184
g74
(dp3185
g82
I3
ssg83
g3179
sg76
(lp3186
g1824
asbasbasbag69
(g85
g71
NtRp3187
(dp3188
g74
(dp3189
sg83
g2634
sg76
(lp3190
g69
(g90
g71
NtRp3191
(dp3192
g74
(dp3193
g94
g95
ssg83
g3187
sg76
(lp3194
S'wsgi.version'
p3195
asbag69
(g90
g71
NtRp3196
(dp3197
g74
(dp3198
g101
g102
ssg83
g3187
sg76
(lp3199
S':'
asbag69
(g90
g71
NtRp3200
(dp3201
g74
(dp3202
sg83
g3187
sg76
(lp3203
g69
(g70
g71
NtRp3204
(dp3205
g74
(dp3206
g82
I3
ssg83
g3200
sg76
(lp3207
S'1'
asbasbasbasbasbasbasbasbasbasbasbasbasbsS'frames'
p3208
(lp3209
(dp3210
S'file'
p3211
S'/home/saurabh/web2py/gluon/restricted.py'
p3212
sS'dump'
p3213
(dp3214
S'code'
p3215
S"'# -*- coding: utf-8 -*-\\n# this file is released ...ict(f=f) \\n\\nresponse._vars=response._caller(exam)\\n'"
p3216
sS'layer'
p3217
S"'/home/saurabh/web2py/applications/ggg/controllers/default.py'"
p3218
sS'global compile2'
p3219
S'<function compile2>'
p3220
sS'ccode'
p3221
S'undefined'
p3222
ssS'lnum'
p3223
I211
sS'lines'
p3224
(dp3225
I206
S"    environment['__name__'] = '__restricted__'"
p3226
sI207
S'    try:'
p3227
sI208
S'        if isinstance(code, types.CodeType):'
p3228
sI209
S'            ccode = code'
p3229
sI210
S'        else:'
p3230
sI211
S'            ccode = compile2(code, layer)'
p3231
sI212
S'        exec ccode in environment'
p3232
sI213
S'    except HTTP:'
p3233
sI214
S'        raise'
p3234
sI215
S'    except RestrictedError:'
p3235
ssS'call'
p3236
S"(code='# -*- coding: utf-8 -*-\\n# this file is released ...ict(f=f) \\n\\nresponse._vars=response._caller(exam)\\n', environment={'A': <class 'gluon.html.A'>, 'Auth': <class 'gluon.tools.Auth'>, 'B': <class 'gluon.html.B'>, 'BEAUTIFY': <class 'gluon.html.BEAUTIFY'>, 'BODY': <class 'gluon.html.BODY'>, 'BR': <class 'gluon.html.BR'>, 'BUTTON': <class 'gluon.html.BUTTON'>, 'CAT': <class 'gluon.html.CAT'>, 'CENTER': <class 'gluon.html.CENTER'>, 'CLEANUP': <class 'gluon.validators.CLEANUP'>, ...}, layer='/home/saurabh/web2py/applications/ggg/controllers/default.py')"
p3237
sS'func'
p3238
S'restricted'
p3239
sa(dp3240
g3211
S'/home/saurabh/web2py/gluon/restricted.py'
p3241
sg3213
(dp3242
S'builtincompile'
p3243
S'<built-in function compile>'
p3244
sS'code'
p3245
S"'# -*- coding: utf-8 -*-\\n# this file is released ...ict(f=f) \\n\\nresponse._vars=response._caller(exam)\\n'"
p3246
sS'code.rstrip'
p3247
S'<built-in method rstrip of str object>'
p3248
sS').replace'
p3249
g3222
sS'layer'
p3250
S"'/home/saurabh/web2py/applications/ggg/controllers/default.py'"
p3251
ssg3223
I194
sg3224
(dp3252
I192
S"    The +'\\n' is necessary else compile fails when code ends in a comment."
p3253
sI193
S'    """'
p3254
sI194
S"    return compile(code.rstrip().replace('\\r\\n', '\\n') + '\\n', layer, 'exec')"
p3255
sI195
S''
sI196
S''
sI197
S"def restricted(code, environment=None, layer='Unknown'):"
p3256
sI198
S'    """'
p3257
sI189
S''
sI190
S'def compile2(code, layer):'
p3258
sI191
S'    """'
p3259
ssg3236
S"(code='# -*- coding: utf-8 -*-\\n# this file is released ...ict(f=f) \\n\\nresponse._vars=response._caller(exam)\\n', layer='/home/saurabh/web2py/applications/ggg/controllers/default.py')"
p3260
sg3238
S'compile2'
p3261
sasS'pyver'
p3262
S'Python 2.7.3: /usr/bin/python'
p3263
sS'session'
p3264
g69
(g70
g71
NtRp3265
(dp3266
g74
(dp3267
sg76
(lp3268
g69
(g78
g71
NtRp3269
(dp3270
g74
(dp3271
g82
I5
ssg83
Nsg76
(lp3272
g69
(g85
g71
NtRp3273
(dp3274
g74
(dp3275
sg83
g3269
sg76
(lp3276
g69
(g90
g71
NtRp3277
(dp3278
g74
(dp3279
g94
g95
ssg83
g3273
sg76
(lp3280
S'auth'
p3281
asbag69
(g90
g71
NtRp3282
(dp3283
g74
(dp3284
g101
g102
ssg83
g3273
sg76
(lp3285
S':'
asbag69
(g90
g71
NtRp3286
(dp3287
g74
(dp3288
sg83
g3273
sg76
(lp3289
g69
(g70
g71
NtRp3290
(dp3291
g74
(dp3292
g82
I5
ssg83
g3286
sg76
(lp3293
g69
(g78
g71
NtRp3294
(dp3295
g74
(dp3296
g82
I4
ssg83
Nsg76
(lp3297
g69
(g85
g71
NtRp3298
(dp3299
g74
(dp3300
sg83
g3294
sg76
(lp3301
g69
(g90
g71
NtRp3302
(dp3303
g74
(dp3304
g94
g95
ssg83
g3298
sg76
(lp3305
S'expiration'
p3306
asbag69
(g90
g71
NtRp3307
(dp3308
g74
(dp3309
g101
g102
ssg83
g3298
sg76
(lp3310
S':'
asbag69
(g90
g71
NtRp3311
(dp3312
g74
(dp3313
sg83
g3298
sg76
(lp3314
g69
(g70
g71
NtRp3315
(dp3316
g74
(dp3317
g82
I4
ssg83
g3311
sg76
(lp3318
S'3600'
p3319
asbasbasbag69
(g85
g71
NtRp3320
(dp3321
g74
(dp3322
sg83
g3294
sg76
(lp3323
g69
(g90
g71
NtRp3324
(dp3325
g74
(dp3326
g94
g95
ssg83
g3320
sg76
(lp3327
S'hmac_key'
p3328
asbag69
(g90
g71
NtRp3329
(dp3330
g74
(dp3331
g101
g102
ssg83
g3320
sg76
(lp3332
S':'
asbag69
(g90
g71
NtRp3333
(dp3334
g74
(dp3335
sg83
g3320
sg76
(lp3336
g69
(g70
g71
NtRp3337
(dp3338
g74
(dp3339
g82
I4
ssg83
g3333
sg76
(lp3340
S'b3addd8e-2260-452a-a907-e90217739264'
p3341
asbasbasbag69
(g85
g71
NtRp3342
(dp3343
g74
(dp3344
sg83
g3294
sg76
(lp3345
g69
(g90
g71
NtRp3346
(dp3347
g74
(dp3348
g94
g95
ssg83
g3342
sg76
(lp3349
S'last_visit'
p3350
asbag69
(g90
g71
NtRp3351
(dp3352
g74
(dp3353
g101
g102
ssg83
g3342
sg76
(lp3354
S':'
asbag69
(g90
g71
NtRp3355
(dp3356
g74
(dp3357
sg83
g3342
sg76
(lp3358
g69
(g70
g71
NtRp3359
(dp3360
g74
(dp3361
g82
I4
ssg83
g3355
sg76
(lp3362
S'datetime.datetime(2013, 3, 17, 20, 30, 46, 883563)'
p3363
asbasbasbag69
(g85
g71
NtRp3364
(dp3365
g74
(dp3366
sg83
g3294
sg76
(lp3367
g69
(g90
g71
NtRp3368
(dp3369
g74
(dp3370
g94
g95
ssg83
g3364
sg76
(lp3371
S'remember'
p3372
asbag69
(g90
g71
NtRp3373
(dp3374
g74
(dp3375
g101
g102
ssg83
g3364
sg76
(lp3376
S':'
asbag69
(g90
g71
NtRp3377
(dp3378
g74
(dp3379
sg83
g3364
sg76
(lp3380
g69
(g70
g71
NtRp3381
(dp3382
g74
(dp3383
g82
I4
ssg83
g3377
sg76
(lp3384
g112
asbasbasbag69
(g85
g71
NtRp3385
(dp3386
g74
(dp3387
sg83
g3294
sg76
(lp3388
g69
(g90
g71
NtRp3389
(dp3390
g74
(dp3391
g94
g95
ssg83
g3385
sg76
(lp3392
S'user'
p3393
asbag69
(g90
g71
NtRp3394
(dp3395
g74
(dp3396
g101
g102
ssg83
g3385
sg76
(lp3397
S':'
asbag69
(g90
g71
NtRp3398
(dp3399
g74
(dp3400
sg83
g3385
sg76
(lp3401
g69
(g70
g71
NtRp3402
(dp3403
g74
(dp3404
g82
I4
ssg83
g3398
sg76
(lp3405
g69
(g78
g71
NtRp3406
(dp3407
g74
(dp3408
g82
I3
ssg83
Nsg76
(lp3409
g69
(g85
g71
NtRp3410
(dp3411
g74
(dp3412
sg83
g3406
sg76
(lp3413
g69
(g90
g71
NtRp3414
(dp3415
g74
(dp3416
g94
g95
ssg83
g3410
sg76
(lp3417
S'email'
p3418
asbag69
(g90
g71
NtRp3419
(dp3420
g74
(dp3421
g101
g102
ssg83
g3410
sg76
(lp3422
S':'
asbag69
(g90
g71
NtRp3423
(dp3424
g74
(dp3425
sg83
g3410
sg76
(lp3426
g69
(g70
g71
NtRp3427
(dp3428
g74
(dp3429
g82
I3
ssg83
g3423
sg76
(lp3430
S's@s.com'
p3431
asbasbasbag69
(g85
g71
NtRp3432
(dp3433
g74
(dp3434
sg83
g3406
sg76
(lp3435
g69
(g90
g71
NtRp3436
(dp3437
g74
(dp3438
g94
g95
ssg83
g3432
sg76
(lp3439
S'first_name'
p3440
asbag69
(g90
g71
NtRp3441
(dp3442
g74
(dp3443
g101
g102
ssg83
g3432
sg76
(lp3444
S':'
asbag69
(g90
g71
NtRp3445
(dp3446
g74
(dp3447
sg83
g3432
sg76
(lp3448
g69
(g70
g71
NtRp3449
(dp3450
g74
(dp3451
g82
I3
ssg83
g3445
sg76
(lp3452
S'Saurabh'
p3453
asbasbasbag69
(g85
g71
NtRp3454
(dp3455
g74
(dp3456
sg83
g3406
sg76
(lp3457
g69
(g90
g71
NtRp3458
(dp3459
g74
(dp3460
g94
g95
ssg83
g3454
sg76
(lp3461
S'id'
p3462
asbag69
(g90
g71
NtRp3463
(dp3464
g74
(dp3465
g101
g102
ssg83
g3454
sg76
(lp3466
S':'
asbag69
(g90
g71
NtRp3467
(dp3468
g74
(dp3469
sg83
g3454
sg76
(lp3470
g69
(g70
g71
NtRp3471
(dp3472
g74
(dp3473
g82
I3
ssg83
g3467
sg76
(lp3474
S'5'
asbasbasbag69
(g85
g71
NtRp3475
(dp3476
g74
(dp3477
sg83
g3406
sg76
(lp3478
g69
(g90
g71
NtRp3479
(dp3480
g74
(dp3481
g94
g95
ssg83
g3475
sg76
(lp3482
S'last_name'
p3483
asbag69
(g90
g71
NtRp3484
(dp3485
g74
(dp3486
g101
g102
ssg83
g3475
sg76
(lp3487
S':'
asbag69
(g90
g71
NtRp3488
(dp3489
g74
(dp3490
sg83
g3475
sg76
(lp3491
g69
(g70
g71
NtRp3492
(dp3493
g74
(dp3494
g82
I3
ssg83
g3488
sg76
(lp3495
S'Kathpalia'
p3496
asbasbasbag69
(g85
g71
NtRp3497
(dp3498
g74
(dp3499
sg83
g3406
sg76
(lp3500
g69
(g90
g71
NtRp3501
(dp3502
g74
(dp3503
g94
g95
ssg83
g3497
sg76
(lp3504
S'registration_id'
p3505
asbag69
(g90
g71
NtRp3506
(dp3507
g74
(dp3508
g101
g102
ssg83
g3497
sg76
(lp3509
S':'
asbag69
(g90
g71
NtRp3510
(dp3511
g74
(dp3512
sg83
g3497
sg76
(lp3513
g69
(g70
g71
NtRp3514
(dp3515
g74
(dp3516
g82
I3
ssg83
g3510
sg76
(lp3517
S''
asbasbasbag69
(g85
g71
NtRp3518
(dp3519
g74
(dp3520
sg83
g3406
sg76
(lp3521
g69
(g90
g71
NtRp3522
(dp3523
g74
(dp3524
g94
g95
ssg83
g3518
sg76
(lp3525
S'registration_key'
p3526
asbag69
(g90
g71
NtRp3527
(dp3528
g74
(dp3529
g101
g102
ssg83
g3518
sg76
(lp3530
S':'
asbag69
(g90
g71
NtRp3531
(dp3532
g74
(dp3533
sg83
g3518
sg76
(lp3534
g69
(g70
g71
NtRp3535
(dp3536
g74
(dp3537
g82
I3
ssg83
g3531
sg76
(lp3538
S''
asbasbasbag69
(g85
g71
NtRp3539
(dp3540
g74
(dp3541
sg83
g3406
sg76
(lp3542
g69
(g90
g71
NtRp3543
(dp3544
g74
(dp3545
g94
g95
ssg83
g3539
sg76
(lp3546
S'reset_password_key'
p3547
asbag69
(g90
g71
NtRp3548
(dp3549
g74
(dp3550
g101
g102
ssg83
g3539
sg76
(lp3551
S':'
asbag69
(g90
g71
NtRp3552
(dp3553
g74
(dp3554
sg83
g3539
sg76
(lp3555
g69
(g70
g71
NtRp3556
(dp3557
g74
(dp3558
g82
I3
ssg83
g3552
sg76
(lp3559
S''
asbasbasbasbasbasbasbag69
(g85
g71
NtRp3560
(dp3561
g74
(dp3562
sg83
g3294
sg76
(lp3563
g69
(g90
g71
NtRp3564
(dp3565
g74
(dp3566
g94
g95
ssg83
g3560
sg76
(lp3567
S'user_groups'
p3568
asbag69
(g90
g71
NtRp3569
(dp3570
g74
(dp3571
g101
g102
ssg83
g3560
sg76
(lp3572
S':'
asbag69
(g90
g71
NtRp3573
(dp3574
g74
(dp3575
sg83
g3560
sg76
(lp3576
g69
(g70
g71
NtRp3577
(dp3578
g74
(dp3579
g82
I4
ssg83
g3573
sg76
(lp3580
g69
(g78
g71
NtRp3581
(dp3582
g74
(dp3583
g82
I3
ssg83
Nsg76
(lp3584
g69
(g85
g71
NtRp3585
(dp3586
g74
(dp3587
sg83
g3581
sg76
(lp3588
g69
(g90
g71
NtRp3589
(dp3590
g74
(dp3591
g94
g95
ssg83
g3585
sg76
(lp3592
S'5'
asbag69
(g90
g71
NtRp3593
(dp3594
g74
(dp3595
g101
g102
ssg83
g3585
sg76
(lp3596
S':'
asbag69
(g90
g71
NtRp3597
(dp3598
g74
(dp3599
sg83
g3585
sg76
(lp3600
g69
(g70
g71
NtRp3601
(dp3602
g74
(dp3603
g82
I3
ssg83
g3597
sg76
(lp3604
S'user_5'
p3605
asbasbasbasbasbasbasbasbasbasbasbag69
(g85
g71
NtRp3606
(dp3607
g74
(dp3608
sg83
g3269
sg76
(lp3609
g69
(g90
g71
NtRp3610
(dp3611
g74
(dp3612
g94
g95
ssg83
g3606
sg76
(lp3613
S'flash'
p3614
asbag69
(g90
g71
NtRp3615
(dp3616
g74
(dp3617
g101
g102
ssg83
g3606
sg76
(lp3618
S':'
asbag69
(g90
g71
NtRp3619
(dp3620
g74
(dp3621
sg83
g3606
sg76
(lp3622
g69
(g70
g71
NtRp3623
(dp3624
g74
(dp3625
g82
I5
ssg83
g3619
sg76
(lp3626
S'None'
p3627
asbasbasbag69
(g85
g71
NtRp3628
(dp3629
g74
(dp3630
sg83
g3269
sg76
(lp3631
g69
(g90
g71
NtRp3632
(dp3633
g74
(dp3634
g94
g95
ssg83
g3628
sg76
(lp3635
S'last_orderby'
p3636
asbag69
(g90
g71
NtRp3637
(dp3638
g74
(dp3639
g101
g102
ssg83
g3628
sg76
(lp3640
S':'
asbag69
(g90
g71
NtRp3641
(dp3642
g74
(dp3643
sg83
g3628
sg76
(lp3644
g69
(g70
g71
NtRp3645
(dp3646
g74
(dp3647
g82
I5
ssg83
g3641
sg76
(lp3648
S'None'
p3649
asbasbasbag69
(g85
g71
NtRp3650
(dp3651
g74
(dp3652
sg83
g3269
sg76
(lp3653
g69
(g90
g71
NtRp3654
(dp3655
g74
(dp3656
g94
g95
ssg83
g3650
sg76
(lp3657
S'last_query'
p3658
asbag69
(g90
g71
NtRp3659
(dp3660
g74
(dp3661
g101
g102
ssg83
g3650
sg76
(lp3662
S':'
asbag69
(g90
g71
NtRp3663
(dp3664
g74
(dp3665
sg83
g3650
sg76
(lp3666
g69
(g70
g71
NtRp3667
(dp3668
g74
(dp3669
g82
I5
ssg83
g3663
sg76
(lp3670
S'db.auth_user.id>0'
p3671
asbasbasbasbasbsS'etype'
p3672
S"<type 'exceptions.IndentationError'>"
p3673
sS'date'
p3674
S'Sun Mar 17 20:34:37 2013'
p3675
sS'response'
p3676
g69
(g70
g71
NtRp3677
(dp3678
g74
(dp3679
sg76
(lp3680
g69
(g78
g71
NtRp3681
(dp3682
g74
(dp3683
g82
I5
ssg83
Nsg76
(lp3684
g69
(g85
g71
NtRp3685
(dp3686
g74
(dp3687
sg83
g3681
sg76
(lp3688
g69
(g90
g71
NtRp3689
(dp3690
g74
(dp3691
g94
g95
ssg83
g3685
sg76
(lp3692
g167
asbag69
(g90
g71
NtRp3693
(dp3694
g74
(dp3695
g101
g102
ssg83
g3685
sg76
(lp3696
S':'
asbag69
(g90
g71
NtRp3697
(dp3698
g74
(dp3699
sg83
g3685
sg76
(lp3700
g69
(g70
g71
NtRp3701
(dp3702
g74
(dp3703
g82
I5
ssg83
g3697
sg76
(lp3704
S'<cStringIO.StringO object at 0x7fdd1c103030>'
p3705
asbasbasbag69
(g85
g71
NtRp3706
(dp3707
g74
(dp3708
sg83
g3681
sg76
(lp3709
g69
(g90
g71
NtRp3710
(dp3711
g74
(dp3712
g94
g95
ssg83
g3706
sg76
(lp3713
g255
asbag69
(g90
g71
NtRp3714
(dp3715
g74
(dp3716
g101
g102
ssg83
g3706
sg76
(lp3717
S':'
asbag69
(g90
g71
NtRp3718
(dp3719
g74
(dp3720
sg83
g3706
sg76
(lp3721
g69
(g70
g71
NtRp3722
(dp3723
g74
(dp3724
g82
I5
ssg83
g3718
sg76
(lp3725
g69
(g78
g71
NtRp3726
(dp3727
g74
(dp3728
g82
I4
ssg83
Nsg76
(lp3729
g69
(g85
g71
NtRp3730
(dp3731
g74
(dp3732
sg83
g3726
sg76
(lp3733
g69
(g90
g71
NtRp3734
(dp3735
g74
(dp3736
g94
g95
ssg83
g3730
sg76
(lp3737
S'session_id_ggg'
p3738
asbag69
(g90
g71
NtRp3739
(dp3740
g74
(dp3741
g101
g102
ssg83
g3730
sg76
(lp3742
S':'
asbag69
(g90
g71
NtRp3743
(dp3744
g74
(dp3745
sg83
g3730
sg76
(lp3746
g69
(g70
g71
NtRp3747
(dp3748
g74
(dp3749
g82
I4
ssg83
g3743
sg76
(lp3750
g487
ag69
(g78
g71
NtRp3751
(dp3752
g74
(dp3753
g82
I3
ssg83
Nsg76
(lp3754
g69
(g85
g71
NtRp3755
(dp3756
g74
(dp3757
sg83
g3751
sg76
(lp3758
g69
(g90
g71
NtRp3759
(dp3760
g74
(dp3761
g94
g95
ssg83
g3755
sg76
(lp3762
g306
asbag69
(g90
g71
NtRp3763
(dp3764
g74
(dp3765
g101
g102
ssg83
g3755
sg76
(lp3766
S':'
asbag69
(g90
g71
NtRp3767
(dp3768
g74
(dp3769
sg83
g3755
sg76
(lp3770
g69
(g70
g71
NtRp3771
(dp3772
g74
(dp3773
g82
I3
ssg83
g3767
sg76
(lp3774
S''
asbasbasbag69
(g85
g71
NtRp3775
(dp3776
g74
(dp3777
sg83
g3751
sg76
(lp3778
g69
(g90
g71
NtRp3779
(dp3780
g74
(dp3781
g94
g95
ssg83
g3775
sg76
(lp3782
g327
asbag69
(g90
g71
NtRp3783
(dp3784
g74
(dp3785
g101
g102
ssg83
g3775
sg76
(lp3786
S':'
asbag69
(g90
g71
NtRp3787
(dp3788
g74
(dp3789
sg83
g3775
sg76
(lp3790
g69
(g70
g71
NtRp3791
(dp3792
g74
(dp3793
g82
I3
ssg83
g3787
sg76
(lp3794
S''
asbasbasbag69
(g85
g71
NtRp3795
(dp3796
g74
(dp3797
sg83
g3751
sg76
(lp3798
g69
(g90
g71
NtRp3799
(dp3800
g74
(dp3801
g94
g95
ssg83
g3795
sg76
(lp3802
g348
asbag69
(g90
g71
NtRp3803
(dp3804
g74
(dp3805
g101
g102
ssg83
g3795
sg76
(lp3806
S':'
asbag69
(g90
g71
NtRp3807
(dp3808
g74
(dp3809
sg83
g3795
sg76
(lp3810
g69
(g70
g71
NtRp3811
(dp3812
g74
(dp3813
g82
I3
ssg83
g3807
sg76
(lp3814
S''
asbasbasbag69
(g85
g71
NtRp3815
(dp3816
g74
(dp3817
sg83
g3751
sg76
(lp3818
g69
(g90
g71
NtRp3819
(dp3820
g74
(dp3821
g94
g95
ssg83
g3815
sg76
(lp3822
g369
asbag69
(g90
g71
NtRp3823
(dp3824
g74
(dp3825
g101
g102
ssg83
g3815
sg76
(lp3826
S':'
asbag69
(g90
g71
NtRp3827
(dp3828
g74
(dp3829
sg83
g3815
sg76
(lp3830
g69
(g70
g71
NtRp3831
(dp3832
g74
(dp3833
g82
I3
ssg83
g3827
sg76
(lp3834
S''
asbasbasbag69
(g85
g71
NtRp3835
(dp3836
g74
(dp3837
sg83
g3751
sg76
(lp3838
g69
(g90
g71
NtRp3839
(dp3840
g74
(dp3841
g94
g95
ssg83
g3835
sg76
(lp3842
g390
asbag69
(g90
g71
NtRp3843
(dp3844
g74
(dp3845
g101
g102
ssg83
g3835
sg76
(lp3846
S':'
asbag69
(g90
g71
NtRp3847
(dp3848
g74
(dp3849
sg83
g3835
sg76
(lp3850
g69
(g70
g71
NtRp3851
(dp3852
g74
(dp3853
g82
I3
ssg83
g3847
sg76
(lp3854
S''
asbasbasbag69
(g85
g71
NtRp3855
(dp3856
g74
(dp3857
sg83
g3751
sg76
(lp3858
g69
(g90
g71
NtRp3859
(dp3860
g74
(dp3861
g94
g95
ssg83
g3855
sg76
(lp3862
g411
asbag69
(g90
g71
NtRp3863
(dp3864
g74
(dp3865
g101
g102
ssg83
g3855
sg76
(lp3866
S':'
asbag69
(g90
g71
NtRp3867
(dp3868
g74
(dp3869
sg83
g3855
sg76
(lp3870
g69
(g70
g71
NtRp3871
(dp3872
g74
(dp3873
g82
I3
ssg83
g3867
sg76
(lp3874
S'/'
asbasbasbag69
(g85
g71
NtRp3875
(dp3876
g74
(dp3877
sg83
g3751
sg76
(lp3878
g69
(g90
g71
NtRp3879
(dp3880
g74
(dp3881
g94
g95
ssg83
g3875
sg76
(lp3882
g432
asbag69
(g90
g71
NtRp3883
(dp3884
g74
(dp3885
g101
g102
ssg83
g3875
sg76
(lp3886
S':'
asbag69
(g90
g71
NtRp3887
(dp3888
g74
(dp3889
sg83
g3875
sg76
(lp3890
g69
(g70
g71
NtRp3891
(dp3892
g74
(dp3893
g82
I3
ssg83
g3887
sg76
(lp3894
S''
asbasbasbag69
(g85
g71
NtRp3895
(dp3896
g74
(dp3897
sg83
g3751
sg76
(lp3898
g69
(g90
g71
NtRp3899
(dp3900
g74
(dp3901
g94
g95
ssg83
g3895
sg76
(lp3902
g453
asbag69
(g90
g71
NtRp3903
(dp3904
g74
(dp3905
g101
g102
ssg83
g3895
sg76
(lp3906
S':'
asbag69
(g90
g71
NtRp3907
(dp3908
g74
(dp3909
sg83
g3895
sg76
(lp3910
g69
(g70
g71
NtRp3911
(dp3912
g74
(dp3913
g82
I3
ssg83
g3907
sg76
(lp3914
S''
asbasbasbasbasbasbasbasbasbasbasbag69
(g85
g71
NtRp3915
(dp3916
g74
(dp3917
sg83
g3681
sg76
(lp3918
g69
(g90
g71
NtRp3919
(dp3920
g74
(dp3921
g94
g95
ssg83
g3915
sg76
(lp3922
S'delimiters'
p3923
asbag69
(g90
g71
NtRp3924
(dp3925
g74
(dp3926
g101
g102
ssg83
g3915
sg76
(lp3927
S':'
asbag69
(g90
g71
NtRp3928
(dp3929
g74
(dp3930
sg83
g3915
sg76
(lp3931
g69
(g70
g71
NtRp3932
(dp3933
g74
(dp3934
g82
I5
ssg83
g3928
sg76
(lp3935
g69
(g78
g71
NtRp3936
(dp3937
g74
(dp3938
g82
I4
ssg83
Nsg76
(lp3939
g69
(g85
g71
NtRp3940
(dp3941
g74
(dp3942
sg83
g3936
sg76
(lp3943
g69
(g90
g71
NtRp3944
(dp3945
g74
(dp3946
sg83
g3940
sg76
(lp3947
g69
(g70
g71
NtRp3948
(dp3949
g74
(dp3950
g82
I4
ssg83
g3944
sg76
(lp3951
S'{{'
p3952
asbasbasbag69
(g85
g71
NtRp3953
(dp3954
g74
(dp3955
sg83
g3936
sg76
(lp3956
g69
(g90
g71
NtRp3957
(dp3958
g74
(dp3959
sg83
g3953
sg76
(lp3960
g69
(g70
g71
NtRp3961
(dp3962
g74
(dp3963
g82
I4
ssg83
g3957
sg76
(lp3964
S'}}'
p3965
asbasbasbasbasbasbasbag69
(g85
g71
NtRp3966
(dp3967
g74
(dp3968
sg83
g3681
sg76
(lp3969
g69
(g90
g71
NtRp3970
(dp3971
g74
(dp3972
g94
g95
ssg83
g3966
sg76
(lp3973
S'files'
p3974
asbag69
(g90
g71
NtRp3975
(dp3976
g74
(dp3977
g101
g102
ssg83
g3966
sg76
(lp3978
S':'
asbag69
(g90
g71
NtRp3979
(dp3980
g74
(dp3981
sg83
g3966
sg76
(lp3982
g69
(g70
g71
NtRp3983
(dp3984
g74
(dp3985
g82
I5
ssg83
g3979
sg76
(lp3986
g69
(g78
g71
NtRp3987
(dp3988
g74
(dp3989
g82
I4
ssg83
Nsg76
(lp3990
sbasbasbasbag69
(g85
g71
NtRp3991
(dp3992
g74
(dp3993
sg83
g3681
sg76
(lp3994
g69
(g90
g71
NtRp3995
(dp3996
g74
(dp3997
g94
g95
ssg83
g3991
sg76
(lp3998
S'flash'
p3999
asbag69
(g90
g71
NtRp4000
(dp4001
g74
(dp4002
g101
g102
ssg83
g3991
sg76
(lp4003
S':'
asbag69
(g90
g71
NtRp4004
(dp4005
g74
(dp4006
sg83
g3991
sg76
(lp4007
g69
(g70
g71
NtRp4008
(dp4009
g74
(dp4010
g82
I5
ssg83
g4004
sg76
(lp4011
S''
asbasbasbag69
(g85
g71
NtRp4012
(dp4013
g74
(dp4014
sg83
g3681
sg76
(lp4015
g69
(g90
g71
NtRp4016
(dp4017
g74
(dp4018
g94
g95
ssg83
g4012
sg76
(lp4019
S'generic_patterns'
p4020
asbag69
(g90
g71
NtRp4021
(dp4022
g74
(dp4023
g101
g102
ssg83
g4012
sg76
(lp4024
S':'
asbag69
(g90
g71
NtRp4025
(dp4026
g74
(dp4027
sg83
g4012
sg76
(lp4028
g69
(g70
g71
NtRp4029
(dp4030
g74
(dp4031
g82
I5
ssg83
g4025
sg76
(lp4032
g69
(g78
g71
NtRp4033
(dp4034
g74
(dp4035
g82
I4
ssg83
Nsg76
(lp4036
g69
(g85
g71
NtRp4037
(dp4038
g74
(dp4039
sg83
g4033
sg76
(lp4040
g69
(g90
g71
NtRp4041
(dp4042
g74
(dp4043
sg83
g4037
sg76
(lp4044
g69
(g70
g71
NtRp4045
(dp4046
g74
(dp4047
g82
I4
ssg83
g4041
sg76
(lp4048
S'*'
asbasbasbasbasbasbasbag69
(g85
g71
NtRp4049
(dp4050
g74
(dp4051
sg83
g3681
sg76
(lp4052
g69
(g90
g71
NtRp4053
(dp4054
g74
(dp4055
g94
g95
ssg83
g4049
sg76
(lp4056
S'google_analytics_id'
p4057
asbag69
(g90
g71
NtRp4058
(dp4059
g74
(dp4060
g101
g102
ssg83
g4049
sg76
(lp4061
S':'
asbag69
(g90
g71
NtRp4062
(dp4063
g74
(dp4064
sg83
g4049
sg76
(lp4065
g69
(g70
g71
NtRp4066
(dp4067
g74
(dp4068
g82
I5
ssg83
g4062
sg76
(lp4069
S'None'
p4070
asbasbasbag69
(g85
g71
NtRp4071
(dp4072
g74
(dp4073
sg83
g3681
sg76
(lp4074
g69
(g90
g71
NtRp4075
(dp4076
g74
(dp4077
g94
g95
ssg83
g4071
sg76
(lp4078
S'headers'
p4079
asbag69
(g90
g71
NtRp4080
(dp4081
g74
(dp4082
g101
g102
ssg83
g4071
sg76
(lp4083
S':'
asbag69
(g90
g71
NtRp4084
(dp4085
g74
(dp4086
sg83
g4071
sg76
(lp4087
g69
(g70
g71
NtRp4088
(dp4089
g74
(dp4090
g82
I5
ssg83
g4084
sg76
(lp4091
g69
(g78
g71
NtRp4092
(dp4093
g74
(dp4094
g82
I4
ssg83
Nsg76
(lp4095
g69
(g85
g71
NtRp4096
(dp4097
g74
(dp4098
sg83
g4092
sg76
(lp4099
g69
(g90
g71
NtRp4100
(dp4101
g74
(dp4102
g94
g95
ssg83
g4096
sg76
(lp4103
S'X-Powered-By'
p4104
asbag69
(g90
g71
NtRp4105
(dp4106
g74
(dp4107
g101
g102
ssg83
g4096
sg76
(lp4108
S':'
asbag69
(g90
g71
NtRp4109
(dp4110
g74
(dp4111
sg83
g4096
sg76
(lp4112
g69
(g70
g71
NtRp4113
(dp4114
g74
(dp4115
g82
I4
ssg83
g4109
sg76
(lp4116
S'web2py'
p4117
asbasbasbasbasbasbasbag69
(g85
g71
NtRp4118
(dp4119
g74
(dp4120
sg83
g3681
sg76
(lp4121
g69
(g90
g71
NtRp4122
(dp4123
g74
(dp4124
g94
g95
ssg83
g4118
sg76
(lp4125
S'logo'
p4126
asbag69
(g90
g71
NtRp4127
(dp4128
g74
(dp4129
g101
g102
ssg83
g4118
sg76
(lp4130
S':'
asbag69
(g90
g71
NtRp4131
(dp4132
g74
(dp4133
sg83
g4118
sg76
(lp4134
g69
(g70
g71
NtRp4135
(dp4136
g74
(dp4137
g82
I5
ssg83
g4131
sg76
(lp4138
g69
(cgluon.html
A
p4139
g71
NtRp4140
(dp4141
g74
(dp4142
S'_class'
p4143
S'brand'
p4144
sS'_href'
p4145
S'http://www.web2py.com/'
p4146
ssg83
Nsg76
(lp4147
g69
(cgluon.html
B
p4148
g71
NtRp4149
(dp4150
g74
(dp4151
sg83
g4140
sg76
(lp4152
S'web'
p4153
ag69
(cgluon.html
SPAN
p4154
g71
NtRp4155
(dp4156
g74
(dp4157
sg83
g4149
sg76
(lp4158
I2
asbaS'py'
p4159
asbacgluon.html
XML_unpickle
p4160
(S's\r\x00\x00\x00&trade;&nbsp;'
tRp4161
asbasbasbasbag69
(g85
g71
NtRp4162
(dp4163
g74
(dp4164
sg83
g3681
sg76
(lp4165
g69
(g90
g71
NtRp4166
(dp4167
g74
(dp4168
g94
g95
ssg83
g4162
sg76
(lp4169
S'menu'
p4170
asbag69
(g90
g71
NtRp4171
(dp4172
g74
(dp4173
g101
g102
ssg83
g4162
sg76
(lp4174
S':'
asbag69
(g90
g71
NtRp4175
(dp4176
g74
(dp4177
sg83
g4162
sg76
(lp4178
g69
(g70
g71
NtRp4179
(dp4180
g74
(dp4181
g82
I5
ssg83
g4175
sg76
(lp4182
g69
(g78
g71
NtRp4183
(dp4184
g74
(dp4185
g82
I4
ssg83
Nsg76
(lp4186
g69
(g85
g71
NtRp4187
(dp4188
g74
(dp4189
sg83
g4183
sg76
(lp4190
g69
(g90
g71
NtRp4191
(dp4192
g74
(dp4193
sg83
g4187
sg76
(lp4194
g69
(g70
g71
NtRp4195
(dp4196
g74
(dp4197
g82
I4
ssg83
g4191
sg76
(lp4198
g69
(g78
g71
NtRp4199
(dp4200
g74
(dp4201
g82
I3
ssg83
Nsg76
(lp4202
g69
(g85
g71
NtRp4203
(dp4204
g74
(dp4205
sg83
g4199
sg76
(lp4206
g69
(g90
g71
NtRp4207
(dp4208
g74
(dp4209
sg83
g4203
sg76
(lp4210
g69
(g70
g71
NtRp4211
(dp4212
g74
(dp4213
g82
I3
ssg83
g4207
sg76
(lp4214
cgluon.languages
lazyT_unpickle
p4215
(S's\x04\x00\x00\x00Home'
tRp4216
asbasbasbag69
(g85
g71
NtRp4217
(dp4218
g74
(dp4219
sg83
g4199
sg76
(lp4220
g69
(g90
g71
NtRp4221
(dp4222
g74
(dp4223
sg83
g4217
sg76
(lp4224
g69
(g70
g71
NtRp4225
(dp4226
g74
(dp4227
g82
I3
ssg83
g4221
sg76
(lp4228
g112
asbasbasbag69
(g85
g71
NtRp4229
(dp4230
g74
(dp4231
sg83
g4199
sg76
(lp4232
g69
(g90
g71
NtRp4233
(dp4234
g74
(dp4235
sg83
g4229
sg76
(lp4236
g69
(g70
g71
NtRp4237
(dp4238
g74
(dp4239
g82
I3
ssg83
g4233
sg76
(lp4240
S'/ggg/default/index'
p4241
asbasbasbag69
(g85
g71
NtRp4242
(dp4243
g74
(dp4244
sg83
g4199
sg76
(lp4245
g69
(g90
g71
NtRp4246
(dp4247
g74
(dp4248
sg83
g4242
sg76
(lp4249
g69
(g70
g71
NtRp4250
(dp4251
g74
(dp4252
g82
I3
ssg83
g4246
sg76
(lp4253
g69
(g78
g71
NtRp4254
(dp4255
g74
(dp4256
g82
I2
ssg83
Nsg76
(lp4257
sbasbasbasbasbasbasbasbag69
(g85
g71
NtRp4258
(dp4259
g74
(dp4260
sg83
g4183
sg76
(lp4261
g69
(g90
g71
NtRp4262
(dp4263
g74
(dp4264
sg83
g4258
sg76
(lp4265
g69
(g70
g71
NtRp4266
(dp4267
g74
(dp4268
g82
I4
ssg83
g4262
sg76
(lp4269
g69
(g78
g71
NtRp4270
(dp4271
g74
(dp4272
g82
I3
ssg83
Nsg76
(lp4273
g69
(g85
g71
NtRp4274
(dp4275
g74
(dp4276
sg83
g4270
sg76
(lp4277
g69
(g90
g71
NtRp4278
(dp4279
g74
(dp4280
sg83
g4274
sg76
(lp4281
g69
(g70
g71
NtRp4282
(dp4283
g74
(dp4284
g82
I3
ssg83
g4278
sg76
(lp4285
g69
(g4154
g71
NtRp4286
(dp4287
g74
(dp4288
g4143
S'highlighted'
p4289
ssg83
Nsg76
(lp4290
g4117
asbasbasbasbag69
(g85
g71
NtRp4291
(dp4292
g74
(dp4293
sg83
g4270
sg76
(lp4294
g69
(g90
g71
NtRp4295
(dp4296
g74
(dp4297
sg83
g4291
sg76
(lp4298
g69
(g70
g71
NtRp4299
(dp4300
g74
(dp4301
g82
I3
ssg83
g4295
sg76
(lp4302
g112
asbasbasbag69
(g85
g71
NtRp4303
(dp4304
g74
(dp4305
sg83
g4270
sg76
(lp4306
g69
(g90
g71
NtRp4307
(dp4308
g74
(dp4309
sg83
g4303
sg76
(lp4310
g69
(g70
g71
NtRp4311
(dp4312
g74
(dp4313
g82
I3
ssg83
g4307
sg76
(lp4314
S'http://web2py.com'
p4315
asbasbasbag69
(g85
g71
NtRp4316
(dp4317
g74
(dp4318
sg83
g4270
sg76
(lp4319
g69
(g90
g71
NtRp4320
(dp4321
g74
(dp4322
sg83
g4316
sg76
(lp4323
g69
(g70
g71
NtRp4324
(dp4325
g74
(dp4326
g82
I3
ssg83
g4320
sg76
(lp4327
g69
(g78
g71
NtRp4328
(dp4329
g74
(dp4330
g82
I2
ssg83
Nsg76
(lp4331
g69
(g85
g71
NtRp4332
(dp4333
g74
(dp4334
sg83
g4328
sg76
(lp4335
g69
(g90
g71
NtRp4336
(dp4337
g74
(dp4338
sg83
g4332
sg76
(lp4339
g69
(g70
g71
NtRp4340
(dp4341
g74
(dp4342
g82
I2
ssg83
g4336
sg76
(lp4343
g69
(g78
g71
NtRp4344
(dp4345
g74
(dp4346
g82
I1
ssg83
Nsg76
(lp4347
g69
(g85
g71
NtRp4348
(dp4349
g74
(dp4350
sg83
g4344
sg76
(lp4351
g69
(g90
g71
NtRp4352
(dp4353
g74
(dp4354
sg83
g4348
sg76
(lp4355
g69
(g70
g71
NtRp4356
(dp4357
g74
(dp4358
g82
I1
ssg83
g4352
sg76
(lp4359
g4215
(S's\x08\x00\x00\x00My Sites'
tRp4360
asbasbasbag69
(g85
g71
NtRp4361
(dp4362
g74
(dp4363
sg83
g4344
sg76
(lp4364
g69
(g90
g71
NtRp4365
(dp4366
g74
(dp4367
sg83
g4361
sg76
(lp4368
g69
(g70
g71
NtRp4369
(dp4370
g74
(dp4371
g82
I1
ssg83
g4365
sg76
(lp4372
I00
asbasbasbag69
(g85
g71
NtRp4373
(dp4374
g74
(dp4375
sg83
g4344
sg76
(lp4376
g69
(g90
g71
NtRp4377
(dp4378
g74
(dp4379
sg83
g4373
sg76
(lp4380
g69
(g70
g71
NtRp4381
(dp4382
g74
(dp4383
g82
I1
ssg83
g4377
sg76
(lp4384
S'/admin/default/site'
p4385
asbasbasbasbasbasbasbag69
(g85
g71
NtRp4386
(dp4387
g74
(dp4388
sg83
g4328
sg76
(lp4389
g69
(g90
g71
NtRp4390
(dp4391
g74
(dp4392
sg83
g4386
sg76
(lp4393
g69
(g70
g71
NtRp4394
(dp4395
g74
(dp4396
g82
I2
ssg83
g4390
sg76
(lp4397
g69
(g78
g71
NtRp4398
(dp4399
g74
(dp4400
g82
I1
ssg83
Nsg76
(lp4401
g69
(g85
g71
NtRp4402
(dp4403
g74
(dp4404
sg83
g4398
sg76
(lp4405
g69
(g90
g71
NtRp4406
(dp4407
g74
(dp4408
sg83
g4402
sg76
(lp4409
g69
(g70
g71
NtRp4410
(dp4411
g74
(dp4412
g82
I1
ssg83
g4406
sg76
(lp4413
g4215
(S's\x08\x00\x00\x00This App'
tRp4414
asbasbasbag69
(g85
g71
NtRp4415
(dp4416
g74
(dp4417
sg83
g4398
sg76
(lp4418
g69
(g90
g71
NtRp4419
(dp4420
g74
(dp4421
sg83
g4415
sg76
(lp4422
g69
(g70
g71
NtRp4423
(dp4424
g74
(dp4425
g82
I1
ssg83
g4419
sg76
(lp4426
I00
asbasbasbag69
(g85
g71
NtRp4427
(dp4428
g74
(dp4429
sg83
g4398
sg76
(lp4430
g69
(g90
g71
NtRp4431
(dp4432
g74
(dp4433
sg83
g4427
sg76
(lp4434
g69
(g70
g71
NtRp4435
(dp4436
g74
(dp4437
g82
I1
ssg83
g4431
sg76
(lp4438
S'/admin/default/design/ggg'
p4439
asbasbasbag69
(g85
g71
NtRp4440
(dp4441
g74
(dp4442
sg83
g4398
sg76
(lp4443
g69
(g90
g71
NtRp4444
(dp4445
g74
(dp4446
sg83
g4440
sg76
(lp4447
g69
(g70
g71
NtRp4448
(dp4449
g74
(dp4450
g82
I1
ssg83
g4444
sg76
(lp4451
(lp4452
(g4215
(S's\n\x00\x00\x00Controller'
tRp4453
I00
S'/admin/default/edit/ggg/controllers/default.py'
tp4454
a(g4215
(S's\x04\x00\x00\x00View'
tRp4455
I00
S'/admin/default/edit/ggg/views/default/exam.html'
tp4456
a(g4215
(S's\x06\x00\x00\x00Layout'
tRp4457
I00
S'/admin/default/edit/ggg/views/layout.html'
tp4458
a(g4215
(S's\n\x00\x00\x00Stylesheet'
tRp4459
I00
S'/admin/default/edit/ggg/static/css/web2py.css'
tp4460
a(g4215
(S's\x08\x00\x00\x00DB Model'
tRp4461
I00
S'/admin/default/edit/ggg/models/db.py'
tp4462
a(g4215
(S's\n\x00\x00\x00Menu Model'
tRp4463
I00
S'/admin/default/edit/ggg/models/menu.py'
tp4464
a(g4215
(S's\x08\x00\x00\x00Database'
tRp4465
I00
S'/ggg/appadmin/index'
tp4466
a(g4215
(S's\x06\x00\x00\x00Errors'
tRp4467
I00
S'/admin/default/errors/ggg'
tp4468
a(g4215
(S's\x05\x00\x00\x00About'
tRp4469
I00
S'/admin/default/about/ggg'
tp4470
aasbasbasbasbasbasbasbag69
(g85
g71
NtRp4471
(dp4472
g74
(dp4473
sg83
g4328
sg76
(lp4474
g69
(g90
g71
NtRp4475
(dp4476
g74
(dp4477
sg83
g4471
sg76
(lp4478
g69
(g70
g71
NtRp4479
(dp4480
g74
(dp4481
g82
I2
ssg83
g4475
sg76
(lp4482
g69
(g78
g71
NtRp4483
(dp4484
g74
(dp4485
g82
I1
ssg83
Nsg76
(lp4486
g69
(g85
g71
NtRp4487
(dp4488
g74
(dp4489
sg83
g4483
sg76
(lp4490
g69
(g90
g71
NtRp4491
(dp4492
g74
(dp4493
sg83
g4487
sg76
(lp4494
g69
(g70
g71
NtRp4495
(dp4496
g74
(dp4497
g82
I1
ssg83
g4491
sg76
(lp4498
S'web2py.com'
p4499
asbasbasbag69
(g85
g71
NtRp4500
(dp4501
g74
(dp4502
sg83
g4483
sg76
(lp4503
g69
(g90
g71
NtRp4504
(dp4505
g74
(dp4506
sg83
g4500
sg76
(lp4507
g69
(g70
g71
NtRp4508
(dp4509
g74
(dp4510
g82
I1
ssg83
g4504
sg76
(lp4511
I00
asbasbasbag69
(g85
g71
NtRp4512
(dp4513
g74
(dp4514
sg83
g4483
sg76
(lp4515
g69
(g90
g71
NtRp4516
(dp4517
g74
(dp4518
sg83
g4512
sg76
(lp4519
g69
(g70
g71
NtRp4520
(dp4521
g74
(dp4522
g82
I1
ssg83
g4516
sg76
(lp4523
S'http://www.web2py.com'
p4524
asbasbasbag69
(g85
g71
NtRp4525
(dp4526
g74
(dp4527
sg83
g4483
sg76
(lp4528
g69
(g90
g71
NtRp4529
(dp4530
g74
(dp4531
sg83
g4525
sg76
(lp4532
g69
(g70
g71
NtRp4533
(dp4534
g74
(dp4535
g82
I1
ssg83
g4529
sg76
(lp4536
(lp4537
(g4215
(S's\x08\x00\x00\x00Download'
tRp4538
I00
S'http://www.web2py.com/examples/default/download'
p4539
tp4540
a(g4215
(S's\x07\x00\x00\x00Support'
tRp4541
I00
S'http://www.web2py.com/examples/default/support'
p4542
tp4543
a(g4215
(S's\x04\x00\x00\x00Demo'
tRp4544
I00
S'http://web2py.com/demo_admin'
p4545
tp4546
a(g4215
(S's\x0e\x00\x00\x00Quick Examples'
tRp4547
I00
S'http://web2py.com/examples/default/examples'
p4548
tp4549
a(g4215
(S's\x03\x00\x00\x00FAQ'
tRp4550
I00
S'http://web2py.com/AlterEgo'
p4551
tp4552
a(g4215
(S's\x06\x00\x00\x00Videos'
tRp4553
I00
S'http://www.web2py.com/examples/default/videos/'
p4554
tp4555
a(g4215
(S's\x11\x00\x00\x00Free Applications'
tRp4556
I00
S'http://web2py.com/appliances'
p4557
tp4558
a(g4215
(S's\x07\x00\x00\x00Plugins'
tRp4559
I00
S'http://web2py.com/plugins'
p4560
tp4561
a(g4215
(S's\x07\x00\x00\x00Layouts'
tRp4562
I00
S'http://web2py.com/layouts'
p4563
tp4564
a(g4215
(S's\x07\x00\x00\x00Recipes'
tRp4565
I00
S'http://web2pyslices.com/'
p4566
tp4567
a(g4215
(S's\x08\x00\x00\x00Semantic'
tRp4568
I00
S'http://web2py.com/semantic'
p4569
tp4570
aasbasbasbasbasbasbasbag69
(g85
g71
NtRp4571
(dp4572
g74
(dp4573
sg83
g4328
sg76
(lp4574
g69
(g90
g71
NtRp4575
(dp4576
g74
(dp4577
sg83
g4571
sg76
(lp4578
g69
(g70
g71
NtRp4579
(dp4580
g74
(dp4581
g82
I2
ssg83
g4575
sg76
(lp4582
g69
(g78
g71
NtRp4583
(dp4584
g74
(dp4585
g82
I1
ssg83
Nsg76
(lp4586
g69
(g85
g71
NtRp4587
(dp4588
g74
(dp4589
sg83
g4583
sg76
(lp4590
g69
(g90
g71
NtRp4591
(dp4592
g74
(dp4593
sg83
g4587
sg76
(lp4594
g69
(g70
g71
NtRp4595
(dp4596
g74
(dp4597
g82
I1
ssg83
g4591
sg76
(lp4598
g4215
(S's\r\x00\x00\x00Documentation'
tRp4599
asbasbasbag69
(g85
g71
NtRp4600
(dp4601
g74
(dp4602
sg83
g4583
sg76
(lp4603
g69
(g90
g71
NtRp4604
(dp4605
g74
(dp4606
sg83
g4600
sg76
(lp4607
g69
(g70
g71
NtRp4608
(dp4609
g74
(dp4610
g82
I1
ssg83
g4604
sg76
(lp4611
I00
asbasbasbag69
(g85
g71
NtRp4612
(dp4613
g74
(dp4614
sg83
g4583
sg76
(lp4615
g69
(g90
g71
NtRp4616
(dp4617
g74
(dp4618
sg83
g4612
sg76
(lp4619
g69
(g70
g71
NtRp4620
(dp4621
g74
(dp4622
g82
I1
ssg83
g4616
sg76
(lp4623
S'http://www.web2py.com/book'
p4624
asbasbasbag69
(g85
g71
NtRp4625
(dp4626
g74
(dp4627
sg83
g4583
sg76
(lp4628
g69
(g90
g71
NtRp4629
(dp4630
g74
(dp4631
sg83
g4625
sg76
(lp4632
g69
(g70
g71
NtRp4633
(dp4634
g74
(dp4635
g82
I1
ssg83
g4629
sg76
(lp4636
(lp4637
(g4215
(S's\x07\x00\x00\x00Preface'
tRp4638
I00
S'http://www.web2py.com/book/default/chapter/00'
p4639
tp4640
a(g4215
(S's\x0c\x00\x00\x00Introduction'
tRp4641
I00
S'http://www.web2py.com/book/default/chapter/01'
p4642
tp4643
a(g4215
(S's\x06\x00\x00\x00Python'
tRp4644
I00
S'http://www.web2py.com/book/default/chapter/02'
p4645
tp4646
a(g4215
(S's\x08\x00\x00\x00Overview'
tRp4647
I00
S'http://www.web2py.com/book/default/chapter/03'
p4648
tp4649
a(g4215
(S's\x08\x00\x00\x00The Core'
tRp4650
I00
S'http://www.web2py.com/book/default/chapter/04'
p4651
tp4652
a(g4215
(S's\t\x00\x00\x00The Views'
tRp4653
I00
S'http://www.web2py.com/book/default/chapter/05'
p4654
tp4655
a(g4215
(S's\x08\x00\x00\x00Database'
tRp4656
I00
S'http://www.web2py.com/book/default/chapter/06'
p4657
tp4658
a(g4215
(S's\x14\x00\x00\x00Forms and Validators'
tRp4659
I00
S'http://www.web2py.com/book/default/chapter/07'
p4660
tp4661
a(g4215
(S's\r\x00\x00\x00Email and SMS'
tRp4662
I00
S'http://www.web2py.com/book/default/chapter/08'
p4663
tp4664
a(g4215
(S's\x0e\x00\x00\x00Access Control'
tRp4665
I00
S'http://www.web2py.com/book/default/chapter/09'
p4666
tp4667
a(g4215
(S's\x08\x00\x00\x00Services'
tRp4668
I00
S'http://www.web2py.com/book/default/chapter/10'
p4669
tp4670
a(g4215
(S's\x0c\x00\x00\x00Ajax Recipes'
tRp4671
I00
S'http://www.web2py.com/book/default/chapter/11'
p4672
tp4673
a(g4215
(S's\x16\x00\x00\x00Components and Plugins'
tRp4674
I00
S'http://www.web2py.com/book/default/chapter/12'
p4675
tp4676
a(g4215
(S's\x12\x00\x00\x00Deployment Recipes'
tRp4677
I00
S'http://www.web2py.com/book/default/chapter/13'
p4678
tp4679
a(g4215
(S's\r\x00\x00\x00Other Recipes'
tRp4680
I00
S'http://www.web2py.com/book/default/chapter/14'
p4681
tp4682
a(g4215
(S's\r\x00\x00\x00Buy this book'
tRp4683
I00
S'http://stores.lulu.com/web2py'
p4684
tp4685
aasbasbasbasbasbasbasbag69
(g85
g71
NtRp4686
(dp4687
g74
(dp4688
sg83
g4328
sg76
(lp4689
g69
(g90
g71
NtRp4690
(dp4691
g74
(dp4692
sg83
g4686
sg76
(lp4693
g69
(g70
g71
NtRp4694
(dp4695
g74
(dp4696
g82
I2
ssg83
g4690
sg76
(lp4697
g69
(g78
g71
NtRp4698
(dp4699
g74
(dp4700
g82
I1
ssg83
Nsg76
(lp4701
g69
(g85
g71
NtRp4702
(dp4703
g74
(dp4704
sg83
g4698
sg76
(lp4705
g69
(g90
g71
NtRp4706
(dp4707
g74
(dp4708
sg83
g4702
sg76
(lp4709
g69
(g70
g71
NtRp4710
(dp4711
g74
(dp4712
g82
I1
ssg83
g4706
sg76
(lp4713
g4215
(S's\t\x00\x00\x00Community'
tRp4714
asbasbasbag69
(g85
g71
NtRp4715
(dp4716
g74
(dp4717
sg83
g4698
sg76
(lp4718
g69
(g90
g71
NtRp4719
(dp4720
g74
(dp4721
sg83
g4715
sg76
(lp4722
g69
(g70
g71
NtRp4723
(dp4724
g74
(dp4725
g82
I1
ssg83
g4719
sg76
(lp4726
I00
asbasbasbag69
(g85
g71
NtRp4727
(dp4728
g74
(dp4729
sg83
g4698
sg76
(lp4730
g69
(g90
g71
NtRp4731
(dp4732
g74
(dp4733
sg83
g4727
sg76
(lp4734
g69
(g70
g71
NtRp4735
(dp4736
g74
(dp4737
g82
I1
ssg83
g4731
sg76
(lp4738
Nasbasbasbag69
(g85
g71
NtRp4739
(dp4740
g74
(dp4741
sg83
g4698
sg76
(lp4742
g69
(g90
g71
NtRp4743
(dp4744
g74
(dp4745
sg83
g4739
sg76
(lp4746
g69
(g70
g71
NtRp4747
(dp4748
g74
(dp4749
g82
I1
ssg83
g4743
sg76
(lp4750
(lp4751
(g4215
(S's\x06\x00\x00\x00Groups'
tRp4752
I00
S'http://www.web2py.com/examples/default/usergroups'
p4753
tp4754
a(g4215
(S's\x07\x00\x00\x00Twitter'
tRp4755
I00
S'http://twitter.com/web2py'
p4756
tp4757
a(g4215
(S's\t\x00\x00\x00Live Chat'
tRp4758
I00
S'http://webchat.freenode.net/?channels=web2py'
p4759
tp4760
aasbasbasbasbasbasbasbag69
(g85
g71
NtRp4761
(dp4762
g74
(dp4763
sg83
g4328
sg76
(lp4764
g69
(g90
g71
NtRp4765
(dp4766
g74
(dp4767
sg83
g4761
sg76
(lp4768
g69
(g70
g71
NtRp4769
(dp4770
g74
(dp4771
g82
I2
ssg83
g4765
sg76
(lp4772
g69
(g78
g71
NtRp4773
(dp4774
g74
(dp4775
g82
I1
ssg83
Nsg76
(lp4776
g69
(g85
g71
NtRp4777
(dp4778
g74
(dp4779
sg83
g4773
sg76
(lp4780
g69
(g90
g71
NtRp4781
(dp4782
g74
(dp4783
sg83
g4777
sg76
(lp4784
g69
(g70
g71
NtRp4785
(dp4786
g74
(dp4787
g82
I1
ssg83
g4781
sg76
(lp4788
g4215
(S's\x07\x00\x00\x00Plugins'
tRp4789
asbasbasbag69
(g85
g71
NtRp4790
(dp4791
g74
(dp4792
sg83
g4773
sg76
(lp4793
g69
(g90
g71
NtRp4794
(dp4795
g74
(dp4796
sg83
g4790
sg76
(lp4797
g69
(g70
g71
NtRp4798
(dp4799
g74
(dp4800
g82
I1
ssg83
g4794
sg76
(lp4801
I00
asbasbasbag69
(g85
g71
NtRp4802
(dp4803
g74
(dp4804
sg83
g4773
sg76
(lp4805
g69
(g90
g71
NtRp4806
(dp4807
g74
(dp4808
sg83
g4802
sg76
(lp4809
g69
(g70
g71
NtRp4810
(dp4811
g74
(dp4812
g82
I1
ssg83
g4806
sg76
(lp4813
Nasbasbasbag69
(g85
g71
NtRp4814
(dp4815
g74
(dp4816
sg83
g4773
sg76
(lp4817
g69
(g90
g71
NtRp4818
(dp4819
g74
(dp4820
sg83
g4814
sg76
(lp4821
g69
(g70
g71
NtRp4822
(dp4823
g74
(dp4824
g82
I1
ssg83
g4818
sg76
(lp4825
(lp4826
(S'plugin_wiki'
p4827
I00
S'http://web2py.com/examples/default/download'
p4828
tp4829
a(g4215
(S's\r\x00\x00\x00Other Plugins'
tRp4830
I00
g4560
tp4831
a(g4215
(S's\x0e\x00\x00\x00Layout Plugins'
tRp4832
I00
g4563
tp4833
aasbasbasbasbasbasbasbasbasbasbasbasbasbasbasbasbasbasbasbag69
(g85
g71
NtRp4834
(dp4835
g74
(dp4836
sg83
g3681
sg76
(lp4837
g69
(g90
g71
NtRp4838
(dp4839
g74
(dp4840
g94
g95
ssg83
g4834
sg76
(lp4841
S'meta'
p4842
asbag69
(g90
g71
NtRp4843
(dp4844
g74
(dp4845
g101
g102
ssg83
g4834
sg76
(lp4846
S':'
asbag69
(g90
g71
NtRp4847
(dp4848
g74
(dp4849
sg83
g4834
sg76
(lp4850
g69
(g70
g71
NtRp4851
(dp4852
g74
(dp4853
g82
I5
ssg83
g4847
sg76
(lp4854
g69
(g78
g71
NtRp4855
(dp4856
g74
(dp4857
g82
I4
ssg83
Nsg76
(lp4858
g69
(g85
g71
NtRp4859
(dp4860
g74
(dp4861
sg83
g4855
sg76
(lp4862
g69
(g90
g71
NtRp4863
(dp4864
g74
(dp4865
g94
g95
ssg83
g4859
sg76
(lp4866
S'author'
p4867
asbag69
(g90
g71
NtRp4868
(dp4869
g74
(dp4870
g101
g102
ssg83
g4859
sg76
(lp4871
S':'
asbag69
(g90
g71
NtRp4872
(dp4873
g74
(dp4874
sg83
g4859
sg76
(lp4875
g69
(g70
g71
NtRp4876
(dp4877
g74
(dp4878
g82
I4
ssg83
g4872
sg76
(lp4879
S'Your Name <you@example.com>'
p4880
asbasbasbag69
(g85
g71
NtRp4881
(dp4882
g74
(dp4883
sg83
g4855
sg76
(lp4884
g69
(g90
g71
NtRp4885
(dp4886
g74
(dp4887
g94
g95
ssg83
g4881
sg76
(lp4888
S'description'
p4889
asbag69
(g90
g71
NtRp4890
(dp4891
g74
(dp4892
g101
g102
ssg83
g4881
sg76
(lp4893
S':'
asbag69
(g90
g71
NtRp4894
(dp4895
g74
(dp4896
sg83
g4881
sg76
(lp4897
g69
(g70
g71
NtRp4898
(dp4899
g74
(dp4900
g82
I4
ssg83
g4894
sg76
(lp4901
S'a cool new app'
p4902
asbasbasbag69
(g85
g71
NtRp4903
(dp4904
g74
(dp4905
sg83
g4855
sg76
(lp4906
g69
(g90
g71
NtRp4907
(dp4908
g74
(dp4909
g94
g95
ssg83
g4903
sg76
(lp4910
S'generator'
p4911
asbag69
(g90
g71
NtRp4912
(dp4913
g74
(dp4914
g101
g102
ssg83
g4903
sg76
(lp4915
S':'
asbag69
(g90
g71
NtRp4916
(dp4917
g74
(dp4918
sg83
g4903
sg76
(lp4919
g69
(g70
g71
NtRp4920
(dp4921
g74
(dp4922
g82
I4
ssg83
g4916
sg76
(lp4923
S'Web2py Web Framework'
p4924
asbasbasbag69
(g85
g71
NtRp4925
(dp4926
g74
(dp4927
sg83
g4855
sg76
(lp4928
g69
(g90
g71
NtRp4929
(dp4930
g74
(dp4931
g94
g95
ssg83
g4925
sg76
(lp4932
S'keywords'
p4933
asbag69
(g90
g71
NtRp4934
(dp4935
g74
(dp4936
g101
g102
ssg83
g4925
sg76
(lp4937
S':'
asbag69
(g90
g71
NtRp4938
(dp4939
g74
(dp4940
sg83
g4925
sg76
(lp4941
g69
(g70
g71
NtRp4942
(dp4943
g74
(dp4944
g82
I4
ssg83
g4938
sg76
(lp4945
S'web2py, python, framework'
p4946
asbasbasbasbasbasbasbag69
(g85
g71
NtRp4947
(dp4948
g74
(dp4949
sg83
g3681
sg76
(lp4950
g69
(g90
g71
NtRp4951
(dp4952
g74
(dp4953
g94
g95
ssg83
g4947
sg76
(lp4954
S'models_to_run'
p4955
asbag69
(g90
g71
NtRp4956
(dp4957
g74
(dp4958
g101
g102
ssg83
g4947
sg76
(lp4959
S':'
asbag69
(g90
g71
NtRp4960
(dp4961
g74
(dp4962
sg83
g4947
sg76
(lp4963
g69
(g70
g71
NtRp4964
(dp4965
g74
(dp4966
g82
I5
ssg83
g4960
sg76
(lp4967
g69
(g78
g71
NtRp4968
(dp4969
g74
(dp4970
g82
I4
ssg83
Nsg76
(lp4971
g69
(g85
g71
NtRp4972
(dp4973
g74
(dp4974
sg83
g4968
sg76
(lp4975
g69
(g90
g71
NtRp4976
(dp4977
g74
(dp4978
sg83
g4972
sg76
(lp4979
g69
(g70
g71
NtRp4980
(dp4981
g74
(dp4982
g82
I4
ssg83
g4976
sg76
(lp4983
S'^\\w+\\.py$'
p4984
asbasbasbag69
(g85
g71
NtRp4985
(dp4986
g74
(dp4987
sg83
g4968
sg76
(lp4988
g69
(g90
g71
NtRp4989
(dp4990
g74
(dp4991
sg83
g4985
sg76
(lp4992
g69
(g70
g71
NtRp4993
(dp4994
g74
(dp4995
g82
I4
ssg83
g4989
sg76
(lp4996
S'^default/\\w+\\.py$'
p4997
asbasbasbag69
(g85
g71
NtRp4998
(dp4999
g74
(dp5000
sg83
g4968
sg76
(lp5001
g69
(g90
g71
NtRp5002
(dp5003
g74
(dp5004
sg83
g4998
sg76
(lp5005
g69
(g70
g71
NtRp5006
(dp5007
g74
(dp5008
g82
I4
ssg83
g5002
sg76
(lp5009
S'^default/exam/\\w+\\.py$'
p5010
asbasbasbasbasbasbasbag69
(g85
g71
NtRp5011
(dp5012
g74
(dp5013
sg83
g3681
sg76
(lp5014
g69
(g90
g71
NtRp5015
(dp5016
g74
(dp5017
g94
g95
ssg83
g5011
sg76
(lp5018
S'postprocessing'
p5019
asbag69
(g90
g71
NtRp5020
(dp5021
g74
(dp5022
g101
g102
ssg83
g5011
sg76
(lp5023
S':'
asbag69
(g90
g71
NtRp5024
(dp5025
g74
(dp5026
sg83
g5011
sg76
(lp5027
g69
(g70
g71
NtRp5028
(dp5029
g74
(dp5030
g82
I5
ssg83
g5024
sg76
(lp5031
g69
(g78
g71
NtRp5032
(dp5033
g74
(dp5034
g82
I4
ssg83
Nsg76
(lp5035
sbasbasbasbag69
(g85
g71
NtRp5036
(dp5037
g74
(dp5038
sg83
g3681
sg76
(lp5039
g69
(g90
g71
NtRp5040
(dp5041
g74
(dp5042
g94
g95
ssg83
g5036
sg76
(lp5043
S'session_cookie_expires'
p5044
asbag69
(g90
g71
NtRp5045
(dp5046
g74
(dp5047
g101
g102
ssg83
g5036
sg76
(lp5048
S':'
asbag69
(g90
g71
NtRp5049
(dp5050
g74
(dp5051
sg83
g5036
sg76
(lp5052
g69
(g70
g71
NtRp5053
(dp5054
g74
(dp5055
g82
I5
ssg83
g5049
sg76
(lp5056
S'None'
p5057
asbasbasbag69
(g85
g71
NtRp5058
(dp5059
g74
(dp5060
sg83
g3681
sg76
(lp5061
g69
(g90
g71
NtRp5062
(dp5063
g74
(dp5064
g94
g95
ssg83
g5058
sg76
(lp5065
S'session_data_name'
p5066
asbag69
(g90
g71
NtRp5067
(dp5068
g74
(dp5069
g101
g102
ssg83
g5058
sg76
(lp5070
S':'
asbag69
(g90
g71
NtRp5071
(dp5072
g74
(dp5073
sg83
g5058
sg76
(lp5074
g69
(g70
g71
NtRp5075
(dp5076
g74
(dp5077
g82
I5
ssg83
g5071
sg76
(lp5078
S'session_data_ggg'
p5079
asbasbasbag69
(g85
g71
NtRp5080
(dp5081
g74
(dp5082
sg83
g3681
sg76
(lp5083
g69
(g90
g71
NtRp5084
(dp5085
g74
(dp5086
g94
g95
ssg83
g5080
sg76
(lp5087
S'session_file'
p5088
asbag69
(g90
g71
NtRp5089
(dp5090
g74
(dp5091
g101
g102
ssg83
g5080
sg76
(lp5092
S':'
asbag69
(g90
g71
NtRp5093
(dp5094
g74
(dp5095
sg83
g5080
sg76
(lp5096
g69
(g70
g71
NtRp5097
(dp5098
g74
(dp5099
g82
I5
ssg83
g5093
sg76
(lp5100
S"<open file '/home/saurabh/web2py/applications/ggg/sessions/127.0.0.1-929b9b0c-f53b-49f1-97f4-7c5cb217c3d8', mode 'rb+' at 0x7fdd401f34b0>"
p5101
asbasbasbag69
(g85
g71
NtRp5102
(dp5103
g74
(dp5104
sg83
g3681
sg76
(lp5105
g69
(g90
g71
NtRp5106
(dp5107
g74
(dp5108
g94
g95
ssg83
g5102
sg76
(lp5109
S'session_filename'
p5110
asbag69
(g90
g71
NtRp5111
(dp5112
g74
(dp5113
g101
g102
ssg83
g5102
sg76
(lp5114
S':'
asbag69
(g90
g71
NtRp5115
(dp5116
g74
(dp5117
sg83
g5102
sg76
(lp5118
g69
(g70
g71
NtRp5119
(dp5120
g74
(dp5121
g82
I5
ssg83
g5115
sg76
(lp5122
S'/home/saurabh/web2py/applications/ggg/sessions/127.0.0.1-929b9b0c-f53b-49f1-97f4-7c5cb217c3d8'
p5123
asbasbasbag69
(g85
g71
NtRp5124
(dp5125
g74
(dp5126
sg83
g3681
sg76
(lp5127
g69
(g90
g71
NtRp5128
(dp5129
g74
(dp5130
g94
g95
ssg83
g5124
sg76
(lp5131
S'session_id'
p5132
asbag69
(g90
g71
NtRp5133
(dp5134
g74
(dp5135
g101
g102
ssg83
g5124
sg76
(lp5136
S':'
asbag69
(g90
g71
NtRp5137
(dp5138
g74
(dp5139
sg83
g5124
sg76
(lp5140
g69
(g70
g71
NtRp5141
(dp5142
g74
(dp5143
g82
I5
ssg83
g5137
sg76
(lp5144
g487
asbasbasbag69
(g85
g71
NtRp5145
(dp5146
g74
(dp5147
sg83
g3681
sg76
(lp5148
g69
(g90
g71
NtRp5149
(dp5150
g74
(dp5151
g94
g95
ssg83
g5145
sg76
(lp5152
S'session_id_name'
p5153
asbag69
(g90
g71
NtRp5154
(dp5155
g74
(dp5156
g101
g102
ssg83
g5145
sg76
(lp5157
S':'
asbag69
(g90
g71
NtRp5158
(dp5159
g74
(dp5160
sg83
g5145
sg76
(lp5161
g69
(g70
g71
NtRp5162
(dp5163
g74
(dp5164
g82
I5
ssg83
g5158
sg76
(lp5165
g3738
asbasbasbag69
(g85
g71
NtRp5166
(dp5167
g74
(dp5168
sg83
g3681
sg76
(lp5169
g69
(g90
g71
NtRp5170
(dp5171
g74
(dp5172
g94
g95
ssg83
g5166
sg76
(lp5173
S'session_locked'
p5174
asbag69
(g90
g71
NtRp5175
(dp5176
g74
(dp5177
g101
g102
ssg83
g5166
sg76
(lp5178
S':'
asbag69
(g90
g71
NtRp5179
(dp5180
g74
(dp5181
sg83
g5166
sg76
(lp5182
g69
(g70
g71
NtRp5183
(dp5184
g74
(dp5185
g82
I5
ssg83
g5179
sg76
(lp5186
g1781
asbasbasbag69
(g85
g71
NtRp5187
(dp5188
g74
(dp5189
sg83
g3681
sg76
(lp5190
g69
(g90
g71
NtRp5191
(dp5192
g74
(dp5193
g94
g95
ssg83
g5187
sg76
(lp5194
S'session_new'
p5195
asbag69
(g90
g71
NtRp5196
(dp5197
g74
(dp5198
g101
g102
ssg83
g5187
sg76
(lp5199
S':'
asbag69
(g90
g71
NtRp5200
(dp5201
g74
(dp5202
sg83
g5187
sg76
(lp5203
g69
(g70
g71
NtRp5204
(dp5205
g74
(dp5206
g82
I5
ssg83
g5200
sg76
(lp5207
g112
asbasbasbag69
(g85
g71
NtRp5208
(dp5209
g74
(dp5210
sg83
g3681
sg76
(lp5211
g69
(g90
g71
NtRp5212
(dp5213
g74
(dp5214
g94
g95
ssg83
g5208
sg76
(lp5215
S'session_storage_type'
p5216
asbag69
(g90
g71
NtRp5217
(dp5218
g74
(dp5219
g101
g102
ssg83
g5208
sg76
(lp5220
S':'
asbag69
(g90
g71
NtRp5221
(dp5222
g74
(dp5223
sg83
g5208
sg76
(lp5224
g69
(g70
g71
NtRp5225
(dp5226
g74
(dp5227
g82
I5
ssg83
g5221
sg76
(lp5228
g3211
asbasbasbag69
(g85
g71
NtRp5229
(dp5230
g74
(dp5231
sg83
g3681
sg76
(lp5232
g69
(g90
g71
NtRp5233
(dp5234
g74
(dp5235
g94
g95
ssg83
g5229
sg76
(lp5236
S'status'
p5237
asbag69
(g90
g71
NtRp5238
(dp5239
g74
(dp5240
g101
g102
ssg83
g5229
sg76
(lp5241
S':'
asbag69
(g90
g71
NtRp5242
(dp5243
g74
(dp5244
sg83
g5229
sg76
(lp5245
g69
(g70
g71
NtRp5246
(dp5247
g74
(dp5248
g82
I5
ssg83
g5242
sg76
(lp5249
S'200'
p5250
asbasbasbag69
(g85
g71
NtRp5251
(dp5252
g74
(dp5253
sg83
g3681
sg76
(lp5254
g69
(g90
g71
NtRp5255
(dp5256
g74
(dp5257
g94
g95
ssg83
g5251
sg76
(lp5258
S'subtitle'
p5259
asbag69
(g90
g71
NtRp5260
(dp5261
g74
(dp5262
g101
g102
ssg83
g5251
sg76
(lp5263
S':'
asbag69
(g90
g71
NtRp5264
(dp5265
g74
(dp5266
sg83
g5251
sg76
(lp5267
g69
(g70
g71
NtRp5268
(dp5269
g74
(dp5270
g82
I5
ssg83
g5264
sg76
(lp5271
g4215
(S's\r\x00\x00\x00customize me!'
tRp5272
asbasbasbag69
(g85
g71
NtRp5273
(dp5274
g74
(dp5275
sg83
g3681
sg76
(lp5276
g69
(g90
g71
NtRp5277
(dp5278
g74
(dp5279
g94
g95
ssg83
g5273
sg76
(lp5280
S'title'
p5281
asbag69
(g90
g71
NtRp5282
(dp5283
g74
(dp5284
g101
g102
ssg83
g5273
sg76
(lp5285
S':'
asbag69
(g90
g71
NtRp5286
(dp5287
g74
(dp5288
sg83
g5273
sg76
(lp5289
g69
(g70
g71
NtRp5290
(dp5291
g74
(dp5292
g82
I5
ssg83
g5286
sg76
(lp5293
S'Ggg'
p5294
asbasbasbag69
(g85
g71
NtRp5295
(dp5296
g74
(dp5297
sg83
g3681
sg76
(lp5298
g69
(g90
g71
NtRp5299
(dp5300
g74
(dp5301
g94
g95
ssg83
g5295
sg76
(lp5302
S'view'
p5303
asbag69
(g90
g71
NtRp5304
(dp5305
g74
(dp5306
g101
g102
ssg83
g5295
sg76
(lp5307
S':'
asbag69
(g90
g71
NtRp5308
(dp5309
g74
(dp5310
sg83
g5295
sg76
(lp5311
g69
(g70
g71
NtRp5312
(dp5313
g74
(dp5314
g82
I5
ssg83
g5308
sg76
(lp5315
S'default/exam.html'
p5316
asbasbasbasbasbsS'locals'
p5317
(dp5318
g4
S"'/home/saurabh/web2py/applications/ggg/controllers/default.py'"
p5319
sg6
S"'# -*- coding: utf-8 -*-\\n# this file is released ...ict(f=f) \\n\\nresponse._vars=response._caller(exam)\\n'"
p5320
sssS'traceback'
p5321
S'Traceback (most recent call last):\n  File "/home/saurabh/web2py/gluon/restricted.py", line 211, in restricted\n    ccode = compile2(code, layer)\n  File "/home/saurabh/web2py/gluon/restricted.py", line 194, in compile2\n    return compile(code.rstrip().replace(\'\\r\\n\', \'\\n\') + \'\\n\', layer, \'exec\')\n  File "/home/saurabh/web2py/applications/ggg/controllers/default.py", line 119\n    print "hello"\n        ^\nIndentationError: expected an indented block\n'
p5322
s.