(dp1
S'output'
p2
S"<type 'exceptions.SyntaxError'> Field marks does not belong to the table"
p3
sS'layer'
p4
S'/home/saurabh/web2py/applications/ggg/controllers/default.py'
p5
sS'code'
p6
S'# -*- coding: utf-8 -*-\n# this file is released under public domain and you can use without limitations\n\n#########################################################################\n## This is a samples controller\n## - index is the default action of any application\n## - user is required for authentication and authorization\n## - download is for downloading files uploaded in the db (does streaming)\n## - call exposes all registered services (none by default)\n#########################################################################\n\n\ndef index():\n    """\n    example action using the internationalization operator T and flash\n    rendered by views/default/index.html or views/generic.html\n\n    if you need a simple wiki simple replace the two lines below with:\n    return auth.wiki()\n    """\n    response.flash = T("Welcome to web2py!")\n    if(auth.user):\n\t print \'on\'\n\t db(auth.user.email==db.student.email).update(coun=1)\n    return dict(message=T(\'Hello World\'))\n   \n\n\ndef user():\n    """\n    exposes:\n    http://..../[app]/default/user/login\n    http://..../[app]/default/user/logout\n    http://..../[app]/default/user/register\n    http://..../[app]/default/user/profile\n    http://..../[app]/default/user/retrieve_password\n    http://..../[app]/default/user/change_password\n    use @auth.requires_login()\n        @auth.requires_membership(\'group name\')\n        @auth.requires_permission(\'read\',\'table name\',record_id)\n    to decorate functions that need access control\n    """\n    return dict(form=auth())\n\n\ndef download():\n    """\n    allows downloading of uploaded files\n    http://..../[app]/default/download/[filename]\n    """\n    return response.download(request, db)\n\n\ndef call():\n    """\n    exposes services. for example:\n    http://..../[app]/default/call/jsonrpc\n    decorate with @services.jsonrpc the functions to expose\n    supports xml, json, xmlrpc, jsonrpc, amfrpc, rss, csv\n    """\n    return service()\n\n\n@auth.requires_signature()\ndef data():\n    """\n    http://..../[app]/default/data/tables\n    http://..../[app]/default/data/create/[table]\n    http://..../[app]/default/data/read/[table]/[id]\n    http://..../[app]/default/data/update/[table]/[id]\n    http://..../[app]/default/data/delete/[table]/[id]\n    http://..../[app]/default/data/select/[table]\n    http://..../[app]/default/data/search/[table]\n    but URLs must be signed, i.e. linked with\n      A(\'table\',_href=URL(\'data/tables\',user_signature=True))\n    or with the signed load operator\n      LOAD(\'default\',\'data.load\',args=\'tables\',ajax=True,user_signature=True)\n    """\n    return dict(form=crud())\n\n\n\n\n\n#------------------------------------------------------------------------------------------------------------------------------#\n\n\n@auth.requires_login()\ndef student_info():\n     a=auth.user.email\n     response.flash=a\n     form=SQLFORM(db.student)\n     form.vars.email=a\n     form.vars.marks=0\n     if (form.accepts(request,session)):\n\t  response.flash="Personal Information Successfully Added"\n     return dict(form=form)\n\n@auth.requires_login()\n@auth.requires_membership(\'IIIT_FACULTY_DEPARTMENT\')\ndef set_paper():\n     form=SQLFORM(db.questions)\n     if form.accepts(request,session):\n\t  response.flash="Question Inserted"\n     return dict(form=form)\n\n\n@auth.requires_login()\ndef exam():\n     p={}\n     p=db(auth.user.email==db.student.email).select(db.student.coun)\n     n=p[0][\'coun\']\n     que={}\n     que=db(db.questions.que_number==n).select(db.questions.que_number,\n\t       \t\t\t\t       db.questions.question,\n\t\t\t\t\t       db.questions.option_a,\n\t                                       db.questions.option_b,\n\t                                       db.questions.option_c,\n\t                                       db.questions.option_d,\n\t\t\t\t\t       )\n     if que:\n          print "hello"\n          return dict(que=que)\n     else:\n          redirect(URL(\'default\',\'show\'))\n\t  \n\n\n\n\n@auth.requires_login()\ndef next():\n     p=db(auth.user.email==db.student.email).select(db.student.coun)\n     n=p[0][\'coun\']\n     correct=db(db.questions.que_number==n).select(db.questions.ans)\n     given=request.post_vars[\'ans\']\n     correct=correct[0][\'ans\']\n     db(db.questions.que_number==n).update(stid=auth.user.email)\n     if(correct==given):\n\t  db((db.questions.stid==auth.user.email)&(db.questions.que_number==n)).update(obtained_marks=4)\n     elif(correct!=given and given!=\'None\'):\n\t  db((db.questions.stid==auth.user.email)&(db.questions.que_number==n)).update(obtained_marks=-1)\n     \n     db(auth.user.email==db.student.email).update(coun=n+1)\n     que=db(db.questions.que_number>0).select(db.questions.que_number)\n     redirect(URL(\'default\',\'exam\'))\n\n\ndef prev():\n     p=db(auth.user.email==db.student.email).select(db.student.coun)\n     n=p[0][\'coun\']\n     if(n-1>0):\n\t  db(auth.user.email==db.student.email).update(coun=n-1)\n     if(n-1>0):\n\t  redirect(URL(\'default\',\'exam\'))\n     else:\n\t  redirect(URL(\'default\',\'noq\'))\ndef courses():\n     return locals()\ndef noq():\n     return locals()\n\ndef list():\n     k=db(db.auth_user.id>0).select(db.auth_user.first_name,db.auth_user.last_name)\n     return dict(k=k)\n\n\ndef faculty():\n     f=db(db.faculty.name==db.auth_user.id).select(db.auth_user.first_name,db.faculty.name,db.faculty.courses,db.faculty.designation)\n     return dict(f=f) \n\ndef show():\n     a=auth.user.email\n     k=db(db.questions.stid==a).select(db.questions.obtained_marks)\n     marks=0\n     for i in range(len(k)):\n\t  marks=marks+k[i][\'obtained_marks\']\n\t  print \'alpha\'\n          print marks \n     return dict(marks=marks)\n\nresponse._vars=response._caller(student_info)\n'
p7
sS'snapshot'
p8
(dp9
S'exception'
p10
(dp11
S'__getslice__'
p12
S"<method-wrapper '__getslice__' of exceptions.SyntaxError object>"
p13
sS'text'
p14
S'None'
p15
sS'__str__'
p16
S"<method-wrapper '__str__' of exceptions.SyntaxError object>"
p17
sS'__reduce__'
p18
S'<built-in method __reduce__ of exceptions.SyntaxError object>'
p19
sS'__dict__'
p20
S'{}'
p21
sS'__sizeof__'
p22
S'<built-in method __sizeof__ of exceptions.SyntaxError object>'
p23
sS'__init__'
p24
S"<method-wrapper '__init__' of exceptions.SyntaxError object>"
p25
sS'__setattr__'
p26
S"<method-wrapper '__setattr__' of exceptions.SyntaxError object>"
p27
sS'__reduce_ex__'
p28
S'<built-in method __reduce_ex__ of exceptions.SyntaxError object>'
p29
sS'__new__'
p30
S'<built-in method __new__ of type object>'
p31
sS'__format__'
p32
S'<built-in method __format__ of exceptions.SyntaxError object>'
p33
sS'__class__'
p34
S"<type 'exceptions.SyntaxError'>"
p35
sS'filename'
p36
S'None'
p37
sS'lineno'
p38
S'None'
p39
sS'msg'
p40
S"'Field marks does not belong to the table'"
p41
sS'__doc__'
p42
S"'Invalid syntax.'"
p43
sS'__getitem__'
p44
S"<method-wrapper '__getitem__' of exceptions.SyntaxError object>"
p45
sS'__setstate__'
p46
S'<built-in method __setstate__ of exceptions.SyntaxError object>'
p47
sS'__getattribute__'
p48
S"<method-wrapper '__getattribute__' of exceptions.SyntaxError object>"
p49
sS'print_file_and_line'
p50
S'None'
p51
sS'args'
p52
S"('Field marks does not belong to the table',)"
p53
sS'__subclasshook__'
p54
S'<built-in method __subclasshook__ of type object>'
p55
sS'offset'
p56
S'None'
p57
sS'__unicode__'
p58
S'<built-in method __unicode__ of exceptions.SyntaxError object>'
p59
sS'__delattr__'
p60
S"<method-wrapper '__delattr__' of exceptions.SyntaxError object>"
p61
sS'__repr__'
p62
S"<method-wrapper '__repr__' of exceptions.SyntaxError object>"
p63
sS'__hash__'
p64
S"<method-wrapper '__hash__' of exceptions.SyntaxError object>"
p65
ssS'evalue'
p66
S'Field marks does not belong to the table'
p67
sS'request'
p68
ccopy_reg
_reconstructor
p69
(cgluon.html
BEAUTIFY
p70
c__builtin__
object
p71
NtRp72
(dp73
S'attributes'
p74
(dp75
sS'components'
p76
(lp77
g69
(cgluon.html
TABLE
p78
g71
NtRp79
(dp80
g74
(dp81
S'level'
p82
I5
ssS'parent'
p83
Nsg76
(lp84
g69
(cgluon.html
TR
p85
g71
NtRp86
(dp87
g74
(dp88
sg83
g79
sg76
(lp89
g69
(cgluon.html
TD
p90
g71
NtRp91
(dp92
g74
(dp93
S'_style'
p94
S'font-weight:bold;vertical-align:top'
p95
ssg83
g86
sg76
(lp96
S'ajax'
p97
asbag69
(g90
g71
NtRp98
(dp99
g74
(dp100
S'_valign'
p101
S'top'
p102
ssg83
g86
sg76
(lp103
S':'
asbag69
(g90
g71
NtRp104
(dp105
g74
(dp106
sg83
g86
sg76
(lp107
g69
(g70
g71
NtRp108
(dp109
g74
(dp110
g82
I5
ssg83
g104
sg76
(lp111
S'False'
p112
asbasbasbag69
(g85
g71
NtRp113
(dp114
g74
(dp115
sg83
g79
sg76
(lp116
g69
(g90
g71
NtRp117
(dp118
g74
(dp119
g94
g95
ssg83
g113
sg76
(lp120
S'application'
p121
asbag69
(g90
g71
NtRp122
(dp123
g74
(dp124
g101
g102
ssg83
g113
sg76
(lp125
S':'
asbag69
(g90
g71
NtRp126
(dp127
g74
(dp128
sg83
g113
sg76
(lp129
g69
(g70
g71
NtRp130
(dp131
g74
(dp132
g82
I5
ssg83
g126
sg76
(lp133
S'ggg'
p134
asbasbasbag69
(g85
g71
NtRp135
(dp136
g74
(dp137
sg83
g79
sg76
(lp138
g69
(g90
g71
NtRp139
(dp140
g74
(dp141
g94
g95
ssg83
g135
sg76
(lp142
g52
asbag69
(g90
g71
NtRp143
(dp144
g74
(dp145
g101
g102
ssg83
g135
sg76
(lp146
S':'
asbag69
(g90
g71
NtRp147
(dp148
g74
(dp149
sg83
g135
sg76
(lp150
g69
(g70
g71
NtRp151
(dp152
g74
(dp153
g82
I5
ssg83
g147
sg76
(lp154
g69
(g78
g71
NtRp155
(dp156
g74
(dp157
g82
I4
ssg83
Nsg76
(lp158
sbasbasbasbag69
(g85
g71
NtRp159
(dp160
g74
(dp161
sg83
g79
sg76
(lp162
g69
(g90
g71
NtRp163
(dp164
g74
(dp165
g94
g95
ssg83
g159
sg76
(lp166
S'body'
p167
asbag69
(g90
g71
NtRp168
(dp169
g74
(dp170
g101
g102
ssg83
g159
sg76
(lp171
S':'
asbag69
(g90
g71
NtRp172
(dp173
g74
(dp174
sg83
g159
sg76
(lp175
g69
(g70
g71
NtRp176
(dp177
g74
(dp178
g82
I5
ssg83
g172
sg76
(lp179
S"<open file '<fdopen>', mode 'w+b' at 0x7fdcf4636e40>"
p180
asbasbasbag69
(g85
g71
NtRp181
(dp182
g74
(dp183
sg83
g79
sg76
(lp184
g69
(g90
g71
NtRp185
(dp186
g74
(dp187
g94
g95
ssg83
g181
sg76
(lp188
S'cid'
p189
asbag69
(g90
g71
NtRp190
(dp191
g74
(dp192
g101
g102
ssg83
g181
sg76
(lp193
S':'
asbag69
(g90
g71
NtRp194
(dp195
g74
(dp196
sg83
g181
sg76
(lp197
g69
(g70
g71
NtRp198
(dp199
g74
(dp200
g82
I5
ssg83
g194
sg76
(lp201
S'None'
p202
asbasbasbag69
(g85
g71
NtRp203
(dp204
g74
(dp205
sg83
g79
sg76
(lp206
g69
(g90
g71
NtRp207
(dp208
g74
(dp209
g94
g95
ssg83
g203
sg76
(lp210
S'client'
p211
asbag69
(g90
g71
NtRp212
(dp213
g74
(dp214
g101
g102
ssg83
g203
sg76
(lp215
S':'
asbag69
(g90
g71
NtRp216
(dp217
g74
(dp218
sg83
g203
sg76
(lp219
g69
(g70
g71
NtRp220
(dp221
g74
(dp222
g82
I5
ssg83
g216
sg76
(lp223
S'127.0.0.1'
p224
asbasbasbag69
(g85
g71
NtRp225
(dp226
g74
(dp227
sg83
g79
sg76
(lp228
g69
(g90
g71
NtRp229
(dp230
g74
(dp231
g94
g95
ssg83
g225
sg76
(lp232
S'controller'
p233
asbag69
(g90
g71
NtRp234
(dp235
g74
(dp236
g101
g102
ssg83
g225
sg76
(lp237
S':'
asbag69
(g90
g71
NtRp238
(dp239
g74
(dp240
sg83
g225
sg76
(lp241
g69
(g70
g71
NtRp242
(dp243
g74
(dp244
g82
I5
ssg83
g238
sg76
(lp245
S'default'
p246
asbasbasbag69
(g85
g71
NtRp247
(dp248
g74
(dp249
sg83
g79
sg76
(lp250
g69
(g90
g71
NtRp251
(dp252
g74
(dp253
g94
g95
ssg83
g247
sg76
(lp254
S'cookies'
p255
asbag69
(g90
g71
NtRp256
(dp257
g74
(dp258
g101
g102
ssg83
g247
sg76
(lp259
S':'
asbag69
(g90
g71
NtRp260
(dp261
g74
(dp262
sg83
g247
sg76
(lp263
g69
(g70
g71
NtRp264
(dp265
g74
(dp266
g82
I5
ssg83
g260
sg76
(lp267
g69
(g78
g71
NtRp268
(dp269
g74
(dp270
g82
I4
ssg83
Nsg76
(lp271
g69
(g85
g71
NtRp272
(dp273
g74
(dp274
sg83
g268
sg76
(lp275
g69
(g90
g71
NtRp276
(dp277
g74
(dp278
g94
g95
ssg83
g272
sg76
(lp279
S'session_id_admin'
p280
asbag69
(g90
g71
NtRp281
(dp282
g74
(dp283
g101
g102
ssg83
g272
sg76
(lp284
S':'
asbag69
(g90
g71
NtRp285
(dp286
g74
(dp287
sg83
g272
sg76
(lp288
g69
(g70
g71
NtRp289
(dp290
g74
(dp291
g82
I4
ssg83
g285
sg76
(lp292
S'127.0.0.1-6c32ab8a-6fb4-4262-bdd0-7e49bdd282a5'
p293
ag69
(g78
g71
NtRp294
(dp295
g74
(dp296
g82
I3
ssg83
Nsg76
(lp297
g69
(g85
g71
NtRp298
(dp299
g74
(dp300
sg83
g294
sg76
(lp301
g69
(g90
g71
NtRp302
(dp303
g74
(dp304
g94
g95
ssg83
g298
sg76
(lp305
S'comment'
p306
asbag69
(g90
g71
NtRp307
(dp308
g74
(dp309
g101
g102
ssg83
g298
sg76
(lp310
S':'
asbag69
(g90
g71
NtRp311
(dp312
g74
(dp313
sg83
g298
sg76
(lp314
g69
(g70
g71
NtRp315
(dp316
g74
(dp317
g82
I3
ssg83
g311
sg76
(lp318
S''
asbasbasbag69
(g85
g71
NtRp319
(dp320
g74
(dp321
sg83
g294
sg76
(lp322
g69
(g90
g71
NtRp323
(dp324
g74
(dp325
g94
g95
ssg83
g319
sg76
(lp326
S'domain'
p327
asbag69
(g90
g71
NtRp328
(dp329
g74
(dp330
g101
g102
ssg83
g319
sg76
(lp331
S':'
asbag69
(g90
g71
NtRp332
(dp333
g74
(dp334
sg83
g319
sg76
(lp335
g69
(g70
g71
NtRp336
(dp337
g74
(dp338
g82
I3
ssg83
g332
sg76
(lp339
S''
asbasbasbag69
(g85
g71
NtRp340
(dp341
g74
(dp342
sg83
g294
sg76
(lp343
g69
(g90
g71
NtRp344
(dp345
g74
(dp346
g94
g95
ssg83
g340
sg76
(lp347
S'expires'
p348
asbag69
(g90
g71
NtRp349
(dp350
g74
(dp351
g101
g102
ssg83
g340
sg76
(lp352
S':'
asbag69
(g90
g71
NtRp353
(dp354
g74
(dp355
sg83
g340
sg76
(lp356
g69
(g70
g71
NtRp357
(dp358
g74
(dp359
g82
I3
ssg83
g353
sg76
(lp360
S''
asbasbasbag69
(g85
g71
NtRp361
(dp362
g74
(dp363
sg83
g294
sg76
(lp364
g69
(g90
g71
NtRp365
(dp366
g74
(dp367
g94
g95
ssg83
g361
sg76
(lp368
S'httponly'
p369
asbag69
(g90
g71
NtRp370
(dp371
g74
(dp372
g101
g102
ssg83
g361
sg76
(lp373
S':'
asbag69
(g90
g71
NtRp374
(dp375
g74
(dp376
sg83
g361
sg76
(lp377
g69
(g70
g71
NtRp378
(dp379
g74
(dp380
g82
I3
ssg83
g374
sg76
(lp381
S''
asbasbasbag69
(g85
g71
NtRp382
(dp383
g74
(dp384
sg83
g294
sg76
(lp385
g69
(g90
g71
NtRp386
(dp387
g74
(dp388
g94
g95
ssg83
g382
sg76
(lp389
S'max-age'
p390
asbag69
(g90
g71
NtRp391
(dp392
g74
(dp393
g101
g102
ssg83
g382
sg76
(lp394
S':'
asbag69
(g90
g71
NtRp395
(dp396
g74
(dp397
sg83
g382
sg76
(lp398
g69
(g70
g71
NtRp399
(dp400
g74
(dp401
g82
I3
ssg83
g395
sg76
(lp402
S''
asbasbasbag69
(g85
g71
NtRp403
(dp404
g74
(dp405
sg83
g294
sg76
(lp406
g69
(g90
g71
NtRp407
(dp408
g74
(dp409
g94
g95
ssg83
g403
sg76
(lp410
S'path'
p411
asbag69
(g90
g71
NtRp412
(dp413
g74
(dp414
g101
g102
ssg83
g403
sg76
(lp415
S':'
asbag69
(g90
g71
NtRp416
(dp417
g74
(dp418
sg83
g403
sg76
(lp419
g69
(g70
g71
NtRp420
(dp421
g74
(dp422
g82
I3
ssg83
g416
sg76
(lp423
S''
asbasbasbag69
(g85
g71
NtRp424
(dp425
g74
(dp426
sg83
g294
sg76
(lp427
g69
(g90
g71
NtRp428
(dp429
g74
(dp430
g94
g95
ssg83
g424
sg76
(lp431
S'secure'
p432
asbag69
(g90
g71
NtRp433
(dp434
g74
(dp435
g101
g102
ssg83
g424
sg76
(lp436
S':'
asbag69
(g90
g71
NtRp437
(dp438
g74
(dp439
sg83
g424
sg76
(lp440
g69
(g70
g71
NtRp441
(dp442
g74
(dp443
g82
I3
ssg83
g437
sg76
(lp444
S''
asbasbasbag69
(g85
g71
NtRp445
(dp446
g74
(dp447
sg83
g294
sg76
(lp448
g69
(g90
g71
NtRp449
(dp450
g74
(dp451
g94
g95
ssg83
g445
sg76
(lp452
S'version'
p453
asbag69
(g90
g71
NtRp454
(dp455
g74
(dp456
g101
g102
ssg83
g445
sg76
(lp457
S':'
asbag69
(g90
g71
NtRp458
(dp459
g74
(dp460
sg83
g445
sg76
(lp461
g69
(g70
g71
NtRp462
(dp463
g74
(dp464
g82
I3
ssg83
g458
sg76
(lp465
S''
asbasbasbasbasbasbasbag69
(g85
g71
NtRp466
(dp467
g74
(dp468
sg83
g268
sg76
(lp469
g69
(g90
g71
NtRp470
(dp471
g74
(dp472
g94
g95
ssg83
g466
sg76
(lp473
S'session_id_ggg'
p474
asbag69
(g90
g71
NtRp475
(dp476
g74
(dp477
g101
g102
ssg83
g466
sg76
(lp478
S':'
asbag69
(g90
g71
NtRp479
(dp480
g74
(dp481
sg83
g466
sg76
(lp482
g69
(g70
g71
NtRp483
(dp484
g74
(dp485
g82
I4
ssg83
g479
sg76
(lp486
S'127.0.0.1-929b9b0c-f53b-49f1-97f4-7c5cb217c3d8'
p487
ag69
(g78
g71
NtRp488
(dp489
g74
(dp490
g82
I3
ssg83
Nsg76
(lp491
g69
(g85
g71
NtRp492
(dp493
g74
(dp494
sg83
g488
sg76
(lp495
g69
(g90
g71
NtRp496
(dp497
g74
(dp498
g94
g95
ssg83
g492
sg76
(lp499
g306
asbag69
(g90
g71
NtRp500
(dp501
g74
(dp502
g101
g102
ssg83
g492
sg76
(lp503
S':'
asbag69
(g90
g71
NtRp504
(dp505
g74
(dp506
sg83
g492
sg76
(lp507
g69
(g70
g71
NtRp508
(dp509
g74
(dp510
g82
I3
ssg83
g504
sg76
(lp511
S''
asbasbasbag69
(g85
g71
NtRp512
(dp513
g74
(dp514
sg83
g488
sg76
(lp515
g69
(g90
g71
NtRp516
(dp517
g74
(dp518
g94
g95
ssg83
g512
sg76
(lp519
g327
asbag69
(g90
g71
NtRp520
(dp521
g74
(dp522
g101
g102
ssg83
g512
sg76
(lp523
S':'
asbag69
(g90
g71
NtRp524
(dp525
g74
(dp526
sg83
g512
sg76
(lp527
g69
(g70
g71
NtRp528
(dp529
g74
(dp530
g82
I3
ssg83
g524
sg76
(lp531
S''
asbasbasbag69
(g85
g71
NtRp532
(dp533
g74
(dp534
sg83
g488
sg76
(lp535
g69
(g90
g71
NtRp536
(dp537
g74
(dp538
g94
g95
ssg83
g532
sg76
(lp539
g348
asbag69
(g90
g71
NtRp540
(dp541
g74
(dp542
g101
g102
ssg83
g532
sg76
(lp543
S':'
asbag69
(g90
g71
NtRp544
(dp545
g74
(dp546
sg83
g532
sg76
(lp547
g69
(g70
g71
NtRp548
(dp549
g74
(dp550
g82
I3
ssg83
g544
sg76
(lp551
S''
asbasbasbag69
(g85
g71
NtRp552
(dp553
g74
(dp554
sg83
g488
sg76
(lp555
g69
(g90
g71
NtRp556
(dp557
g74
(dp558
g94
g95
ssg83
g552
sg76
(lp559
g369
asbag69
(g90
g71
NtRp560
(dp561
g74
(dp562
g101
g102
ssg83
g552
sg76
(lp563
S':'
asbag69
(g90
g71
NtRp564
(dp565
g74
(dp566
sg83
g552
sg76
(lp567
g69
(g70
g71
NtRp568
(dp569
g74
(dp570
g82
I3
ssg83
g564
sg76
(lp571
S''
asbasbasbag69
(g85
g71
NtRp572
(dp573
g74
(dp574
sg83
g488
sg76
(lp575
g69
(g90
g71
NtRp576
(dp577
g74
(dp578
g94
g95
ssg83
g572
sg76
(lp579
g390
asbag69
(g90
g71
NtRp580
(dp581
g74
(dp582
g101
g102
ssg83
g572
sg76
(lp583
S':'
asbag69
(g90
g71
NtRp584
(dp585
g74
(dp586
sg83
g572
sg76
(lp587
g69
(g70
g71
NtRp588
(dp589
g74
(dp590
g82
I3
ssg83
g584
sg76
(lp591
S''
asbasbasbag69
(g85
g71
NtRp592
(dp593
g74
(dp594
sg83
g488
sg76
(lp595
g69
(g90
g71
NtRp596
(dp597
g74
(dp598
g94
g95
ssg83
g592
sg76
(lp599
g411
asbag69
(g90
g71
NtRp600
(dp601
g74
(dp602
g101
g102
ssg83
g592
sg76
(lp603
S':'
asbag69
(g90
g71
NtRp604
(dp605
g74
(dp606
sg83
g592
sg76
(lp607
g69
(g70
g71
NtRp608
(dp609
g74
(dp610
g82
I3
ssg83
g604
sg76
(lp611
S''
asbasbasbag69
(g85
g71
NtRp612
(dp613
g74
(dp614
sg83
g488
sg76
(lp615
g69
(g90
g71
NtRp616
(dp617
g74
(dp618
g94
g95
ssg83
g612
sg76
(lp619
g432
asbag69
(g90
g71
NtRp620
(dp621
g74
(dp622
g101
g102
ssg83
g612
sg76
(lp623
S':'
asbag69
(g90
g71
NtRp624
(dp625
g74
(dp626
sg83
g612
sg76
(lp627
g69
(g70
g71
NtRp628
(dp629
g74
(dp630
g82
I3
ssg83
g624
sg76
(lp631
S''
asbasbasbag69
(g85
g71
NtRp632
(dp633
g74
(dp634
sg83
g488
sg76
(lp635
g69
(g90
g71
NtRp636
(dp637
g74
(dp638
g94
g95
ssg83
g632
sg76
(lp639
g453
asbag69
(g90
g71
NtRp640
(dp641
g74
(dp642
g101
g102
ssg83
g632
sg76
(lp643
S':'
asbag69
(g90
g71
NtRp644
(dp645
g74
(dp646
sg83
g632
sg76
(lp647
g69
(g70
g71
NtRp648
(dp649
g74
(dp650
g82
I3
ssg83
g644
sg76
(lp651
S''
asbasbasbasbasbasbasbag69
(g85
g71
NtRp652
(dp653
g74
(dp654
sg83
g268
sg76
(lp655
g69
(g90
g71
NtRp656
(dp657
g74
(dp658
g94
g95
ssg83
g652
sg76
(lp659
S'session_id_welcome'
p660
asbag69
(g90
g71
NtRp661
(dp662
g74
(dp663
g101
g102
ssg83
g652
sg76
(lp664
S':'
asbag69
(g90
g71
NtRp665
(dp666
g74
(dp667
sg83
g652
sg76
(lp668
g69
(g70
g71
NtRp669
(dp670
g74
(dp671
g82
I4
ssg83
g665
sg76
(lp672
S'127.0.0.1-3c9ecfaa-58d3-46f5-95bb-5fddc1d3dc9e'
p673
ag69
(g78
g71
NtRp674
(dp675
g74
(dp676
g82
I3
ssg83
Nsg76
(lp677
g69
(g85
g71
NtRp678
(dp679
g74
(dp680
sg83
g674
sg76
(lp681
g69
(g90
g71
NtRp682
(dp683
g74
(dp684
g94
g95
ssg83
g678
sg76
(lp685
g306
asbag69
(g90
g71
NtRp686
(dp687
g74
(dp688
g101
g102
ssg83
g678
sg76
(lp689
S':'
asbag69
(g90
g71
NtRp690
(dp691
g74
(dp692
sg83
g678
sg76
(lp693
g69
(g70
g71
NtRp694
(dp695
g74
(dp696
g82
I3
ssg83
g690
sg76
(lp697
S''
asbasbasbag69
(g85
g71
NtRp698
(dp699
g74
(dp700
sg83
g674
sg76
(lp701
g69
(g90
g71
NtRp702
(dp703
g74
(dp704
g94
g95
ssg83
g698
sg76
(lp705
g327
asbag69
(g90
g71
NtRp706
(dp707
g74
(dp708
g101
g102
ssg83
g698
sg76
(lp709
S':'
asbag69
(g90
g71
NtRp710
(dp711
g74
(dp712
sg83
g698
sg76
(lp713
g69
(g70
g71
NtRp714
(dp715
g74
(dp716
g82
I3
ssg83
g710
sg76
(lp717
S''
asbasbasbag69
(g85
g71
NtRp718
(dp719
g74
(dp720
sg83
g674
sg76
(lp721
g69
(g90
g71
NtRp722
(dp723
g74
(dp724
g94
g95
ssg83
g718
sg76
(lp725
g348
asbag69
(g90
g71
NtRp726
(dp727
g74
(dp728
g101
g102
ssg83
g718
sg76
(lp729
S':'
asbag69
(g90
g71
NtRp730
(dp731
g74
(dp732
sg83
g718
sg76
(lp733
g69
(g70
g71
NtRp734
(dp735
g74
(dp736
g82
I3
ssg83
g730
sg76
(lp737
S''
asbasbasbag69
(g85
g71
NtRp738
(dp739
g74
(dp740
sg83
g674
sg76
(lp741
g69
(g90
g71
NtRp742
(dp743
g74
(dp744
g94
g95
ssg83
g738
sg76
(lp745
g369
asbag69
(g90
g71
NtRp746
(dp747
g74
(dp748
g101
g102
ssg83
g738
sg76
(lp749
S':'
asbag69
(g90
g71
NtRp750
(dp751
g74
(dp752
sg83
g738
sg76
(lp753
g69
(g70
g71
NtRp754
(dp755
g74
(dp756
g82
I3
ssg83
g750
sg76
(lp757
S''
asbasbasbag69
(g85
g71
NtRp758
(dp759
g74
(dp760
sg83
g674
sg76
(lp761
g69
(g90
g71
NtRp762
(dp763
g74
(dp764
g94
g95
ssg83
g758
sg76
(lp765
g390
asbag69
(g90
g71
NtRp766
(dp767
g74
(dp768
g101
g102
ssg83
g758
sg76
(lp769
S':'
asbag69
(g90
g71
NtRp770
(dp771
g74
(dp772
sg83
g758
sg76
(lp773
g69
(g70
g71
NtRp774
(dp775
g74
(dp776
g82
I3
ssg83
g770
sg76
(lp777
S''
asbasbasbag69
(g85
g71
NtRp778
(dp779
g74
(dp780
sg83
g674
sg76
(lp781
g69
(g90
g71
NtRp782
(dp783
g74
(dp784
g94
g95
ssg83
g778
sg76
(lp785
g411
asbag69
(g90
g71
NtRp786
(dp787
g74
(dp788
g101
g102
ssg83
g778
sg76
(lp789
S':'
asbag69
(g90
g71
NtRp790
(dp791
g74
(dp792
sg83
g778
sg76
(lp793
g69
(g70
g71
NtRp794
(dp795
g74
(dp796
g82
I3
ssg83
g790
sg76
(lp797
S''
asbasbasbag69
(g85
g71
NtRp798
(dp799
g74
(dp800
sg83
g674
sg76
(lp801
g69
(g90
g71
NtRp802
(dp803
g74
(dp804
g94
g95
ssg83
g798
sg76
(lp805
g432
asbag69
(g90
g71
NtRp806
(dp807
g74
(dp808
g101
g102
ssg83
g798
sg76
(lp809
S':'
asbag69
(g90
g71
NtRp810
(dp811
g74
(dp812
sg83
g798
sg76
(lp813
g69
(g70
g71
NtRp814
(dp815
g74
(dp816
g82
I3
ssg83
g810
sg76
(lp817
S''
asbasbasbag69
(g85
g71
NtRp818
(dp819
g74
(dp820
sg83
g674
sg76
(lp821
g69
(g90
g71
NtRp822
(dp823
g74
(dp824
g94
g95
ssg83
g818
sg76
(lp825
g453
asbag69
(g90
g71
NtRp826
(dp827
g74
(dp828
g101
g102
ssg83
g818
sg76
(lp829
S':'
asbag69
(g90
g71
NtRp830
(dp831
g74
(dp832
sg83
g818
sg76
(lp833
g69
(g70
g71
NtRp834
(dp835
g74
(dp836
g82
I3
ssg83
g830
sg76
(lp837
S''
asbasbasbasbasbasbasbasbasbasbasbag69
(g85
g71
NtRp838
(dp839
g74
(dp840
sg83
g79
sg76
(lp841
g69
(g90
g71
NtRp842
(dp843
g74
(dp844
g94
g95
ssg83
g838
sg76
(lp845
S'env'
p846
asbag69
(g90
g71
NtRp847
(dp848
g74
(dp849
g101
g102
ssg83
g838
sg76
(lp850
S':'
asbag69
(g90
g71
NtRp851
(dp852
g74
(dp853
sg83
g838
sg76
(lp854
g69
(g70
g71
NtRp855
(dp856
g74
(dp857
g82
I5
ssg83
g851
sg76
(lp858
g69
(g78
g71
NtRp859
(dp860
g74
(dp861
g82
I4
ssg83
Nsg76
(lp862
g69
(g85
g71
NtRp863
(dp864
g74
(dp865
sg83
g859
sg76
(lp866
g69
(g90
g71
NtRp867
(dp868
g74
(dp869
g94
g95
ssg83
g863
sg76
(lp870
S'app_folders'
p871
asbag69
(g90
g71
NtRp872
(dp873
g74
(dp874
g101
g102
ssg83
g863
sg76
(lp875
S':'
asbag69
(g90
g71
NtRp876
(dp877
g74
(dp878
sg83
g863
sg76
(lp879
g69
(g70
g71
NtRp880
(dp881
g74
(dp882
g82
I4
ssg83
g876
sg76
(lp883
S"set(['/home/saurabh/web2py/applications/ggg/', '/home/saurabh/web2py/applications/admin/', '/home/saurabh/web2py/applications/welcome/'])"
p884
asbasbasbag69
(g85
g71
NtRp885
(dp886
g74
(dp887
sg83
g859
sg76
(lp888
g69
(g90
g71
NtRp889
(dp890
g74
(dp891
g94
g95
ssg83
g885
sg76
(lp892
S'applications_parent'
p893
asbag69
(g90
g71
NtRp894
(dp895
g74
(dp896
g101
g102
ssg83
g885
sg76
(lp897
S':'
asbag69
(g90
g71
NtRp898
(dp899
g74
(dp900
sg83
g885
sg76
(lp901
g69
(g70
g71
NtRp902
(dp903
g74
(dp904
g82
I4
ssg83
g898
sg76
(lp905
S'/home/saurabh/web2py'
p906
asbasbasbag69
(g85
g71
NtRp907
(dp908
g74
(dp909
sg83
g859
sg76
(lp910
g69
(g90
g71
NtRp911
(dp912
g74
(dp913
g94
g95
ssg83
g907
sg76
(lp914
S'cmd_args'
p915
asbag69
(g90
g71
NtRp916
(dp917
g74
(dp918
g101
g102
ssg83
g907
sg76
(lp919
S':'
asbag69
(g90
g71
NtRp920
(dp921
g74
(dp922
sg83
g907
sg76
(lp923
g69
(g70
g71
NtRp924
(dp925
g74
(dp926
g82
I4
ssg83
g920
sg76
(lp927
g69
(g78
g71
NtRp928
(dp929
g74
(dp930
g82
I3
ssg83
Nsg76
(lp931
sbasbasbasbag69
(g85
g71
NtRp932
(dp933
g74
(dp934
sg83
g859
sg76
(lp935
g69
(g90
g71
NtRp936
(dp937
g74
(dp938
g94
g95
ssg83
g932
sg76
(lp939
S'cmd_options'
p940
asbag69
(g90
g71
NtRp941
(dp942
g74
(dp943
g101
g102
ssg83
g932
sg76
(lp944
S':'
asbag69
(g90
g71
NtRp945
(dp946
g74
(dp947
sg83
g932
sg76
(lp948
g69
(g70
g71
NtRp949
(dp950
g74
(dp951
g82
I4
ssg83
g945
sg76
(lp952
S"<Values at 0x17248c0: {'verbose': False, 'ip': '127.0.0.1', 'with_scheduler': False, 'ips': [], 'shutdown_timeout': 5, 'taskbar': False, 'port': 8000, 'maxthreads': None, 'softcron': False, 'server_name': 'saurabh-Inspiron-N4050', 'bpython': False, 'nogui': False, 'pid_filename': 'httpserver.pid', 'extcron': False, 'runcron': False, 'run_system_tests': False, 'test': None, 'folder': '/home/saurabh/web2py', 'config': '', 'minthreads': None, 'winservice': '', 'shell': None, 'run': '', 'log_filename': 'httpserver.log', 'debuglevel': 30, 'args': [''], 'socket_timeout': 5, 'ssl_ca_certificate': None, 'scheduler': None, 'profiler_filename': None, 'ssl_private_key': '', 'scheduler_groups': None, 'password': '<ask>', 'request_queue_size': 5, 'ssl_certificate': '', 'cronjob': False, 'numthreads': None, 'quiet': False, 'interfaces': None, 'import_models': False, 'timeout': 10, 'plain': False, 'nobanner': False}>"
p953
asbasbasbag69
(g85
g71
NtRp954
(dp955
g74
(dp956
sg83
g859
sg76
(lp957
g69
(g90
g71
NtRp958
(dp959
g74
(dp960
g94
g95
ssg83
g954
sg76
(lp961
S'content_length'
p962
asbag69
(g90
g71
NtRp963
(dp964
g74
(dp965
g101
g102
ssg83
g954
sg76
(lp966
S':'
asbag69
(g90
g71
NtRp967
(dp968
g74
(dp969
sg83
g954
sg76
(lp970
g69
(g70
g71
NtRp971
(dp972
g74
(dp973
g82
I4
ssg83
g967
sg76
(lp974
S'1051'
p975
asbasbasbag69
(g85
g71
NtRp976
(dp977
g74
(dp978
sg83
g859
sg76
(lp979
g69
(g90
g71
NtRp980
(dp981
g74
(dp982
g94
g95
ssg83
g976
sg76
(lp983
S'content_type'
p984
asbag69
(g90
g71
NtRp985
(dp986
g74
(dp987
g101
g102
ssg83
g976
sg76
(lp988
S':'
asbag69
(g90
g71
NtRp989
(dp990
g74
(dp991
sg83
g976
sg76
(lp992
g69
(g70
g71
NtRp993
(dp994
g74
(dp995
g82
I4
ssg83
g989
sg76
(lp996
S'multipart/form-data; boundary=---------------------------1724690072940854330750258984'
p997
asbasbasbag69
(g85
g71
NtRp998
(dp999
g74
(dp1000
sg83
g859
sg76
(lp1001
g69
(g90
g71
NtRp1002
(dp1003
g74
(dp1004
g94
g95
ssg83
g998
sg76
(lp1005
S'db_sessions'
p1006
asbag69
(g90
g71
NtRp1007
(dp1008
g74
(dp1009
g101
g102
ssg83
g998
sg76
(lp1010
S':'
asbag69
(g90
g71
NtRp1011
(dp1012
g74
(dp1013
sg83
g998
sg76
(lp1014
g69
(g70
g71
NtRp1015
(dp1016
g74
(dp1017
g82
I4
ssg83
g1011
sg76
(lp1018
S'set([])'
p1019
asbasbasbag69
(g85
g71
NtRp1020
(dp1021
g74
(dp1022
sg83
g859
sg76
(lp1023
g69
(g90
g71
NtRp1024
(dp1025
g74
(dp1026
g94
g95
ssg83
g1020
sg76
(lp1027
S'debugging'
p1028
asbag69
(g90
g71
NtRp1029
(dp1030
g74
(dp1031
g101
g102
ssg83
g1020
sg76
(lp1032
S':'
asbag69
(g90
g71
NtRp1033
(dp1034
g74
(dp1035
sg83
g1020
sg76
(lp1036
g69
(g70
g71
NtRp1037
(dp1038
g74
(dp1039
g82
I4
ssg83
g1033
sg76
(lp1040
g112
asbasbasbag69
(g85
g71
NtRp1041
(dp1042
g74
(dp1043
sg83
g859
sg76
(lp1044
g69
(g90
g71
NtRp1045
(dp1046
g74
(dp1047
g94
g95
ssg83
g1041
sg76
(lp1048
S'gluon_parent'
p1049
asbag69
(g90
g71
NtRp1050
(dp1051
g74
(dp1052
g101
g102
ssg83
g1041
sg76
(lp1053
S':'
asbag69
(g90
g71
NtRp1054
(dp1055
g74
(dp1056
sg83
g1041
sg76
(lp1057
g69
(g70
g71
NtRp1058
(dp1059
g74
(dp1060
g82
I4
ssg83
g1054
sg76
(lp1061
S'/home/saurabh/web2py'
p1062
asbasbasbag69
(g85
g71
NtRp1063
(dp1064
g74
(dp1065
sg83
g859
sg76
(lp1066
g69
(g90
g71
NtRp1067
(dp1068
g74
(dp1069
g94
g95
ssg83
g1063
sg76
(lp1070
S'http_accept'
p1071
asbag69
(g90
g71
NtRp1072
(dp1073
g74
(dp1074
g101
g102
ssg83
g1063
sg76
(lp1075
S':'
asbag69
(g90
g71
NtRp1076
(dp1077
g74
(dp1078
sg83
g1063
sg76
(lp1079
g69
(g70
g71
NtRp1080
(dp1081
g74
(dp1082
g82
I4
ssg83
g1076
sg76
(lp1083
S'text/html,application/xhtml+xml,application/xml;q=0.9,*/*;q=0.8'
p1084
asbasbasbag69
(g85
g71
NtRp1085
(dp1086
g74
(dp1087
sg83
g859
sg76
(lp1088
g69
(g90
g71
NtRp1089
(dp1090
g74
(dp1091
g94
g95
ssg83
g1085
sg76
(lp1092
S'http_accept_encoding'
p1093
asbag69
(g90
g71
NtRp1094
(dp1095
g74
(dp1096
g101
g102
ssg83
g1085
sg76
(lp1097
S':'
asbag69
(g90
g71
NtRp1098
(dp1099
g74
(dp1100
sg83
g1085
sg76
(lp1101
g69
(g70
g71
NtRp1102
(dp1103
g74
(dp1104
g82
I4
ssg83
g1098
sg76
(lp1105
S'gzip, deflate'
p1106
asbasbasbag69
(g85
g71
NtRp1107
(dp1108
g74
(dp1109
sg83
g859
sg76
(lp1110
g69
(g90
g71
NtRp1111
(dp1112
g74
(dp1113
g94
g95
ssg83
g1107
sg76
(lp1114
S'http_accept_language'
p1115
asbag69
(g90
g71
NtRp1116
(dp1117
g74
(dp1118
g101
g102
ssg83
g1107
sg76
(lp1119
S':'
asbag69
(g90
g71
NtRp1120
(dp1121
g74
(dp1122
sg83
g1107
sg76
(lp1123
g69
(g70
g71
NtRp1124
(dp1125
g74
(dp1126
g82
I4
ssg83
g1120
sg76
(lp1127
S'en-US,en;q=0.5'
p1128
asbasbasbag69
(g85
g71
NtRp1129
(dp1130
g74
(dp1131
sg83
g859
sg76
(lp1132
g69
(g90
g71
NtRp1133
(dp1134
g74
(dp1135
g94
g95
ssg83
g1129
sg76
(lp1136
S'http_connection'
p1137
asbag69
(g90
g71
NtRp1138
(dp1139
g74
(dp1140
g101
g102
ssg83
g1129
sg76
(lp1141
S':'
asbag69
(g90
g71
NtRp1142
(dp1143
g74
(dp1144
sg83
g1129
sg76
(lp1145
g69
(g70
g71
NtRp1146
(dp1147
g74
(dp1148
g82
I4
ssg83
g1142
sg76
(lp1149
S'keep-alive'
p1150
asbasbasbag69
(g85
g71
NtRp1151
(dp1152
g74
(dp1153
sg83
g859
sg76
(lp1154
g69
(g90
g71
NtRp1155
(dp1156
g74
(dp1157
g94
g95
ssg83
g1151
sg76
(lp1158
S'http_content_length'
p1159
asbag69
(g90
g71
NtRp1160
(dp1161
g74
(dp1162
g101
g102
ssg83
g1151
sg76
(lp1163
S':'
asbag69
(g90
g71
NtRp1164
(dp1165
g74
(dp1166
sg83
g1151
sg76
(lp1167
g69
(g70
g71
NtRp1168
(dp1169
g74
(dp1170
g82
I4
ssg83
g1164
sg76
(lp1171
g975
asbasbasbag69
(g85
g71
NtRp1172
(dp1173
g74
(dp1174
sg83
g859
sg76
(lp1175
g69
(g90
g71
NtRp1176
(dp1177
g74
(dp1178
g94
g95
ssg83
g1172
sg76
(lp1179
S'http_content_type'
p1180
asbag69
(g90
g71
NtRp1181
(dp1182
g74
(dp1183
g101
g102
ssg83
g1172
sg76
(lp1184
S':'
asbag69
(g90
g71
NtRp1185
(dp1186
g74
(dp1187
sg83
g1172
sg76
(lp1188
g69
(g70
g71
NtRp1189
(dp1190
g74
(dp1191
g82
I4
ssg83
g1185
sg76
(lp1192
g997
asbasbasbag69
(g85
g71
NtRp1193
(dp1194
g74
(dp1195
sg83
g859
sg76
(lp1196
g69
(g90
g71
NtRp1197
(dp1198
g74
(dp1199
g94
g95
ssg83
g1193
sg76
(lp1200
S'http_cookie'
p1201
asbag69
(g90
g71
NtRp1202
(dp1203
g74
(dp1204
g101
g102
ssg83
g1193
sg76
(lp1205
S':'
asbag69
(g90
g71
NtRp1206
(dp1207
g74
(dp1208
sg83
g1193
sg76
(lp1209
g69
(g70
g71
NtRp1210
(dp1211
g74
(dp1212
g82
I4
ssg83
g1206
sg76
(lp1213
S'session_id_welcome=127.0.0.1-3c9ecfaa-58d3-46f5-95bb-5fddc1d3dc9e; session_id_admin=127.0.0.1-6c32ab8a-6fb4-4262-bdd0-7e49bdd282a5; session_id_ggg=127.0.0.1-929b9b0c-f53b-49f1-97f4-7c5cb217c3d8'
p1214
asbasbasbag69
(g85
g71
NtRp1215
(dp1216
g74
(dp1217
sg83
g859
sg76
(lp1218
g69
(g90
g71
NtRp1219
(dp1220
g74
(dp1221
g94
g95
ssg83
g1215
sg76
(lp1222
S'http_host'
p1223
asbag69
(g90
g71
NtRp1224
(dp1225
g74
(dp1226
g101
g102
ssg83
g1215
sg76
(lp1227
S':'
asbag69
(g90
g71
NtRp1228
(dp1229
g74
(dp1230
sg83
g1215
sg76
(lp1231
g69
(g70
g71
NtRp1232
(dp1233
g74
(dp1234
g82
I4
ssg83
g1228
sg76
(lp1235
S'127.0.0.1:8000'
p1236
asbasbasbag69
(g85
g71
NtRp1237
(dp1238
g74
(dp1239
sg83
g859
sg76
(lp1240
g69
(g90
g71
NtRp1241
(dp1242
g74
(dp1243
g94
g95
ssg83
g1237
sg76
(lp1244
S'http_referer'
p1245
asbag69
(g90
g71
NtRp1246
(dp1247
g74
(dp1248
g101
g102
ssg83
g1237
sg76
(lp1249
S':'
asbag69
(g90
g71
NtRp1250
(dp1251
g74
(dp1252
sg83
g1237
sg76
(lp1253
g69
(g70
g71
NtRp1254
(dp1255
g74
(dp1256
g82
I4
ssg83
g1250
sg76
(lp1257
S'http://127.0.0.1:8000/ggg/default/student_info.html'
p1258
asbasbasbag69
(g85
g71
NtRp1259
(dp1260
g74
(dp1261
sg83
g859
sg76
(lp1262
g69
(g90
g71
NtRp1263
(dp1264
g74
(dp1265
g94
g95
ssg83
g1259
sg76
(lp1266
S'http_user_agent'
p1267
asbag69
(g90
g71
NtRp1268
(dp1269
g74
(dp1270
g101
g102
ssg83
g1259
sg76
(lp1271
S':'
asbag69
(g90
g71
NtRp1272
(dp1273
g74
(dp1274
sg83
g1259
sg76
(lp1275
g69
(g70
g71
NtRp1276
(dp1277
g74
(dp1278
g82
I4
ssg83
g1272
sg76
(lp1279
S'Mozilla/5.0 (X11; Ubuntu; Linux x86_64; rv:19.0) Gecko/20100101 Firefox/19.0'
p1280
asbasbasbag69
(g85
g71
NtRp1281
(dp1282
g74
(dp1283
sg83
g859
sg76
(lp1284
g69
(g90
g71
NtRp1285
(dp1286
g74
(dp1287
g94
g95
ssg83
g1281
sg76
(lp1288
S'is_jython'
p1289
asbag69
(g90
g71
NtRp1290
(dp1291
g74
(dp1292
g101
g102
ssg83
g1281
sg76
(lp1293
S':'
asbag69
(g90
g71
NtRp1294
(dp1295
g74
(dp1296
sg83
g1281
sg76
(lp1297
g69
(g70
g71
NtRp1298
(dp1299
g74
(dp1300
g82
I4
ssg83
g1294
sg76
(lp1301
g112
asbasbasbag69
(g85
g71
NtRp1302
(dp1303
g74
(dp1304
sg83
g859
sg76
(lp1305
g69
(g90
g71
NtRp1306
(dp1307
g74
(dp1308
g94
g95
ssg83
g1302
sg76
(lp1309
S'is_pypy'
p1310
asbag69
(g90
g71
NtRp1311
(dp1312
g74
(dp1313
g101
g102
ssg83
g1302
sg76
(lp1314
S':'
asbag69
(g90
g71
NtRp1315
(dp1316
g74
(dp1317
sg83
g1302
sg76
(lp1318
g69
(g70
g71
NtRp1319
(dp1320
g74
(dp1321
g82
I4
ssg83
g1315
sg76
(lp1322
g112
asbasbasbag69
(g85
g71
NtRp1323
(dp1324
g74
(dp1325
sg83
g859
sg76
(lp1326
g69
(g90
g71
NtRp1327
(dp1328
g74
(dp1329
g94
g95
ssg83
g1323
sg76
(lp1330
S'local_hosts'
p1331
asbag69
(g90
g71
NtRp1332
(dp1333
g74
(dp1334
g101
g102
ssg83
g1323
sg76
(lp1335
S':'
asbag69
(g90
g71
NtRp1336
(dp1337
g74
(dp1338
sg83
g1323
sg76
(lp1339
g69
(g70
g71
NtRp1340
(dp1341
g74
(dp1342
g82
I4
ssg83
g1336
sg76
(lp1343
g69
(g78
g71
NtRp1344
(dp1345
g74
(dp1346
g82
I3
ssg83
Nsg76
(lp1347
g69
(g85
g71
NtRp1348
(dp1349
g74
(dp1350
sg83
g1344
sg76
(lp1351
g69
(g90
g71
NtRp1352
(dp1353
g74
(dp1354
sg83
g1348
sg76
(lp1355
g69
(g70
g71
NtRp1356
(dp1357
g74
(dp1358
g82
I3
ssg83
g1352
sg76
(lp1359
S'127.0.1.1'
p1360
asbasbasbag69
(g85
g71
NtRp1361
(dp1362
g74
(dp1363
sg83
g1344
sg76
(lp1364
g69
(g90
g71
NtRp1365
(dp1366
g74
(dp1367
sg83
g1361
sg76
(lp1368
g69
(g70
g71
NtRp1369
(dp1370
g74
(dp1371
g82
I3
ssg83
g1365
sg76
(lp1372
S'::1'
p1373
asbasbasbag69
(g85
g71
NtRp1374
(dp1375
g74
(dp1376
sg83
g1344
sg76
(lp1377
g69
(g90
g71
NtRp1378
(dp1379
g74
(dp1380
sg83
g1374
sg76
(lp1381
g69
(g70
g71
NtRp1382
(dp1383
g74
(dp1384
g82
I3
ssg83
g1378
sg76
(lp1385
S'saurabh-Inspiron-N4050'
p1386
asbasbasbag69
(g85
g71
NtRp1387
(dp1388
g74
(dp1389
sg83
g1344
sg76
(lp1390
g69
(g90
g71
NtRp1391
(dp1392
g74
(dp1393
sg83
g1387
sg76
(lp1394
g69
(g70
g71
NtRp1395
(dp1396
g74
(dp1397
g82
I3
ssg83
g1391
sg76
(lp1398
S'::ffff:127.0.0.1'
p1399
asbasbasbag69
(g85
g71
NtRp1400
(dp1401
g74
(dp1402
sg83
g1344
sg76
(lp1403
g69
(g90
g71
NtRp1404
(dp1405
g74
(dp1406
sg83
g1400
sg76
(lp1407
g69
(g70
g71
NtRp1408
(dp1409
g74
(dp1410
g82
I3
ssg83
g1404
sg76
(lp1411
S'127.0.0.1'
p1412
asbasbasbasbasbasbasbag69
(g85
g71
NtRp1413
(dp1414
g74
(dp1415
sg83
g859
sg76
(lp1416
g69
(g90
g71
NtRp1417
(dp1418
g74
(dp1419
g94
g95
ssg83
g1413
sg76
(lp1420
S'path_info'
p1421
asbag69
(g90
g71
NtRp1422
(dp1423
g74
(dp1424
g101
g102
ssg83
g1413
sg76
(lp1425
S':'
asbag69
(g90
g71
NtRp1426
(dp1427
g74
(dp1428
sg83
g1413
sg76
(lp1429
g69
(g70
g71
NtRp1430
(dp1431
g74
(dp1432
g82
I4
ssg83
g1426
sg76
(lp1433
S'/ggg/default/student_info.html'
p1434
asbasbasbag69
(g85
g71
NtRp1435
(dp1436
g74
(dp1437
sg83
g859
sg76
(lp1438
g69
(g90
g71
NtRp1439
(dp1440
g74
(dp1441
g94
g95
ssg83
g1435
sg76
(lp1442
S'query_string'
p1443
asbag69
(g90
g71
NtRp1444
(dp1445
g74
(dp1446
g101
g102
ssg83
g1435
sg76
(lp1447
S':'
asbag69
(g90
g71
NtRp1448
(dp1449
g74
(dp1450
sg83
g1435
sg76
(lp1451
g69
(g70
g71
NtRp1452
(dp1453
g74
(dp1454
g82
I4
ssg83
g1448
sg76
(lp1455
S''
asbasbasbag69
(g85
g71
NtRp1456
(dp1457
g74
(dp1458
sg83
g859
sg76
(lp1459
g69
(g90
g71
NtRp1460
(dp1461
g74
(dp1462
g94
g95
ssg83
g1456
sg76
(lp1463
S'remote_addr'
p1464
asbag69
(g90
g71
NtRp1465
(dp1466
g74
(dp1467
g101
g102
ssg83
g1456
sg76
(lp1468
S':'
asbag69
(g90
g71
NtRp1469
(dp1470
g74
(dp1471
sg83
g1456
sg76
(lp1472
g69
(g70
g71
NtRp1473
(dp1474
g74
(dp1475
g82
I4
ssg83
g1469
sg76
(lp1476
g224
asbasbasbag69
(g85
g71
NtRp1477
(dp1478
g74
(dp1479
sg83
g859
sg76
(lp1480
g69
(g90
g71
NtRp1481
(dp1482
g74
(dp1483
g94
g95
ssg83
g1477
sg76
(lp1484
S'remote_port'
p1485
asbag69
(g90
g71
NtRp1486
(dp1487
g74
(dp1488
g101
g102
ssg83
g1477
sg76
(lp1489
S':'
asbag69
(g90
g71
NtRp1490
(dp1491
g74
(dp1492
sg83
g1477
sg76
(lp1493
g69
(g70
g71
NtRp1494
(dp1495
g74
(dp1496
g82
I4
ssg83
g1490
sg76
(lp1497
S'46228'
p1498
asbasbasbag69
(g85
g71
NtRp1499
(dp1500
g74
(dp1501
sg83
g859
sg76
(lp1502
g69
(g90
g71
NtRp1503
(dp1504
g74
(dp1505
g94
g95
ssg83
g1499
sg76
(lp1506
S'request_method'
p1507
asbag69
(g90
g71
NtRp1508
(dp1509
g74
(dp1510
g101
g102
ssg83
g1499
sg76
(lp1511
S':'
asbag69
(g90
g71
NtRp1512
(dp1513
g74
(dp1514
sg83
g1499
sg76
(lp1515
g69
(g70
g71
NtRp1516
(dp1517
g74
(dp1518
g82
I4
ssg83
g1512
sg76
(lp1519
S'POST'
p1520
asbasbasbag69
(g85
g71
NtRp1521
(dp1522
g74
(dp1523
sg83
g859
sg76
(lp1524
g69
(g90
g71
NtRp1525
(dp1526
g74
(dp1527
g94
g95
ssg83
g1521
sg76
(lp1528
S'request_uri'
p1529
asbag69
(g90
g71
NtRp1530
(dp1531
g74
(dp1532
g101
g102
ssg83
g1521
sg76
(lp1533
S':'
asbag69
(g90
g71
NtRp1534
(dp1535
g74
(dp1536
sg83
g1521
sg76
(lp1537
g69
(g70
g71
NtRp1538
(dp1539
g74
(dp1540
g82
I4
ssg83
g1534
sg76
(lp1541
g1434
asbasbasbag69
(g85
g71
NtRp1542
(dp1543
g74
(dp1544
sg83
g859
sg76
(lp1545
g69
(g90
g71
NtRp1546
(dp1547
g74
(dp1548
g94
g95
ssg83
g1542
sg76
(lp1549
S'script_name'
p1550
asbag69
(g90
g71
NtRp1551
(dp1552
g74
(dp1553
g101
g102
ssg83
g1542
sg76
(lp1554
S':'
asbag69
(g90
g71
NtRp1555
(dp1556
g74
(dp1557
sg83
g1542
sg76
(lp1558
g69
(g70
g71
NtRp1559
(dp1560
g74
(dp1561
g82
I4
ssg83
g1555
sg76
(lp1562
S''
asbasbasbag69
(g85
g71
NtRp1563
(dp1564
g74
(dp1565
sg83
g859
sg76
(lp1566
g69
(g90
g71
NtRp1567
(dp1568
g74
(dp1569
g94
g95
ssg83
g1563
sg76
(lp1570
S'server_name'
p1571
asbag69
(g90
g71
NtRp1572
(dp1573
g74
(dp1574
g101
g102
ssg83
g1563
sg76
(lp1575
S':'
asbag69
(g90
g71
NtRp1576
(dp1577
g74
(dp1578
sg83
g1563
sg76
(lp1579
g69
(g70
g71
NtRp1580
(dp1581
g74
(dp1582
g82
I4
ssg83
g1576
sg76
(lp1583
S'saurabh-Inspiron-N4050'
p1584
asbasbasbag69
(g85
g71
NtRp1585
(dp1586
g74
(dp1587
sg83
g859
sg76
(lp1588
g69
(g90
g71
NtRp1589
(dp1590
g74
(dp1591
g94
g95
ssg83
g1585
sg76
(lp1592
S'server_port'
p1593
asbag69
(g90
g71
NtRp1594
(dp1595
g74
(dp1596
g101
g102
ssg83
g1585
sg76
(lp1597
S':'
asbag69
(g90
g71
NtRp1598
(dp1599
g74
(dp1600
sg83
g1585
sg76
(lp1601
g69
(g70
g71
NtRp1602
(dp1603
g74
(dp1604
g82
I4
ssg83
g1598
sg76
(lp1605
S'8000'
p1606
asbasbasbag69
(g85
g71
NtRp1607
(dp1608
g74
(dp1609
sg83
g859
sg76
(lp1610
g69
(g90
g71
NtRp1611
(dp1612
g74
(dp1613
g94
g95
ssg83
g1607
sg76
(lp1614
S'server_protocol'
p1615
asbag69
(g90
g71
NtRp1616
(dp1617
g74
(dp1618
g101
g102
ssg83
g1607
sg76
(lp1619
S':'
asbag69
(g90
g71
NtRp1620
(dp1621
g74
(dp1622
sg83
g1607
sg76
(lp1623
g69
(g70
g71
NtRp1624
(dp1625
g74
(dp1626
g82
I4
ssg83
g1620
sg76
(lp1627
S'HTTP/1.1'
p1628
asbasbasbag69
(g85
g71
NtRp1629
(dp1630
g74
(dp1631
sg83
g859
sg76
(lp1632
g69
(g90
g71
NtRp1633
(dp1634
g74
(dp1635
g94
g95
ssg83
g1629
sg76
(lp1636
S'server_software'
p1637
asbag69
(g90
g71
NtRp1638
(dp1639
g74
(dp1640
g101
g102
ssg83
g1629
sg76
(lp1641
S':'
asbag69
(g90
g71
NtRp1642
(dp1643
g74
(dp1644
sg83
g1629
sg76
(lp1645
g69
(g70
g71
NtRp1646
(dp1647
g74
(dp1648
g82
I4
ssg83
g1642
sg76
(lp1649
S'Rocket 1.2.6'
p1650
asbasbasbag69
(g85
g71
NtRp1651
(dp1652
g74
(dp1653
sg83
g859
sg76
(lp1654
g69
(g90
g71
NtRp1655
(dp1656
g74
(dp1657
g94
g95
ssg83
g1651
sg76
(lp1658
S'web2py_path'
p1659
asbag69
(g90
g71
NtRp1660
(dp1661
g74
(dp1662
g101
g102
ssg83
g1651
sg76
(lp1663
S':'
asbag69
(g90
g71
NtRp1664
(dp1665
g74
(dp1666
sg83
g1651
sg76
(lp1667
g69
(g70
g71
NtRp1668
(dp1669
g74
(dp1670
g82
I4
ssg83
g1664
sg76
(lp1671
g906
asbasbasbag69
(g85
g71
NtRp1672
(dp1673
g74
(dp1674
sg83
g859
sg76
(lp1675
g69
(g90
g71
NtRp1676
(dp1677
g74
(dp1678
g94
g95
ssg83
g1672
sg76
(lp1679
S'web2py_version'
p1680
asbag69
(g90
g71
NtRp1681
(dp1682
g74
(dp1683
g101
g102
ssg83
g1672
sg76
(lp1684
S':'
asbag69
(g90
g71
NtRp1685
(dp1686
g74
(dp1687
sg83
g1672
sg76
(lp1688
g69
(g70
g71
NtRp1689
(dp1690
g74
(dp1691
g82
I4
ssg83
g1685
sg76
(lp1692
g69
(g78
g71
NtRp1693
(dp1694
g74
(dp1695
g82
I3
ssg83
Nsg76
(lp1696
g69
(g85
g71
NtRp1697
(dp1698
g74
(dp1699
sg83
g1693
sg76
(lp1700
g69
(g90
g71
NtRp1701
(dp1702
g74
(dp1703
sg83
g1697
sg76
(lp1704
g69
(g70
g71
NtRp1705
(dp1706
g74
(dp1707
g82
I3
ssg83
g1701
sg76
(lp1708
S'2'
asbasbasbag69
(g85
g71
NtRp1709
(dp1710
g74
(dp1711
sg83
g1693
sg76
(lp1712
g69
(g90
g71
NtRp1713
(dp1714
g74
(dp1715
sg83
g1709
sg76
(lp1716
g69
(g70
g71
NtRp1717
(dp1718
g74
(dp1719
g82
I3
ssg83
g1713
sg76
(lp1720
S'3'
asbasbasbag69
(g85
g71
NtRp1721
(dp1722
g74
(dp1723
sg83
g1693
sg76
(lp1724
g69
(g90
g71
NtRp1725
(dp1726
g74
(dp1727
sg83
g1721
sg76
(lp1728
g69
(g70
g71
NtRp1729
(dp1730
g74
(dp1731
g82
I3
ssg83
g1725
sg76
(lp1732
S'2'
asbasbasbag69
(g85
g71
NtRp1733
(dp1734
g74
(dp1735
sg83
g1693
sg76
(lp1736
g69
(g90
g71
NtRp1737
(dp1738
g74
(dp1739
sg83
g1733
sg76
(lp1740
g69
(g70
g71
NtRp1741
(dp1742
g74
(dp1743
g82
I3
ssg83
g1737
sg76
(lp1744
S'datetime.datetime(2012, 12, 17, 15, 3, 30)'
p1745
asbasbasbag69
(g85
g71
NtRp1746
(dp1747
g74
(dp1748
sg83
g1693
sg76
(lp1749
g69
(g90
g71
NtRp1750
(dp1751
g74
(dp1752
sg83
g1746
sg76
(lp1753
g69
(g70
g71
NtRp1754
(dp1755
g74
(dp1756
g82
I3
ssg83
g1750
sg76
(lp1757
S'stable'
p1758
asbasbasbasbasbasbasbag69
(g85
g71
NtRp1759
(dp1760
g74
(dp1761
sg83
g859
sg76
(lp1762
g69
(g90
g71
NtRp1763
(dp1764
g74
(dp1765
g94
g95
ssg83
g1759
sg76
(lp1766
S'wsgi_errors'
p1767
asbag69
(g90
g71
NtRp1768
(dp1769
g74
(dp1770
g101
g102
ssg83
g1759
sg76
(lp1771
S':'
asbag69
(g90
g71
NtRp1772
(dp1773
g74
(dp1774
sg83
g1759
sg76
(lp1775
g69
(g70
g71
NtRp1776
(dp1777
g74
(dp1778
g82
I4
ssg83
g1772
sg76
(lp1779
S"<open file '<stderr>', mode 'w' at 0x7fdd50f2a270>"
p1780
asbasbasbag69
(g85
g71
NtRp1781
(dp1782
g74
(dp1783
sg83
g859
sg76
(lp1784
g69
(g90
g71
NtRp1785
(dp1786
g74
(dp1787
g94
g95
ssg83
g1781
sg76
(lp1788
S'wsgi_file_wrapper'
p1789
asbag69
(g90
g71
NtRp1790
(dp1791
g74
(dp1792
g101
g102
ssg83
g1781
sg76
(lp1793
S':'
asbag69
(g90
g71
NtRp1794
(dp1795
g74
(dp1796
sg83
g1781
sg76
(lp1797
g69
(g70
g71
NtRp1798
(dp1799
g74
(dp1800
g82
I4
ssg83
g1794
sg76
(lp1801
S'<class wsgiref.util.FileWrapper at 0x168ec18>'
p1802
asbasbasbag69
(g85
g71
NtRp1803
(dp1804
g74
(dp1805
sg83
g859
sg76
(lp1806
g69
(g90
g71
NtRp1807
(dp1808
g74
(dp1809
g94
g95
ssg83
g1803
sg76
(lp1810
S'wsgi_input'
p1811
asbag69
(g90
g71
NtRp1812
(dp1813
g74
(dp1814
g101
g102
ssg83
g1803
sg76
(lp1815
S':'
asbag69
(g90
g71
NtRp1816
(dp1817
g74
(dp1818
sg83
g1803
sg76
(lp1819
g69
(g70
g71
NtRp1820
(dp1821
g74
(dp1822
g82
I4
ssg83
g1816
sg76
(lp1823
S'<socket._fileobject object at 0x7fdd40816ed0>'
p1824
asbasbasbag69
(g85
g71
NtRp1825
(dp1826
g74
(dp1827
sg83
g859
sg76
(lp1828
g69
(g90
g71
NtRp1829
(dp1830
g74
(dp1831
g94
g95
ssg83
g1825
sg76
(lp1832
S'wsgi_multiprocess'
p1833
asbag69
(g90
g71
NtRp1834
(dp1835
g74
(dp1836
g101
g102
ssg83
g1825
sg76
(lp1837
S':'
asbag69
(g90
g71
NtRp1838
(dp1839
g74
(dp1840
sg83
g1825
sg76
(lp1841
g69
(g70
g71
NtRp1842
(dp1843
g74
(dp1844
g82
I4
ssg83
g1838
sg76
(lp1845
g112
asbasbasbag69
(g85
g71
NtRp1846
(dp1847
g74
(dp1848
sg83
g859
sg76
(lp1849
g69
(g90
g71
NtRp1850
(dp1851
g74
(dp1852
g94
g95
ssg83
g1846
sg76
(lp1853
S'wsgi_multithread'
p1854
asbag69
(g90
g71
NtRp1855
(dp1856
g74
(dp1857
g101
g102
ssg83
g1846
sg76
(lp1858
S':'
asbag69
(g90
g71
NtRp1859
(dp1860
g74
(dp1861
sg83
g1846
sg76
(lp1862
g69
(g70
g71
NtRp1863
(dp1864
g74
(dp1865
g82
I4
ssg83
g1859
sg76
(lp1866
S'True'
p1867
asbasbasbag69
(g85
g71
NtRp1868
(dp1869
g74
(dp1870
sg83
g859
sg76
(lp1871
g69
(g90
g71
NtRp1872
(dp1873
g74
(dp1874
g94
g95
ssg83
g1868
sg76
(lp1875
S'wsgi_run_once'
p1876
asbag69
(g90
g71
NtRp1877
(dp1878
g74
(dp1879
g101
g102
ssg83
g1868
sg76
(lp1880
S':'
asbag69
(g90
g71
NtRp1881
(dp1882
g74
(dp1883
sg83
g1868
sg76
(lp1884
g69
(g70
g71
NtRp1885
(dp1886
g74
(dp1887
g82
I4
ssg83
g1881
sg76
(lp1888
g112
asbasbasbag69
(g85
g71
NtRp1889
(dp1890
g74
(dp1891
sg83
g859
sg76
(lp1892
g69
(g90
g71
NtRp1893
(dp1894
g74
(dp1895
g94
g95
ssg83
g1889
sg76
(lp1896
S'wsgi_url_scheme'
p1897
asbag69
(g90
g71
NtRp1898
(dp1899
g74
(dp1900
g101
g102
ssg83
g1889
sg76
(lp1901
S':'
asbag69
(g90
g71
NtRp1902
(dp1903
g74
(dp1904
sg83
g1889
sg76
(lp1905
g69
(g70
g71
NtRp1906
(dp1907
g74
(dp1908
g82
I4
ssg83
g1902
sg76
(lp1909
S'http'
p1910
asbasbasbag69
(g85
g71
NtRp1911
(dp1912
g74
(dp1913
sg83
g859
sg76
(lp1914
g69
(g90
g71
NtRp1915
(dp1916
g74
(dp1917
g94
g95
ssg83
g1911
sg76
(lp1918
S'wsgi_version'
p1919
asbag69
(g90
g71
NtRp1920
(dp1921
g74
(dp1922
g101
g102
ssg83
g1911
sg76
(lp1923
S':'
asbag69
(g90
g71
NtRp1924
(dp1925
g74
(dp1926
sg83
g1911
sg76
(lp1927
g69
(g70
g71
NtRp1928
(dp1929
g74
(dp1930
g82
I4
ssg83
g1924
sg76
(lp1931
g69
(g78
g71
NtRp1932
(dp1933
g74
(dp1934
g82
I3
ssg83
Nsg76
(lp1935
g69
(g85
g71
NtRp1936
(dp1937
g74
(dp1938
sg83
g1932
sg76
(lp1939
g69
(g90
g71
NtRp1940
(dp1941
g74
(dp1942
sg83
g1936
sg76
(lp1943
g69
(g70
g71
NtRp1944
(dp1945
g74
(dp1946
g82
I3
ssg83
g1940
sg76
(lp1947
S'1'
asbasbasbag69
(g85
g71
NtRp1948
(dp1949
g74
(dp1950
sg83
g1932
sg76
(lp1951
g69
(g90
g71
NtRp1952
(dp1953
g74
(dp1954
sg83
g1948
sg76
(lp1955
g69
(g70
g71
NtRp1956
(dp1957
g74
(dp1958
g82
I3
ssg83
g1952
sg76
(lp1959
S'0'
asbasbasbasbasbasbasbasbasbasbasbag69
(g85
g71
NtRp1960
(dp1961
g74
(dp1962
sg83
g79
sg76
(lp1963
g69
(g90
g71
NtRp1964
(dp1965
g74
(dp1966
g94
g95
ssg83
g1960
sg76
(lp1967
S'extension'
p1968
asbag69
(g90
g71
NtRp1969
(dp1970
g74
(dp1971
g101
g102
ssg83
g1960
sg76
(lp1972
S':'
asbag69
(g90
g71
NtRp1973
(dp1974
g74
(dp1975
sg83
g1960
sg76
(lp1976
g69
(g70
g71
NtRp1977
(dp1978
g74
(dp1979
g82
I5
ssg83
g1973
sg76
(lp1980
S'html'
p1981
asbasbasbag69
(g85
g71
NtRp1982
(dp1983
g74
(dp1984
sg83
g79
sg76
(lp1985
g69
(g90
g71
NtRp1986
(dp1987
g74
(dp1988
g94
g95
ssg83
g1982
sg76
(lp1989
S'folder'
p1990
asbag69
(g90
g71
NtRp1991
(dp1992
g74
(dp1993
g101
g102
ssg83
g1982
sg76
(lp1994
S':'
asbag69
(g90
g71
NtRp1995
(dp1996
g74
(dp1997
sg83
g1982
sg76
(lp1998
g69
(g70
g71
NtRp1999
(dp2000
g74
(dp2001
g82
I5
ssg83
g1995
sg76
(lp2002
S'/home/saurabh/web2py/applications/ggg/'
p2003
asbasbasbag69
(g85
g71
NtRp2004
(dp2005
g74
(dp2006
sg83
g79
sg76
(lp2007
g69
(g90
g71
NtRp2008
(dp2009
g74
(dp2010
g94
g95
ssg83
g2004
sg76
(lp2011
S'function'
p2012
asbag69
(g90
g71
NtRp2013
(dp2014
g74
(dp2015
g101
g102
ssg83
g2004
sg76
(lp2016
S':'
asbag69
(g90
g71
NtRp2017
(dp2018
g74
(dp2019
sg83
g2004
sg76
(lp2020
g69
(g70
g71
NtRp2021
(dp2022
g74
(dp2023
g82
I5
ssg83
g2017
sg76
(lp2024
S'student_info'
p2025
asbasbasbag69
(g85
g71
NtRp2026
(dp2027
g74
(dp2028
sg83
g79
sg76
(lp2029
g69
(g90
g71
NtRp2030
(dp2031
g74
(dp2032
g94
g95
ssg83
g2026
sg76
(lp2033
S'get_vars'
p2034
asbag69
(g90
g71
NtRp2035
(dp2036
g74
(dp2037
g101
g102
ssg83
g2026
sg76
(lp2038
S':'
asbag69
(g90
g71
NtRp2039
(dp2040
g74
(dp2041
sg83
g2026
sg76
(lp2042
g69
(g70
g71
NtRp2043
(dp2044
g74
(dp2045
g82
I5
ssg83
g2039
sg76
(lp2046
g69
(g78
g71
NtRp2047
(dp2048
g74
(dp2049
g82
I4
ssg83
Nsg76
(lp2050
sbasbasbasbag69
(g85
g71
NtRp2051
(dp2052
g74
(dp2053
sg83
g79
sg76
(lp2054
g69
(g90
g71
NtRp2055
(dp2056
g74
(dp2057
g94
g95
ssg83
g2051
sg76
(lp2058
S'global_settings'
p2059
asbag69
(g90
g71
NtRp2060
(dp2061
g74
(dp2062
g101
g102
ssg83
g2051
sg76
(lp2063
S':'
asbag69
(g90
g71
NtRp2064
(dp2065
g74
(dp2066
sg83
g2051
sg76
(lp2067
g69
(g70
g71
NtRp2068
(dp2069
g74
(dp2070
g82
I5
ssg83
g2064
sg76
(lp2071
g69
(g78
g71
NtRp2072
(dp2073
g74
(dp2074
g82
I4
ssg83
Nsg76
(lp2075
g69
(g85
g71
NtRp2076
(dp2077
g74
(dp2078
sg83
g2072
sg76
(lp2079
g69
(g90
g71
NtRp2080
(dp2081
g74
(dp2082
g94
g95
ssg83
g2076
sg76
(lp2083
g871
asbag69
(g90
g71
NtRp2084
(dp2085
g74
(dp2086
g101
g102
ssg83
g2076
sg76
(lp2087
S':'
asbag69
(g90
g71
NtRp2088
(dp2089
g74
(dp2090
sg83
g2076
sg76
(lp2091
g69
(g70
g71
NtRp2092
(dp2093
g74
(dp2094
g82
I4
ssg83
g2088
sg76
(lp2095
S"set(['/home/saurabh/web2py/applications/ggg/', '/home/saurabh/web2py/applications/admin/', '/home/saurabh/web2py/applications/welcome/'])"
p2096
asbasbasbag69
(g85
g71
NtRp2097
(dp2098
g74
(dp2099
sg83
g2072
sg76
(lp2100
g69
(g90
g71
NtRp2101
(dp2102
g74
(dp2103
g94
g95
ssg83
g2097
sg76
(lp2104
g893
asbag69
(g90
g71
NtRp2105
(dp2106
g74
(dp2107
g101
g102
ssg83
g2097
sg76
(lp2108
S':'
asbag69
(g90
g71
NtRp2109
(dp2110
g74
(dp2111
sg83
g2097
sg76
(lp2112
g69
(g70
g71
NtRp2113
(dp2114
g74
(dp2115
g82
I4
ssg83
g2109
sg76
(lp2116
g906
asbasbasbag69
(g85
g71
NtRp2117
(dp2118
g74
(dp2119
sg83
g2072
sg76
(lp2120
g69
(g90
g71
NtRp2121
(dp2122
g74
(dp2123
g94
g95
ssg83
g2117
sg76
(lp2124
g915
asbag69
(g90
g71
NtRp2125
(dp2126
g74
(dp2127
g101
g102
ssg83
g2117
sg76
(lp2128
S':'
asbag69
(g90
g71
NtRp2129
(dp2130
g74
(dp2131
sg83
g2117
sg76
(lp2132
g69
(g70
g71
NtRp2133
(dp2134
g74
(dp2135
g82
I4
ssg83
g2129
sg76
(lp2136
g69
(g78
g71
NtRp2137
(dp2138
g74
(dp2139
g82
I3
ssg83
Nsg76
(lp2140
sbasbasbasbag69
(g85
g71
NtRp2141
(dp2142
g74
(dp2143
sg83
g2072
sg76
(lp2144
g69
(g90
g71
NtRp2145
(dp2146
g74
(dp2147
g94
g95
ssg83
g2141
sg76
(lp2148
g940
asbag69
(g90
g71
NtRp2149
(dp2150
g74
(dp2151
g101
g102
ssg83
g2141
sg76
(lp2152
S':'
asbag69
(g90
g71
NtRp2153
(dp2154
g74
(dp2155
sg83
g2141
sg76
(lp2156
g69
(g70
g71
NtRp2157
(dp2158
g74
(dp2159
g82
I4
ssg83
g2153
sg76
(lp2160
S"<Values at 0x17248c0: {'verbose': False, 'ip': '127.0.0.1', 'with_scheduler': False, 'ips': [], 'shutdown_timeout': 5, 'taskbar': False, 'port': 8000, 'maxthreads': None, 'softcron': False, 'server_name': 'saurabh-Inspiron-N4050', 'bpython': False, 'nogui': False, 'pid_filename': 'httpserver.pid', 'extcron': False, 'runcron': False, 'run_system_tests': False, 'test': None, 'folder': '/home/saurabh/web2py', 'config': '', 'minthreads': None, 'winservice': '', 'shell': None, 'run': '', 'log_filename': 'httpserver.log', 'debuglevel': 30, 'args': [''], 'socket_timeout': 5, 'ssl_ca_certificate': None, 'scheduler': None, 'profiler_filename': None, 'ssl_private_key': '', 'scheduler_groups': None, 'password': '<ask>', 'request_queue_size': 5, 'ssl_certificate': '', 'cronjob': False, 'numthreads': None, 'quiet': False, 'interfaces': None, 'import_models': False, 'timeout': 10, 'plain': False, 'nobanner': False}>"
p2161
asbasbasbag69
(g85
g71
NtRp2162
(dp2163
g74
(dp2164
sg83
g2072
sg76
(lp2165
g69
(g90
g71
NtRp2166
(dp2167
g74
(dp2168
g94
g95
ssg83
g2162
sg76
(lp2169
g1006
asbag69
(g90
g71
NtRp2170
(dp2171
g74
(dp2172
g101
g102
ssg83
g2162
sg76
(lp2173
S':'
asbag69
(g90
g71
NtRp2174
(dp2175
g74
(dp2176
sg83
g2162
sg76
(lp2177
g69
(g70
g71
NtRp2178
(dp2179
g74
(dp2180
g82
I4
ssg83
g2174
sg76
(lp2181
S'set([])'
p2182
asbasbasbag69
(g85
g71
NtRp2183
(dp2184
g74
(dp2185
sg83
g2072
sg76
(lp2186
g69
(g90
g71
NtRp2187
(dp2188
g74
(dp2189
g94
g95
ssg83
g2183
sg76
(lp2190
g1028
asbag69
(g90
g71
NtRp2191
(dp2192
g74
(dp2193
g101
g102
ssg83
g2183
sg76
(lp2194
S':'
asbag69
(g90
g71
NtRp2195
(dp2196
g74
(dp2197
sg83
g2183
sg76
(lp2198
g69
(g70
g71
NtRp2199
(dp2200
g74
(dp2201
g82
I4
ssg83
g2195
sg76
(lp2202
g112
asbasbasbag69
(g85
g71
NtRp2203
(dp2204
g74
(dp2205
sg83
g2072
sg76
(lp2206
g69
(g90
g71
NtRp2207
(dp2208
g74
(dp2209
g94
g95
ssg83
g2203
sg76
(lp2210
g1049
asbag69
(g90
g71
NtRp2211
(dp2212
g74
(dp2213
g101
g102
ssg83
g2203
sg76
(lp2214
S':'
asbag69
(g90
g71
NtRp2215
(dp2216
g74
(dp2217
sg83
g2203
sg76
(lp2218
g69
(g70
g71
NtRp2219
(dp2220
g74
(dp2221
g82
I4
ssg83
g2215
sg76
(lp2222
g1062
asbasbasbag69
(g85
g71
NtRp2223
(dp2224
g74
(dp2225
sg83
g2072
sg76
(lp2226
g69
(g90
g71
NtRp2227
(dp2228
g74
(dp2229
g94
g95
ssg83
g2223
sg76
(lp2230
g1289
asbag69
(g90
g71
NtRp2231
(dp2232
g74
(dp2233
g101
g102
ssg83
g2223
sg76
(lp2234
S':'
asbag69
(g90
g71
NtRp2235
(dp2236
g74
(dp2237
sg83
g2223
sg76
(lp2238
g69
(g70
g71
NtRp2239
(dp2240
g74
(dp2241
g82
I4
ssg83
g2235
sg76
(lp2242
g112
asbasbasbag69
(g85
g71
NtRp2243
(dp2244
g74
(dp2245
sg83
g2072
sg76
(lp2246
g69
(g90
g71
NtRp2247
(dp2248
g74
(dp2249
g94
g95
ssg83
g2243
sg76
(lp2250
g1310
asbag69
(g90
g71
NtRp2251
(dp2252
g74
(dp2253
g101
g102
ssg83
g2243
sg76
(lp2254
S':'
asbag69
(g90
g71
NtRp2255
(dp2256
g74
(dp2257
sg83
g2243
sg76
(lp2258
g69
(g70
g71
NtRp2259
(dp2260
g74
(dp2261
g82
I4
ssg83
g2255
sg76
(lp2262
g112
asbasbasbag69
(g85
g71
NtRp2263
(dp2264
g74
(dp2265
sg83
g2072
sg76
(lp2266
g69
(g90
g71
NtRp2267
(dp2268
g74
(dp2269
g94
g95
ssg83
g2263
sg76
(lp2270
g1331
asbag69
(g90
g71
NtRp2271
(dp2272
g74
(dp2273
g101
g102
ssg83
g2263
sg76
(lp2274
S':'
asbag69
(g90
g71
NtRp2275
(dp2276
g74
(dp2277
sg83
g2263
sg76
(lp2278
g69
(g70
g71
NtRp2279
(dp2280
g74
(dp2281
g82
I4
ssg83
g2275
sg76
(lp2282
g69
(g78
g71
NtRp2283
(dp2284
g74
(dp2285
g82
I3
ssg83
Nsg76
(lp2286
g69
(g85
g71
NtRp2287
(dp2288
g74
(dp2289
sg83
g2283
sg76
(lp2290
g69
(g90
g71
NtRp2291
(dp2292
g74
(dp2293
sg83
g2287
sg76
(lp2294
g69
(g70
g71
NtRp2295
(dp2296
g74
(dp2297
g82
I3
ssg83
g2291
sg76
(lp2298
g1360
asbasbasbag69
(g85
g71
NtRp2299
(dp2300
g74
(dp2301
sg83
g2283
sg76
(lp2302
g69
(g90
g71
NtRp2303
(dp2304
g74
(dp2305
sg83
g2299
sg76
(lp2306
g69
(g70
g71
NtRp2307
(dp2308
g74
(dp2309
g82
I3
ssg83
g2303
sg76
(lp2310
g1373
asbasbasbag69
(g85
g71
NtRp2311
(dp2312
g74
(dp2313
sg83
g2283
sg76
(lp2314
g69
(g90
g71
NtRp2315
(dp2316
g74
(dp2317
sg83
g2311
sg76
(lp2318
g69
(g70
g71
NtRp2319
(dp2320
g74
(dp2321
g82
I3
ssg83
g2315
sg76
(lp2322
g1386
asbasbasbag69
(g85
g71
NtRp2323
(dp2324
g74
(dp2325
sg83
g2283
sg76
(lp2326
g69
(g90
g71
NtRp2327
(dp2328
g74
(dp2329
sg83
g2323
sg76
(lp2330
g69
(g70
g71
NtRp2331
(dp2332
g74
(dp2333
g82
I3
ssg83
g2327
sg76
(lp2334
g1399
asbasbasbag69
(g85
g71
NtRp2335
(dp2336
g74
(dp2337
sg83
g2283
sg76
(lp2338
g69
(g90
g71
NtRp2339
(dp2340
g74
(dp2341
sg83
g2335
sg76
(lp2342
g69
(g70
g71
NtRp2343
(dp2344
g74
(dp2345
g82
I3
ssg83
g2339
sg76
(lp2346
g1412
asbasbasbasbasbasbasbag69
(g85
g71
NtRp2347
(dp2348
g74
(dp2349
sg83
g2072
sg76
(lp2350
g69
(g90
g71
NtRp2351
(dp2352
g74
(dp2353
g94
g95
ssg83
g2347
sg76
(lp2354
g1680
asbag69
(g90
g71
NtRp2355
(dp2356
g74
(dp2357
g101
g102
ssg83
g2347
sg76
(lp2358
S':'
asbag69
(g90
g71
NtRp2359
(dp2360
g74
(dp2361
sg83
g2347
sg76
(lp2362
g69
(g70
g71
NtRp2363
(dp2364
g74
(dp2365
g82
I4
ssg83
g2359
sg76
(lp2366
g69
(g78
g71
NtRp2367
(dp2368
g74
(dp2369
g82
I3
ssg83
Nsg76
(lp2370
g69
(g85
g71
NtRp2371
(dp2372
g74
(dp2373
sg83
g2367
sg76
(lp2374
g69
(g90
g71
NtRp2375
(dp2376
g74
(dp2377
sg83
g2371
sg76
(lp2378
g69
(g70
g71
NtRp2379
(dp2380
g74
(dp2381
g82
I3
ssg83
g2375
sg76
(lp2382
S'2'
asbasbasbag69
(g85
g71
NtRp2383
(dp2384
g74
(dp2385
sg83
g2367
sg76
(lp2386
g69
(g90
g71
NtRp2387
(dp2388
g74
(dp2389
sg83
g2383
sg76
(lp2390
g69
(g70
g71
NtRp2391
(dp2392
g74
(dp2393
g82
I3
ssg83
g2387
sg76
(lp2394
S'3'
asbasbasbag69
(g85
g71
NtRp2395
(dp2396
g74
(dp2397
sg83
g2367
sg76
(lp2398
g69
(g90
g71
NtRp2399
(dp2400
g74
(dp2401
sg83
g2395
sg76
(lp2402
g69
(g70
g71
NtRp2403
(dp2404
g74
(dp2405
g82
I3
ssg83
g2399
sg76
(lp2406
S'2'
asbasbasbag69
(g85
g71
NtRp2407
(dp2408
g74
(dp2409
sg83
g2367
sg76
(lp2410
g69
(g90
g71
NtRp2411
(dp2412
g74
(dp2413
sg83
g2407
sg76
(lp2414
g69
(g70
g71
NtRp2415
(dp2416
g74
(dp2417
g82
I3
ssg83
g2411
sg76
(lp2418
S'datetime.datetime(2012, 12, 17, 15, 3, 30)'
p2419
asbasbasbag69
(g85
g71
NtRp2420
(dp2421
g74
(dp2422
sg83
g2367
sg76
(lp2423
g69
(g90
g71
NtRp2424
(dp2425
g74
(dp2426
sg83
g2420
sg76
(lp2427
g69
(g70
g71
NtRp2428
(dp2429
g74
(dp2430
g82
I3
ssg83
g2424
sg76
(lp2431
g1758
asbasbasbasbasbasbasbasbasbasbasbag69
(g85
g71
NtRp2432
(dp2433
g74
(dp2434
sg83
g79
sg76
(lp2435
g69
(g90
g71
NtRp2436
(dp2437
g74
(dp2438
g94
g95
ssg83
g2432
sg76
(lp2439
S'is_https'
p2440
asbag69
(g90
g71
NtRp2441
(dp2442
g74
(dp2443
g101
g102
ssg83
g2432
sg76
(lp2444
S':'
asbag69
(g90
g71
NtRp2445
(dp2446
g74
(dp2447
sg83
g2432
sg76
(lp2448
g69
(g70
g71
NtRp2449
(dp2450
g74
(dp2451
g82
I5
ssg83
g2445
sg76
(lp2452
g112
asbasbasbag69
(g85
g71
NtRp2453
(dp2454
g74
(dp2455
sg83
g79
sg76
(lp2456
g69
(g90
g71
NtRp2457
(dp2458
g74
(dp2459
g94
g95
ssg83
g2453
sg76
(lp2460
S'is_local'
p2461
asbag69
(g90
g71
NtRp2462
(dp2463
g74
(dp2464
g101
g102
ssg83
g2453
sg76
(lp2465
S':'
asbag69
(g90
g71
NtRp2466
(dp2467
g74
(dp2468
sg83
g2453
sg76
(lp2469
g69
(g70
g71
NtRp2470
(dp2471
g74
(dp2472
g82
I5
ssg83
g2466
sg76
(lp2473
g1867
asbasbasbag69
(g85
g71
NtRp2474
(dp2475
g74
(dp2476
sg83
g79
sg76
(lp2477
g69
(g90
g71
NtRp2478
(dp2479
g74
(dp2480
g94
g95
ssg83
g2474
sg76
(lp2481
S'is_restful'
p2482
asbag69
(g90
g71
NtRp2483
(dp2484
g74
(dp2485
g101
g102
ssg83
g2474
sg76
(lp2486
S':'
asbag69
(g90
g71
NtRp2487
(dp2488
g74
(dp2489
sg83
g2474
sg76
(lp2490
g69
(g70
g71
NtRp2491
(dp2492
g74
(dp2493
g82
I5
ssg83
g2487
sg76
(lp2494
g112
asbasbasbag69
(g85
g71
NtRp2495
(dp2496
g74
(dp2497
sg83
g79
sg76
(lp2498
g69
(g90
g71
NtRp2499
(dp2500
g74
(dp2501
g94
g95
ssg83
g2495
sg76
(lp2502
S'now'
p2503
asbag69
(g90
g71
NtRp2504
(dp2505
g74
(dp2506
g101
g102
ssg83
g2495
sg76
(lp2507
S':'
asbag69
(g90
g71
NtRp2508
(dp2509
g74
(dp2510
sg83
g2495
sg76
(lp2511
g69
(g70
g71
NtRp2512
(dp2513
g74
(dp2514
g82
I5
ssg83
g2508
sg76
(lp2515
S'datetime.datetime(2013, 3, 17, 22, 28, 44, 106244)'
p2516
asbasbasbag69
(g85
g71
NtRp2517
(dp2518
g74
(dp2519
sg83
g79
sg76
(lp2520
g69
(g90
g71
NtRp2521
(dp2522
g74
(dp2523
g94
g95
ssg83
g2517
sg76
(lp2524
S'post_vars'
p2525
asbag69
(g90
g71
NtRp2526
(dp2527
g74
(dp2528
g101
g102
ssg83
g2517
sg76
(lp2529
S':'
asbag69
(g90
g71
NtRp2530
(dp2531
g74
(dp2532
sg83
g2517
sg76
(lp2533
g69
(g70
g71
NtRp2534
(dp2535
g74
(dp2536
g82
I5
ssg83
g2530
sg76
(lp2537
g69
(g78
g71
NtRp2538
(dp2539
g74
(dp2540
g82
I4
ssg83
Nsg76
(lp2541
g69
(g85
g71
NtRp2542
(dp2543
g74
(dp2544
sg83
g2538
sg76
(lp2545
g69
(g90
g71
NtRp2546
(dp2547
g74
(dp2548
g94
g95
ssg83
g2542
sg76
(lp2549
S'address'
p2550
asbag69
(g90
g71
NtRp2551
(dp2552
g74
(dp2553
g101
g102
ssg83
g2542
sg76
(lp2554
S':'
asbag69
(g90
g71
NtRp2555
(dp2556
g74
(dp2557
sg83
g2542
sg76
(lp2558
g69
(g70
g71
NtRp2559
(dp2560
g74
(dp2561
g82
I4
ssg83
g2555
sg76
(lp2562
S'sd'
p2563
asbasbasbag69
(g85
g71
NtRp2564
(dp2565
g74
(dp2566
sg83
g2538
sg76
(lp2567
g69
(g90
g71
NtRp2568
(dp2569
g74
(dp2570
g94
g95
ssg83
g2564
sg76
(lp2571
S'courses_taken'
p2572
asbag69
(g90
g71
NtRp2573
(dp2574
g74
(dp2575
g101
g102
ssg83
g2564
sg76
(lp2576
S':'
asbag69
(g90
g71
NtRp2577
(dp2578
g74
(dp2579
sg83
g2564
sg76
(lp2580
g69
(g70
g71
NtRp2581
(dp2582
g74
(dp2583
g82
I4
ssg83
g2577
sg76
(lp2584
S'1'
asbasbasbag69
(g85
g71
NtRp2585
(dp2586
g74
(dp2587
sg83
g2538
sg76
(lp2588
g69
(g90
g71
NtRp2589
(dp2590
g74
(dp2591
g94
g95
ssg83
g2585
sg76
(lp2592
S'date_of_birth'
p2593
asbag69
(g90
g71
NtRp2594
(dp2595
g74
(dp2596
g101
g102
ssg83
g2585
sg76
(lp2597
S':'
asbag69
(g90
g71
NtRp2598
(dp2599
g74
(dp2600
sg83
g2585
sg76
(lp2601
g69
(g70
g71
NtRp2602
(dp2603
g74
(dp2604
g82
I4
ssg83
g2598
sg76
(lp2605
S'2013-03-11'
p2606
asbasbasbag69
(g85
g71
NtRp2607
(dp2608
g74
(dp2609
sg83
g2538
sg76
(lp2610
g69
(g90
g71
NtRp2611
(dp2612
g74
(dp2613
g94
g95
ssg83
g2607
sg76
(lp2614
S'fathers_name'
p2615
asbag69
(g90
g71
NtRp2616
(dp2617
g74
(dp2618
g101
g102
ssg83
g2607
sg76
(lp2619
S':'
asbag69
(g90
g71
NtRp2620
(dp2621
g74
(dp2622
sg83
g2607
sg76
(lp2623
g69
(g70
g71
NtRp2624
(dp2625
g74
(dp2626
g82
I4
ssg83
g2620
sg76
(lp2627
S'sd'
p2628
asbasbasbag69
(g85
g71
NtRp2629
(dp2630
g74
(dp2631
sg83
g2538
sg76
(lp2632
g69
(g90
g71
NtRp2633
(dp2634
g74
(dp2635
g94
g95
ssg83
g2629
sg76
(lp2636
S'institution_name'
p2637
asbag69
(g90
g71
NtRp2638
(dp2639
g74
(dp2640
g101
g102
ssg83
g2629
sg76
(lp2641
S':'
asbag69
(g90
g71
NtRp2642
(dp2643
g74
(dp2644
sg83
g2629
sg76
(lp2645
g69
(g70
g71
NtRp2646
(dp2647
g74
(dp2648
g82
I4
ssg83
g2642
sg76
(lp2649
S'd'
asbasbasbag69
(g85
g71
NtRp2650
(dp2651
g74
(dp2652
sg83
g2538
sg76
(lp2653
g69
(g90
g71
NtRp2654
(dp2655
g74
(dp2656
g94
g95
ssg83
g2650
sg76
(lp2657
S'mothers_name'
p2658
asbag69
(g90
g71
NtRp2659
(dp2660
g74
(dp2661
g101
g102
ssg83
g2650
sg76
(lp2662
S':'
asbag69
(g90
g71
NtRp2663
(dp2664
g74
(dp2665
sg83
g2650
sg76
(lp2666
g69
(g70
g71
NtRp2667
(dp2668
g74
(dp2669
g82
I4
ssg83
g2663
sg76
(lp2670
S'sd'
p2671
asbasbasbasbasbasbasbag69
(g85
g71
NtRp2672
(dp2673
g74
(dp2674
sg83
g79
sg76
(lp2675
g69
(g90
g71
NtRp2676
(dp2677
g74
(dp2678
g94
g95
ssg83
g2672
sg76
(lp2679
S'raw_args'
p2680
asbag69
(g90
g71
NtRp2681
(dp2682
g74
(dp2683
g101
g102
ssg83
g2672
sg76
(lp2684
S':'
asbag69
(g90
g71
NtRp2685
(dp2686
g74
(dp2687
sg83
g2672
sg76
(lp2688
g69
(g70
g71
NtRp2689
(dp2690
g74
(dp2691
g82
I5
ssg83
g2685
sg76
(lp2692
S''
asbasbasbag69
(g85
g71
NtRp2693
(dp2694
g74
(dp2695
sg83
g79
sg76
(lp2696
g69
(g90
g71
NtRp2697
(dp2698
g74
(dp2699
g94
g95
ssg83
g2693
sg76
(lp2700
S'raw_extension'
p2701
asbag69
(g90
g71
NtRp2702
(dp2703
g74
(dp2704
g101
g102
ssg83
g2693
sg76
(lp2705
S':'
asbag69
(g90
g71
NtRp2706
(dp2707
g74
(dp2708
sg83
g2693
sg76
(lp2709
g69
(g70
g71
NtRp2710
(dp2711
g74
(dp2712
g82
I5
ssg83
g2706
sg76
(lp2713
g1981
asbasbasbag69
(g85
g71
NtRp2714
(dp2715
g74
(dp2716
sg83
g79
sg76
(lp2717
g69
(g90
g71
NtRp2718
(dp2719
g74
(dp2720
g94
g95
ssg83
g2714
sg76
(lp2721
S'url'
p2722
asbag69
(g90
g71
NtRp2723
(dp2724
g74
(dp2725
g101
g102
ssg83
g2714
sg76
(lp2726
S':'
asbag69
(g90
g71
NtRp2727
(dp2728
g74
(dp2729
sg83
g2714
sg76
(lp2730
g69
(g70
g71
NtRp2731
(dp2732
g74
(dp2733
g82
I5
ssg83
g2727
sg76
(lp2734
g1434
asbasbasbag69
(g85
g71
NtRp2735
(dp2736
g74
(dp2737
sg83
g79
sg76
(lp2738
g69
(g90
g71
NtRp2739
(dp2740
g74
(dp2741
g94
g95
ssg83
g2735
sg76
(lp2742
S'utcnow'
p2743
asbag69
(g90
g71
NtRp2744
(dp2745
g74
(dp2746
g101
g102
ssg83
g2735
sg76
(lp2747
S':'
asbag69
(g90
g71
NtRp2748
(dp2749
g74
(dp2750
sg83
g2735
sg76
(lp2751
g69
(g70
g71
NtRp2752
(dp2753
g74
(dp2754
g82
I5
ssg83
g2748
sg76
(lp2755
S'datetime.datetime(2013, 3, 17, 16, 58, 44, 106315)'
p2756
asbasbasbag69
(g85
g71
NtRp2757
(dp2758
g74
(dp2759
sg83
g79
sg76
(lp2760
g69
(g90
g71
NtRp2761
(dp2762
g74
(dp2763
g94
g95
ssg83
g2757
sg76
(lp2764
S'uuid'
p2765
asbag69
(g90
g71
NtRp2766
(dp2767
g74
(dp2768
g101
g102
ssg83
g2757
sg76
(lp2769
S':'
asbag69
(g90
g71
NtRp2770
(dp2771
g74
(dp2772
sg83
g2757
sg76
(lp2773
g69
(g70
g71
NtRp2774
(dp2775
g74
(dp2776
g82
I5
ssg83
g2770
sg76
(lp2777
S'ggg/127.0.0.1.2013-03-17.22-28-44.0694d087-f9ec-4f10-bf74-92c9d83ed822'
p2778
asbasbasbag69
(g85
g71
NtRp2779
(dp2780
g74
(dp2781
sg83
g79
sg76
(lp2782
g69
(g90
g71
NtRp2783
(dp2784
g74
(dp2785
g94
g95
ssg83
g2779
sg76
(lp2786
S'vars'
p2787
asbag69
(g90
g71
NtRp2788
(dp2789
g74
(dp2790
g101
g102
ssg83
g2779
sg76
(lp2791
S':'
asbag69
(g90
g71
NtRp2792
(dp2793
g74
(dp2794
sg83
g2779
sg76
(lp2795
g69
(g70
g71
NtRp2796
(dp2797
g74
(dp2798
g82
I5
ssg83
g2792
sg76
(lp2799
g69
(g78
g71
NtRp2800
(dp2801
g74
(dp2802
g82
I4
ssg83
Nsg76
(lp2803
g69
(g85
g71
NtRp2804
(dp2805
g74
(dp2806
sg83
g2800
sg76
(lp2807
g69
(g90
g71
NtRp2808
(dp2809
g74
(dp2810
g94
g95
ssg83
g2804
sg76
(lp2811
g2550
asbag69
(g90
g71
NtRp2812
(dp2813
g74
(dp2814
g101
g102
ssg83
g2804
sg76
(lp2815
S':'
asbag69
(g90
g71
NtRp2816
(dp2817
g74
(dp2818
sg83
g2804
sg76
(lp2819
g69
(g70
g71
NtRp2820
(dp2821
g74
(dp2822
g82
I4
ssg83
g2816
sg76
(lp2823
g2563
asbasbasbag69
(g85
g71
NtRp2824
(dp2825
g74
(dp2826
sg83
g2800
sg76
(lp2827
g69
(g90
g71
NtRp2828
(dp2829
g74
(dp2830
g94
g95
ssg83
g2824
sg76
(lp2831
g2572
asbag69
(g90
g71
NtRp2832
(dp2833
g74
(dp2834
g101
g102
ssg83
g2824
sg76
(lp2835
S':'
asbag69
(g90
g71
NtRp2836
(dp2837
g74
(dp2838
sg83
g2824
sg76
(lp2839
g69
(g70
g71
NtRp2840
(dp2841
g74
(dp2842
g82
I4
ssg83
g2836
sg76
(lp2843
S'1'
asbasbasbag69
(g85
g71
NtRp2844
(dp2845
g74
(dp2846
sg83
g2800
sg76
(lp2847
g69
(g90
g71
NtRp2848
(dp2849
g74
(dp2850
g94
g95
ssg83
g2844
sg76
(lp2851
g2593
asbag69
(g90
g71
NtRp2852
(dp2853
g74
(dp2854
g101
g102
ssg83
g2844
sg76
(lp2855
S':'
asbag69
(g90
g71
NtRp2856
(dp2857
g74
(dp2858
sg83
g2844
sg76
(lp2859
g69
(g70
g71
NtRp2860
(dp2861
g74
(dp2862
g82
I4
ssg83
g2856
sg76
(lp2863
g2606
asbasbasbag69
(g85
g71
NtRp2864
(dp2865
g74
(dp2866
sg83
g2800
sg76
(lp2867
g69
(g90
g71
NtRp2868
(dp2869
g74
(dp2870
g94
g95
ssg83
g2864
sg76
(lp2871
g2615
asbag69
(g90
g71
NtRp2872
(dp2873
g74
(dp2874
g101
g102
ssg83
g2864
sg76
(lp2875
S':'
asbag69
(g90
g71
NtRp2876
(dp2877
g74
(dp2878
sg83
g2864
sg76
(lp2879
g69
(g70
g71
NtRp2880
(dp2881
g74
(dp2882
g82
I4
ssg83
g2876
sg76
(lp2883
g2628
asbasbasbag69
(g85
g71
NtRp2884
(dp2885
g74
(dp2886
sg83
g2800
sg76
(lp2887
g69
(g90
g71
NtRp2888
(dp2889
g74
(dp2890
g94
g95
ssg83
g2884
sg76
(lp2891
g2637
asbag69
(g90
g71
NtRp2892
(dp2893
g74
(dp2894
g101
g102
ssg83
g2884
sg76
(lp2895
S':'
asbag69
(g90
g71
NtRp2896
(dp2897
g74
(dp2898
sg83
g2884
sg76
(lp2899
g69
(g70
g71
NtRp2900
(dp2901
g74
(dp2902
g82
I4
ssg83
g2896
sg76
(lp2903
S'd'
asbasbasbag69
(g85
g71
NtRp2904
(dp2905
g74
(dp2906
sg83
g2800
sg76
(lp2907
g69
(g90
g71
NtRp2908
(dp2909
g74
(dp2910
g94
g95
ssg83
g2904
sg76
(lp2911
g2658
asbag69
(g90
g71
NtRp2912
(dp2913
g74
(dp2914
g101
g102
ssg83
g2904
sg76
(lp2915
S':'
asbag69
(g90
g71
NtRp2916
(dp2917
g74
(dp2918
sg83
g2904
sg76
(lp2919
g69
(g70
g71
NtRp2920
(dp2921
g74
(dp2922
g82
I4
ssg83
g2916
sg76
(lp2923
g2671
asbasbasbasbasbasbasbag69
(g85
g71
NtRp2924
(dp2925
g74
(dp2926
sg83
g79
sg76
(lp2927
g69
(g90
g71
NtRp2928
(dp2929
g74
(dp2930
g94
g95
ssg83
g2924
sg76
(lp2931
S'wsgi'
p2932
asbag69
(g90
g71
NtRp2933
(dp2934
g74
(dp2935
g101
g102
ssg83
g2924
sg76
(lp2936
S':'
asbag69
(g90
g71
NtRp2937
(dp2938
g74
(dp2939
sg83
g2924
sg76
(lp2940
g69
(g70
g71
NtRp2941
(dp2942
g74
(dp2943
g82
I5
ssg83
g2937
sg76
(lp2944
g69
(g78
g71
NtRp2945
(dp2946
g74
(dp2947
g82
I4
ssg83
Nsg76
(lp2948
g69
(g85
g71
NtRp2949
(dp2950
g74
(dp2951
sg83
g2945
sg76
(lp2952
g69
(g90
g71
NtRp2953
(dp2954
g74
(dp2955
g94
g95
ssg83
g2949
sg76
(lp2956
S'environ'
p2957
asbag69
(g90
g71
NtRp2958
(dp2959
g74
(dp2960
g101
g102
ssg83
g2949
sg76
(lp2961
S':'
asbag69
(g90
g71
NtRp2962
(dp2963
g74
(dp2964
sg83
g2949
sg76
(lp2965
g69
(g70
g71
NtRp2966
(dp2967
g74
(dp2968
g82
I4
ssg83
g2962
sg76
(lp2969
g69
(g78
g71
NtRp2970
(dp2971
g74
(dp2972
g82
I3
ssg83
Nsg76
(lp2973
g69
(g85
g71
NtRp2974
(dp2975
g74
(dp2976
sg83
g2970
sg76
(lp2977
g69
(g90
g71
NtRp2978
(dp2979
g74
(dp2980
g94
g95
ssg83
g2974
sg76
(lp2981
S'CONTENT_LENGTH'
p2982
asbag69
(g90
g71
NtRp2983
(dp2984
g74
(dp2985
g101
g102
ssg83
g2974
sg76
(lp2986
S':'
asbag69
(g90
g71
NtRp2987
(dp2988
g74
(dp2989
sg83
g2974
sg76
(lp2990
g69
(g70
g71
NtRp2991
(dp2992
g74
(dp2993
g82
I3
ssg83
g2987
sg76
(lp2994
g975
asbasbasbag69
(g85
g71
NtRp2995
(dp2996
g74
(dp2997
sg83
g2970
sg76
(lp2998
g69
(g90
g71
NtRp2999
(dp3000
g74
(dp3001
g94
g95
ssg83
g2995
sg76
(lp3002
S'CONTENT_TYPE'
p3003
asbag69
(g90
g71
NtRp3004
(dp3005
g74
(dp3006
g101
g102
ssg83
g2995
sg76
(lp3007
S':'
asbag69
(g90
g71
NtRp3008
(dp3009
g74
(dp3010
sg83
g2995
sg76
(lp3011
g69
(g70
g71
NtRp3012
(dp3013
g74
(dp3014
g82
I3
ssg83
g3008
sg76
(lp3015
g997
asbasbasbag69
(g85
g71
NtRp3016
(dp3017
g74
(dp3018
sg83
g2970
sg76
(lp3019
g69
(g90
g71
NtRp3020
(dp3021
g74
(dp3022
g94
g95
ssg83
g3016
sg76
(lp3023
S'HTTP_ACCEPT'
p3024
asbag69
(g90
g71
NtRp3025
(dp3026
g74
(dp3027
g101
g102
ssg83
g3016
sg76
(lp3028
S':'
asbag69
(g90
g71
NtRp3029
(dp3030
g74
(dp3031
sg83
g3016
sg76
(lp3032
g69
(g70
g71
NtRp3033
(dp3034
g74
(dp3035
g82
I3
ssg83
g3029
sg76
(lp3036
g1084
asbasbasbag69
(g85
g71
NtRp3037
(dp3038
g74
(dp3039
sg83
g2970
sg76
(lp3040
g69
(g90
g71
NtRp3041
(dp3042
g74
(dp3043
g94
g95
ssg83
g3037
sg76
(lp3044
S'HTTP_ACCEPT_ENCODING'
p3045
asbag69
(g90
g71
NtRp3046
(dp3047
g74
(dp3048
g101
g102
ssg83
g3037
sg76
(lp3049
S':'
asbag69
(g90
g71
NtRp3050
(dp3051
g74
(dp3052
sg83
g3037
sg76
(lp3053
g69
(g70
g71
NtRp3054
(dp3055
g74
(dp3056
g82
I3
ssg83
g3050
sg76
(lp3057
g1106
asbasbasbag69
(g85
g71
NtRp3058
(dp3059
g74
(dp3060
sg83
g2970
sg76
(lp3061
g69
(g90
g71
NtRp3062
(dp3063
g74
(dp3064
g94
g95
ssg83
g3058
sg76
(lp3065
S'HTTP_ACCEPT_LANGUAGE'
p3066
asbag69
(g90
g71
NtRp3067
(dp3068
g74
(dp3069
g101
g102
ssg83
g3058
sg76
(lp3070
S':'
asbag69
(g90
g71
NtRp3071
(dp3072
g74
(dp3073
sg83
g3058
sg76
(lp3074
g69
(g70
g71
NtRp3075
(dp3076
g74
(dp3077
g82
I3
ssg83
g3071
sg76
(lp3078
g1128
asbasbasbag69
(g85
g71
NtRp3079
(dp3080
g74
(dp3081
sg83
g2970
sg76
(lp3082
g69
(g90
g71
NtRp3083
(dp3084
g74
(dp3085
g94
g95
ssg83
g3079
sg76
(lp3086
S'HTTP_CONNECTION'
p3087
asbag69
(g90
g71
NtRp3088
(dp3089
g74
(dp3090
g101
g102
ssg83
g3079
sg76
(lp3091
S':'
asbag69
(g90
g71
NtRp3092
(dp3093
g74
(dp3094
sg83
g3079
sg76
(lp3095
g69
(g70
g71
NtRp3096
(dp3097
g74
(dp3098
g82
I3
ssg83
g3092
sg76
(lp3099
g1150
asbasbasbag69
(g85
g71
NtRp3100
(dp3101
g74
(dp3102
sg83
g2970
sg76
(lp3103
g69
(g90
g71
NtRp3104
(dp3105
g74
(dp3106
g94
g95
ssg83
g3100
sg76
(lp3107
S'HTTP_CONTENT_LENGTH'
p3108
asbag69
(g90
g71
NtRp3109
(dp3110
g74
(dp3111
g101
g102
ssg83
g3100
sg76
(lp3112
S':'
asbag69
(g90
g71
NtRp3113
(dp3114
g74
(dp3115
sg83
g3100
sg76
(lp3116
g69
(g70
g71
NtRp3117
(dp3118
g74
(dp3119
g82
I3
ssg83
g3113
sg76
(lp3120
g975
asbasbasbag69
(g85
g71
NtRp3121
(dp3122
g74
(dp3123
sg83
g2970
sg76
(lp3124
g69
(g90
g71
NtRp3125
(dp3126
g74
(dp3127
g94
g95
ssg83
g3121
sg76
(lp3128
S'HTTP_CONTENT_TYPE'
p3129
asbag69
(g90
g71
NtRp3130
(dp3131
g74
(dp3132
g101
g102
ssg83
g3121
sg76
(lp3133
S':'
asbag69
(g90
g71
NtRp3134
(dp3135
g74
(dp3136
sg83
g3121
sg76
(lp3137
g69
(g70
g71
NtRp3138
(dp3139
g74
(dp3140
g82
I3
ssg83
g3134
sg76
(lp3141
g997
asbasbasbag69
(g85
g71
NtRp3142
(dp3143
g74
(dp3144
sg83
g2970
sg76
(lp3145
g69
(g90
g71
NtRp3146
(dp3147
g74
(dp3148
g94
g95
ssg83
g3142
sg76
(lp3149
S'HTTP_COOKIE'
p3150
asbag69
(g90
g71
NtRp3151
(dp3152
g74
(dp3153
g101
g102
ssg83
g3142
sg76
(lp3154
S':'
asbag69
(g90
g71
NtRp3155
(dp3156
g74
(dp3157
sg83
g3142
sg76
(lp3158
g69
(g70
g71
NtRp3159
(dp3160
g74
(dp3161
g82
I3
ssg83
g3155
sg76
(lp3162
g1214
asbasbasbag69
(g85
g71
NtRp3163
(dp3164
g74
(dp3165
sg83
g2970
sg76
(lp3166
g69
(g90
g71
NtRp3167
(dp3168
g74
(dp3169
g94
g95
ssg83
g3163
sg76
(lp3170
S'HTTP_HOST'
p3171
asbag69
(g90
g71
NtRp3172
(dp3173
g74
(dp3174
g101
g102
ssg83
g3163
sg76
(lp3175
S':'
asbag69
(g90
g71
NtRp3176
(dp3177
g74
(dp3178
sg83
g3163
sg76
(lp3179
g69
(g70
g71
NtRp3180
(dp3181
g74
(dp3182
g82
I3
ssg83
g3176
sg76
(lp3183
g1236
asbasbasbag69
(g85
g71
NtRp3184
(dp3185
g74
(dp3186
sg83
g2970
sg76
(lp3187
g69
(g90
g71
NtRp3188
(dp3189
g74
(dp3190
g94
g95
ssg83
g3184
sg76
(lp3191
S'HTTP_REFERER'
p3192
asbag69
(g90
g71
NtRp3193
(dp3194
g74
(dp3195
g101
g102
ssg83
g3184
sg76
(lp3196
S':'
asbag69
(g90
g71
NtRp3197
(dp3198
g74
(dp3199
sg83
g3184
sg76
(lp3200
g69
(g70
g71
NtRp3201
(dp3202
g74
(dp3203
g82
I3
ssg83
g3197
sg76
(lp3204
g1258
asbasbasbag69
(g85
g71
NtRp3205
(dp3206
g74
(dp3207
sg83
g2970
sg76
(lp3208
g69
(g90
g71
NtRp3209
(dp3210
g74
(dp3211
g94
g95
ssg83
g3205
sg76
(lp3212
S'HTTP_USER_AGENT'
p3213
asbag69
(g90
g71
NtRp3214
(dp3215
g74
(dp3216
g101
g102
ssg83
g3205
sg76
(lp3217
S':'
asbag69
(g90
g71
NtRp3218
(dp3219
g74
(dp3220
sg83
g3205
sg76
(lp3221
g69
(g70
g71
NtRp3222
(dp3223
g74
(dp3224
g82
I3
ssg83
g3218
sg76
(lp3225
g1280
asbasbasbag69
(g85
g71
NtRp3226
(dp3227
g74
(dp3228
sg83
g2970
sg76
(lp3229
g69
(g90
g71
NtRp3230
(dp3231
g74
(dp3232
g94
g95
ssg83
g3226
sg76
(lp3233
S'PATH_INFO'
p3234
asbag69
(g90
g71
NtRp3235
(dp3236
g74
(dp3237
g101
g102
ssg83
g3226
sg76
(lp3238
S':'
asbag69
(g90
g71
NtRp3239
(dp3240
g74
(dp3241
sg83
g3226
sg76
(lp3242
g69
(g70
g71
NtRp3243
(dp3244
g74
(dp3245
g82
I3
ssg83
g3239
sg76
(lp3246
g1434
asbasbasbag69
(g85
g71
NtRp3247
(dp3248
g74
(dp3249
sg83
g2970
sg76
(lp3250
g69
(g90
g71
NtRp3251
(dp3252
g74
(dp3253
g94
g95
ssg83
g3247
sg76
(lp3254
S'QUERY_STRING'
p3255
asbag69
(g90
g71
NtRp3256
(dp3257
g74
(dp3258
g101
g102
ssg83
g3247
sg76
(lp3259
S':'
asbag69
(g90
g71
NtRp3260
(dp3261
g74
(dp3262
sg83
g3247
sg76
(lp3263
g69
(g70
g71
NtRp3264
(dp3265
g74
(dp3266
g82
I3
ssg83
g3260
sg76
(lp3267
S''
asbasbasbag69
(g85
g71
NtRp3268
(dp3269
g74
(dp3270
sg83
g2970
sg76
(lp3271
g69
(g90
g71
NtRp3272
(dp3273
g74
(dp3274
g94
g95
ssg83
g3268
sg76
(lp3275
S'REMOTE_ADDR'
p3276
asbag69
(g90
g71
NtRp3277
(dp3278
g74
(dp3279
g101
g102
ssg83
g3268
sg76
(lp3280
S':'
asbag69
(g90
g71
NtRp3281
(dp3282
g74
(dp3283
sg83
g3268
sg76
(lp3284
g69
(g70
g71
NtRp3285
(dp3286
g74
(dp3287
g82
I3
ssg83
g3281
sg76
(lp3288
g224
asbasbasbag69
(g85
g71
NtRp3289
(dp3290
g74
(dp3291
sg83
g2970
sg76
(lp3292
g69
(g90
g71
NtRp3293
(dp3294
g74
(dp3295
g94
g95
ssg83
g3289
sg76
(lp3296
S'REMOTE_PORT'
p3297
asbag69
(g90
g71
NtRp3298
(dp3299
g74
(dp3300
g101
g102
ssg83
g3289
sg76
(lp3301
S':'
asbag69
(g90
g71
NtRp3302
(dp3303
g74
(dp3304
sg83
g3289
sg76
(lp3305
g69
(g70
g71
NtRp3306
(dp3307
g74
(dp3308
g82
I3
ssg83
g3302
sg76
(lp3309
g1498
asbasbasbag69
(g85
g71
NtRp3310
(dp3311
g74
(dp3312
sg83
g2970
sg76
(lp3313
g69
(g90
g71
NtRp3314
(dp3315
g74
(dp3316
g94
g95
ssg83
g3310
sg76
(lp3317
S'REQUEST_METHOD'
p3318
asbag69
(g90
g71
NtRp3319
(dp3320
g74
(dp3321
g101
g102
ssg83
g3310
sg76
(lp3322
S':'
asbag69
(g90
g71
NtRp3323
(dp3324
g74
(dp3325
sg83
g3310
sg76
(lp3326
g69
(g70
g71
NtRp3327
(dp3328
g74
(dp3329
g82
I3
ssg83
g3323
sg76
(lp3330
g1520
asbasbasbag69
(g85
g71
NtRp3331
(dp3332
g74
(dp3333
sg83
g2970
sg76
(lp3334
g69
(g90
g71
NtRp3335
(dp3336
g74
(dp3337
g94
g95
ssg83
g3331
sg76
(lp3338
S'REQUEST_URI'
p3339
asbag69
(g90
g71
NtRp3340
(dp3341
g74
(dp3342
g101
g102
ssg83
g3331
sg76
(lp3343
S':'
asbag69
(g90
g71
NtRp3344
(dp3345
g74
(dp3346
sg83
g3331
sg76
(lp3347
g69
(g70
g71
NtRp3348
(dp3349
g74
(dp3350
g82
I3
ssg83
g3344
sg76
(lp3351
g1434
asbasbasbag69
(g85
g71
NtRp3352
(dp3353
g74
(dp3354
sg83
g2970
sg76
(lp3355
g69
(g90
g71
NtRp3356
(dp3357
g74
(dp3358
g94
g95
ssg83
g3352
sg76
(lp3359
S'SCRIPT_NAME'
p3360
asbag69
(g90
g71
NtRp3361
(dp3362
g74
(dp3363
g101
g102
ssg83
g3352
sg76
(lp3364
S':'
asbag69
(g90
g71
NtRp3365
(dp3366
g74
(dp3367
sg83
g3352
sg76
(lp3368
g69
(g70
g71
NtRp3369
(dp3370
g74
(dp3371
g82
I3
ssg83
g3365
sg76
(lp3372
S''
asbasbasbag69
(g85
g71
NtRp3373
(dp3374
g74
(dp3375
sg83
g2970
sg76
(lp3376
g69
(g90
g71
NtRp3377
(dp3378
g74
(dp3379
g94
g95
ssg83
g3373
sg76
(lp3380
S'SERVER_NAME'
p3381
asbag69
(g90
g71
NtRp3382
(dp3383
g74
(dp3384
g101
g102
ssg83
g3373
sg76
(lp3385
S':'
asbag69
(g90
g71
NtRp3386
(dp3387
g74
(dp3388
sg83
g3373
sg76
(lp3389
g69
(g70
g71
NtRp3390
(dp3391
g74
(dp3392
g82
I3
ssg83
g3386
sg76
(lp3393
g1584
asbasbasbag69
(g85
g71
NtRp3394
(dp3395
g74
(dp3396
sg83
g2970
sg76
(lp3397
g69
(g90
g71
NtRp3398
(dp3399
g74
(dp3400
g94
g95
ssg83
g3394
sg76
(lp3401
S'SERVER_PORT'
p3402
asbag69
(g90
g71
NtRp3403
(dp3404
g74
(dp3405
g101
g102
ssg83
g3394
sg76
(lp3406
S':'
asbag69
(g90
g71
NtRp3407
(dp3408
g74
(dp3409
sg83
g3394
sg76
(lp3410
g69
(g70
g71
NtRp3411
(dp3412
g74
(dp3413
g82
I3
ssg83
g3407
sg76
(lp3414
g1606
asbasbasbag69
(g85
g71
NtRp3415
(dp3416
g74
(dp3417
sg83
g2970
sg76
(lp3418
g69
(g90
g71
NtRp3419
(dp3420
g74
(dp3421
g94
g95
ssg83
g3415
sg76
(lp3422
S'SERVER_PROTOCOL'
p3423
asbag69
(g90
g71
NtRp3424
(dp3425
g74
(dp3426
g101
g102
ssg83
g3415
sg76
(lp3427
S':'
asbag69
(g90
g71
NtRp3428
(dp3429
g74
(dp3430
sg83
g3415
sg76
(lp3431
g69
(g70
g71
NtRp3432
(dp3433
g74
(dp3434
g82
I3
ssg83
g3428
sg76
(lp3435
g1628
asbasbasbag69
(g85
g71
NtRp3436
(dp3437
g74
(dp3438
sg83
g2970
sg76
(lp3439
g69
(g90
g71
NtRp3440
(dp3441
g74
(dp3442
g94
g95
ssg83
g3436
sg76
(lp3443
S'SERVER_SOFTWARE'
p3444
asbag69
(g90
g71
NtRp3445
(dp3446
g74
(dp3447
g101
g102
ssg83
g3436
sg76
(lp3448
S':'
asbag69
(g90
g71
NtRp3449
(dp3450
g74
(dp3451
sg83
g3436
sg76
(lp3452
g69
(g70
g71
NtRp3453
(dp3454
g74
(dp3455
g82
I3
ssg83
g3449
sg76
(lp3456
g1650
asbasbasbag69
(g85
g71
NtRp3457
(dp3458
g74
(dp3459
sg83
g2970
sg76
(lp3460
g69
(g90
g71
NtRp3461
(dp3462
g74
(dp3463
g94
g95
ssg83
g3457
sg76
(lp3464
S'wsgi.errors'
p3465
asbag69
(g90
g71
NtRp3466
(dp3467
g74
(dp3468
g101
g102
ssg83
g3457
sg76
(lp3469
S':'
asbag69
(g90
g71
NtRp3470
(dp3471
g74
(dp3472
sg83
g3457
sg76
(lp3473
g69
(g70
g71
NtRp3474
(dp3475
g74
(dp3476
g82
I3
ssg83
g3470
sg76
(lp3477
S"<open file '<stderr>', mode 'w' at 0x7fdd50f2a270>"
p3478
asbasbasbag69
(g85
g71
NtRp3479
(dp3480
g74
(dp3481
sg83
g2970
sg76
(lp3482
g69
(g90
g71
NtRp3483
(dp3484
g74
(dp3485
g94
g95
ssg83
g3479
sg76
(lp3486
S'wsgi.file_wrapper'
p3487
asbag69
(g90
g71
NtRp3488
(dp3489
g74
(dp3490
g101
g102
ssg83
g3479
sg76
(lp3491
S':'
asbag69
(g90
g71
NtRp3492
(dp3493
g74
(dp3494
sg83
g3479
sg76
(lp3495
g69
(g70
g71
NtRp3496
(dp3497
g74
(dp3498
g82
I3
ssg83
g3492
sg76
(lp3499
S'<class wsgiref.util.FileWrapper at 0x168ec18>'
p3500
asbasbasbag69
(g85
g71
NtRp3501
(dp3502
g74
(dp3503
sg83
g2970
sg76
(lp3504
g69
(g90
g71
NtRp3505
(dp3506
g74
(dp3507
g94
g95
ssg83
g3501
sg76
(lp3508
S'wsgi.input'
p3509
asbag69
(g90
g71
NtRp3510
(dp3511
g74
(dp3512
g101
g102
ssg83
g3501
sg76
(lp3513
S':'
asbag69
(g90
g71
NtRp3514
(dp3515
g74
(dp3516
sg83
g3501
sg76
(lp3517
g69
(g70
g71
NtRp3518
(dp3519
g74
(dp3520
g82
I3
ssg83
g3514
sg76
(lp3521
S"<open file '<fdopen>', mode 'w+b' at 0x7fdcf4636e40>"
p3522
asbasbasbag69
(g85
g71
NtRp3523
(dp3524
g74
(dp3525
sg83
g2970
sg76
(lp3526
g69
(g90
g71
NtRp3527
(dp3528
g74
(dp3529
g94
g95
ssg83
g3523
sg76
(lp3530
S'wsgi.multiprocess'
p3531
asbag69
(g90
g71
NtRp3532
(dp3533
g74
(dp3534
g101
g102
ssg83
g3523
sg76
(lp3535
S':'
asbag69
(g90
g71
NtRp3536
(dp3537
g74
(dp3538
sg83
g3523
sg76
(lp3539
g69
(g70
g71
NtRp3540
(dp3541
g74
(dp3542
g82
I3
ssg83
g3536
sg76
(lp3543
g112
asbasbasbag69
(g85
g71
NtRp3544
(dp3545
g74
(dp3546
sg83
g2970
sg76
(lp3547
g69
(g90
g71
NtRp3548
(dp3549
g74
(dp3550
g94
g95
ssg83
g3544
sg76
(lp3551
S'wsgi.multithread'
p3552
asbag69
(g90
g71
NtRp3553
(dp3554
g74
(dp3555
g101
g102
ssg83
g3544
sg76
(lp3556
S':'
asbag69
(g90
g71
NtRp3557
(dp3558
g74
(dp3559
sg83
g3544
sg76
(lp3560
g69
(g70
g71
NtRp3561
(dp3562
g74
(dp3563
g82
I3
ssg83
g3557
sg76
(lp3564
g1867
asbasbasbag69
(g85
g71
NtRp3565
(dp3566
g74
(dp3567
sg83
g2970
sg76
(lp3568
g69
(g90
g71
NtRp3569
(dp3570
g74
(dp3571
g94
g95
ssg83
g3565
sg76
(lp3572
S'wsgi.run_once'
p3573
asbag69
(g90
g71
NtRp3574
(dp3575
g74
(dp3576
g101
g102
ssg83
g3565
sg76
(lp3577
S':'
asbag69
(g90
g71
NtRp3578
(dp3579
g74
(dp3580
sg83
g3565
sg76
(lp3581
g69
(g70
g71
NtRp3582
(dp3583
g74
(dp3584
g82
I3
ssg83
g3578
sg76
(lp3585
g112
asbasbasbag69
(g85
g71
NtRp3586
(dp3587
g74
(dp3588
sg83
g2970
sg76
(lp3589
g69
(g90
g71
NtRp3590
(dp3591
g74
(dp3592
g94
g95
ssg83
g3586
sg76
(lp3593
S'wsgi.url_scheme'
p3594
asbag69
(g90
g71
NtRp3595
(dp3596
g74
(dp3597
g101
g102
ssg83
g3586
sg76
(lp3598
S':'
asbag69
(g90
g71
NtRp3599
(dp3600
g74
(dp3601
sg83
g3586
sg76
(lp3602
g69
(g70
g71
NtRp3603
(dp3604
g74
(dp3605
g82
I3
ssg83
g3599
sg76
(lp3606
g1910
asbasbasbag69
(g85
g71
NtRp3607
(dp3608
g74
(dp3609
sg83
g2970
sg76
(lp3610
g69
(g90
g71
NtRp3611
(dp3612
g74
(dp3613
g94
g95
ssg83
g3607
sg76
(lp3614
S'wsgi.version'
p3615
asbag69
(g90
g71
NtRp3616
(dp3617
g74
(dp3618
g101
g102
ssg83
g3607
sg76
(lp3619
S':'
asbag69
(g90
g71
NtRp3620
(dp3621
g74
(dp3622
sg83
g3607
sg76
(lp3623
g69
(g70
g71
NtRp3624
(dp3625
g74
(dp3626
g82
I3
ssg83
g3620
sg76
(lp3627
S'1'
asbasbasbasbasbasbasbasbasbasbasbasbasbsS'frames'
p3628
(lp3629
(dp3630
S'file'
p3631
S'/home/saurabh/web2py/gluon/restricted.py'
p3632
sS'dump'
p3633
(dp3634
S'environment'
p3635
S"{'A': <class 'gluon.html.A'>, 'Auth': <class 'gluon.tools.Auth'>, 'B': <class 'gluon.html.B'>, 'BEAUTIFY': <class 'gluon.html.BEAUTIFY'>, 'BODY': <class 'gluon.html.BODY'>, 'BR': <class 'gluon.html.BR'>, 'BUTTON': <class 'gluon.html.BUTTON'>, 'CAT': <class 'gluon.html.CAT'>, 'CENTER': <class 'gluon.html.CENTER'>, 'CLEANUP': <class 'gluon.validators.CLEANUP'>, ...}"
p3636
sS'ccode'
p3637
S'<code object <module> at 0x7fdcfc30cab0, file "/...pplications/ggg/controllers/default.py", line 13>'
p3638
ssS'lnum'
p3639
I212
sS'lines'
p3640
(dp3641
I207
S'    try:'
p3642
sI208
S'        if isinstance(code, types.CodeType):'
p3643
sI209
S'            ccode = code'
p3644
sI210
S'        else:'
p3645
sI211
S'            ccode = compile2(code, layer)'
p3646
sI212
S'        exec ccode in environment'
p3647
sI213
S'    except HTTP:'
p3648
sI214
S'        raise'
p3649
sI215
S'    except RestrictedError:'
p3650
sI216
S'        # do not encapsulate (obfuscate) the original RestrictedError'
p3651
ssS'call'
p3652
S"(code='# -*- coding: utf-8 -*-\\n# this file is released ...)\\n\\nresponse._vars=response._caller(student_info)\\n', environment={'A': <class 'gluon.html.A'>, 'Auth': <class 'gluon.tools.Auth'>, 'B': <class 'gluon.html.B'>, 'BEAUTIFY': <class 'gluon.html.BEAUTIFY'>, 'BODY': <class 'gluon.html.BODY'>, 'BR': <class 'gluon.html.BR'>, 'BUTTON': <class 'gluon.html.BUTTON'>, 'CAT': <class 'gluon.html.CAT'>, 'CENTER': <class 'gluon.html.CENTER'>, 'CLEANUP': <class 'gluon.validators.CLEANUP'>, ...}, layer='/home/saurabh/web2py/applications/ggg/controllers/default.py')"
p3653
sS'func'
p3654
S'restricted'
p3655
sa(dp3656
g3631
S'/home/saurabh/web2py/applications/ggg/controllers/default.py'
p3657
sg3633
(dp3658
sg3639
I182
sg3640
(dp3659
I171
S''
sI172
S'def show():'
p3660
sI173
S'     a=auth.user.email'
p3661
sI174
S'     k=db(db.questions.stid==a).select(db.questions.obtained_marks)'
p3662
sI175
S'     marks=0'
p3663
sI176
S'     for i in range(len(k)):'
p3664
sI177
S"\t  marks=marks+k[i]['obtained_marks']"
p3665
sI178
S"\t  print 'alpha'"
p3666
sI179
S'          print marks'
p3667
sI180
S'     return dict(marks=marks)'
p3668
ssg3652
S'()'
p3669
sg3654
S'<module>'
p3670
sa(dp3671
g3631
S'/home/saurabh/web2py/gluon/globals.py'
p3672
sg3633
(dp3673
S'self'
p3674
S'undefined'
p3675
sS'f'
S'<function student_info>'
p3676
ssg3639
I193
sg3640
(dp3677
I192
S'        self._vars = None'
p3678
sI193
S'        self._caller = lambda f: f()'
p3679
sI194
S'        self._view_environment = None'
p3680
sI195
S'        self._custom_commit = None'
p3681
sI196
S'        self._custom_rollback = None'
p3682
sI197
S''
sI188
S'        self.menu = []             # used by the default view layout'
p3683
sI189
S'        self.files = []            # used by web2py_ajax.html'
p3684
sI190
S'        self.generic_patterns = []  # patterns to allow generic views'
p3685
sI191
S"        self.delimiters = ('{{', '}}')"
p3686
ssg3652
S'(f=<function student_info>)'
p3687
sg3654
S'<lambda>'
p3688
sa(dp3689
g3631
S'/home/saurabh/web2py/gluon/tools.py'
p3690
sg3633
(dp3691
S'action'
p3692
S'<function student_info>'
p3693
sS'a'
S'()'
p3694
sS'b'
g21
ssg3639
I2929
sg3640
(dp3695
I2924
S'                    flag = condition'
p3696
sI2925
S'                if not flag:'
p3697
sI2926
S'                    current.session.flash = self.messages.access_denied'
p3698
sI2927
S'                    return call_or_redirect('
p3699
sI2928
S'                        self.settings.on_failed_authorization)'
p3700
sI2929
S'                return action(*a, **b)'
p3701
sI2930
S'            f.__doc__ = action.__doc__'
p3702
sI2931
S'            f.__name__ = action.__name__'
p3703
sI2932
S'            f.__dict__.update(action.__dict__)'
p3704
sI2933
S'            return f'
p3705
ssg3652
S'(*a=(), **b={})'
p3706
sg3654
S'f'
sa(dp3707
g3631
S'/home/saurabh/web2py/applications/ggg/controllers/default.py'
p3708
sg3633
(dp3709
S'global request'
p3710
S"<Storage {'function': 'student_info', 'body': <o...-6dcae70c22d4', '_formname': 'student/create'}>}>"
p3711
sS'global session'
p3712
S"<Storage {'last_query': 'db.student.id>0', '_for...login]': '336f5188-a765-4477-ab9f-a2ecac78b5b5'}>"
p3713
sS'form'
p3714
S'<gluon.sqlhtml.SQLFORM object>'
p3715
sS'form.accepts'
p3716
S'<bound method SQLFORM.accepts of <gluon.sqlhtml.SQLFORM object>>'
p3717
ssg3639
I95
sg3640
(dp3718
I96
S'\t  response.flash="Personal Information Successfully Added"'
p3719
sI97
S'     return dict(form=form)'
p3720
sI98
S''
sI99
S'@auth.requires_login()'
p3721
sI90
S'     a=auth.user.email'
p3722
sI91
S'     response.flash=a'
p3723
sI92
S'     form=SQLFORM(db.student)'
p3724
sI93
S'     form.vars.email=a'
p3725
sI94
S'     form.vars.marks=0'
p3726
sI95
S'     if (form.accepts(request,session)):'
p3727
ssg3652
S'()'
p3728
sg3654
S'student_info'
p3729
sa(dp3730
g3631
S'/home/saurabh/web2py/gluon/sqlhtml.py'
p3731
sg3633
(dp3732
S'self.vars.id'
p3733
S'None'
p3734
sS'fields'
p3735
S"{'address': 'sd', 'courses_taken': '1', 'date_of_birth': datetime.date(2013, 3, 11), 'email': 'paari@iiit.ac.in', 'fathers_name': 'sd', 'institution_name': 'd', 'marks': 0, 'mothers_name': 'sd'}"
p3736
sS'self'
p3737
S'<gluon.sqlhtml.SQLFORM object>'
p3738
sS'self.vars'
p3739
S"<Storage {'mothers_name': 'sd', 'marks': 0, 'ins...', 'email': 'paari@iiit.ac.in', 'address': 'sd'}>"
p3740
sS'self.table.insert'
p3741
S'<bound method Table.insert of <Table student (id...ers_name,mothers_name,address,coun,final_marks)>>'
p3742
sS'self.table'
p3743
S'<Table student (id,email,institution_name,course...hers_name,mothers_name,address,coun,final_marks)>'
p3744
ssg3639
I1486
sg3640
(dp3745
I1481
S'                    self.vars.id = self.record[self.id_field_name]'
p3746
sI1482
S'                    if fields:'
p3747
sI1483
S'                        self.table._db(self.table._id == self.record['
p3748
sI1484
S'                                       self.id_field_name]).update(**fields)'
p3749
sI1485
S'                else:'
p3750
sI1486
S'                    self.vars.id = self.table.insert(**fields)'
p3751
sI1487
S'        self.accepted = ret'
p3752
sI1488
S'        return ret'
p3753
sI1489
S''
sI1490
S'    AUTOTYPES = {'
p3754
ssg3652
S"(self=<gluon.sqlhtml.SQLFORM object>, request_vars=<Storage {'mothers_name': 'sd', 'address': 'sd',...b8-6dcae70c22d4', '_formname': 'student/create'}>, session=<Storage {'last_query': 'db.student.id>0', '_for...login]': '336f5188-a765-4477-ab9f-a2ecac78b5b5'}>, formname='student/create', keepvalues=False, onvalidation=None, dbio=True, hideerror=False, detect_record_change=False, **kwargs={})"
p3755
sg3654
S'accepts'
p3756
sa(dp3757
g3631
S'/home/saurabh/web2py/gluon/dal.py'
p3758
sg3633
(dp3759
S'self._listify'
p3760
S'<bound method Table._listify of <Table student (...ers_name,mothers_name,address,coun,final_marks)>>'
p3761
sS'fields'
p3762
S"{'address': 'sd', 'courses_taken': '1', 'date_of_birth': datetime.date(2013, 3, 11), 'email': 'paari@iiit.ac.in', 'fathers_name': 'sd', 'institution_name': 'd', 'marks': 0, 'mothers_name': 'sd'}"
p3763
sS'self'
p3764
S'<Table student (id,email,institution_name,course...hers_name,mothers_name,address,coun,final_marks)>'
p3765
sS'ret'
p3766
g3675
sS'self._db._adapter'
p3767
S'<gluon.dal.SQLiteAdapter object>'
p3768
sS'self._db._adapter.insert'
p3769
S'<bound method SQLiteAdapter.insert of <gluon.dal.SQLiteAdapter object>>'
p3770
sS'self._db'
p3771
S'<DAL uri="sqlite://storage.sqlite">'
p3772
ssg3639
I7918
sg3640
(dp3773
I7913
S'        return self._db._adapter._insert(self,self._listify(fields))'
p3774
sI7914
S''
sI7915
S'    def insert(self, **fields):'
p3775
sI7916
S'        self._attempt_upload(fields)'
p3776
sI7917
S'        if any(f(fields) for f in self._before_insert): return 0'
p3777
sI7918
S'        ret =  self._db._adapter.insert(self,self._listify(fields))'
p3778
sI7919
S'        if ret and self._after_insert:'
p3779
sI7920
S'            fields = Row(fields)'
p3780
sI7921
S'            [f(fields,ret) for f in self._after_insert]'
p3781
sI7922
S'        return ret'
p3782
ssg3652
S"(self=<Table student (id,email,institution_name,course...hers_name,mothers_name,address,coun,final_marks)>, **fields={'address': 'sd', 'courses_taken': '1', 'date_of_birth': datetime.date(2013, 3, 11), 'email': 'paari@iiit.ac.in', 'fathers_name': 'sd', 'institution_name': 'd', 'marks': 0, 'mothers_name': 'sd'})"
p3783
sg3654
S'insert'
p3784
sa(dp3785
g3631
S'/home/saurabh/web2py/gluon/dal.py'
p3786
sg3633
(dp3787
S'name'
p3788
S"'marks'"
p3789
ssg3639
I7856
sg3640
(dp3790
I7851
S'        # store all fields passed as input in new_fields'
p3791
sI7852
S'        for name in fields:'
p3792
sI7853
S'            if not name in self.fields:'
p3793
sI7854
S"                if name != 'id':"
p3794
sI7855
S'                    raise SyntaxError('
p3795
sI7856
S"                        'Field %s does not belong to the table' % name)"
p3796
sI7857
S'            else:'
p3797
sI7858
S'                field = self[name]'
p3798
sI7859
S'                value = fields[name]'
p3799
sI7860
S'                if field.filter_in:'
p3800
ssg3652
S"(self=<Table student (id,email,institution_name,course...hers_name,mothers_name,address,coun,final_marks)>, fields={'address': 'sd', 'courses_taken': '1', 'date_of_birth': datetime.date(2013, 3, 11), 'email': 'paari@iiit.ac.in', 'fathers_name': 'sd', 'institution_name': 'd', 'marks': 0, 'mothers_name': 'sd'}, update=False)"
p3801
sg3654
S'_listify'
p3802
sasS'pyver'
p3803
S'Python 2.7.3: /usr/bin/python'
p3804
sS'session'
p3805
g69
(g70
g71
NtRp3806
(dp3807
g74
(dp3808
sg76
(lp3809
g69
(g78
g71
NtRp3810
(dp3811
g74
(dp3812
g82
I5
ssg83
Nsg76
(lp3813
g69
(g85
g71
NtRp3814
(dp3815
g74
(dp3816
sg83
g3810
sg76
(lp3817
g69
(g90
g71
NtRp3818
(dp3819
g74
(dp3820
g94
g95
ssg83
g3814
sg76
(lp3821
S'auth'
p3822
asbag69
(g90
g71
NtRp3823
(dp3824
g74
(dp3825
g101
g102
ssg83
g3814
sg76
(lp3826
S':'
asbag69
(g90
g71
NtRp3827
(dp3828
g74
(dp3829
sg83
g3814
sg76
(lp3830
g69
(g70
g71
NtRp3831
(dp3832
g74
(dp3833
g82
I5
ssg83
g3827
sg76
(lp3834
g69
(g78
g71
NtRp3835
(dp3836
g74
(dp3837
g82
I4
ssg83
Nsg76
(lp3838
g69
(g85
g71
NtRp3839
(dp3840
g74
(dp3841
sg83
g3835
sg76
(lp3842
g69
(g90
g71
NtRp3843
(dp3844
g74
(dp3845
g94
g95
ssg83
g3839
sg76
(lp3846
S'expiration'
p3847
asbag69
(g90
g71
NtRp3848
(dp3849
g74
(dp3850
g101
g102
ssg83
g3839
sg76
(lp3851
S':'
asbag69
(g90
g71
NtRp3852
(dp3853
g74
(dp3854
sg83
g3839
sg76
(lp3855
g69
(g70
g71
NtRp3856
(dp3857
g74
(dp3858
g82
I4
ssg83
g3852
sg76
(lp3859
S'3600'
p3860
asbasbasbag69
(g85
g71
NtRp3861
(dp3862
g74
(dp3863
sg83
g3835
sg76
(lp3864
g69
(g90
g71
NtRp3865
(dp3866
g74
(dp3867
g94
g95
ssg83
g3861
sg76
(lp3868
S'hmac_key'
p3869
asbag69
(g90
g71
NtRp3870
(dp3871
g74
(dp3872
g101
g102
ssg83
g3861
sg76
(lp3873
S':'
asbag69
(g90
g71
NtRp3874
(dp3875
g74
(dp3876
sg83
g3861
sg76
(lp3877
g69
(g70
g71
NtRp3878
(dp3879
g74
(dp3880
g82
I4
ssg83
g3874
sg76
(lp3881
S'd37cf906-0583-489f-86f3-a85263f94473'
p3882
asbasbasbag69
(g85
g71
NtRp3883
(dp3884
g74
(dp3885
sg83
g3835
sg76
(lp3886
g69
(g90
g71
NtRp3887
(dp3888
g74
(dp3889
g94
g95
ssg83
g3883
sg76
(lp3890
S'last_visit'
p3891
asbag69
(g90
g71
NtRp3892
(dp3893
g74
(dp3894
g101
g102
ssg83
g3883
sg76
(lp3895
S':'
asbag69
(g90
g71
NtRp3896
(dp3897
g74
(dp3898
sg83
g3883
sg76
(lp3899
g69
(g70
g71
NtRp3900
(dp3901
g74
(dp3902
g82
I4
ssg83
g3896
sg76
(lp3903
S'datetime.datetime(2013, 3, 17, 22, 25, 22, 559265)'
p3904
asbasbasbag69
(g85
g71
NtRp3905
(dp3906
g74
(dp3907
sg83
g3835
sg76
(lp3908
g69
(g90
g71
NtRp3909
(dp3910
g74
(dp3911
g94
g95
ssg83
g3905
sg76
(lp3912
S'user'
p3913
asbag69
(g90
g71
NtRp3914
(dp3915
g74
(dp3916
g101
g102
ssg83
g3905
sg76
(lp3917
S':'
asbag69
(g90
g71
NtRp3918
(dp3919
g74
(dp3920
sg83
g3905
sg76
(lp3921
g69
(g70
g71
NtRp3922
(dp3923
g74
(dp3924
g82
I4
ssg83
g3918
sg76
(lp3925
g69
(g78
g71
NtRp3926
(dp3927
g74
(dp3928
g82
I3
ssg83
Nsg76
(lp3929
g69
(g85
g71
NtRp3930
(dp3931
g74
(dp3932
sg83
g3926
sg76
(lp3933
g69
(g90
g71
NtRp3934
(dp3935
g74
(dp3936
g94
g95
ssg83
g3930
sg76
(lp3937
S'email'
p3938
asbag69
(g90
g71
NtRp3939
(dp3940
g74
(dp3941
g101
g102
ssg83
g3930
sg76
(lp3942
S':'
asbag69
(g90
g71
NtRp3943
(dp3944
g74
(dp3945
sg83
g3930
sg76
(lp3946
g69
(g70
g71
NtRp3947
(dp3948
g74
(dp3949
g82
I3
ssg83
g3943
sg76
(lp3950
S'paari@iiit.ac.in'
p3951
asbasbasbag69
(g85
g71
NtRp3952
(dp3953
g74
(dp3954
sg83
g3926
sg76
(lp3955
g69
(g90
g71
NtRp3956
(dp3957
g74
(dp3958
g94
g95
ssg83
g3952
sg76
(lp3959
S'first_name'
p3960
asbag69
(g90
g71
NtRp3961
(dp3962
g74
(dp3963
g101
g102
ssg83
g3952
sg76
(lp3964
S':'
asbag69
(g90
g71
NtRp3965
(dp3966
g74
(dp3967
sg83
g3952
sg76
(lp3968
g69
(g70
g71
NtRp3969
(dp3970
g74
(dp3971
g82
I3
ssg83
g3965
sg76
(lp3972
S'Paritosh'
p3973
asbasbasbag69
(g85
g71
NtRp3974
(dp3975
g74
(dp3976
sg83
g3926
sg76
(lp3977
g69
(g90
g71
NtRp3978
(dp3979
g74
(dp3980
g94
g95
ssg83
g3974
sg76
(lp3981
S'id'
p3982
asbag69
(g90
g71
NtRp3983
(dp3984
g74
(dp3985
g101
g102
ssg83
g3974
sg76
(lp3986
S':'
asbag69
(g90
g71
NtRp3987
(dp3988
g74
(dp3989
sg83
g3974
sg76
(lp3990
g69
(g70
g71
NtRp3991
(dp3992
g74
(dp3993
g82
I3
ssg83
g3987
sg76
(lp3994
S'8'
asbasbasbag69
(g85
g71
NtRp3995
(dp3996
g74
(dp3997
sg83
g3926
sg76
(lp3998
g69
(g90
g71
NtRp3999
(dp4000
g74
(dp4001
g94
g95
ssg83
g3995
sg76
(lp4002
S'last_name'
p4003
asbag69
(g90
g71
NtRp4004
(dp4005
g74
(dp4006
g101
g102
ssg83
g3995
sg76
(lp4007
S':'
asbag69
(g90
g71
NtRp4008
(dp4009
g74
(dp4010
sg83
g3995
sg76
(lp4011
g69
(g70
g71
NtRp4012
(dp4013
g74
(dp4014
g82
I3
ssg83
g4008
sg76
(lp4015
S'Garg'
p4016
asbasbasbag69
(g85
g71
NtRp4017
(dp4018
g74
(dp4019
sg83
g3926
sg76
(lp4020
g69
(g90
g71
NtRp4021
(dp4022
g74
(dp4023
g94
g95
ssg83
g4017
sg76
(lp4024
S'registration_id'
p4025
asbag69
(g90
g71
NtRp4026
(dp4027
g74
(dp4028
g101
g102
ssg83
g4017
sg76
(lp4029
S':'
asbag69
(g90
g71
NtRp4030
(dp4031
g74
(dp4032
sg83
g4017
sg76
(lp4033
g69
(g70
g71
NtRp4034
(dp4035
g74
(dp4036
g82
I3
ssg83
g4030
sg76
(lp4037
S''
asbasbasbag69
(g85
g71
NtRp4038
(dp4039
g74
(dp4040
sg83
g3926
sg76
(lp4041
g69
(g90
g71
NtRp4042
(dp4043
g74
(dp4044
g94
g95
ssg83
g4038
sg76
(lp4045
S'registration_key'
p4046
asbag69
(g90
g71
NtRp4047
(dp4048
g74
(dp4049
g101
g102
ssg83
g4038
sg76
(lp4050
S':'
asbag69
(g90
g71
NtRp4051
(dp4052
g74
(dp4053
sg83
g4038
sg76
(lp4054
g69
(g70
g71
NtRp4055
(dp4056
g74
(dp4057
g82
I3
ssg83
g4051
sg76
(lp4058
S''
asbasbasbag69
(g85
g71
NtRp4059
(dp4060
g74
(dp4061
sg83
g3926
sg76
(lp4062
g69
(g90
g71
NtRp4063
(dp4064
g74
(dp4065
g94
g95
ssg83
g4059
sg76
(lp4066
S'reset_password_key'
p4067
asbag69
(g90
g71
NtRp4068
(dp4069
g74
(dp4070
g101
g102
ssg83
g4059
sg76
(lp4071
S':'
asbag69
(g90
g71
NtRp4072
(dp4073
g74
(dp4074
sg83
g4059
sg76
(lp4075
g69
(g70
g71
NtRp4076
(dp4077
g74
(dp4078
g82
I3
ssg83
g4072
sg76
(lp4079
S''
asbasbasbasbasbasbasbag69
(g85
g71
NtRp4080
(dp4081
g74
(dp4082
sg83
g3835
sg76
(lp4083
g69
(g90
g71
NtRp4084
(dp4085
g74
(dp4086
g94
g95
ssg83
g4080
sg76
(lp4087
S'user_groups'
p4088
asbag69
(g90
g71
NtRp4089
(dp4090
g74
(dp4091
g101
g102
ssg83
g4080
sg76
(lp4092
S':'
asbag69
(g90
g71
NtRp4093
(dp4094
g74
(dp4095
sg83
g4080
sg76
(lp4096
g69
(g70
g71
NtRp4097
(dp4098
g74
(dp4099
g82
I4
ssg83
g4093
sg76
(lp4100
g69
(g78
g71
NtRp4101
(dp4102
g74
(dp4103
g82
I3
ssg83
Nsg76
(lp4104
g69
(g85
g71
NtRp4105
(dp4106
g74
(dp4107
sg83
g4101
sg76
(lp4108
g69
(g90
g71
NtRp4109
(dp4110
g74
(dp4111
g94
g95
ssg83
g4105
sg76
(lp4112
S'8'
asbag69
(g90
g71
NtRp4113
(dp4114
g74
(dp4115
g101
g102
ssg83
g4105
sg76
(lp4116
S':'
asbag69
(g90
g71
NtRp4117
(dp4118
g74
(dp4119
sg83
g4105
sg76
(lp4120
g69
(g70
g71
NtRp4121
(dp4122
g74
(dp4123
g82
I3
ssg83
g4117
sg76
(lp4124
S'user_8'
p4125
asbasbasbasbasbasbasbasbasbasbasbag69
(g85
g71
NtRp4126
(dp4127
g74
(dp4128
sg83
g3810
sg76
(lp4129
g69
(g90
g71
NtRp4130
(dp4131
g74
(dp4132
g94
g95
ssg83
g4126
sg76
(lp4133
S'flash'
p4134
asbag69
(g90
g71
NtRp4135
(dp4136
g74
(dp4137
g101
g102
ssg83
g4126
sg76
(lp4138
S':'
asbag69
(g90
g71
NtRp4139
(dp4140
g74
(dp4141
sg83
g4126
sg76
(lp4142
g69
(g70
g71
NtRp4143
(dp4144
g74
(dp4145
g82
I5
ssg83
g4139
sg76
(lp4146
S'None'
p4147
asbasbasbag69
(g85
g71
NtRp4148
(dp4149
g74
(dp4150
sg83
g3810
sg76
(lp4151
g69
(g90
g71
NtRp4152
(dp4153
g74
(dp4154
g94
g95
ssg83
g4148
sg76
(lp4155
S'last_orderby'
p4156
asbag69
(g90
g71
NtRp4157
(dp4158
g74
(dp4159
g101
g102
ssg83
g4148
sg76
(lp4160
S':'
asbag69
(g90
g71
NtRp4161
(dp4162
g74
(dp4163
sg83
g4148
sg76
(lp4164
g69
(g70
g71
NtRp4165
(dp4166
g74
(dp4167
g82
I5
ssg83
g4161
sg76
(lp4168
S'None'
p4169
asbasbasbag69
(g85
g71
NtRp4170
(dp4171
g74
(dp4172
sg83
g3810
sg76
(lp4173
g69
(g90
g71
NtRp4174
(dp4175
g74
(dp4176
g94
g95
ssg83
g4170
sg76
(lp4177
S'last_query'
p4178
asbag69
(g90
g71
NtRp4179
(dp4180
g74
(dp4181
g101
g102
ssg83
g4170
sg76
(lp4182
S':'
asbag69
(g90
g71
NtRp4183
(dp4184
g74
(dp4185
sg83
g4170
sg76
(lp4186
g69
(g70
g71
NtRp4187
(dp4188
g74
(dp4189
g82
I5
ssg83
g4183
sg76
(lp4190
S'db.student.id>0'
p4191
asbasbasbasbasbsS'etype'
p4192
S"<type 'exceptions.SyntaxError'>"
p4193
sS'date'
p4194
S'Sun Mar 17 22:28:44 2013'
p4195
sS'response'
p4196
g69
(g70
g71
NtRp4197
(dp4198
g74
(dp4199
sg76
(lp4200
g69
(g78
g71
NtRp4201
(dp4202
g74
(dp4203
g82
I5
ssg83
Nsg76
(lp4204
g69
(g85
g71
NtRp4205
(dp4206
g74
(dp4207
sg83
g4201
sg76
(lp4208
g69
(g90
g71
NtRp4209
(dp4210
g74
(dp4211
g94
g95
ssg83
g4205
sg76
(lp4212
g167
asbag69
(g90
g71
NtRp4213
(dp4214
g74
(dp4215
g101
g102
ssg83
g4205
sg76
(lp4216
S':'
asbag69
(g90
g71
NtRp4217
(dp4218
g74
(dp4219
sg83
g4205
sg76
(lp4220
g69
(g70
g71
NtRp4221
(dp4222
g74
(dp4223
g82
I5
ssg83
g4217
sg76
(lp4224
S'<cStringIO.StringO object at 0x7fdd3c130d50>'
p4225
asbasbasbag69
(g85
g71
NtRp4226
(dp4227
g74
(dp4228
sg83
g4201
sg76
(lp4229
g69
(g90
g71
NtRp4230
(dp4231
g74
(dp4232
g94
g95
ssg83
g4226
sg76
(lp4233
g255
asbag69
(g90
g71
NtRp4234
(dp4235
g74
(dp4236
g101
g102
ssg83
g4226
sg76
(lp4237
S':'
asbag69
(g90
g71
NtRp4238
(dp4239
g74
(dp4240
sg83
g4226
sg76
(lp4241
g69
(g70
g71
NtRp4242
(dp4243
g74
(dp4244
g82
I5
ssg83
g4238
sg76
(lp4245
g69
(g78
g71
NtRp4246
(dp4247
g74
(dp4248
g82
I4
ssg83
Nsg76
(lp4249
g69
(g85
g71
NtRp4250
(dp4251
g74
(dp4252
sg83
g4246
sg76
(lp4253
g69
(g90
g71
NtRp4254
(dp4255
g74
(dp4256
g94
g95
ssg83
g4250
sg76
(lp4257
S'session_id_ggg'
p4258
asbag69
(g90
g71
NtRp4259
(dp4260
g74
(dp4261
g101
g102
ssg83
g4250
sg76
(lp4262
S':'
asbag69
(g90
g71
NtRp4263
(dp4264
g74
(dp4265
sg83
g4250
sg76
(lp4266
g69
(g70
g71
NtRp4267
(dp4268
g74
(dp4269
g82
I4
ssg83
g4263
sg76
(lp4270
g487
ag69
(g78
g71
NtRp4271
(dp4272
g74
(dp4273
g82
I3
ssg83
Nsg76
(lp4274
g69
(g85
g71
NtRp4275
(dp4276
g74
(dp4277
sg83
g4271
sg76
(lp4278
g69
(g90
g71
NtRp4279
(dp4280
g74
(dp4281
g94
g95
ssg83
g4275
sg76
(lp4282
g306
asbag69
(g90
g71
NtRp4283
(dp4284
g74
(dp4285
g101
g102
ssg83
g4275
sg76
(lp4286
S':'
asbag69
(g90
g71
NtRp4287
(dp4288
g74
(dp4289
sg83
g4275
sg76
(lp4290
g69
(g70
g71
NtRp4291
(dp4292
g74
(dp4293
g82
I3
ssg83
g4287
sg76
(lp4294
S''
asbasbasbag69
(g85
g71
NtRp4295
(dp4296
g74
(dp4297
sg83
g4271
sg76
(lp4298
g69
(g90
g71
NtRp4299
(dp4300
g74
(dp4301
g94
g95
ssg83
g4295
sg76
(lp4302
g327
asbag69
(g90
g71
NtRp4303
(dp4304
g74
(dp4305
g101
g102
ssg83
g4295
sg76
(lp4306
S':'
asbag69
(g90
g71
NtRp4307
(dp4308
g74
(dp4309
sg83
g4295
sg76
(lp4310
g69
(g70
g71
NtRp4311
(dp4312
g74
(dp4313
g82
I3
ssg83
g4307
sg76
(lp4314
S''
asbasbasbag69
(g85
g71
NtRp4315
(dp4316
g74
(dp4317
sg83
g4271
sg76
(lp4318
g69
(g90
g71
NtRp4319
(dp4320
g74
(dp4321
g94
g95
ssg83
g4315
sg76
(lp4322
g348
asbag69
(g90
g71
NtRp4323
(dp4324
g74
(dp4325
g101
g102
ssg83
g4315
sg76
(lp4326
S':'
asbag69
(g90
g71
NtRp4327
(dp4328
g74
(dp4329
sg83
g4315
sg76
(lp4330
g69
(g70
g71
NtRp4331
(dp4332
g74
(dp4333
g82
I3
ssg83
g4327
sg76
(lp4334
S''
asbasbasbag69
(g85
g71
NtRp4335
(dp4336
g74
(dp4337
sg83
g4271
sg76
(lp4338
g69
(g90
g71
NtRp4339
(dp4340
g74
(dp4341
g94
g95
ssg83
g4335
sg76
(lp4342
g369
asbag69
(g90
g71
NtRp4343
(dp4344
g74
(dp4345
g101
g102
ssg83
g4335
sg76
(lp4346
S':'
asbag69
(g90
g71
NtRp4347
(dp4348
g74
(dp4349
sg83
g4335
sg76
(lp4350
g69
(g70
g71
NtRp4351
(dp4352
g74
(dp4353
g82
I3
ssg83
g4347
sg76
(lp4354
S''
asbasbasbag69
(g85
g71
NtRp4355
(dp4356
g74
(dp4357
sg83
g4271
sg76
(lp4358
g69
(g90
g71
NtRp4359
(dp4360
g74
(dp4361
g94
g95
ssg83
g4355
sg76
(lp4362
g390
asbag69
(g90
g71
NtRp4363
(dp4364
g74
(dp4365
g101
g102
ssg83
g4355
sg76
(lp4366
S':'
asbag69
(g90
g71
NtRp4367
(dp4368
g74
(dp4369
sg83
g4355
sg76
(lp4370
g69
(g70
g71
NtRp4371
(dp4372
g74
(dp4373
g82
I3
ssg83
g4367
sg76
(lp4374
S''
asbasbasbag69
(g85
g71
NtRp4375
(dp4376
g74
(dp4377
sg83
g4271
sg76
(lp4378
g69
(g90
g71
NtRp4379
(dp4380
g74
(dp4381
g94
g95
ssg83
g4375
sg76
(lp4382
g411
asbag69
(g90
g71
NtRp4383
(dp4384
g74
(dp4385
g101
g102
ssg83
g4375
sg76
(lp4386
S':'
asbag69
(g90
g71
NtRp4387
(dp4388
g74
(dp4389
sg83
g4375
sg76
(lp4390
g69
(g70
g71
NtRp4391
(dp4392
g74
(dp4393
g82
I3
ssg83
g4387
sg76
(lp4394
S'/'
asbasbasbag69
(g85
g71
NtRp4395
(dp4396
g74
(dp4397
sg83
g4271
sg76
(lp4398
g69
(g90
g71
NtRp4399
(dp4400
g74
(dp4401
g94
g95
ssg83
g4395
sg76
(lp4402
g432
asbag69
(g90
g71
NtRp4403
(dp4404
g74
(dp4405
g101
g102
ssg83
g4395
sg76
(lp4406
S':'
asbag69
(g90
g71
NtRp4407
(dp4408
g74
(dp4409
sg83
g4395
sg76
(lp4410
g69
(g70
g71
NtRp4411
(dp4412
g74
(dp4413
g82
I3
ssg83
g4407
sg76
(lp4414
S''
asbasbasbag69
(g85
g71
NtRp4415
(dp4416
g74
(dp4417
sg83
g4271
sg76
(lp4418
g69
(g90
g71
NtRp4419
(dp4420
g74
(dp4421
g94
g95
ssg83
g4415
sg76
(lp4422
g453
asbag69
(g90
g71
NtRp4423
(dp4424
g74
(dp4425
g101
g102
ssg83
g4415
sg76
(lp4426
S':'
asbag69
(g90
g71
NtRp4427
(dp4428
g74
(dp4429
sg83
g4415
sg76
(lp4430
g69
(g70
g71
NtRp4431
(dp4432
g74
(dp4433
g82
I3
ssg83
g4427
sg76
(lp4434
S''
asbasbasbasbasbasbasbasbasbasbasbag69
(g85
g71
NtRp4435
(dp4436
g74
(dp4437
sg83
g4201
sg76
(lp4438
g69
(g90
g71
NtRp4439
(dp4440
g74
(dp4441
g94
g95
ssg83
g4435
sg76
(lp4442
S'delimiters'
p4443
asbag69
(g90
g71
NtRp4444
(dp4445
g74
(dp4446
g101
g102
ssg83
g4435
sg76
(lp4447
S':'
asbag69
(g90
g71
NtRp4448
(dp4449
g74
(dp4450
sg83
g4435
sg76
(lp4451
g69
(g70
g71
NtRp4452
(dp4453
g74
(dp4454
g82
I5
ssg83
g4448
sg76
(lp4455
g69
(g78
g71
NtRp4456
(dp4457
g74
(dp4458
g82
I4
ssg83
Nsg76
(lp4459
g69
(g85
g71
NtRp4460
(dp4461
g74
(dp4462
sg83
g4456
sg76
(lp4463
g69
(g90
g71
NtRp4464
(dp4465
g74
(dp4466
sg83
g4460
sg76
(lp4467
g69
(g70
g71
NtRp4468
(dp4469
g74
(dp4470
g82
I4
ssg83
g4464
sg76
(lp4471
S'{{'
p4472
asbasbasbag69
(g85
g71
NtRp4473
(dp4474
g74
(dp4475
sg83
g4456
sg76
(lp4476
g69
(g90
g71
NtRp4477
(dp4478
g74
(dp4479
sg83
g4473
sg76
(lp4480
g69
(g70
g71
NtRp4481
(dp4482
g74
(dp4483
g82
I4
ssg83
g4477
sg76
(lp4484
S'}}'
p4485
asbasbasbasbasbasbasbag69
(g85
g71
NtRp4486
(dp4487
g74
(dp4488
sg83
g4201
sg76
(lp4489
g69
(g90
g71
NtRp4490
(dp4491
g74
(dp4492
g94
g95
ssg83
g4486
sg76
(lp4493
S'files'
p4494
asbag69
(g90
g71
NtRp4495
(dp4496
g74
(dp4497
g101
g102
ssg83
g4486
sg76
(lp4498
S':'
asbag69
(g90
g71
NtRp4499
(dp4500
g74
(dp4501
sg83
g4486
sg76
(lp4502
g69
(g70
g71
NtRp4503
(dp4504
g74
(dp4505
g82
I5
ssg83
g4499
sg76
(lp4506
g69
(g78
g71
NtRp4507
(dp4508
g74
(dp4509
g82
I4
ssg83
Nsg76
(lp4510
sbasbasbasbag69
(g85
g71
NtRp4511
(dp4512
g74
(dp4513
sg83
g4201
sg76
(lp4514
g69
(g90
g71
NtRp4515
(dp4516
g74
(dp4517
g94
g95
ssg83
g4511
sg76
(lp4518
S'flash'
p4519
asbag69
(g90
g71
NtRp4520
(dp4521
g74
(dp4522
g101
g102
ssg83
g4511
sg76
(lp4523
S':'
asbag69
(g90
g71
NtRp4524
(dp4525
g74
(dp4526
sg83
g4511
sg76
(lp4527
g69
(g70
g71
NtRp4528
(dp4529
g74
(dp4530
g82
I5
ssg83
g4524
sg76
(lp4531
g3951
asbasbasbag69
(g85
g71
NtRp4532
(dp4533
g74
(dp4534
sg83
g4201
sg76
(lp4535
g69
(g90
g71
NtRp4536
(dp4537
g74
(dp4538
g94
g95
ssg83
g4532
sg76
(lp4539
S'generic_patterns'
p4540
asbag69
(g90
g71
NtRp4541
(dp4542
g74
(dp4543
g101
g102
ssg83
g4532
sg76
(lp4544
S':'
asbag69
(g90
g71
NtRp4545
(dp4546
g74
(dp4547
sg83
g4532
sg76
(lp4548
g69
(g70
g71
NtRp4549
(dp4550
g74
(dp4551
g82
I5
ssg83
g4545
sg76
(lp4552
g69
(g78
g71
NtRp4553
(dp4554
g74
(dp4555
g82
I4
ssg83
Nsg76
(lp4556
g69
(g85
g71
NtRp4557
(dp4558
g74
(dp4559
sg83
g4553
sg76
(lp4560
g69
(g90
g71
NtRp4561
(dp4562
g74
(dp4563
sg83
g4557
sg76
(lp4564
g69
(g70
g71
NtRp4565
(dp4566
g74
(dp4567
g82
I4
ssg83
g4561
sg76
(lp4568
S'*'
asbasbasbasbasbasbasbag69
(g85
g71
NtRp4569
(dp4570
g74
(dp4571
sg83
g4201
sg76
(lp4572
g69
(g90
g71
NtRp4573
(dp4574
g74
(dp4575
g94
g95
ssg83
g4569
sg76
(lp4576
S'google_analytics_id'
p4577
asbag69
(g90
g71
NtRp4578
(dp4579
g74
(dp4580
g101
g102
ssg83
g4569
sg76
(lp4581
S':'
asbag69
(g90
g71
NtRp4582
(dp4583
g74
(dp4584
sg83
g4569
sg76
(lp4585
g69
(g70
g71
NtRp4586
(dp4587
g74
(dp4588
g82
I5
ssg83
g4582
sg76
(lp4589
S'None'
p4590
asbasbasbag69
(g85
g71
NtRp4591
(dp4592
g74
(dp4593
sg83
g4201
sg76
(lp4594
g69
(g90
g71
NtRp4595
(dp4596
g74
(dp4597
g94
g95
ssg83
g4591
sg76
(lp4598
S'headers'
p4599
asbag69
(g90
g71
NtRp4600
(dp4601
g74
(dp4602
g101
g102
ssg83
g4591
sg76
(lp4603
S':'
asbag69
(g90
g71
NtRp4604
(dp4605
g74
(dp4606
sg83
g4591
sg76
(lp4607
g69
(g70
g71
NtRp4608
(dp4609
g74
(dp4610
g82
I5
ssg83
g4604
sg76
(lp4611
g69
(g78
g71
NtRp4612
(dp4613
g74
(dp4614
g82
I4
ssg83
Nsg76
(lp4615
g69
(g85
g71
NtRp4616
(dp4617
g74
(dp4618
sg83
g4612
sg76
(lp4619
g69
(g90
g71
NtRp4620
(dp4621
g74
(dp4622
g94
g95
ssg83
g4616
sg76
(lp4623
S'X-Powered-By'
p4624
asbag69
(g90
g71
NtRp4625
(dp4626
g74
(dp4627
g101
g102
ssg83
g4616
sg76
(lp4628
S':'
asbag69
(g90
g71
NtRp4629
(dp4630
g74
(dp4631
sg83
g4616
sg76
(lp4632
g69
(g70
g71
NtRp4633
(dp4634
g74
(dp4635
g82
I4
ssg83
g4629
sg76
(lp4636
S'web2py'
p4637
asbasbasbasbasbasbasbag69
(g85
g71
NtRp4638
(dp4639
g74
(dp4640
sg83
g4201
sg76
(lp4641
g69
(g90
g71
NtRp4642
(dp4643
g74
(dp4644
g94
g95
ssg83
g4638
sg76
(lp4645
S'logo'
p4646
asbag69
(g90
g71
NtRp4647
(dp4648
g74
(dp4649
g101
g102
ssg83
g4638
sg76
(lp4650
S':'
asbag69
(g90
g71
NtRp4651
(dp4652
g74
(dp4653
sg83
g4638
sg76
(lp4654
g69
(g70
g71
NtRp4655
(dp4656
g74
(dp4657
g82
I5
ssg83
g4651
sg76
(lp4658
g69
(cgluon.html
A
p4659
g71
NtRp4660
(dp4661
g74
(dp4662
S'_class'
p4663
S'brand'
p4664
sS'_href'
p4665
S'http://www.web2py.com/'
p4666
ssg83
Nsg76
(lp4667
g69
(cgluon.html
B
p4668
g71
NtRp4669
(dp4670
g74
(dp4671
sg83
g4660
sg76
(lp4672
S'web'
p4673
ag69
(cgluon.html
SPAN
p4674
g71
NtRp4675
(dp4676
g74
(dp4677
sg83
g4669
sg76
(lp4678
I2
asbaS'py'
p4679
asbacgluon.html
XML_unpickle
p4680
(S's\r\x00\x00\x00&trade;&nbsp;'
tRp4681
asbasbasbasbag69
(g85
g71
NtRp4682
(dp4683
g74
(dp4684
sg83
g4201
sg76
(lp4685
g69
(g90
g71
NtRp4686
(dp4687
g74
(dp4688
g94
g95
ssg83
g4682
sg76
(lp4689
S'menu'
p4690
asbag69
(g90
g71
NtRp4691
(dp4692
g74
(dp4693
g101
g102
ssg83
g4682
sg76
(lp4694
S':'
asbag69
(g90
g71
NtRp4695
(dp4696
g74
(dp4697
sg83
g4682
sg76
(lp4698
g69
(g70
g71
NtRp4699
(dp4700
g74
(dp4701
g82
I5
ssg83
g4695
sg76
(lp4702
g69
(g78
g71
NtRp4703
(dp4704
g74
(dp4705
g82
I4
ssg83
Nsg76
(lp4706
g69
(g85
g71
NtRp4707
(dp4708
g74
(dp4709
sg83
g4703
sg76
(lp4710
g69
(g90
g71
NtRp4711
(dp4712
g74
(dp4713
sg83
g4707
sg76
(lp4714
g69
(g70
g71
NtRp4715
(dp4716
g74
(dp4717
g82
I4
ssg83
g4711
sg76
(lp4718
g69
(g78
g71
NtRp4719
(dp4720
g74
(dp4721
g82
I3
ssg83
Nsg76
(lp4722
g69
(g85
g71
NtRp4723
(dp4724
g74
(dp4725
sg83
g4719
sg76
(lp4726
g69
(g90
g71
NtRp4727
(dp4728
g74
(dp4729
sg83
g4723
sg76
(lp4730
g69
(g70
g71
NtRp4731
(dp4732
g74
(dp4733
g82
I3
ssg83
g4727
sg76
(lp4734
cgluon.languages
lazyT_unpickle
p4735
(S's\x04\x00\x00\x00Home'
tRp4736
asbasbasbag69
(g85
g71
NtRp4737
(dp4738
g74
(dp4739
sg83
g4719
sg76
(lp4740
g69
(g90
g71
NtRp4741
(dp4742
g74
(dp4743
sg83
g4737
sg76
(lp4744
g69
(g70
g71
NtRp4745
(dp4746
g74
(dp4747
g82
I3
ssg83
g4741
sg76
(lp4748
g112
asbasbasbag69
(g85
g71
NtRp4749
(dp4750
g74
(dp4751
sg83
g4719
sg76
(lp4752
g69
(g90
g71
NtRp4753
(dp4754
g74
(dp4755
sg83
g4749
sg76
(lp4756
g69
(g70
g71
NtRp4757
(dp4758
g74
(dp4759
g82
I3
ssg83
g4753
sg76
(lp4760
S'/ggg/default/index'
p4761
asbasbasbag69
(g85
g71
NtRp4762
(dp4763
g74
(dp4764
sg83
g4719
sg76
(lp4765
g69
(g90
g71
NtRp4766
(dp4767
g74
(dp4768
sg83
g4762
sg76
(lp4769
g69
(g70
g71
NtRp4770
(dp4771
g74
(dp4772
g82
I3
ssg83
g4766
sg76
(lp4773
g69
(g78
g71
NtRp4774
(dp4775
g74
(dp4776
g82
I2
ssg83
Nsg76
(lp4777
sbasbasbasbasbasbasbasbag69
(g85
g71
NtRp4778
(dp4779
g74
(dp4780
sg83
g4703
sg76
(lp4781
g69
(g90
g71
NtRp4782
(dp4783
g74
(dp4784
sg83
g4778
sg76
(lp4785
g69
(g70
g71
NtRp4786
(dp4787
g74
(dp4788
g82
I4
ssg83
g4782
sg76
(lp4789
g69
(g78
g71
NtRp4790
(dp4791
g74
(dp4792
g82
I3
ssg83
Nsg76
(lp4793
g69
(g85
g71
NtRp4794
(dp4795
g74
(dp4796
sg83
g4790
sg76
(lp4797
g69
(g90
g71
NtRp4798
(dp4799
g74
(dp4800
sg83
g4794
sg76
(lp4801
g69
(g70
g71
NtRp4802
(dp4803
g74
(dp4804
g82
I3
ssg83
g4798
sg76
(lp4805
g69
(g4674
g71
NtRp4806
(dp4807
g74
(dp4808
g4663
S'highlighted'
p4809
ssg83
Nsg76
(lp4810
g4637
asbasbasbasbag69
(g85
g71
NtRp4811
(dp4812
g74
(dp4813
sg83
g4790
sg76
(lp4814
g69
(g90
g71
NtRp4815
(dp4816
g74
(dp4817
sg83
g4811
sg76
(lp4818
g69
(g70
g71
NtRp4819
(dp4820
g74
(dp4821
g82
I3
ssg83
g4815
sg76
(lp4822
g112
asbasbasbag69
(g85
g71
NtRp4823
(dp4824
g74
(dp4825
sg83
g4790
sg76
(lp4826
g69
(g90
g71
NtRp4827
(dp4828
g74
(dp4829
sg83
g4823
sg76
(lp4830
g69
(g70
g71
NtRp4831
(dp4832
g74
(dp4833
g82
I3
ssg83
g4827
sg76
(lp4834
S'http://web2py.com'
p4835
asbasbasbag69
(g85
g71
NtRp4836
(dp4837
g74
(dp4838
sg83
g4790
sg76
(lp4839
g69
(g90
g71
NtRp4840
(dp4841
g74
(dp4842
sg83
g4836
sg76
(lp4843
g69
(g70
g71
NtRp4844
(dp4845
g74
(dp4846
g82
I3
ssg83
g4840
sg76
(lp4847
g69
(g78
g71
NtRp4848
(dp4849
g74
(dp4850
g82
I2
ssg83
Nsg76
(lp4851
g69
(g85
g71
NtRp4852
(dp4853
g74
(dp4854
sg83
g4848
sg76
(lp4855
g69
(g90
g71
NtRp4856
(dp4857
g74
(dp4858
sg83
g4852
sg76
(lp4859
g69
(g70
g71
NtRp4860
(dp4861
g74
(dp4862
g82
I2
ssg83
g4856
sg76
(lp4863
g69
(g78
g71
NtRp4864
(dp4865
g74
(dp4866
g82
I1
ssg83
Nsg76
(lp4867
g69
(g85
g71
NtRp4868
(dp4869
g74
(dp4870
sg83
g4864
sg76
(lp4871
g69
(g90
g71
NtRp4872
(dp4873
g74
(dp4874
sg83
g4868
sg76
(lp4875
g69
(g70
g71
NtRp4876
(dp4877
g74
(dp4878
g82
I1
ssg83
g4872
sg76
(lp4879
g4735
(S's\x08\x00\x00\x00My Sites'
tRp4880
asbasbasbag69
(g85
g71
NtRp4881
(dp4882
g74
(dp4883
sg83
g4864
sg76
(lp4884
g69
(g90
g71
NtRp4885
(dp4886
g74
(dp4887
sg83
g4881
sg76
(lp4888
g69
(g70
g71
NtRp4889
(dp4890
g74
(dp4891
g82
I1
ssg83
g4885
sg76
(lp4892
I00
asbasbasbag69
(g85
g71
NtRp4893
(dp4894
g74
(dp4895
sg83
g4864
sg76
(lp4896
g69
(g90
g71
NtRp4897
(dp4898
g74
(dp4899
sg83
g4893
sg76
(lp4900
g69
(g70
g71
NtRp4901
(dp4902
g74
(dp4903
g82
I1
ssg83
g4897
sg76
(lp4904
S'/admin/default/site'
p4905
asbasbasbasbasbasbasbag69
(g85
g71
NtRp4906
(dp4907
g74
(dp4908
sg83
g4848
sg76
(lp4909
g69
(g90
g71
NtRp4910
(dp4911
g74
(dp4912
sg83
g4906
sg76
(lp4913
g69
(g70
g71
NtRp4914
(dp4915
g74
(dp4916
g82
I2
ssg83
g4910
sg76
(lp4917
g69
(g78
g71
NtRp4918
(dp4919
g74
(dp4920
g82
I1
ssg83
Nsg76
(lp4921
g69
(g85
g71
NtRp4922
(dp4923
g74
(dp4924
sg83
g4918
sg76
(lp4925
g69
(g90
g71
NtRp4926
(dp4927
g74
(dp4928
sg83
g4922
sg76
(lp4929
g69
(g70
g71
NtRp4930
(dp4931
g74
(dp4932
g82
I1
ssg83
g4926
sg76
(lp4933
g4735
(S's\x08\x00\x00\x00This App'
tRp4934
asbasbasbag69
(g85
g71
NtRp4935
(dp4936
g74
(dp4937
sg83
g4918
sg76
(lp4938
g69
(g90
g71
NtRp4939
(dp4940
g74
(dp4941
sg83
g4935
sg76
(lp4942
g69
(g70
g71
NtRp4943
(dp4944
g74
(dp4945
g82
I1
ssg83
g4939
sg76
(lp4946
I00
asbasbasbag69
(g85
g71
NtRp4947
(dp4948
g74
(dp4949
sg83
g4918
sg76
(lp4950
g69
(g90
g71
NtRp4951
(dp4952
g74
(dp4953
sg83
g4947
sg76
(lp4954
g69
(g70
g71
NtRp4955
(dp4956
g74
(dp4957
g82
I1
ssg83
g4951
sg76
(lp4958
S'/admin/default/design/ggg'
p4959
asbasbasbag69
(g85
g71
NtRp4960
(dp4961
g74
(dp4962
sg83
g4918
sg76
(lp4963
g69
(g90
g71
NtRp4964
(dp4965
g74
(dp4966
sg83
g4960
sg76
(lp4967
g69
(g70
g71
NtRp4968
(dp4969
g74
(dp4970
g82
I1
ssg83
g4964
sg76
(lp4971
(lp4972
(g4735
(S's\n\x00\x00\x00Controller'
tRp4973
I00
S'/admin/default/edit/ggg/controllers/default.py'
tp4974
a(g4735
(S's\x04\x00\x00\x00View'
tRp4975
I00
S'/admin/default/edit/ggg/views/default/student_info.html'
tp4976
a(g4735
(S's\x06\x00\x00\x00Layout'
tRp4977
I00
S'/admin/default/edit/ggg/views/layout.html'
tp4978
a(g4735
(S's\n\x00\x00\x00Stylesheet'
tRp4979
I00
S'/admin/default/edit/ggg/static/css/web2py.css'
tp4980
a(g4735
(S's\x08\x00\x00\x00DB Model'
tRp4981
I00
S'/admin/default/edit/ggg/models/db.py'
tp4982
a(g4735
(S's\n\x00\x00\x00Menu Model'
tRp4983
I00
S'/admin/default/edit/ggg/models/menu.py'
tp4984
a(g4735
(S's\x08\x00\x00\x00Database'
tRp4985
I00
S'/ggg/appadmin/index'
tp4986
a(g4735
(S's\x06\x00\x00\x00Errors'
tRp4987
I00
S'/admin/default/errors/ggg'
tp4988
a(g4735
(S's\x05\x00\x00\x00About'
tRp4989
I00
S'/admin/default/about/ggg'
tp4990
aasbasbasbasbasbasbasbag69
(g85
g71
NtRp4991
(dp4992
g74
(dp4993
sg83
g4848
sg76
(lp4994
g69
(g90
g71
NtRp4995
(dp4996
g74
(dp4997
sg83
g4991
sg76
(lp4998
g69
(g70
g71
NtRp4999
(dp5000
g74
(dp5001
g82
I2
ssg83
g4995
sg76
(lp5002
g69
(g78
g71
NtRp5003
(dp5004
g74
(dp5005
g82
I1
ssg83
Nsg76
(lp5006
g69
(g85
g71
NtRp5007
(dp5008
g74
(dp5009
sg83
g5003
sg76
(lp5010
g69
(g90
g71
NtRp5011
(dp5012
g74
(dp5013
sg83
g5007
sg76
(lp5014
g69
(g70
g71
NtRp5015
(dp5016
g74
(dp5017
g82
I1
ssg83
g5011
sg76
(lp5018
S'web2py.com'
p5019
asbasbasbag69
(g85
g71
NtRp5020
(dp5021
g74
(dp5022
sg83
g5003
sg76
(lp5023
g69
(g90
g71
NtRp5024
(dp5025
g74
(dp5026
sg83
g5020
sg76
(lp5027
g69
(g70
g71
NtRp5028
(dp5029
g74
(dp5030
g82
I1
ssg83
g5024
sg76
(lp5031
I00
asbasbasbag69
(g85
g71
NtRp5032
(dp5033
g74
(dp5034
sg83
g5003
sg76
(lp5035
g69
(g90
g71
NtRp5036
(dp5037
g74
(dp5038
sg83
g5032
sg76
(lp5039
g69
(g70
g71
NtRp5040
(dp5041
g74
(dp5042
g82
I1
ssg83
g5036
sg76
(lp5043
S'http://www.web2py.com'
p5044
asbasbasbag69
(g85
g71
NtRp5045
(dp5046
g74
(dp5047
sg83
g5003
sg76
(lp5048
g69
(g90
g71
NtRp5049
(dp5050
g74
(dp5051
sg83
g5045
sg76
(lp5052
g69
(g70
g71
NtRp5053
(dp5054
g74
(dp5055
g82
I1
ssg83
g5049
sg76
(lp5056
(lp5057
(g4735
(S's\x08\x00\x00\x00Download'
tRp5058
I00
S'http://www.web2py.com/examples/default/download'
p5059
tp5060
a(g4735
(S's\x07\x00\x00\x00Support'
tRp5061
I00
S'http://www.web2py.com/examples/default/support'
p5062
tp5063
a(g4735
(S's\x04\x00\x00\x00Demo'
tRp5064
I00
S'http://web2py.com/demo_admin'
p5065
tp5066
a(g4735
(S's\x0e\x00\x00\x00Quick Examples'
tRp5067
I00
S'http://web2py.com/examples/default/examples'
p5068
tp5069
a(g4735
(S's\x03\x00\x00\x00FAQ'
tRp5070
I00
S'http://web2py.com/AlterEgo'
p5071
tp5072
a(g4735
(S's\x06\x00\x00\x00Videos'
tRp5073
I00
S'http://www.web2py.com/examples/default/videos/'
p5074
tp5075
a(g4735
(S's\x11\x00\x00\x00Free Applications'
tRp5076
I00
S'http://web2py.com/appliances'
p5077
tp5078
a(g4735
(S's\x07\x00\x00\x00Plugins'
tRp5079
I00
S'http://web2py.com/plugins'
p5080
tp5081
a(g4735
(S's\x07\x00\x00\x00Layouts'
tRp5082
I00
S'http://web2py.com/layouts'
p5083
tp5084
a(g4735
(S's\x07\x00\x00\x00Recipes'
tRp5085
I00
S'http://web2pyslices.com/'
p5086
tp5087
a(g4735
(S's\x08\x00\x00\x00Semantic'
tRp5088
I00
S'http://web2py.com/semantic'
p5089
tp5090
aasbasbasbasbasbasbasbag69
(g85
g71
NtRp5091
(dp5092
g74
(dp5093
sg83
g4848
sg76
(lp5094
g69
(g90
g71
NtRp5095
(dp5096
g74
(dp5097
sg83
g5091
sg76
(lp5098
g69
(g70
g71
NtRp5099
(dp5100
g74
(dp5101
g82
I2
ssg83
g5095
sg76
(lp5102
g69
(g78
g71
NtRp5103
(dp5104
g74
(dp5105
g82
I1
ssg83
Nsg76
(lp5106
g69
(g85
g71
NtRp5107
(dp5108
g74
(dp5109
sg83
g5103
sg76
(lp5110
g69
(g90
g71
NtRp5111
(dp5112
g74
(dp5113
sg83
g5107
sg76
(lp5114
g69
(g70
g71
NtRp5115
(dp5116
g74
(dp5117
g82
I1
ssg83
g5111
sg76
(lp5118
g4735
(S's\r\x00\x00\x00Documentation'
tRp5119
asbasbasbag69
(g85
g71
NtRp5120
(dp5121
g74
(dp5122
sg83
g5103
sg76
(lp5123
g69
(g90
g71
NtRp5124
(dp5125
g74
(dp5126
sg83
g5120
sg76
(lp5127
g69
(g70
g71
NtRp5128
(dp5129
g74
(dp5130
g82
I1
ssg83
g5124
sg76
(lp5131
I00
asbasbasbag69
(g85
g71
NtRp5132
(dp5133
g74
(dp5134
sg83
g5103
sg76
(lp5135
g69
(g90
g71
NtRp5136
(dp5137
g74
(dp5138
sg83
g5132
sg76
(lp5139
g69
(g70
g71
NtRp5140
(dp5141
g74
(dp5142
g82
I1
ssg83
g5136
sg76
(lp5143
S'http://www.web2py.com/book'
p5144
asbasbasbag69
(g85
g71
NtRp5145
(dp5146
g74
(dp5147
sg83
g5103
sg76
(lp5148
g69
(g90
g71
NtRp5149
(dp5150
g74
(dp5151
sg83
g5145
sg76
(lp5152
g69
(g70
g71
NtRp5153
(dp5154
g74
(dp5155
g82
I1
ssg83
g5149
sg76
(lp5156
(lp5157
(g4735
(S's\x07\x00\x00\x00Preface'
tRp5158
I00
S'http://www.web2py.com/book/default/chapter/00'
p5159
tp5160
a(g4735
(S's\x0c\x00\x00\x00Introduction'
tRp5161
I00
S'http://www.web2py.com/book/default/chapter/01'
p5162
tp5163
a(g4735
(S's\x06\x00\x00\x00Python'
tRp5164
I00
S'http://www.web2py.com/book/default/chapter/02'
p5165
tp5166
a(g4735
(S's\x08\x00\x00\x00Overview'
tRp5167
I00
S'http://www.web2py.com/book/default/chapter/03'
p5168
tp5169
a(g4735
(S's\x08\x00\x00\x00The Core'
tRp5170
I00
S'http://www.web2py.com/book/default/chapter/04'
p5171
tp5172
a(g4735
(S's\t\x00\x00\x00The Views'
tRp5173
I00
S'http://www.web2py.com/book/default/chapter/05'
p5174
tp5175
a(g4735
(S's\x08\x00\x00\x00Database'
tRp5176
I00
S'http://www.web2py.com/book/default/chapter/06'
p5177
tp5178
a(g4735
(S's\x14\x00\x00\x00Forms and Validators'
tRp5179
I00
S'http://www.web2py.com/book/default/chapter/07'
p5180
tp5181
a(g4735
(S's\r\x00\x00\x00Email and SMS'
tRp5182
I00
S'http://www.web2py.com/book/default/chapter/08'
p5183
tp5184
a(g4735
(S's\x0e\x00\x00\x00Access Control'
tRp5185
I00
S'http://www.web2py.com/book/default/chapter/09'
p5186
tp5187
a(g4735
(S's\x08\x00\x00\x00Services'
tRp5188
I00
S'http://www.web2py.com/book/default/chapter/10'
p5189
tp5190
a(g4735
(S's\x0c\x00\x00\x00Ajax Recipes'
tRp5191
I00
S'http://www.web2py.com/book/default/chapter/11'
p5192
tp5193
a(g4735
(S's\x16\x00\x00\x00Components and Plugins'
tRp5194
I00
S'http://www.web2py.com/book/default/chapter/12'
p5195
tp5196
a(g4735
(S's\x12\x00\x00\x00Deployment Recipes'
tRp5197
I00
S'http://www.web2py.com/book/default/chapter/13'
p5198
tp5199
a(g4735
(S's\r\x00\x00\x00Other Recipes'
tRp5200
I00
S'http://www.web2py.com/book/default/chapter/14'
p5201
tp5202
a(g4735
(S's\r\x00\x00\x00Buy this book'
tRp5203
I00
S'http://stores.lulu.com/web2py'
p5204
tp5205
aasbasbasbasbasbasbasbag69
(g85
g71
NtRp5206
(dp5207
g74
(dp5208
sg83
g4848
sg76
(lp5209
g69
(g90
g71
NtRp5210
(dp5211
g74
(dp5212
sg83
g5206
sg76
(lp5213
g69
(g70
g71
NtRp5214
(dp5215
g74
(dp5216
g82
I2
ssg83
g5210
sg76
(lp5217
g69
(g78
g71
NtRp5218
(dp5219
g74
(dp5220
g82
I1
ssg83
Nsg76
(lp5221
g69
(g85
g71
NtRp5222
(dp5223
g74
(dp5224
sg83
g5218
sg76
(lp5225
g69
(g90
g71
NtRp5226
(dp5227
g74
(dp5228
sg83
g5222
sg76
(lp5229
g69
(g70
g71
NtRp5230
(dp5231
g74
(dp5232
g82
I1
ssg83
g5226
sg76
(lp5233
g4735
(S's\t\x00\x00\x00Community'
tRp5234
asbasbasbag69
(g85
g71
NtRp5235
(dp5236
g74
(dp5237
sg83
g5218
sg76
(lp5238
g69
(g90
g71
NtRp5239
(dp5240
g74
(dp5241
sg83
g5235
sg76
(lp5242
g69
(g70
g71
NtRp5243
(dp5244
g74
(dp5245
g82
I1
ssg83
g5239
sg76
(lp5246
I00
asbasbasbag69
(g85
g71
NtRp5247
(dp5248
g74
(dp5249
sg83
g5218
sg76
(lp5250
g69
(g90
g71
NtRp5251
(dp5252
g74
(dp5253
sg83
g5247
sg76
(lp5254
g69
(g70
g71
NtRp5255
(dp5256
g74
(dp5257
g82
I1
ssg83
g5251
sg76
(lp5258
Nasbasbasbag69
(g85
g71
NtRp5259
(dp5260
g74
(dp5261
sg83
g5218
sg76
(lp5262
g69
(g90
g71
NtRp5263
(dp5264
g74
(dp5265
sg83
g5259
sg76
(lp5266
g69
(g70
g71
NtRp5267
(dp5268
g74
(dp5269
g82
I1
ssg83
g5263
sg76
(lp5270
(lp5271
(g4735
(S's\x06\x00\x00\x00Groups'
tRp5272
I00
S'http://www.web2py.com/examples/default/usergroups'
p5273
tp5274
a(g4735
(S's\x07\x00\x00\x00Twitter'
tRp5275
I00
S'http://twitter.com/web2py'
p5276
tp5277
a(g4735
(S's\t\x00\x00\x00Live Chat'
tRp5278
I00
S'http://webchat.freenode.net/?channels=web2py'
p5279
tp5280
aasbasbasbasbasbasbasbag69
(g85
g71
NtRp5281
(dp5282
g74
(dp5283
sg83
g4848
sg76
(lp5284
g69
(g90
g71
NtRp5285
(dp5286
g74
(dp5287
sg83
g5281
sg76
(lp5288
g69
(g70
g71
NtRp5289
(dp5290
g74
(dp5291
g82
I2
ssg83
g5285
sg76
(lp5292
g69
(g78
g71
NtRp5293
(dp5294
g74
(dp5295
g82
I1
ssg83
Nsg76
(lp5296
g69
(g85
g71
NtRp5297
(dp5298
g74
(dp5299
sg83
g5293
sg76
(lp5300
g69
(g90
g71
NtRp5301
(dp5302
g74
(dp5303
sg83
g5297
sg76
(lp5304
g69
(g70
g71
NtRp5305
(dp5306
g74
(dp5307
g82
I1
ssg83
g5301
sg76
(lp5308
g4735
(S's\x07\x00\x00\x00Plugins'
tRp5309
asbasbasbag69
(g85
g71
NtRp5310
(dp5311
g74
(dp5312
sg83
g5293
sg76
(lp5313
g69
(g90
g71
NtRp5314
(dp5315
g74
(dp5316
sg83
g5310
sg76
(lp5317
g69
(g70
g71
NtRp5318
(dp5319
g74
(dp5320
g82
I1
ssg83
g5314
sg76
(lp5321
I00
asbasbasbag69
(g85
g71
NtRp5322
(dp5323
g74
(dp5324
sg83
g5293
sg76
(lp5325
g69
(g90
g71
NtRp5326
(dp5327
g74
(dp5328
sg83
g5322
sg76
(lp5329
g69
(g70
g71
NtRp5330
(dp5331
g74
(dp5332
g82
I1
ssg83
g5326
sg76
(lp5333
Nasbasbasbag69
(g85
g71
NtRp5334
(dp5335
g74
(dp5336
sg83
g5293
sg76
(lp5337
g69
(g90
g71
NtRp5338
(dp5339
g74
(dp5340
sg83
g5334
sg76
(lp5341
g69
(g70
g71
NtRp5342
(dp5343
g74
(dp5344
g82
I1
ssg83
g5338
sg76
(lp5345
(lp5346
(S'plugin_wiki'
p5347
I00
S'http://web2py.com/examples/default/download'
p5348
tp5349
a(g4735
(S's\r\x00\x00\x00Other Plugins'
tRp5350
I00
g5080
tp5351
a(g4735
(S's\x0e\x00\x00\x00Layout Plugins'
tRp5352
I00
g5083
tp5353
aasbasbasbasbasbasbasbasbasbasbasbasbasbasbasbasbasbasbasbag69
(g85
g71
NtRp5354
(dp5355
g74
(dp5356
sg83
g4201
sg76
(lp5357
g69
(g90
g71
NtRp5358
(dp5359
g74
(dp5360
g94
g95
ssg83
g5354
sg76
(lp5361
S'meta'
p5362
asbag69
(g90
g71
NtRp5363
(dp5364
g74
(dp5365
g101
g102
ssg83
g5354
sg76
(lp5366
S':'
asbag69
(g90
g71
NtRp5367
(dp5368
g74
(dp5369
sg83
g5354
sg76
(lp5370
g69
(g70
g71
NtRp5371
(dp5372
g74
(dp5373
g82
I5
ssg83
g5367
sg76
(lp5374
g69
(g78
g71
NtRp5375
(dp5376
g74
(dp5377
g82
I4
ssg83
Nsg76
(lp5378
g69
(g85
g71
NtRp5379
(dp5380
g74
(dp5381
sg83
g5375
sg76
(lp5382
g69
(g90
g71
NtRp5383
(dp5384
g74
(dp5385
g94
g95
ssg83
g5379
sg76
(lp5386
S'author'
p5387
asbag69
(g90
g71
NtRp5388
(dp5389
g74
(dp5390
g101
g102
ssg83
g5379
sg76
(lp5391
S':'
asbag69
(g90
g71
NtRp5392
(dp5393
g74
(dp5394
sg83
g5379
sg76
(lp5395
g69
(g70
g71
NtRp5396
(dp5397
g74
(dp5398
g82
I4
ssg83
g5392
sg76
(lp5399
S'Your Name <you@example.com>'
p5400
asbasbasbag69
(g85
g71
NtRp5401
(dp5402
g74
(dp5403
sg83
g5375
sg76
(lp5404
g69
(g90
g71
NtRp5405
(dp5406
g74
(dp5407
g94
g95
ssg83
g5401
sg76
(lp5408
S'description'
p5409
asbag69
(g90
g71
NtRp5410
(dp5411
g74
(dp5412
g101
g102
ssg83
g5401
sg76
(lp5413
S':'
asbag69
(g90
g71
NtRp5414
(dp5415
g74
(dp5416
sg83
g5401
sg76
(lp5417
g69
(g70
g71
NtRp5418
(dp5419
g74
(dp5420
g82
I4
ssg83
g5414
sg76
(lp5421
S'a cool new app'
p5422
asbasbasbag69
(g85
g71
NtRp5423
(dp5424
g74
(dp5425
sg83
g5375
sg76
(lp5426
g69
(g90
g71
NtRp5427
(dp5428
g74
(dp5429
g94
g95
ssg83
g5423
sg76
(lp5430
S'generator'
p5431
asbag69
(g90
g71
NtRp5432
(dp5433
g74
(dp5434
g101
g102
ssg83
g5423
sg76
(lp5435
S':'
asbag69
(g90
g71
NtRp5436
(dp5437
g74
(dp5438
sg83
g5423
sg76
(lp5439
g69
(g70
g71
NtRp5440
(dp5441
g74
(dp5442
g82
I4
ssg83
g5436
sg76
(lp5443
S'Web2py Web Framework'
p5444
asbasbasbag69
(g85
g71
NtRp5445
(dp5446
g74
(dp5447
sg83
g5375
sg76
(lp5448
g69
(g90
g71
NtRp5449
(dp5450
g74
(dp5451
g94
g95
ssg83
g5445
sg76
(lp5452
S'keywords'
p5453
asbag69
(g90
g71
NtRp5454
(dp5455
g74
(dp5456
g101
g102
ssg83
g5445
sg76
(lp5457
S':'
asbag69
(g90
g71
NtRp5458
(dp5459
g74
(dp5460
sg83
g5445
sg76
(lp5461
g69
(g70
g71
NtRp5462
(dp5463
g74
(dp5464
g82
I4
ssg83
g5458
sg76
(lp5465
S'web2py, python, framework'
p5466
asbasbasbasbasbasbasbag69
(g85
g71
NtRp5467
(dp5468
g74
(dp5469
sg83
g4201
sg76
(lp5470
g69
(g90
g71
NtRp5471
(dp5472
g74
(dp5473
g94
g95
ssg83
g5467
sg76
(lp5474
S'models_to_run'
p5475
asbag69
(g90
g71
NtRp5476
(dp5477
g74
(dp5478
g101
g102
ssg83
g5467
sg76
(lp5479
S':'
asbag69
(g90
g71
NtRp5480
(dp5481
g74
(dp5482
sg83
g5467
sg76
(lp5483
g69
(g70
g71
NtRp5484
(dp5485
g74
(dp5486
g82
I5
ssg83
g5480
sg76
(lp5487
g69
(g78
g71
NtRp5488
(dp5489
g74
(dp5490
g82
I4
ssg83
Nsg76
(lp5491
g69
(g85
g71
NtRp5492
(dp5493
g74
(dp5494
sg83
g5488
sg76
(lp5495
g69
(g90
g71
NtRp5496
(dp5497
g74
(dp5498
sg83
g5492
sg76
(lp5499
g69
(g70
g71
NtRp5500
(dp5501
g74
(dp5502
g82
I4
ssg83
g5496
sg76
(lp5503
S'^\\w+\\.py$'
p5504
asbasbasbag69
(g85
g71
NtRp5505
(dp5506
g74
(dp5507
sg83
g5488
sg76
(lp5508
g69
(g90
g71
NtRp5509
(dp5510
g74
(dp5511
sg83
g5505
sg76
(lp5512
g69
(g70
g71
NtRp5513
(dp5514
g74
(dp5515
g82
I4
ssg83
g5509
sg76
(lp5516
S'^default/\\w+\\.py$'
p5517
asbasbasbag69
(g85
g71
NtRp5518
(dp5519
g74
(dp5520
sg83
g5488
sg76
(lp5521
g69
(g90
g71
NtRp5522
(dp5523
g74
(dp5524
sg83
g5518
sg76
(lp5525
g69
(g70
g71
NtRp5526
(dp5527
g74
(dp5528
g82
I4
ssg83
g5522
sg76
(lp5529
S'^default/student_info/\\w+\\.py$'
p5530
asbasbasbasbasbasbasbag69
(g85
g71
NtRp5531
(dp5532
g74
(dp5533
sg83
g4201
sg76
(lp5534
g69
(g90
g71
NtRp5535
(dp5536
g74
(dp5537
g94
g95
ssg83
g5531
sg76
(lp5538
S'postprocessing'
p5539
asbag69
(g90
g71
NtRp5540
(dp5541
g74
(dp5542
g101
g102
ssg83
g5531
sg76
(lp5543
S':'
asbag69
(g90
g71
NtRp5544
(dp5545
g74
(dp5546
sg83
g5531
sg76
(lp5547
g69
(g70
g71
NtRp5548
(dp5549
g74
(dp5550
g82
I5
ssg83
g5544
sg76
(lp5551
g69
(g78
g71
NtRp5552
(dp5553
g74
(dp5554
g82
I4
ssg83
Nsg76
(lp5555
sbasbasbasbag69
(g85
g71
NtRp5556
(dp5557
g74
(dp5558
sg83
g4201
sg76
(lp5559
g69
(g90
g71
NtRp5560
(dp5561
g74
(dp5562
g94
g95
ssg83
g5556
sg76
(lp5563
S'session_cookie_expires'
p5564
asbag69
(g90
g71
NtRp5565
(dp5566
g74
(dp5567
g101
g102
ssg83
g5556
sg76
(lp5568
S':'
asbag69
(g90
g71
NtRp5569
(dp5570
g74
(dp5571
sg83
g5556
sg76
(lp5572
g69
(g70
g71
NtRp5573
(dp5574
g74
(dp5575
g82
I5
ssg83
g5569
sg76
(lp5576
S'None'
p5577
asbasbasbag69
(g85
g71
NtRp5578
(dp5579
g74
(dp5580
sg83
g4201
sg76
(lp5581
g69
(g90
g71
NtRp5582
(dp5583
g74
(dp5584
g94
g95
ssg83
g5578
sg76
(lp5585
S'session_data_name'
p5586
asbag69
(g90
g71
NtRp5587
(dp5588
g74
(dp5589
g101
g102
ssg83
g5578
sg76
(lp5590
S':'
asbag69
(g90
g71
NtRp5591
(dp5592
g74
(dp5593
sg83
g5578
sg76
(lp5594
g69
(g70
g71
NtRp5595
(dp5596
g74
(dp5597
g82
I5
ssg83
g5591
sg76
(lp5598
S'session_data_ggg'
p5599
asbasbasbag69
(g85
g71
NtRp5600
(dp5601
g74
(dp5602
sg83
g4201
sg76
(lp5603
g69
(g90
g71
NtRp5604
(dp5605
g74
(dp5606
g94
g95
ssg83
g5600
sg76
(lp5607
S'session_file'
p5608
asbag69
(g90
g71
NtRp5609
(dp5610
g74
(dp5611
g101
g102
ssg83
g5600
sg76
(lp5612
S':'
asbag69
(g90
g71
NtRp5613
(dp5614
g74
(dp5615
sg83
g5600
sg76
(lp5616
g69
(g70
g71
NtRp5617
(dp5618
g74
(dp5619
g82
I5
ssg83
g5613
sg76
(lp5620
S"<open file '/home/saurabh/web2py/applications/ggg/sessions/127.0.0.1-929b9b0c-f53b-49f1-97f4-7c5cb217c3d8', mode 'rb+' at 0x7fdd1c10a8a0>"
p5621
asbasbasbag69
(g85
g71
NtRp5622
(dp5623
g74
(dp5624
sg83
g4201
sg76
(lp5625
g69
(g90
g71
NtRp5626
(dp5627
g74
(dp5628
g94
g95
ssg83
g5622
sg76
(lp5629
S'session_filename'
p5630
asbag69
(g90
g71
NtRp5631
(dp5632
g74
(dp5633
g101
g102
ssg83
g5622
sg76
(lp5634
S':'
asbag69
(g90
g71
NtRp5635
(dp5636
g74
(dp5637
sg83
g5622
sg76
(lp5638
g69
(g70
g71
NtRp5639
(dp5640
g74
(dp5641
g82
I5
ssg83
g5635
sg76
(lp5642
S'/home/saurabh/web2py/applications/ggg/sessions/127.0.0.1-929b9b0c-f53b-49f1-97f4-7c5cb217c3d8'
p5643
asbasbasbag69
(g85
g71
NtRp5644
(dp5645
g74
(dp5646
sg83
g4201
sg76
(lp5647
g69
(g90
g71
NtRp5648
(dp5649
g74
(dp5650
g94
g95
ssg83
g5644
sg76
(lp5651
S'session_id'
p5652
asbag69
(g90
g71
NtRp5653
(dp5654
g74
(dp5655
g101
g102
ssg83
g5644
sg76
(lp5656
S':'
asbag69
(g90
g71
NtRp5657
(dp5658
g74
(dp5659
sg83
g5644
sg76
(lp5660
g69
(g70
g71
NtRp5661
(dp5662
g74
(dp5663
g82
I5
ssg83
g5657
sg76
(lp5664
g487
asbasbasbag69
(g85
g71
NtRp5665
(dp5666
g74
(dp5667
sg83
g4201
sg76
(lp5668
g69
(g90
g71
NtRp5669
(dp5670
g74
(dp5671
g94
g95
ssg83
g5665
sg76
(lp5672
S'session_id_name'
p5673
asbag69
(g90
g71
NtRp5674
(dp5675
g74
(dp5676
g101
g102
ssg83
g5665
sg76
(lp5677
S':'
asbag69
(g90
g71
NtRp5678
(dp5679
g74
(dp5680
sg83
g5665
sg76
(lp5681
g69
(g70
g71
NtRp5682
(dp5683
g74
(dp5684
g82
I5
ssg83
g5678
sg76
(lp5685
g4258
asbasbasbag69
(g85
g71
NtRp5686
(dp5687
g74
(dp5688
sg83
g4201
sg76
(lp5689
g69
(g90
g71
NtRp5690
(dp5691
g74
(dp5692
g94
g95
ssg83
g5686
sg76
(lp5693
S'session_locked'
p5694
asbag69
(g90
g71
NtRp5695
(dp5696
g74
(dp5697
g101
g102
ssg83
g5686
sg76
(lp5698
S':'
asbag69
(g90
g71
NtRp5699
(dp5700
g74
(dp5701
sg83
g5686
sg76
(lp5702
g69
(g70
g71
NtRp5703
(dp5704
g74
(dp5705
g82
I5
ssg83
g5699
sg76
(lp5706
g1867
asbasbasbag69
(g85
g71
NtRp5707
(dp5708
g74
(dp5709
sg83
g4201
sg76
(lp5710
g69
(g90
g71
NtRp5711
(dp5712
g74
(dp5713
g94
g95
ssg83
g5707
sg76
(lp5714
S'session_new'
p5715
asbag69
(g90
g71
NtRp5716
(dp5717
g74
(dp5718
g101
g102
ssg83
g5707
sg76
(lp5719
S':'
asbag69
(g90
g71
NtRp5720
(dp5721
g74
(dp5722
sg83
g5707
sg76
(lp5723
g69
(g70
g71
NtRp5724
(dp5725
g74
(dp5726
g82
I5
ssg83
g5720
sg76
(lp5727
g112
asbasbasbag69
(g85
g71
NtRp5728
(dp5729
g74
(dp5730
sg83
g4201
sg76
(lp5731
g69
(g90
g71
NtRp5732
(dp5733
g74
(dp5734
g94
g95
ssg83
g5728
sg76
(lp5735
S'session_storage_type'
p5736
asbag69
(g90
g71
NtRp5737
(dp5738
g74
(dp5739
g101
g102
ssg83
g5728
sg76
(lp5740
S':'
asbag69
(g90
g71
NtRp5741
(dp5742
g74
(dp5743
sg83
g5728
sg76
(lp5744
g69
(g70
g71
NtRp5745
(dp5746
g74
(dp5747
g82
I5
ssg83
g5741
sg76
(lp5748
g3631
asbasbasbag69
(g85
g71
NtRp5749
(dp5750
g74
(dp5751
sg83
g4201
sg76
(lp5752
g69
(g90
g71
NtRp5753
(dp5754
g74
(dp5755
g94
g95
ssg83
g5749
sg76
(lp5756
S'status'
p5757
asbag69
(g90
g71
NtRp5758
(dp5759
g74
(dp5760
g101
g102
ssg83
g5749
sg76
(lp5761
S':'
asbag69
(g90
g71
NtRp5762
(dp5763
g74
(dp5764
sg83
g5749
sg76
(lp5765
g69
(g70
g71
NtRp5766
(dp5767
g74
(dp5768
g82
I5
ssg83
g5762
sg76
(lp5769
S'200'
p5770
asbasbasbag69
(g85
g71
NtRp5771
(dp5772
g74
(dp5773
sg83
g4201
sg76
(lp5774
g69
(g90
g71
NtRp5775
(dp5776
g74
(dp5777
g94
g95
ssg83
g5771
sg76
(lp5778
S'subtitle'
p5779
asbag69
(g90
g71
NtRp5780
(dp5781
g74
(dp5782
g101
g102
ssg83
g5771
sg76
(lp5783
S':'
asbag69
(g90
g71
NtRp5784
(dp5785
g74
(dp5786
sg83
g5771
sg76
(lp5787
g69
(g70
g71
NtRp5788
(dp5789
g74
(dp5790
g82
I5
ssg83
g5784
sg76
(lp5791
g4735
(S's\r\x00\x00\x00customize me!'
tRp5792
asbasbasbag69
(g85
g71
NtRp5793
(dp5794
g74
(dp5795
sg83
g4201
sg76
(lp5796
g69
(g90
g71
NtRp5797
(dp5798
g74
(dp5799
g94
g95
ssg83
g5793
sg76
(lp5800
S'title'
p5801
asbag69
(g90
g71
NtRp5802
(dp5803
g74
(dp5804
g101
g102
ssg83
g5793
sg76
(lp5805
S':'
asbag69
(g90
g71
NtRp5806
(dp5807
g74
(dp5808
sg83
g5793
sg76
(lp5809
g69
(g70
g71
NtRp5810
(dp5811
g74
(dp5812
g82
I5
ssg83
g5806
sg76
(lp5813
S'Ggg'
p5814
asbasbasbag69
(g85
g71
NtRp5815
(dp5816
g74
(dp5817
sg83
g4201
sg76
(lp5818
g69
(g90
g71
NtRp5819
(dp5820
g74
(dp5821
g94
g95
ssg83
g5815
sg76
(lp5822
S'view'
p5823
asbag69
(g90
g71
NtRp5824
(dp5825
g74
(dp5826
g101
g102
ssg83
g5815
sg76
(lp5827
S':'
asbag69
(g90
g71
NtRp5828
(dp5829
g74
(dp5830
sg83
g5815
sg76
(lp5831
g69
(g70
g71
NtRp5832
(dp5833
g74
(dp5834
g82
I5
ssg83
g5828
sg76
(lp5835
S'default/student_info.html'
p5836
asbasbasbasbasbsS'locals'
p5837
(dp5838
S'name'
p5839
S"'marks'"
p5840
sS'fields'
p5841
S"{'address': 'sd', 'courses_taken': '1', 'date_of_birth': datetime.date(2013, 3, 11), 'email': 'paari@iiit.ac.in', 'fathers_name': 'sd', 'institution_name': 'd', 'marks': 0, 'mothers_name': 'sd'}"
p5842
sS'self'
p5843
S'<Table student (id,email,institution_name,course...hers_name,mothers_name,address,coun,final_marks)>'
p5844
sS'update'
p5845
g112
sS'value'
p5846
S"'sd'"
p5847
sS'field'
p5848
S'<gluon.dal.Field object>'
p5849
sS'new_fields'
p5850
S"{'mothers_name': (<gluon.dal.Field object>, 'sd')}"
p5851
sssS'traceback'
p5852
S'Traceback (most recent call last):\n  File "/home/saurabh/web2py/gluon/restricted.py", line 212, in restricted\n    exec ccode in environment\n  File "/home/saurabh/web2py/applications/ggg/controllers/default.py", line 182, in <module>\n  File "/home/saurabh/web2py/gluon/globals.py", line 193, in <lambda>\n    self._caller = lambda f: f()\n  File "/home/saurabh/web2py/gluon/tools.py", line 2929, in f\n    return action(*a, **b)\n  File "/home/saurabh/web2py/applications/ggg/controllers/default.py", line 95, in student_info\n    if (form.accepts(request,session)):\n  File "/home/saurabh/web2py/gluon/sqlhtml.py", line 1486, in accepts\n    self.vars.id = self.table.insert(**fields)\n  File "/home/saurabh/web2py/gluon/dal.py", line 7918, in insert\n    ret =  self._db._adapter.insert(self,self._listify(fields))\n  File "/home/saurabh/web2py/gluon/dal.py", line 7856, in _listify\n    \'Field %s does not belong to the table\' % name)\nSyntaxError: Field marks does not belong to the table\n'
p5853
s.